 vrad

 Timestamp is 6492dbfd (Wed Jun 21 04:16:13 2023)

 Preferred load address is 00400000

 Start         Length     Name                   Class
 0001:00000000 000504caH .text$mn                CODE
 0001:000504ca 000001b0H .text$x                 CODE
 0002:00000000 00000184H .idata$5                DATA
 0002:00000184 0000000cH .00cfg                  DATA
 0002:00000190 00000004H .CRT$XCA                DATA
 0002:00000194 00000004H .CRT$XCAA               DATA
 0002:00000198 00000004H .CRT$XCZ                DATA
 0002:0000019c 00000004H .CRT$XIA                DATA
 0002:000001a0 00000004H .CRT$XIAA               DATA
 0002:000001a4 00000004H .CRT$XIAC               DATA
 0002:000001a8 00000010H .CRT$XIC                DATA
 0002:000001b8 00000004H .CRT$XIZ                DATA
 0002:000001bc 00000004H .CRT$XPA                DATA
 0002:000001c0 00000008H .CRT$XPX                DATA
 0002:000001c8 00000004H .CRT$XPXA               DATA
 0002:000001cc 00000004H .CRT$XPZ                DATA
 0002:000001d0 00000004H .CRT$XTA                DATA
 0002:000001d4 0000000cH .CRT$XTZ                DATA
 0002:000001d8 00000000H .gfids$y                DATA
 0002:000001e0 00007920H .rdata                  DATA
 0002:00007b00 00000040H .rdata$CastGuardVftablesA DATA
 0002:00007b40 00000040H .rdata$CastGuardVftablesC DATA
 0002:00007b80 0000033cH .rdata$r                DATA
 0002:00007ebc 00000050H .rdata$sxdata           DATA
 0002:00007f0c 00000134H .rdata$voltmd           DATA
 0002:00008040 000003b8H .rdata$zzzdbg           DATA
 0002:000083f8 00000004H .rtc$IAA                DATA
 0002:000083fc 00000004H .rtc$IZZ                DATA
 0002:00008400 00000004H .rtc$TAA                DATA
 0002:00008404 00000004H .rtc$TZZ                DATA
 0002:00008408 00000c48H .xdata$x                DATA
 0002:00009050 0000004cH .edata                  DATA
 0002:0000909c 00000028H .idata$2                DATA
 0002:000090c4 00000014H .idata$3                DATA
 0002:000090d8 00000184H .idata$4                DATA
 0002:0000925c 0000070cH .idata$6                DATA
 0003:00000000 000008e0H .data                   DATA
 0003:000008e0 00000080H .data$r                 DATA
 0003:00000960 000000b8H .data$rs                DATA
 0003:00000a18 00001cd4H .bss                    DATA
 0004:00000000 00000060H .rsrc$01                DATA
 0004:00000060 00000180H .rsrc$02                DATA

  Address         Publics by Value              Rva+Base       Lib:Object

 0000:00000000       ___AbsoluteZero            00000000     <absolute>
 0000:00000000       ___arm64x_extra_rfe_table  00000000     <absolute>
 0000:00000000       ___arm64x_extra_rfe_table_size 00000000     <absolute>
 0000:00000000       ___arm64x_native_entrypoint 00000000     <absolute>
 0000:00000000       ___arm64x_redirection_metadata 00000000     <absolute>
 0000:00000000       ___arm64x_redirection_metadata_count 00000000     <absolute>
 0000:00000000       ___dynamic_value_reloc_table 00000000     <absolute>
 0000:00000000       ___enclave_config          00000000     <absolute>
 0000:00000000       ___guard_check_icall_a64n_fptr 00000000     <absolute>
 0000:00000000       ___guard_eh_cont_count     00000000     <absolute>
 0000:00000000       ___guard_eh_cont_table     00000000     <absolute>
 0000:00000000       ___guard_fids_count        00000000     <absolute>
 0000:00000000       ___guard_fids_table        00000000     <absolute>
 0000:00000000       ___guard_iat_count         00000000     <absolute>
 0000:00000000       ___guard_iat_table         00000000     <absolute>
 0000:00000000       ___guard_longjmp_count     00000000     <absolute>
 0000:00000000       ___guard_longjmp_table     00000000     <absolute>
 0000:00000000       ___hybrid_auxiliary_iat    00000000     <absolute>
 0000:00000000       ___hybrid_auxiliary_iat_copy 00000000     <absolute>
 0000:00000000       ___hybrid_code_map         00000000     <absolute>
 0000:00000000       ___hybrid_code_map_count   00000000     <absolute>
 0000:00000000       ___x64_code_ranges_to_entry_points 00000000     <absolute>
 0000:00000000       ___x64_code_ranges_to_entry_points_count 00000000     <absolute>
 0000:00000000       __except_list              00000000     <absolute>
 0000:00000014       ___safe_se_handler_count   00000014     <absolute>
 0000:00000100       ___guard_flags             00000100     <absolute>
 0000:00000000       ___ImageBase               00400000     <linker-defined>
 0001:00000000       ??_H@YGXPAXIIP6EPAX0@Z@Z   00401000 f i StdAfx.obj
 0001:00000030       ?GetLastErrorString@@YAPADXZ 00401030 f   vrad_launcher.obj
 0001:00000090       ?MakeFullPath@@YAXPBDPADH@Z 00401090 f   vrad_launcher.obj
 0001:000000f0       ___local_stdio_printf_options 004010f0 f i vrad_launcher.obj
 0001:00000100       _main                      00401100 f   vrad_launcher.obj
 0001:000003f0       _printf                    004013f0 f i vrad_launcher.obj
 0001:0000041e       _GetLastError@0            0040141e f   kernel32:KERNEL32.dll
 0001:00000424       _LocalFree@4               00401424 f   kernel32:KERNEL32.dll
 0001:0000042a       _FormatMessageA@28         0040142a f   kernel32:KERNEL32.dll
 0001:00000430       _CommandLine_Tier0         00401430 f   tier0:tier0.dll
 0001:00000440       ??0InterfaceReg@@QAE@P6APAXXZPBD@Z 00401440 f   tier1:interface.obj
 0001:00000470       ?Sys_GetFactory@@YAP6APAXPBDPAH@Z0@Z 00401470 f   tier1:interface.obj
 0001:00000490       ?Sys_GetFactory@@YAP6APAXPBDPAH@ZPAVCSysModule@@@Z 00401490 f   tier1:interface.obj
 0001:000004b0       ?Sys_GetFactoryThis@@YAP6APAXPBDPAH@ZXZ 004014b0 f   tier1:interface.obj
 0001:000004c0       ?Sys_LoadInterface@@YA_NPBD0PAPAVCSysModule@@PAPAX@Z 004014c0 f   tier1:interface.obj
 0001:00000670       ?Sys_LoadLibrary@@YAPAUHINSTANCE__@@PBD@Z 00401670 f   tier1:interface.obj
 0001:00000700       ?Sys_LoadModule@@YAPAVCSysModule@@PBD@Z 00401700 f   tier1:interface.obj
 0001:00000840       ?Sys_UnloadModule@@YAXPAVCSysModule@@@Z 00401840 f   tier1:interface.obj
 0001:00000860       _CreateInterface           00401860 f   tier1:interface.obj
 0001:000008d0       ?AddToTail@?$CUtlVector@PADV?$CUtlMemory@PAD@@@@QAEHABQAD@Z 004018d0 f i tier1:strtools.obj
 0001:00000980       ?AllocString@@YAPADPBDH@Z  00401980 f   tier1:strtools.obj
 0001:00000a60       ?Grow@?$CUtlMemory@PAD@@QAEXH@Z 00401a60 f i tier1:strtools.obj
 0001:00000ad0       ?GrowVector@?$CUtlVector@PADV?$CUtlMemory@PAD@@@@IAEXH@Z 00401ad0 f i tier1:strtools.obj
 0001:00000b60       ?InsertBefore@?$CUtlVector@PADV?$CUtlMemory@PAD@@@@QAEHHABQAD@Z 00401b60 f i tier1:strtools.obj
 0001:00000c10       ?IsExternallyAllocated@?$CUtlMemory@PAD@@QBE_NXZ 00401c10 f i tier1:strtools.obj
 0001:00000c20       ?Purge@?$CUtlMemory@PAD@@QAEXXZ 00401c20 f i tier1:strtools.obj
 0001:00000c50       ?RemoveAll@?$CUtlVector@PADV?$CUtlMemory@PAD@@@@QAEXXZ 00401c50 f i tier1:strtools.obj
 0001:00000c60       ?ShiftElementsRight@?$CUtlVector@PADV?$CUtlMemory@PAD@@@@IAEXHH@Z 00401c60 f i tier1:strtools.obj
 0001:00000ca0       ?V_AppendSlash@@YAXPADH@Z  00401ca0 f   tier1:strtools.obj
 0001:00000cf0       ?V_ComposeFileName@@YAXPBD0PADH@Z 00401cf0 f   tier1:strtools.obj
 0001:00000df0       ?V_DefaultExtension@@YAXPADPBDH@Z 00401df0 f   tier1:strtools.obj
 0001:00000ea0       ?V_ExtractFileExtension@@YAXPBDPADH@Z 00401ea0 f   tier1:strtools.obj
 0001:00000f10       ?V_ExtractFilePath@@YA_NPBDPADH@Z 00401f10 f   tier1:strtools.obj
 0001:00000f90       ?V_FileBase@@YAXPBDPADH@Z  00401f90 f   tier1:strtools.obj
 0001:00001050       ?V_FixSlashes@@YAXPADD@Z   00402050 f   tier1:strtools.obj
 0001:00001080       ?V_GetFileExtension@@YAPBDPBD@Z 00402080 f   tier1:strtools.obj
 0001:000010d0       ?V_IsAbsolutePath@@YA_NPBD@Z 004020d0 f   tier1:strtools.obj
 0001:00001100       ?V_MakeAbsolutePath@@YAXPADHPBD1@Z 00402100 f   tier1:strtools.obj
 0001:000012a0       ?V_RemoveDotSlashes@@YA_NPAD@Z 004022a0 f   tier1:strtools.obj
 0001:000013c0       ?V_SetExtension@@YAXPADPBDH@Z 004023c0 f   tier1:strtools.obj
 0001:000014b0       ?V_SplitString2@@YAXPBDPAPBDHAAV?$CUtlVector@PADV?$CUtlMemory@PAD@@@@@Z 004024b0 f   tier1:strtools.obj
 0001:000016f0       ?V_SplitString@@YAXPBD0AAV?$CUtlVector@PADV?$CUtlMemory@PAD@@@@@Z 004026f0 f   tier1:strtools.obj
 0001:00001710       ?V_StrLeft@@YAXPBDHPADH@Z  00402710 f   tier1:strtools.obj
 0001:00001740       ?V_StrRight@@YAXPBDHPADH@Z 00402740 f   tier1:strtools.obj
 0001:000017c0       ?V_StrSlice@@YAXPBDHHPADH@Z 004027c0 f   tier1:strtools.obj
 0001:00001860       ?V_StrSubst@@YA_NPBD00PADH_N@Z 00402860 f   tier1:strtools.obj
 0001:00001980       ?V_StripExtension@@YAXPBDPADH@Z 00402980 f   tier1:strtools.obj
 0001:00001a20       ?V_StripFilename@@YAXPAD@Z 00402a20 f   tier1:strtools.obj
 0001:00001a60       ?V_StripLastDir@@YA_NPADH@Z 00402a60 f   tier1:strtools.obj
 0001:00001b10       ?V_StripTrailingSlash@@YAXPAD@Z 00402b10 f   tier1:strtools.obj
 0001:00001b50       ?V_UTF8ToUnicode@@YAHPBDPA_WH@Z 00402b50 f   tier1:strtools.obj
 0001:00001ba0       ?V_UnicodeToUTF8@@YAHPB_WPADH@Z 00402ba0 f   tier1:strtools.obj
 0001:00001bf0       ?V_UnqualifiedFileName@@YAPBDPBD@Z 00402bf0 f   tier1:strtools.obj
 0001:00001c30       ?V_atof@@YAMPBD@Z          00402c30 f   tier1:strtools.obj
 0001:00001e50       ?V_atoi@@YAHPBD@Z          00402e50 f   tier1:strtools.obj
 0001:00001f20       ?V_binarytohex@@YAXPBEHPADH@Z 00402f20 f   tier1:strtools.obj
 0001:00001ff0       ?V_hextobinary@@YAXPBDHPAEH@Z 00402ff0 f   tier1:strtools.obj
 0001:000020b0       ?V_normalizeFloatString@@YAXPAD@Z 004030b0 f   tier1:strtools.obj
 0001:00002110       ?V_pretifymem@@YAPADMH_N@Z 00403110 f   tier1:strtools.obj
 0001:000022d0       ?V_pretifynum@@YAPAD_J@Z   004032d0 f   tier1:strtools.obj
 0001:00002610       ?V_snprintf@@YAHPADHPBDZZ  00403610 f   tier1:strtools.obj
 0001:00002670       ?V_strcasecmp@@YAHPBD0@Z   00403670 f   tier1:strtools.obj
 0001:000026b0       ?V_stristr@@YAPADPADPBD@Z  004036b0 f   tier1:strtools.obj
 0001:000026e0       ?V_stristr@@YAPBDPBD0@Z    004036e0 f   tier1:strtools.obj
 0001:000027b0       ?V_strncasecmp@@YAHPBD0H@Z 004037b0 f   tier1:strtools.obj
 0001:00002840       ?V_strncat@@YAPADPADPBDIH@Z 00403840 f   tier1:strtools.obj
 0001:000028d0       ?V_strnchr@@YAPBDPBDDH@Z   004038d0 f   tier1:strtools.obj
 0001:00002900       ?V_strncmp@@YAHPBD0H@Z     00403900 f   tier1:strtools.obj
 0001:00002960       ?V_strncpy@@YAXPADPBDH@Z   00403960 f   tier1:strtools.obj
 0001:000029a0       ?V_strnicmp@@YAHPBD0H@Z    004039a0 f   tier1:strtools.obj
 0001:000029d0       ?V_strnistr@@YAPBDPBD0H@Z  004039d0 f   tier1:strtools.obj
 0001:00002ac0       ?V_strnlwr@@YAPADPADI@Z    00403ac0 f   tier1:strtools.obj
 0001:00002b00       ?V_strtowcs@@YAXPBDHPA_WH@Z 00403b00 f   tier1:strtools.obj
 0001:00002b30       ?V_vsnprintf@@YAHPADHPBD0@Z 00403b30 f   tier1:strtools.obj
 0001:00002b90       ?V_wcsncpy@@YAXPA_WPB_WH@Z 00403b90 f   tier1:strtools.obj
 0001:00002bd0       ?V_wcstostr@@YAXPB_WHPADH@Z 00403bd0 f   tier1:strtools.obj
 0001:00002c00       ?_V_memcmp@@YAHPBDHPBX1H@Z 00403c00 f   tier1:strtools.obj
 0001:00002c90       ?_V_memcpy@@YAXPBDHPAXPBXH@Z 00403c90 f   tier1:strtools.obj
 0001:00002cc0       ?_V_memmove@@YAXPBDHPAXPBXH@Z 00403cc0 f   tier1:strtools.obj
 0001:00002cf0       ?_V_memset@@YAXPBDHPAXHH@Z 00403cf0 f   tier1:strtools.obj
 0001:00002d20       ?_V_strcmp@@YAHPBDH00@Z    00403d20 f   tier1:strtools.obj
 0001:00002d80       ?_V_strcpy@@YAXPBDHPAD0@Z  00403d80 f   tier1:strtools.obj
 0001:00002dc0       ?_V_stricmp@@YAHPBDH00@Z   00403dc0 f   tier1:strtools.obj
 0001:00002df0       ?_V_strlen@@YAHPBDH0@Z     00403df0 f   tier1:strtools.obj
 0001:00002e20       ?_V_strlower@@YAPADPBDHPAD@Z 00403e20 f   tier1:strtools.obj
 0001:00002e40       ?_V_strrchr@@YAPADPBDH0D@Z 00403e40 f   tier1:strtools.obj
 0001:00002e90       ?_V_strstr@@YAPADPBDH00@Z  00403e90 f   tier1:strtools.obj
 0001:00002ec0       ?_V_strupr@@YAPADPBDHPAD@Z 00403ec0 f   tier1:strtools.obj
 0001:00002ee0       ?_V_wcscmp@@YAHPBDHPB_W1@Z 00403ee0 f   tier1:strtools.obj
 0001:00002f20       ?_V_wcslen@@YAHPBDHPB_W@Z  00403f20 f   tier1:strtools.obj
 0001:00003192       ?configure_argv@__scrt_narrow_argv_policy@@SAHXZ 00404192 f i LIBCMT:exe_main.obj
 0001:0000319f       ?initialize_environment@__scrt_narrow_environment_policy@@SAHXZ 0040419f f i LIBCMT:exe_main.obj
 0001:000031c8       ?set_app_type@__scrt_main_policy@@SAXXZ 004041c8 f i LIBCMT:exe_main.obj
 0001:000031d1       ?set_commode@__scrt_file_policy@@SAXXZ 004041d1 f i LIBCMT:exe_main.obj
 0001:000031e2       ?set_fmode@__scrt_file_policy@@SAXXZ 004041e2 f i LIBCMT:exe_main.obj
 0001:000031ef       _mainCRTStartup            004041ef f   LIBCMT:exe_main.obj
 0001:000031f9       ___raise_securityfailure   004041f9 f   LIBCMT:gs_report.obj
 0001:00003221       ___report_gsfailure        00404221 f   LIBCMT:gs_report.obj
 0001:0000331b       ___report_rangecheckfailure 0040431b f   LIBCMT:gs_report.obj
 0001:00003327       ___report_securityfailure  00404327 f   LIBCMT:gs_report.obj
 0001:000033f6       ___report_securityfailureEx 004043f6 f   LIBCMT:gs_report.obj
 0001:0000350b       @__security_check_cookie@4 0040450b f   LIBCMT:secchk.obj
 0001:00003519       ??_U@YAPAXI@Z              00404519 f   LIBCMT:new_array.obj
 0001:00003530       __alldiv                   00404530 f   LIBCMT:lldiv.obj
 0001:000035e0       __allmul                   004045e0 f   LIBCMT:llmul.obj
 0001:00003620       __allrem                   00404620 f   LIBCMT:llrem.obj
 0001:00003749       _NtCurrentTeb              00404749 f i LIBCMT:utility.obj
 0001:00003750       ___scrt_acquire_startup_lock 00404750 f   LIBCMT:utility.obj
 0001:00003782       ___scrt_dllmain_after_initialize_c 00404782 f   LIBCMT:utility.obj
 0001:000037ad       ___scrt_dllmain_before_initialize_c 004047ad f   LIBCMT:utility.obj
 0001:000037bb       ___scrt_dllmain_crt_thread_attach 004047bb f   LIBCMT:utility.obj
 0001:000037da       ___scrt_dllmain_crt_thread_detach 004047da f   LIBCMT:utility.obj
 0001:000037e7       ___scrt_dllmain_exception_filter 004047e7 f   LIBCMT:utility.obj
 0001:0000381b       ___scrt_dllmain_uninitialize_c 0040481b f   LIBCMT:utility.obj
 0001:0000383e       ___scrt_dllmain_uninitialize_critical 0040483e f   LIBCMT:utility.obj
 0001:0000384b       ___scrt_initialize_crt     0040484b f   LIBCMT:utility.obj
 0001:00003884       ___scrt_initialize_onexit_tables 00404884 f   LIBCMT:utility.obj
 0001:0000390b       ___scrt_is_nonwritable_in_current_image 0040490b f   LIBCMT:utility.obj
 0001:0000399f       ___scrt_release_startup_lock 0040499f f   LIBCMT:utility.obj
 0001:000039bc       ___scrt_uninitialize_crt   004049bc f   LIBCMT:utility.obj
 0001:000039e4       __onexit                   004049e4 f   LIBCMT:utility.obj
 0001:00003a11       _at_quick_exit             00404a11 f   LIBCMT:utility.obj
 0001:00003a34       _atexit                    00404a34 f   LIBCMT:utility.obj
 0001:00003a96       ___security_init_cookie    00404a96 f   LIBCMT:gs_support.obj
 0001:00003ae1       __matherr                  00404ae1 f   LIBCMT:matherr.obj
 0001:00003ae4       __get_startup_argv_mode    00404ae4 f   LIBCMT:argv_mode.obj
 0001:00003ae8       __get_startup_commit_mode  00404ae8 f   LIBCMT:commit_mode.obj
 0001:00003aeb       __get_startup_file_mode    00404aeb f   LIBCMT:file_mode.obj
 0001:00003af1       __get_startup_new_mode     00404af1 f   LIBCMT:new_mode.obj
 0001:00003af4       __get_startup_thread_locale_mode 00404af4 f   LIBCMT:thread_locale.obj
 0001:00003af7       ?__scrt_initialize_type_info@@YAXXZ 00404af7 f   LIBCMT:tncleanup.obj
 0001:00003b03       ?__scrt_uninitialize_type_info@@YAXXZ 00404b03 f   LIBCMT:tncleanup.obj
 0001:00003b0f       __should_initialize_environment 00404b0f f   LIBCMT:env_mode.obj
 0001:00003b12       __initialize_default_precision 00404b12 f   LIBCMT:default_precision.obj
 0001:00003b33       __initialize_invalid_parameter_handler 00404b33 f   LIBCMT:invalid_parameter_handler.obj
 0001:00003b36       __initialize_denormal_control 00404b36 f   LIBCMT:denormal_control.obj
 0001:00003b39       ___local_stdio_scanf_options 00404b39 f i LIBCMT:default_local_stdio_options.obj
 0001:00003b3f       ___scrt_initialize_default_local_stdio_options 00404b3f f   LIBCMT:default_local_stdio_options.obj
 0001:00003b5c       ___scrt_is_user_matherr_present 00404b5c f   LIBCMT:matherr_detection.obj
 0001:00003b68       ___scrt_get_dyn_tls_init_callback 00404b68 f   LIBCMT:dyn_tls_init.obj
 0001:00003b6e       ___scrt_get_dyn_tls_dtor_callback 00404b6e f   LIBCMT:dyn_tls_dtor.obj
 0001:00003b74       ___scrt_fastfail           00404b74 f   LIBCMT:utility_desktop.obj
 0001:00003c8f       ___scrt_get_show_window_mode 00404c8f f   LIBCMT:utility_desktop.obj
 0001:00003cc0       ___scrt_initialize_mta     00404cc0 f   LIBCMT:utility_desktop.obj
 0001:00003cc5       ___scrt_initialize_winrt   00404cc5 f   LIBCMT:utility_desktop.obj
 0001:00003cc8       ___scrt_is_managed_app     00404cc8 f   LIBCMT:utility_desktop.obj
 0001:00003d0a       ___scrt_set_unhandled_exception_filter 00404d0a f   LIBCMT:utility_desktop.obj
 0001:00003d16       ___scrt_exe_initialize_mta 00404d16 f   LIBCMT:utility_desktop.obj
 0001:00003d16       ___scrt_stub_for_initialize_mta 00404d16 f   LIBCMT:utility_desktop.obj
 0001:00003d19       ___scrt_unhandled_exception_filter@4 00404d19 f   LIBCMT:utility_desktop.obj
 0001:00003d6f       __crt_debugger_hook        00404d6f f   LIBCMT:utility_desktop.obj
 0001:00003d77       __RTC_Initialize           00404d77 f   LIBCMT:initsect.obj
 0001:00003da3       __RTC_Terminate            00404da3 f   LIBCMT:initsect.obj
 0001:00003dd0       __SEH_prolog4              00404dd0 f   LIBCMT:sehprolg4.obj
 0001:00003e20       __SEH_epilog4              00404e20 f   LIBCMT:sehprolg4.obj
 0001:00003e34       @_guard_check_icall_nop@4  00404e34 f i LIBCMT:guard_support.obj
 0001:00003e37       _ReadNoFence               00404e37 f i LIBCMT:guard_support.obj
 0001:00003e41       _ReadPointerNoFence        00404e41 f i LIBCMT:guard_support.obj
 0001:00003e4b       ___castguard_check_failure_debugbreak 00404e4b f i LIBCMT:guard_support.obj
 0001:00003e66       ___castguard_check_failure_fastfail 00404e66 f i LIBCMT:guard_support.obj
 0001:00003e85       ___castguard_check_failure_nop 00404e85 f i LIBCMT:guard_support.obj
 0001:00003e88       ___castguard_check_failure_os_handled 00404e88 f i LIBCMT:guard_support.obj
 0001:00003ee4       ___castguard_slow_path_check_debugbreak 00404ee4 f i LIBCMT:guard_support.obj
 0001:00003f11       ___castguard_slow_path_check_fastfail 00404f11 f i LIBCMT:guard_support.obj
 0001:00003f42       ___castguard_slow_path_check_nop 00404f42 f i LIBCMT:guard_support.obj
 0001:00003f45       ___castguard_slow_path_check_os_handled 00404f45 f i LIBCMT:guard_support.obj
 0001:00003fa0       __guard_icall_checks_enforced 00404fa0 f i LIBCMT:guard_support.obj
 0001:00003fb2       ??2@YAPAXI@Z               00404fb2 f   LIBCMT:new_scalar.obj
 0001:00003fe2       ___isa_available_init      00404fe2 f   LIBCMT:cpu_disp.obj
 0001:000041b6       ___scrt_is_ucrt_dll_in_use 004051b6 f   LIBCMT:ucrt_detection.obj
 0001:000041c2       ??0bad_alloc@std@@AAE@QBD@Z 004051c2 f i LIBCMT:throw_bad_alloc.obj
 0001:000041df       ??0bad_alloc@std@@QAE@ABV01@@Z 004051df f i LIBCMT:throw_bad_alloc.obj
 0001:000041fa       ??0bad_alloc@std@@QAE@XZ   004051fa f i LIBCMT:throw_bad_alloc.obj
 0001:00004212       ??0bad_array_new_length@std@@QAE@ABV01@@Z 00405212 f i LIBCMT:throw_bad_alloc.obj
 0001:0000422d       ??0bad_array_new_length@std@@QAE@XZ 0040522d f i LIBCMT:throw_bad_alloc.obj
 0001:00004245       ??0exception@std@@QAE@ABV01@@Z 00405245 f i LIBCMT:throw_bad_alloc.obj
 0001:00004271       ??0exception@std@@QAE@QBDH@Z 00405271 f i LIBCMT:throw_bad_alloc.obj
 0001:0000428e       ??1bad_alloc@std@@UAE@XZ   0040528e f i LIBCMT:throw_bad_alloc.obj
 0001:0000429f       ??1bad_array_new_length@std@@UAE@XZ 0040529f f i LIBCMT:throw_bad_alloc.obj
 0001:000042b0       ??1exception@std@@UAE@XZ   004052b0 f i LIBCMT:throw_bad_alloc.obj
 0001:000042c1       ??_Ebad_alloc@std@@UAEPAXI@Z 004052c1 f i LIBCMT:throw_bad_alloc.obj
 0001:000042c1       ??_Gbad_alloc@std@@UAEPAXI@Z 004052c1 f i LIBCMT:throw_bad_alloc.obj
 0001:000042ee       ??_Ebad_array_new_length@std@@UAEPAXI@Z 004052ee f i LIBCMT:throw_bad_alloc.obj
 0001:000042ee       ??_Gbad_array_new_length@std@@UAEPAXI@Z 004052ee f i LIBCMT:throw_bad_alloc.obj
 0001:0000431b       ??_Eexception@std@@UAEPAXI@Z 0040531b f i LIBCMT:throw_bad_alloc.obj
 0001:0000431b       ??_Gexception@std@@UAEPAXI@Z 0040531b f i LIBCMT:throw_bad_alloc.obj
 0001:00004348       ?__scrt_throw_std_bad_alloc@@YAXXZ 00405348 f   LIBCMT:throw_bad_alloc.obj
 0001:00004365       ?__scrt_throw_std_bad_array_new_length@@YAXXZ 00405365 f   LIBCMT:throw_bad_alloc.obj
 0001:00004382       ?what@exception@std@@UBEPBDXZ 00405382 f i LIBCMT:throw_bad_alloc.obj
 0001:0000438f       ??3@YAXPAXI@Z              0040538f f   LIBCMT:delete_scalar_size.obj
 0001:0000439d       ??1type_info@@UAE@XZ       0040539d f   LIBCMT:std_type_info_static.obj
 0001:000043a4       ??_Etype_info@@UAEPAXI@Z   004053a4 f i LIBCMT:std_type_info_static.obj
 0001:000043a4       ??_Gtype_info@@UAEPAXI@Z   004053a4 f i LIBCMT:std_type_info_static.obj
 0001:000043c7       ??3@YAXPAX@Z               004053c7 f   LIBCMT:delete_scalar.obj
 0001:000043d0       _strstr                    004053d0 f   libvcruntime:strstr.obj
 0001:00004640       _strchr                    00405640 f   libvcruntime:strchr.obj
 0001:000046ae       ___from_strstr_to_strchr   004056ae     libvcruntime:strchr.obj
 0001:00004770       _strrchr                   00405770 f   libvcruntime:strrchr.obj
 0001:000048b0       _memcpy                    004058b0 f   libvcruntime:memcpy.obj
 0001:00004e30       _memmove                   00405e30 f   libvcruntime:memmove.obj
 0001:000053b0       _memset                    004063b0 f   libvcruntime:memset.obj
 0001:00005550       __except_handler4          00406550 f   libvcruntime:chandler4.obj
 0001:000056ae       ___vcrt_initialize         004066ae f   libvcruntime:initialization.obj
 0001:000056cd       ___vcrt_thread_attach      004066cd f   libvcruntime:initialization.obj
 0001:000056d8       ___vcrt_thread_detach      004066d8 f   libvcruntime:initialization.obj
 0001:000056e3       ___vcrt_uninitialize       004066e3 f   libvcruntime:initialization.obj
 0001:000056fa       ___vcrt_uninitialize_critical 004066fa f   libvcruntime:initialization.obj
 0001:00005713       ??$?RD@__crt_internal_free_policy@@QBEXQBD@Z 00406713 f i libvcruntime:std_type_info.obj
 0001:00005723       ??$?RX@__crt_internal_free_policy@@QBEXQBX@Z 00406723 f i libvcruntime:std_type_info.obj
 0001:00005733       ??$__crt_interlocked_compare_exchange_pointer@$$CBDPAD$$T@@YAPBDPDSBDQAD$$T@Z 00406733 f i libvcruntime:std_type_info.obj
 0001:00005745       ??$__crt_interlocked_read_pointer@$$CBD@@YAPBDPDSBD@Z 00406745 f i libvcruntime:std_type_info.obj
 0001:00005750       ??0?$__crt_unique_heap_ptr@DU__crt_internal_free_policy@@@@QAE@QAD@Z 00406750 f i libvcruntime:std_type_info.obj
 0001:0000575e       ??0?$__crt_unique_heap_ptr@XU__crt_internal_free_policy@@@@QAE@QAX@Z 0040675e f i libvcruntime:std_type_info.obj
 0001:0000576c       ??1?$__crt_unique_heap_ptr@DU__crt_internal_free_policy@@@@QAE@XZ 0040676c f i libvcruntime:std_type_info.obj
 0001:0000577c       ??1?$__crt_unique_heap_ptr@XU__crt_internal_free_policy@@@@QAE@XZ 0040677c f i libvcruntime:std_type_info.obj
 0001:0000578c       ??B?$__crt_unique_heap_ptr@DU__crt_internal_free_policy@@@@QBE_NXZ 0040678c f i libvcruntime:std_type_info.obj
 0001:00005793       ??B?$__crt_unique_heap_ptr@XU__crt_internal_free_policy@@@@QBE_NXZ 00406793 f i libvcruntime:std_type_info.obj
 0001:000057ba       ?__crt_interlocked_read_32@@YAHPDH@Z 004067ba f i libvcruntime:std_type_info.obj
 0001:000057c5       ?detach@?$__crt_unique_heap_ptr@XU__crt_internal_free_policy@@@@QAEPAXXZ 004067c5 f i libvcruntime:std_type_info.obj
 0001:000057cb       ?get@?$__crt_unique_heap_ptr@DU__crt_internal_free_policy@@@@QBEPADXZ 004067cb f i libvcruntime:std_type_info.obj
 0001:000057ce       ?get@?$__crt_unique_heap_ptr@XU__crt_internal_free_policy@@@@QBEPAXXZ 004067ce f i libvcruntime:std_type_info.obj
 0001:000057d1       ?is_valid@?$__crt_unique_heap_ptr@DU__crt_internal_free_policy@@@@QBE_NXZ 004067d1 f i libvcruntime:std_type_info.obj
 0001:000057d8       ?is_valid@?$__crt_unique_heap_ptr@XU__crt_internal_free_policy@@@@QBE_NXZ 004067d8 f i libvcruntime:std_type_info.obj
 0001:000057df       ?release@?$__crt_unique_heap_ptr@DU__crt_internal_free_policy@@@@QAEXXZ 004067df f i libvcruntime:std_type_info.obj
 0001:000057ef       ?release@?$__crt_unique_heap_ptr@XU__crt_internal_free_policy@@@@QAEXXZ 004067ef f i libvcruntime:std_type_info.obj
 0001:000057ff       ___std_type_info_compare   004067ff f   libvcruntime:std_type_info.obj
 0001:0000583b       ___std_type_info_destroy_list 0040683b f   libvcruntime:std_type_info.obj
 0001:0000585e       ___std_type_info_hash      0040685e f   libvcruntime:std_type_info.obj
 0001:00005884       ___std_type_info_name      00406884 f   libvcruntime:std_type_info.obj
 0001:0000594a       ___DestructExceptionObject 0040694a f   libvcruntime:ehhelpers.obj
 0001:000059eb       ?_CallMemberFunction0@@YGXQAX0@Z 004069eb f i libvcruntime:ehhelpers.obj
 0001:00005a50       ?raw_name@type_info@@QBEPBDXZ 00406a50 f i libvcruntime:ehhelpers.obj
 0001:00005a54       __IsExceptionObjectToBeDestroyed 00406a54 f   libvcruntime:ehhelpers.obj
 0001:00005a7a       __SetWinRTOutOfMemoryExceptionCallback 00406a7a f   libvcruntime:ehhelpers.obj
 0001:00005a87       ___AdjustPointer           00406a87 f   libvcruntime:ehhelpers.obj
 0001:00005aac       ___FrameUnwindFilter       00406aac f   libvcruntime:ehhelpers.obj
 0001:00005b02       ___GetPlatformExceptionInfo 00406b02 f   libvcruntime:ehhelpers.obj
 0001:00005b4e       ___current_exception       00406b4e f   libvcruntime:ehhelpers.obj
 0001:00005b57       ___current_exception_context 00406b57 f   libvcruntime:ehhelpers.obj
 0001:00005b60       ___processing_throw        00406b60 f   libvcruntime:ehhelpers.obj
 0001:00005b69       ___std_terminate           00406b69 f   libvcruntime:ehhelpers.obj
 0001:00005b6e       __is_exception_typeof      00406b6e f   libvcruntime:ehhelpers.obj
 0001:00005c12       ??$?RD@__crt_public_free_policy@@QBEXQBD@Z 00406c12 f i libvcruntime:std_exception.obj
 0001:00005c22       ??0?$__crt_unique_heap_ptr@DU__crt_public_free_policy@@@@QAE@QAD@Z 00406c22 f i libvcruntime:std_exception.obj
 0001:00005c30       ??1?$__crt_unique_heap_ptr@DU__crt_public_free_policy@@@@QAE@XZ 00406c30 f i libvcruntime:std_exception.obj
 0001:00005c40       ??B?$__crt_unique_heap_ptr@DU__crt_public_free_policy@@@@QBE_NXZ 00406c40 f i libvcruntime:std_exception.obj
 0001:00005c47       ?detach@?$__crt_unique_heap_ptr@DU__crt_public_free_policy@@@@QAEPADXZ 00406c47 f i libvcruntime:std_exception.obj
 0001:00005c4d       ?get@?$__crt_unique_heap_ptr@DU__crt_public_free_policy@@@@QBEPADXZ 00406c4d f i libvcruntime:std_exception.obj
 0001:00005c50       ?is_valid@?$__crt_unique_heap_ptr@DU__crt_public_free_policy@@@@QBE_NXZ 00406c50 f i libvcruntime:std_exception.obj
 0001:00005c57       ?release@?$__crt_unique_heap_ptr@DU__crt_public_free_policy@@@@QAEXXZ 00406c57 f i libvcruntime:std_exception.obj
 0001:00005c67       ___std_exception_copy      00406c67 f   libvcruntime:std_exception.obj
 0001:00005cca       ___std_exception_destroy   00406cca f   libvcruntime:std_exception.obj
 0001:00005ce9       __CxxThrowException@8      00406ce9 f   libvcruntime:throw.obj
 0001:00005d60       __local_unwind4            00406d60 f   libvcruntime:exsup4.obj
 0001:00005e50       __seh_longjmp_unwind4@4    00406e50 f   libvcruntime:exsup4.obj
 0001:00005e80       @_EH4_CallFilterFunc@8     00406e80 f   libvcruntime:exsup4.obj
 0001:00005ea0       @_EH4_TransferToHandler@8  00406ea0 f   libvcruntime:exsup4.obj
 0001:00005ec0       @_EH4_GlobalUnwind2@8      00406ec0 f   libvcruntime:exsup4.obj
 0001:00005ee0       @_EH4_LocalUnwind@16       00406ee0 f   libvcruntime:exsup4.obj
 0001:00005f02       ___except_validate_context_record 00406f02 f   libvcruntime:jbcxrval.obj
 0001:00005f32       ___except_validate_jump_buffer 00406f32 f   libvcruntime:jbcxrval.obj
 0001:00005f5f       ___except_validate_jump_buffer_common 00406f5f f i libvcruntime:jbcxrval.obj
 0001:00005f98       ??$?RU__vcrt_ptd@@@__crt_internal_free_policy@@QBEXQBU__vcrt_ptd@@@Z 00406f98 f i libvcruntime:per_thread_data.obj
 0001:00005fa8       ??0?$__crt_unique_heap_ptr@U__vcrt_ptd@@U__crt_internal_free_policy@@@@QAE@QAU__vcrt_ptd@@@Z 00406fa8 f i libvcruntime:per_thread_data.obj
 0001:00005fc5       ??1?$__crt_unique_heap_ptr@U__vcrt_ptd@@U__crt_internal_free_policy@@@@QAE@XZ 00406fc5 f i libvcruntime:per_thread_data.obj
 0001:00005fde       ??B?$__crt_unique_heap_ptr@U__vcrt_ptd@@U__crt_internal_free_policy@@@@QBE_NXZ 00406fde f i libvcruntime:per_thread_data.obj
 0001:00005fe5       ?detach@?$__crt_unique_heap_ptr@U__vcrt_ptd@@U__crt_internal_free_policy@@@@QAEPAU__vcrt_ptd@@XZ 00406fe5 f i libvcruntime:per_thread_data.obj
 0001:00005feb       ?get@?$__crt_unique_heap_ptr@U__vcrt_ptd@@U__crt_internal_free_policy@@@@QBEPAU__vcrt_ptd@@XZ 00406feb f i libvcruntime:per_thread_data.obj
 0001:00005fee       ?is_valid@?$__crt_unique_heap_ptr@U__vcrt_ptd@@U__crt_internal_free_policy@@@@QBE_NXZ 00406fee f i libvcruntime:per_thread_data.obj
 0001:00005ff5       ?release@?$__crt_unique_heap_ptr@U__vcrt_ptd@@U__crt_internal_free_policy@@@@QAEXXZ 00406ff5 f i libvcruntime:per_thread_data.obj
 0001:0000601f       ___vcrt_freefls@4          0040701f f   libvcruntime:per_thread_data.obj
 0001:0000603b       ___vcrt_freeptd            0040703b f   libvcruntime:per_thread_data.obj
 0001:00006071       ___vcrt_getptd             00407071 f   libvcruntime:per_thread_data.obj
 0001:0000607f       ___vcrt_getptd_noexit      0040707f f   libvcruntime:per_thread_data.obj
 0001:00006111       ___vcrt_getptd_noinit      00407111 f   libvcruntime:per_thread_data.obj
 0001:00006148       ___vcrt_initialize_ptd     00407148 f   libvcruntime:per_thread_data.obj
 0001:0000617b       ___vcrt_uninitialize_ptd   0040717b f   libvcruntime:per_thread_data.obj
 0001:00006196       ___vcrt_initialize_locks   00407196 f   libvcruntime:locks.obj
 0001:000061d2       ___vcrt_lock               004071d2 f   libvcruntime:locks.obj
 0001:000061e7       ___vcrt_uninitialize_locks 004071e7 f   libvcruntime:locks.obj
 0001:00006216       ___vcrt_unlock             00407216 f   libvcruntime:locks.obj
 0001:0000622b       ??$?0$00@DName@@QAE@PBDU?$StringLifeSelector@$00@@@Z 0040722b f i libvcruntime:undname.obj
 0001:0000625e       ??$?0$00@pcharNode@@QAE@PBDHU?$StringLifeSelector@$00@@@Z 0040725e f i libvcruntime:undname.obj
 0001:00006279       ??$?0$01@DName@@QAE@PBDU?$StringLifeSelector@$01@@@Z 00407279 f i libvcruntime:undname.obj
 0001:000062ac       ??$?0$01@pcharNode@@QAE@PBDHU?$StringLifeSelector@$01@@@Z 004072ac f i libvcruntime:undname.obj
 0001:000062ec       ??$?0$0A@@DName@@QAE@PBDU?$StringLifeSelector@$0A@@@@Z 004072ec f i libvcruntime:undname.obj
 0001:0000631f       ??$?0$0A@@pcharNode@@QAE@PBDHU?$StringLifeSelector@$0A@@@@Z 0040731f f i libvcruntime:undname.obj
 0001:0000635f       ??$?0_K$0A@@?$optional@_K@std@@QAE@$$QA_K@Z 0040735f f i libvcruntime:undname.obj
 0001:00006379       ??$?0_K@?$_Optional_construct_base@_K@std@@QAE@Uin_place_t@1@$$QA_K@Z 00407379 f i libvcruntime:undname.obj
 0001:00006393       ??$?0_K@?$_Optional_destruct_base@_K$00@std@@QAE@Uin_place_t@1@$$QA_K@Z 00407393 f i libvcruntime:undname.obj
 0001:000063ad       ??$append@VDNameNode@@@DName@@AAEXPBVDNameNode@@@Z 004073ad f i libvcruntime:undname.obj
 0001:000063ee       ??$append@VDNameStatusNode@@@DName@@AAEXPBVDNameStatusNode@@@Z 004073ee f i libvcruntime:undname.obj
 0001:0000642f       ??$append@VcharNode@@@DName@@AAEXPBVcharNode@@@Z 0040742f f i libvcruntime:undname.obj
 0001:00006470       ??$append@VpDNameNode@@@DName@@AAEXPBVpDNameNode@@@Z 00407470 f i libvcruntime:undname.obj
 0001:000064b1       ??$append@VpcharNode@@@DName@@AAEXPBVpcharNode@@@Z 004074b1 f i libvcruntime:undname.obj
 0001:000064f2       ??$doPchar@$00@DName@@AAEXPBDH@Z 004074f2 f i libvcruntime:undname.obj
 0001:0000655d       ??$doPchar@$01@DName@@AAEXPBDH@Z 0040755d f i libvcruntime:undname.obj
 0001:000065ce       ??$doPchar@$0A@@DName@@AAEXPBDH@Z 004075ce f i libvcruntime:undname.obj
 0001:0000663f       ??$forward@_K@std@@YA$$QA_KAA_K@Z 0040763f f i libvcruntime:undname.obj
 0001:00006703       ??$size@D$04@std@@YAIAAY04$$CBD@Z 00407703 f i libvcruntime:undname.obj
 0001:00006707       ??0?$_Optional_construct_base@_K@std@@QAE@XZ 00407707 f i libvcruntime:undname.obj
 0001:0000670e       ??0?$_Optional_destruct_base@_K$00@std@@QAE@XZ 0040770e f i libvcruntime:undname.obj
 0001:00006715       ??0?$optional@_K@std@@QAE@XZ 00407715 f i libvcruntime:undname.obj
 0001:0000671c       ??0Block@_HeapManager@@QAE@XZ 0040771c f i libvcruntime:undname.obj
 0001:00006722       ??0DName@@QAE@AAPBDD@Z     00407722 f   libvcruntime:undname.obj
 0001:000067a2       ??0DName@@QAE@ABUStringLiteral@@@Z 004077a2 f   libvcruntime:undname.obj
 0001:000067c9       ??0DName@@QAE@ABV0@@Z      004077c9 f i libvcruntime:undname.obj
 0001:000067df       ??0DName@@QAE@D@Z          004077df f   libvcruntime:undname.obj
 0001:000067fb       ??0DName@@QAE@PAV0@@Z      004077fb f   libvcruntime:undname.obj
 0001:00006844       ??0DName@@QAE@W4DNameStatus@@@Z 00407844 f   libvcruntime:undname.obj
 0001:00006884       ??0DName@@QAE@XZ           00407884 f i libvcruntime:undname.obj
 0001:0000688e       ??0DName@@QAE@_J@Z         0040788e f   libvcruntime:undname.obj
 0001:00006918       ??0DName@@QAE@_K@Z         00407918 f   libvcruntime:undname.obj
 0001:0000697c       ??0DNameNode@@IAE@XZ       0040797c f i libvcruntime:undname.obj
 0001:00006985       ??0Replicator@@QAE@XZ      00407985 f i libvcruntime:undname.obj
 0001:00006994       ??0UnDecorator@@QAE@PBDP6APADJ@ZK@Z 00407994 f i libvcruntime:undname.obj
 0001:000069e0       ??0_Nontrivial_dummy_type@std@@QAE@XZ 004079e0 f i libvcruntime:undname.obj
 0001:000069e3       ??0charNode@@QAE@D@Z       004079e3 f i libvcruntime:undname.obj
 0001:000069f8       ??0pDNameNode@@QAE@PAVDName@@@Z 004079f8 f   libvcruntime:undname.obj
 0001:00006a20       ??0pairNode@@QAE@PBVDNameNode@@0@Z 00407a20 f i libvcruntime:undname.obj
 0001:00006a46       ??2@YAPAXIAAV_HeapManager@@H@Z 00407a46 f   libvcruntime:undname.obj
 0001:00006a65       ??4DName@@QAEAAV0@ABUStringLiteral@@@Z 00407a65 f   libvcruntime:undname.obj
 0001:00006a86       ??4DName@@QAEAAV0@ABV0@@Z  00407a86 f   libvcruntime:undname.obj
 0001:00006a9c       ??4DName@@QAEAAV0@D@Z      00407a9c f i libvcruntime:undname.obj
 0001:00006ab8       ??4DName@@QAEAAV0@PAV0@@Z  00407ab8 f   libvcruntime:undname.obj
 0001:00006afb       ??4DName@@QAEAAV0@W4DNameStatus@@@Z 00407afb f   libvcruntime:undname.obj
 0001:00006b2d       ??AReplicator@@QBE?AVDName@@H@Z 00407b2d f   libvcruntime:undname.obj
 0001:00006b69       ??B?$optional@_K@std@@QBE_NXZ 00407b69 f i libvcruntime:undname.obj
 0001:00006b6d       ??D?$_Optional_construct_base@_K@std@@QGAEAA_KXZ 00407b6d f i libvcruntime:undname.obj
 0001:00006b70       ??H@YA?AVDName@@ABUStringLiteral@@ABV0@@Z 00407b70 f i libvcruntime:undname.obj
 0001:00006b92       ??H@YA?AVDName@@DABV0@@Z   00407b92 f i libvcruntime:undname.obj
 0001:00006bbd       ??H@YA?AVDName@@W4DNameStatus@@ABV0@@Z 00407bbd f i libvcruntime:undname.obj
 0001:00006bdf       ??HDName@@QBE?AV0@ABUStringLiteral@@@Z 00407bdf f   libvcruntime:undname.obj
 0001:00006c01       ??HDName@@QBE?AV0@ABV0@@Z  00407c01 f   libvcruntime:undname.obj
 0001:00006c23       ??HDName@@QBE?AV0@D@Z      00407c23 f   libvcruntime:undname.obj
 0001:00006c45       ??HDName@@QBE?AV0@PAV0@@Z  00407c45 f   libvcruntime:undname.obj
 0001:00006c67       ??HDName@@QBE?AV0@W4DNameStatus@@@Z 00407c67 f   libvcruntime:undname.obj
 0001:00006c89       ??HStringLiteral@@QBE?AU0@H@Z 00407c89 f i libvcruntime:undname.obj
 0001:00006ca3       ??YDName@@QAEAAV0@ABUStringLiteral@@@Z 00407ca3 f   libvcruntime:undname.obj
 0001:00006cfb       ??YDName@@QAEAAV0@ABV0@@Z  00407cfb f   libvcruntime:undname.obj
 0001:00006d52       ??YDName@@QAEAAV0@D@Z      00407d52 f   libvcruntime:undname.obj
 0001:00006da7       ??YDName@@QAEAAV0@PAV0@@Z  00407da7 f   libvcruntime:undname.obj
 0001:00006e0b       ??YDName@@QAEAAV0@W4DNameStatus@@@Z 00407e0b f   libvcruntime:undname.obj
 0001:00006e4b       ??YReplicator@@QAEAAV0@ABVDName@@@Z 00407e4b f   libvcruntime:undname.obj
 0001:00006e8b       ??_5DName@@QAEAAV0@ABV0@@Z 00407e8b f   libvcruntime:undname.obj
 0001:00006eaa       ??__K_l@@YA?AUStringLiteral@@PBDI@Z 00407eaa f i libvcruntime:undname.obj
 0001:00006eb5       ?Constructor@_HeapManager@@QAEXP6APAXI@ZP6AXPAX@Z@Z 00407eb5 f i libvcruntime:undname.obj
 0001:00006ed2       ?Destructor@_HeapManager@@QAEXXZ 00407ed2 f i libvcruntime:undname.obj
 0001:00006f16       ?UScore@UnDecorator@@SA?AUStringLiteral@@W4Tokens@@@Z 00407f16 f   libvcruntime:undname.obj
 0001:00006f3d       ?composeDeclaration@UnDecorator@@CA?AVDName@@ABV2@@Z 00407f3d f i libvcruntime:undname.obj
 0001:00007c35       ?doAccessSpecifiers@UnDecorator@@SAHXZ 00408c35 f i libvcruntime:undname.obj
 0001:00007c43       ?doAllocationLanguage@UnDecorator@@SAHXZ 00408c43 f i libvcruntime:undname.obj
 0001:00007c51       ?doAllocationModel@UnDecorator@@SAHXZ 00408c51 f i libvcruntime:undname.obj
 0001:00007c5f       ?doEcsu@UnDecorator@@SAHXZ 00408c5f f i libvcruntime:undname.obj
 0001:00007c6d       ?doEllipsis@UnDecorator@@SAHXZ 00408c6d f i libvcruntime:undname.obj
 0001:00007c7b       ?doFunctionReturns@UnDecorator@@SAHXZ 00408c7b f i libvcruntime:undname.obj
 0001:00007c89       ?doMSKeywords@UnDecorator@@SAHXZ 00408c89 f i libvcruntime:undname.obj
 0001:00007c96       ?doMemberTypes@UnDecorator@@SAHXZ 00408c96 f i libvcruntime:undname.obj
 0001:00007ca4       ?doNameOnly@UnDecorator@@SAHXZ 00408ca4 f i libvcruntime:undname.obj
 0001:00007caf       ?doNoIdentCharCheck@UnDecorator@@SAHXZ 00408caf f i libvcruntime:undname.obj
 0001:00007cba       ?doPchar@DName@@AAEXD@Z    00408cba f   libvcruntime:undname.obj
 0001:00007cf2       ?doPtr64@UnDecorator@@SAHXZ 00408cf2 f i libvcruntime:undname.obj
 0001:00007d00       ?doRestrictionSpec@UnDecorator@@SAHXZ 00408d00 f i libvcruntime:undname.obj
 0001:00007d0e       ?doThisTypes@UnDecorator@@SAHXZ 00408d0e f i libvcruntime:undname.obj
 0001:00007d20       ?doThrowTypes@UnDecorator@@SAHXZ 00408d20 f i libvcruntime:undname.obj
 0001:00007d2e       ?doTypeOnly@UnDecorator@@SAHXZ 00408d2e f i libvcruntime:undname.obj
 0001:00007d39       ?doUnderScore@UnDecorator@@SAHXZ 00408d39 f i libvcruntime:undname.obj
 0001:00007d44       ?getAddressOf@UnDecorator@@CA?AVDName@@XZ 00408d44 f   libvcruntime:undname.obj
 0001:00007dac       ?getArgumentList@UnDecorator@@CA?AVDName@@XZ 00408dac f   libvcruntime:undname.obj
 0001:00007f19       ?getArgumentTypes@UnDecorator@@CA?AVDName@@XZ 00408f19 f   libvcruntime:undname.obj
 0001:00008021       ?getArrayAccess@UnDecorator@@CA?AVDName@@XZ 00409021 f   libvcruntime:undname.obj
 0001:00008095       ?getArrayObject@UnDecorator@@CA?AVDName@@XZ 00409095 f   libvcruntime:undname.obj
 0001:00008120       ?getArrayType@UnDecorator@@CA?AVDName@@ABV2@@Z 00409120 f i libvcruntime:undname.obj
 0001:000082bd       ?getBasedType@UnDecorator@@CA?AVDName@@XZ 004092bd f   libvcruntime:undname.obj
 0001:0000836c       ?getBasicDataType@UnDecorator@@CA?AVDName@@ABV2@@Z 0040936c f   libvcruntime:undname.obj
 0001:000088c8       ?getCHPEName@UnDecorator@@QAEPADPADH@Z 004098c8 f i libvcruntime:undname.obj
 0001:000089a5       ?getCallIndex@UnDecorator@@CA?AVDName@@XZ 004099a5 f i libvcruntime:undname.obj
 0001:000089b9       ?getCallingConvention@UnDecorator@@CA?AVDName@@XZ 004099b9 f   libvcruntime:undname.obj
 0001:00008a8e       ?getDataIndirectType@UnDecorator@@CA?AVDName@@ABV2@W4IndirectionKind@@0H@Z 00409a8e f   libvcruntime:undname.obj
 0001:0000922c       ?getDataIndirectType@UnDecorator@@CA?AVDName@@XZ 0040a22c f i libvcruntime:undname.obj
 0001:0000925a       ?getDataType@UnDecorator@@CA?AVDName@@PAV2@@Z 0040a25a f   libvcruntime:undname.obj
 0001:00009331       ?getDecoratedName@UnDecorator@@CA?AVDName@@XZ 0040a331 f   libvcruntime:undname.obj
 0001:00009585       ?getDimension@UnDecorator@@CA?AVDName@@_N@Z 0040a585 f   libvcruntime:undname.obj
 0001:0000968c       ?getDispatchTarget@UnDecorator@@CA?AVDName@@XZ 0040a68c f   libvcruntime:undname.obj
 0001:000096dd       ?getDisplacement@UnDecorator@@CA?AVDName@@XZ 0040a6dd f i libvcruntime:undname.obj
 0001:000096f1       ?getECSUDataType@UnDecorator@@CA?AVDName@@XZ 0040a6f1 f   libvcruntime:undname.obj
 0001:0000989b       ?getECSUName@UnDecorator@@CA?AVDName@@XZ 0040a89b f i libvcruntime:undname.obj
 0001:000098ac       ?getEnumType@UnDecorator@@CA?AVDName@@XZ 0040a8ac f i libvcruntime:undname.obj
 0001:000099cc       ?getExtendedDataIndirectType@UnDecorator@@CA?AVDName@@AAW4IndirectionKind@@AA_NH@Z 0040a9cc f   libvcruntime:undname.obj
 0001:00009b78       ?getExternalDataType@UnDecorator@@CA?AVDName@@ABV2@@Z 0040ab78 f i libvcruntime:undname.obj
 0001:00009bdd       ?getFloatingPoint@UnDecorator@@CA?AVDName@@H@Z 0040abdd f   libvcruntime:undname.obj
 0001:00009c9b       ?getFunctionIndirectType@UnDecorator@@CA?AVDName@@ABV2@@Z 0040ac9b f   libvcruntime:undname.obj
 0001:0000a045       ?getGuardNumber@UnDecorator@@CA?AVDName@@XZ 0040b045 f i libvcruntime:undname.obj
 0001:0000a059       ?getLastChar@DName@@QBEDXZ 0040b059 f i libvcruntime:undname.obj
 0001:0000a079       ?getLastChar@DNameStatusNode@@UBEDXZ 0040b079 f i libvcruntime:undname.obj
 0001:0000a085       ?getLastChar@charNode@@UBEDXZ 0040b085 f i libvcruntime:undname.obj
 0001:0000a089       ?getLastChar@pDNameNode@@UBEDXZ 0040b089 f i libvcruntime:undname.obj
 0001:0000a097       ?getLastChar@pairNode@@UBEDXZ 0040b097 f i libvcruntime:undname.obj
 0001:0000a0cc       ?getLastChar@pcharNode@@UBEDXZ 0040b0cc f i libvcruntime:undname.obj
 0001:0000a0de       ?getLexicalFrame@UnDecorator@@CA?AVDName@@XZ 0040b0de f i libvcruntime:undname.obj
 0001:0000a10f       ?getMemberAccess@UnDecorator@@CA?AVDName@@XZ 0040b10f f   libvcruntime:undname.obj
 0001:0000a17f       ?getMemoryWithBuffer@_HeapManager@@QAEPAXI@Z 0040b17f f   libvcruntime:undname.obj
 0001:0000a1e9       ?getMemoryWithoutBuffer@_HeapManager@@QAEPAXI@Z 0040b1e9 f   libvcruntime:undname.obj
 0001:0000a209       ?getNoexcept@UnDecorator@@CA?AVDName@@XZ 0040b209 f   libvcruntime:undname.obj
 0001:0000a251       ?getNumberOfDimensions@UnDecorator@@CAHXZ 0040b251 f   libvcruntime:undname.obj
 0001:0000a2b3       ?getOperatorName@UnDecorator@@CA?AVDName@@_NPA_N@Z 0040b2b3 f i libvcruntime:undname.obj
 0001:0000aadd       ?getPointerToMember@UnDecorator@@CA?AVDName@@XZ 0040badd f   libvcruntime:undname.obj
 0001:0000ab99       ?getPointerType@UnDecorator@@CA?AVDName@@ABV2@0@Z 0040bb99 f i libvcruntime:undname.obj
 0001:0000abb4       ?getPointerTypeArray@UnDecorator@@CA?AVDName@@ABV2@0@Z 0040bbb4 f i libvcruntime:undname.obj
 0001:0000abcf       ?getPrimaryDataType@UnDecorator@@CA?AVDName@@ABV2@@Z 0040bbcf f   libvcruntime:undname.obj
 0001:0000ae1d       ?getPtrRefDataType@UnDecorator@@CA?AVDName@@ABV2@H@Z 0040be1d f   libvcruntime:undname.obj
 0001:0000af8a       ?getPtrRefType@UnDecorator@@CA?AVDName@@ABV2@0W4IndirectionKind@@@Z 0040bf8a f   libvcruntime:undname.obj
 0001:0000b09b       ?getReferenceType@UnDecorator@@CA?AVDName@@ABV2@0W4IndirectionKind@@@Z 0040c09b f i libvcruntime:undname.obj
 0001:0000b0b7       ?getRestrictionSpec@UnDecorator@@CA?AVDName@@XZ 0040c0b7 f   libvcruntime:undname.obj
 0001:0000b1d0       ?getReturnType@UnDecorator@@CA?AVDName@@PAV2@@Z 0040c1d0 f   libvcruntime:undname.obj
 0001:0000b1ff       ?getScope@UnDecorator@@CA?AVDName@@XZ 0040c1ff f   libvcruntime:undname.obj
 0001:0000b5bd       ?getScopedName@UnDecorator@@CA?AVDName@@XZ 0040c5bd f   libvcruntime:undname.obj
 0001:0000b6b0       ?getSignedDimension@UnDecorator@@CA?AVDName@@XZ 0040c6b0 f   libvcruntime:undname.obj
 0001:0000b701       ?getStorageConvention@UnDecorator@@CA?AVDName@@XZ 0040c701 f i libvcruntime:undname.obj
 0001:0000b712       ?getString@DName@@QBEPADPAD0@Z 0040c712 f i libvcruntime:undname.obj
 0001:0000b73f       ?getString@DName@@QBEPADPADH@Z 0040c73f f i libvcruntime:undname.obj
 0001:0000b794       ?getString@DNameStatusNode@@UBEPADPAD0@Z 0040c794 f i libvcruntime:undname.obj
 0001:0000b7db       ?getString@charNode@@UBEPADPAD0@Z 0040c7db f i libvcruntime:undname.obj
 0001:0000b7f0       ?getString@pDNameNode@@UBEPADPAD0@Z 0040c7f0 f i libvcruntime:undname.obj
 0001:0000b807       ?getString@pairNode@@UBEPADPAD0@Z 0040c807 f i libvcruntime:undname.obj
 0001:0000b84d       ?getString@pcharNode@@UBEPADPAD0@Z 0040c84d f i libvcruntime:undname.obj
 0001:0000b868       ?getStringEncoding@UnDecorator@@CA?AVDName@@W4PrefixKind@@H@Z 0040c868 f   libvcruntime:undname.obj
 0001:0000b8fb       ?getStringHelper@@YAPADPADPBD1H@Z 0040c8fb f i libvcruntime:undname.obj
 0001:0000b925       ?getStringObject@UnDecorator@@CA?AVDName@@XZ 0040c925 f   libvcruntime:undname.obj
 0001:0000b970       ?getSymbolName@UnDecorator@@CA?AVDName@@XZ 0040c970 f i libvcruntime:undname.obj
 0001:0000b9b8       ?getTemplateArgumentList@UnDecorator@@CA?AVDName@@XZ 0040c9b8 f   libvcruntime:undname.obj
 0001:0000bb68       ?getTemplateName@UnDecorator@@CA?AVDName@@_N@Z 0040cb68 f   libvcruntime:undname.obj
 0001:0000bcc8       ?getTemplateNonTypeArgument@UnDecorator@@CA?AVDName@@XZ 0040ccc8 f   libvcruntime:undname.obj
 0001:0000c090       ?getTemplateTypeArgument@UnDecorator@@CA?AVDName@@XZ 0040d090 f   libvcruntime:undname.obj
 0001:0000c1a1       ?getThisType@UnDecorator@@CA?AVDName@@XZ 0040d1a1 f i libvcruntime:undname.obj
 0001:0000c1d0       ?getThrowTypes@UnDecorator@@CA?AVDName@@XZ 0040d1d0 f   libvcruntime:undname.obj
 0001:0000c1ef       ?getTypeEncoding@UnDecorator@@CAHXZ 0040d1ef f i libvcruntime:undname.obj
 0001:0000c52f       ?getUndecoratedName@UnDecorator@@QAEPADPADH@Z 0040d52f f i libvcruntime:undname.obj
 0001:0000c64e       ?getUnionObject@UnDecorator@@CA?AVDName@@XZ 0040d64e f   libvcruntime:undname.obj
 0001:0000c6f5       ?getVCallThunkType@UnDecorator@@CA?AVDName@@XZ 0040d6f5 f i libvcruntime:undname.obj
 0001:0000c73f       ?getValue@UnDecorator@@CA?AV?$optional@_K@std@@XZ 0040d73f f   libvcruntime:undname.obj
 0001:0000c7c7       ?getValueObject@UnDecorator@@CA?AVDName@@XZ 0040d7c7 f   libvcruntime:undname.obj
 0001:0000c8c1       ?getVbTableType@UnDecorator@@CA?AVDName@@ABV2@@Z 0040d8c1 f i libvcruntime:undname.obj
 0001:0000c8d6       ?getVdispMapType@UnDecorator@@CA?AVDName@@ABV2@@Z 0040d8d6 f i libvcruntime:undname.obj
 0001:0000c937       ?getVfTableType@UnDecorator@@CA?AVDName@@ABV2@@Z 0040d937 f i libvcruntime:undname.obj
 0001:0000ca8b       ?getZName@UnDecorator@@CA?AVDName@@_N0@Z 0040da8b f   libvcruntime:undname.obj
 0001:0000cca4       ?get_current_character_and_increment_buffer@UnDecorator@@CADXZ 0040dca4 f i libvcruntime:undname.obj
 0001:0000ccb8       ?haveTemplateParameters@UnDecorator@@SAHXZ 0040dcb8 f i libvcruntime:undname.obj
 0001:0000ccc3       ?increment_buffer@UnDecorator@@CA_NI@Z 0040dcc3 f i libvcruntime:undname.obj
 0001:0000cceb       ?increment_buffer_no_check@UnDecorator@@CAXI@Z 0040dceb f i libvcruntime:undname.obj
 0001:0000ccf9       ?increment_buffer_no_check@UnDecorator@@CAXXZ 0040dcf9 f i libvcruntime:undname.obj
 0001:0000cd00       ?isArray@DName@@QBEHXZ     0040dd00 f i libvcruntime:undname.obj
 0001:0000cd0a       ?isComArray@DName@@QBEHXZ  0040dd0a f i libvcruntime:undname.obj
 0001:0000cd14       ?isEmpty@DName@@QBEHXZ     0040dd14 f i libvcruntime:undname.obj
 0001:0000cd1c       ?isFull@Replicator@@QBEHXZ 0040dd1c f i libvcruntime:undname.obj
 0001:0000cd25       ?isNoTE@DName@@QBEHXZ      0040dd25 f i libvcruntime:undname.obj
 0001:0000cd2f       ?isPinPtr@DName@@QBEHXZ    0040dd2f f i libvcruntime:undname.obj
 0001:0000cd39       ?isPtrRef@DName@@QBEHXZ    0040dd39 f i libvcruntime:undname.obj
 0001:0000cd43       ?isUDC@DName@@QBEHXZ       0040dd43 f i libvcruntime:undname.obj
 0001:0000cd54       ?isUDTThunk@DName@@QBEHXZ  0040dd54 f i libvcruntime:undname.obj
 0001:0000cd65       ?isVCallThunk@DName@@QBEHXZ 0040dd65 f i libvcruntime:undname.obj
 0001:0000cd6f       ?isValid@DName@@QBEHXZ     0040dd6f f i libvcruntime:undname.obj
 0001:0000cd79       ?length@DName@@QBEHXZ      0040dd79 f i libvcruntime:undname.obj
 0001:0000cd98       ?length@DNameStatusNode@@UBEHXZ 0040dd98 f i libvcruntime:undname.obj
 0001:0000cd9c       ?length@charNode@@UBEHXZ   0040dd9c f i libvcruntime:undname.obj
 0001:0000cda0       ?length@pDNameNode@@UBEHXZ 0040dda0 f i libvcruntime:undname.obj
 0001:0000cdae       ?length@pairNode@@UBEHXZ   0040ddae f i libvcruntime:undname.obj
 0001:0000cdf7       ?length@pcharNode@@UBEHXZ  0040ddf7 f i libvcruntime:undname.obj
 0001:0000cdfb       ?make@DNameStatusNode@@SAPBV1@W4DNameStatus@@@Z 0040ddfb f i libvcruntime:undname.obj
 0001:0000ce17       ?parseDecoratedName@UnDecorator@@CA?AVDName@@XZ 0040de17 f   libvcruntime:undname.obj
 0001:0000cf12       ?raw_length@DNameStatusNode@@UBEHXZ 0040df12 f i libvcruntime:undname.obj
 0001:0000cf16       ?raw_length@charNode@@UBEHXZ 0040df16 f i libvcruntime:undname.obj
 0001:0000cf1a       ?raw_length@pDNameNode@@UBEHXZ 0040df1a f i libvcruntime:undname.obj
 0001:0000cf1e       ?raw_length@pairNode@@UBEHXZ 0040df1e f i libvcruntime:undname.obj
 0001:0000cf22       ?raw_length@pcharNode@@UBEHXZ 0040df22 f i libvcruntime:undname.obj
 0001:0000cf26       ?setIsArray@DName@@QAEXXZ  0040df26 f i libvcruntime:undname.obj
 0001:0000cf2e       ?setIsComArray@DName@@QAEXXZ 0040df2e f i libvcruntime:undname.obj
 0001:0000cf36       ?setIsNoTE@DName@@QAEXXZ   0040df36 f i libvcruntime:undname.obj
 0001:0000cf3e       ?setIsPinPtr@DName@@QAEXXZ 0040df3e f i libvcruntime:undname.obj
 0001:0000cf46       ?setIsUDC@DName@@QAEXXZ    0040df46 f i libvcruntime:undname.obj
 0001:0000cf53       ?setIsVCallThunk@DName@@QAEXXZ 0040df53 f i libvcruntime:undname.obj
 0001:0000cf5b       ?setPtrRef@DName@@QAEAAV1@XZ 0040df5b f i libvcruntime:undname.obj
 0001:0000cf65       ?status@DName@@QBE?AW4DNameStatus@@XZ 0040df65 f i libvcruntime:undname.obj
 0001:0000cfd1       ___unDName                 0040dfd1 f   libvcruntime:undname.obj
 0001:0000cff4       ___unDNameEx               0040dff4 f   libvcruntime:undname.obj
 0001:0000d093       __vsprintf_s_l             0040e093 f i libvcruntime:undname.obj
 0001:0000d0c0       _snprintf                  0040e0c0 f i libvcruntime:undname.obj
 0001:0000d0da       _sprintf_s                 0040e0da f i libvcruntime:undname.obj
 0001:0000d0f6       _unDNameGenerateCHPE       0040e0f6 f   libvcruntime:undname.obj
 0001:0000d193       _vsnprintf                 0040e193 f i libvcruntime:undname.obj
 0001:0000d1d0       __global_unwind2           0040e1d0 f   libvcruntime:exsup.obj
 0001:0000d250       __local_unwind2            0040e250 f   libvcruntime:exsup.obj
 0001:0000d2f0       __abnormal_termination     0040e2f0 f   libvcruntime:exsup.obj
 0001:0000d320       __NLG_Notify1              0040e320 f   libvcruntime:exsup.obj
 0001:0000d330       __NLG_Notify               0040e330 f   libvcruntime:exsup.obj
 0001:0000d347       __NLG_Dispatch             0040e347     libvcruntime:exsup.obj
 0001:0000d347       __NLG_Dispatch2            0040e347     libvcruntime:exsup.obj
 0001:0000d350       __NLG_Call                 0040e350 f   libvcruntime:exsup.obj
 0001:0000d352       __NLG_Return2              0040e352     libvcruntime:exsup.obj
 0001:0000d353       ??$__crt_interlocked_exchange_pointer@UHINSTANCE__@@PAU1@@@YAPAUHINSTANCE__@@PDSAU0@QAU0@@Z 0040e353 f i libvcruntime:winapi_downlevel.obj
 0001:0000d360       ??$__crt_interlocked_exchange_pointer@UHINSTANCE__@@PAX@@YAPAUHINSTANCE__@@PDSAU0@QAX@Z 0040e360 f i libvcruntime:winapi_downlevel.obj
 0001:0000d36d       ??$__crt_interlocked_exchange_pointer@XPAX@@YAPAXPDSAXQAX@Z 0040e36d f i libvcruntime:winapi_downlevel.obj
 0001:0000d37a       ??$__crt_interlocked_read_pointer@UHINSTANCE__@@@@YAPAUHINSTANCE__@@PDSAU0@@Z 0040e37a f i libvcruntime:winapi_downlevel.obj
 0001:0000d385       ??$__crt_interlocked_read_pointer@X@@YAPAXPDSAX@Z 0040e385 f i libvcruntime:winapi_downlevel.obj
 0001:0000d611       ___vcrt_FlsAlloc           0040e611 f   libvcruntime:winapi_downlevel.obj
 0001:0000d64c       ___vcrt_FlsFree            0040e64c f   libvcruntime:winapi_downlevel.obj
 0001:0000d687       ___vcrt_FlsGetValue        0040e687 f   libvcruntime:winapi_downlevel.obj
 0001:0000d6c2       ___vcrt_FlsSetValue        0040e6c2 f   libvcruntime:winapi_downlevel.obj
 0001:0000d700       ___vcrt_InitializeCriticalSectionEx 0040e700 f   libvcruntime:winapi_downlevel.obj
 0001:0000d747       ??$__crt_interlocked_exchange_pointer@$$A6AXXZP6AXXZ@@YAP6AXXZPDS6AXXZQ6AXXZ@Z 0040e747 f i libvcruntime:purevirt.obj
 0001:0000d754       ??$__crt_interlocked_read_pointer@$$A6AXXZ@@YAP6AXXZPDS6AXXZ@Z 0040e754 f i libvcruntime:purevirt.obj
 0001:0000d75f       __get_purecall_handler     0040e75f f   libvcruntime:purevirt.obj
 0001:0000d766       __purecall                 0040e766 f   libvcruntime:purevirt.obj
 0001:0000d782       __set_purecall_handler     0040e782 f   libvcruntime:purevirt.obj
 0001:0000d791       ??$?0AAViterator@TryBlockMap@__FrameHandler3@@AAV012@$0A@@?$pair@Viterator@TryBlockMap@__FrameHandler3@@V123@@std@@QAE@AAViterator@TryBlockMap@__FrameHandler3@@0@Z 0040e791 f i libvcruntime:trnsctrl.obj
 0001:0000d7b5       ??$forward@AAViterator@TryBlockMap@__FrameHandler3@@@std@@YAAAViterator@TryBlockMap@__FrameHandler3@@AAV123@@Z 0040e7b5 f i libvcruntime:trnsctrl.obj
 0001:0000d7bd       ??0iterator@TryBlockMap@__FrameHandler3@@QAE@AAV12@I@Z 0040e7bd f i libvcruntime:trnsctrl.obj
 0001:0000d7d1       ?GetRangeOfTrysToCheck@__FrameHandler3@@SA?AU?$pair@Viterator@TryBlockMap@__FrameHandler3@@V123@@std@@AAVTryBlockMap@1@HPAXPBU_s_FuncInfo@@H@Z 0040e7d1 f   libvcruntime:trnsctrl.obj
 0001:0000d841       ?_CallCatchBlock2@@YAPAXPAUEHRegistrationNode@@PBU_s_FuncInfo@@PAXHK@Z 0040e841 f   libvcruntime:trnsctrl.obj
 0001:0000d89e       ?_CallSETranslator@@YAHPAUEHExceptionRecord@@PAUEHRegistrationNode@@PAX2PBU_s_FuncInfo@@H1@Z 0040e89e f   libvcruntime:trnsctrl.obj
 0001:0000d994       ?_JumpToContinuation@@YGXPAXPAUEHRegistrationNode@@@Z 0040e994 f   libvcruntime:trnsctrl.obj
 0001:0000d9c4       ?_UnwindNestedFrames@@YGXPAUEHRegistrationNode@@PAUEHExceptionRecord@@@Z 0040e9c4 f   libvcruntime:trnsctrl.obj
 0001:0000da17       __CatchGuardHandler        0040ea17 f   libvcruntime:trnsctrl.obj
 0001:0000da48       __CreateFrameInfo          0040ea48 f   libvcruntime:trnsctrl.obj
 0001:0000da6c       __FindAndUnlinkFrame       0040ea6c f   libvcruntime:trnsctrl.obj
 0001:0000dab4       __TranslatorGuardHandler   0040eab4 f   libvcruntime:trnsctrl.obj
 0001:0000db51       ___CxxFrameHandler         0040eb51 f   libvcruntime:trnsctrl.obj
 0001:0000db87       ___CxxFrameHandler2        0040eb87 f   libvcruntime:trnsctrl.obj
 0001:0000dbbd       ___CxxFrameHandler3        0040ebbd f   libvcruntime:trnsctrl.obj
 0001:0000dbf3       ___CxxLongjmpUnwind@4      0040ebf3 f   libvcruntime:trnsctrl.obj
 0001:0000e34a       ??$TypeMatchHelper@V__FrameHandler3@@@@YAHPBU_s_HandlerType@@PBU_s_CatchableType@@PBU_s_ThrowInfo@@@Z 0040f34a f i libvcruntime:frame.obj
 0001:0000e3d8       ??$__InternalCxxFrameHandler@V__FrameHandler3@@@@YA?AW4_EXCEPTION_DISPOSITION@@PAUEHExceptionRecord@@PAUEHRegistrationNode@@PAU_CONTEXT@@PAXPBU_s_FuncInfo@@H1E@Z 0040f3d8 f i libvcruntime:frame.obj
 0001:0000e4da       ??$__InternalCxxFrameHandlerWrapper@V__FrameHandler3@@@@YA?AW4_EXCEPTION_DISPOSITION@@PAUEHExceptionRecord@@PAUEHRegistrationNode@@PAU_CONTEXT@@PAXPBU_s_FuncInfo@@H1E@Z 0040f4da f i libvcruntime:frame.obj
 0001:0000e4e3       ??0HandlerMap@__FrameHandler3@@QAE@PBU_s_TryBlockMapEntry@@II@Z 0040f4e3 f i libvcruntime:frame.obj
 0001:0000e4fa       ??0TryBlockMap@__FrameHandler3@@QAE@PBU_s_FuncInfo@@I@Z 0040f4fa f i libvcruntime:frame.obj
 0001:0000e50e       ??0bad_exception@std@@QAE@ABV01@@Z 0040f50e f i libvcruntime:frame.obj
 0001:0000e529       ??0bad_exception@std@@QAE@XZ 0040f529 f i libvcruntime:frame.obj
 0001:0000e541       ??0iterator@HandlerMap@__FrameHandler3@@QAE@AAV12@I@Z 0040f541 f i libvcruntime:frame.obj
 0001:0000e555       ??1bad_exception@std@@UAE@XZ 0040f555 f i libvcruntime:frame.obj
 0001:0000e566       ??8iterator@HandlerMap@__FrameHandler3@@QBE_NABV012@@Z 0040f566 f i libvcruntime:frame.obj
 0001:0000e579       ??8type_info@@QBE_NABV0@@Z 0040f579 f i libvcruntime:frame.obj
 0001:0000e598       ??9iterator@HandlerMap@__FrameHandler3@@QBE_NABV012@@Z 0040f598 f i libvcruntime:frame.obj
 0001:0000e5ab       ??Diterator@HandlerMap@__FrameHandler3@@QAE?BU_s_HandlerType@@XZ 0040f5ab f i libvcruntime:frame.obj
 0001:0000e5ca       ??Diterator@TryBlockMap@__FrameHandler3@@QAE?BU_s_TryBlockMapEntry@@XZ 0040f5ca f i libvcruntime:frame.obj
 0001:0000e5ec       ??Eiterator@HandlerMap@__FrameHandler3@@QAEAAV012@XZ 0040f5ec f i libvcruntime:frame.obj
 0001:0000e5f2       ??Eiterator@TryBlockMap@__FrameHandler3@@QAEAAV012@XZ 0040f5f2 f i libvcruntime:frame.obj
 0001:0000e5f8       ??Miterator@TryBlockMap@__FrameHandler3@@QBE_NABV012@@Z 0040f5f8 f i libvcruntime:frame.obj
 0001:0000e60b       ??_Ebad_exception@std@@UAEPAXI@Z 0040f60b f i libvcruntime:frame.obj
 0001:0000e60b       ??_Gbad_exception@std@@UAEPAXI@Z 0040f60b f i libvcruntime:frame.obj
 0001:0000e638       ?BuildCatchObject@__FrameHandler3@@SAXPAUEHExceptionRecord@@PAXPBU_s_HandlerType@@PBU_s_CatchableType@@@Z 0040f638 f   libvcruntime:frame.obj
 0001:0000e63d       ?BuildCatchObjectHelper@__FrameHandler3@@SAHPAUEHExceptionRecord@@PAXPBU_s_HandlerType@@PBU_s_CatchableType@@@Z 0040f63d f   libvcruntime:frame.obj
 0001:0000e89e       ?FrameUnwindToEmptyState@__FrameHandler3@@SAXPAUEHRegistrationNode@@PAXPBU_s_FuncInfo@@@Z 0040f89e f   libvcruntime:frame.obj
 0001:0000e8b6       ?FrameUnwindToState@__FrameHandler3@@SAXPAUEHRegistrationNode@@PAXPBU_s_FuncInfo@@H@Z 0040f8b6 f   libvcruntime:frame.obj
 0001:0000e99e       ?GetMaxState@__FrameHandler3@@SAHPAXPBU_s_FuncInfo@@@Z 0040f99e f i libvcruntime:frame.obj
 0001:0000ea7c       ?TypeMatch@__FrameHandler3@@SAHPBU_s_HandlerType@@PBU_s_CatchableType@@PBU_s_ThrowInfo@@@Z 0040fa7c f   libvcruntime:frame.obj
 0001:0000ea85       ?_CallMemberFunction1@@YGXQAX00@Z 0040fa85 f i libvcruntime:frame.obj
 0001:0000ea95       ?_CallMemberFunction2@@YGXQAX00H@Z 0040fa95 f i libvcruntime:frame.obj
 0001:0000eaa8       ?begin@HandlerMap@__FrameHandler3@@QAE?AViterator@12@XZ 0040faa8 f i libvcruntime:frame.obj
 0001:0000eab8       ?end@HandlerMap@__FrameHandler3@@QAE?AViterator@12@XZ 0040fab8 f i libvcruntime:frame.obj
 0001:0000eac9       ?getESTypes@__FrameHandler3@@SAPBU_s_ESTypeList@@PBU_s_FuncInfo@@@Z 0040fac9 f i libvcruntime:frame.obj
 0001:0000ead4       ?getLastEntry@HandlerMap@__FrameHandler3@@QAEPBU_s_HandlerType@@XZ 0040fad4 f i libvcruntime:frame.obj
 0001:0000eae2       ?getMagicNum@__FrameHandler3@@SAIPBU_s_FuncInfo@@@Z 0040fae2 f i libvcruntime:frame.obj
 0001:0000eaf1       ?getNumTryBlocks@TryBlockMap@__FrameHandler3@@QAEIXZ 0040faf1 f i libvcruntime:frame.obj
 0001:0000eaf7       ?isEHs@__FrameHandler3@@SA_NPBU_s_FuncInfo@@@Z 0040faf7 f i libvcruntime:frame.obj
 0001:0000eb04       ?isNoExcept@__FrameHandler3@@SA_NPBU_s_FuncInfo@@@Z 0040fb04 f i libvcruntime:frame.obj
 0001:0000eb14       ___BuildCatchObject        0040fb14 f   libvcruntime:frame.obj
 0001:0000eb19       ___BuildCatchObjectHelper  0040fb19 f   libvcruntime:frame.obj
 0001:0000eb22       ___TypeMatch               0040fb22 f   libvcruntime:frame.obj
 0001:0000eb2b       ___vcrt_EncodePointer      0040fb2b f i libvcruntime:frame.obj
 0001:0000eb40       __CallSettingFrame@12      0040fb40 f   libvcruntime:lowhelpr.obj
 0001:0000eb67       __NLG_Return               0040fb67     libvcruntime:lowhelpr.obj
 0001:0000eba0       __get_unexpected           0040fba0 f   libvcruntime:unexpected.obj
 0001:0000ebb2       _set_unexpected            0040fbb2 f   libvcruntime:unexpected.obj
 0001:0000ebd0       _unexpected                0040fbd0 f   libvcruntime:unexpected.obj
 0001:0000ebed       ?GetCurrentState@__FrameHandler3@@SAHPAUEHRegistrationNode@@PAXPBU_s_FuncInfo@@@Z 0040fbed f   libvcruntime:ehstate.obj
 0001:0000ec0a       ?SetState@__FrameHandler3@@SAXPAUEHRegistrationNode@@PBU_s_FuncInfo@@H@Z 0040fc0a f   libvcruntime:ehstate.obj
 0001:0000ec20       _strncpy                   0040fc20 f   libucrt:strncpy.obj
 0001:0000ed44       ??$?RPAU__crt_stdio_stream_data@@@__crt_internal_free_policy@@QBEXQBQAU__crt_stdio_stream_data@@@Z 0040fd44 f i libucrt:_file.obj
 0001:0000ed56       ??0?$__crt_unique_heap_ptr@PAU__crt_stdio_stream_data@@U__crt_internal_free_policy@@@@QAE@QAPAU__crt_stdio_stream_data@@@Z 0040fd56 f i libucrt:_file.obj
 0001:0000ed66       ??0__crt_stdio_stream@@QAE@QAU_iobuf@@@Z 0040fd66 f i libucrt:_file.obj
 0001:0000ed76       ??1?$__crt_unique_heap_ptr@PAU__crt_stdio_stream_data@@U__crt_internal_free_policy@@@@QAE@XZ 0040fd76 f i libucrt:_file.obj
 0001:0000ed88       ??C__crt_stdio_stream@@QBEPAU__crt_stdio_stream_data@@XZ 0040fd88 f i libucrt:_file.obj
 0001:0000ed8b       ?detach@?$__crt_unique_heap_ptr@PAU__crt_stdio_stream_data@@U__crt_internal_free_policy@@@@QAEPAPAU__crt_stdio_stream_data@@XZ 0040fd8b f i libucrt:_file.obj
 0001:0000ed91       ?release@?$__crt_unique_heap_ptr@PAU__crt_stdio_stream_data@@U__crt_internal_free_policy@@@@QAEXXZ 0040fd91 f i libucrt:_file.obj
 0001:0000eda3       ___acrt_initialize_stdio   0040fda3 f   libucrt:_file.obj
 0001:0000ee6b       ___acrt_iob_func           0040fe6b f   libucrt:_file.obj
 0001:0000ee7b       ___acrt_uninitialize_stdio 0040fe7b f   libucrt:_file.obj
 0001:0000eec7       __get_stream_buffer_pointers 0040fec7 f   libucrt:_file.obj
 0001:0000ef0d       __lock_file                0040ff0d f   libucrt:_file.obj
 0001:0000ef21       __unlock_file              0040ff21 f   libucrt:_file.obj
 0001:0000ef35       ??$__crt_interlocked_read@J@@YAJPDJ@Z 0040ff35 f i libucrt:fclose.obj
 0001:0000ef42       ??0?$cached@H@__crt_cached_ptd_host@@QAE@XZ 0040ff42 f i libucrt:fclose.obj
 0001:0000ef49       ??0?$cached@K@__crt_cached_ptd_host@@QAE@XZ 0040ff49 f i libucrt:fclose.obj
 0001:0000ef50       ??0__crt_cached_ptd_host@@QAE@QAU__crt_locale_pointers@@@Z 0040ff50 f i libucrt:fclose.obj
 0001:0000ef98       ??0__crt_scoped_get_last_error_reset@@QAE@XZ 0040ff98 f i libucrt:fclose.obj
 0001:0000efa9       ??1__crt_cached_ptd_host@@QAE@XZ 0040ffa9 f i libucrt:fclose.obj
 0001:0000efe5       ??1__crt_scoped_get_last_error_reset@@QAE@XZ 0040ffe5 f i libucrt:fclose.obj
 0001:0000f113       ?check_synchronize_global_state_index@__crt_cached_ptd_host@@AAEIABV__crt_scoped_get_last_error_reset@@@Z 00410113 f i libucrt:fclose.obj
 0001:0000f12b       ?check_synchronize_per_thread_data@__crt_cached_ptd_host@@AAEPAU__acrt_ptd@@XZ 0041012b f i libucrt:fclose.obj
 0001:0000f148       ?force_synchronize_global_state_index@__crt_cached_ptd_host@@AAEIABV__crt_scoped_get_last_error_reset@@@Z 00410148 f i libucrt:fclose.obj
 0001:0000f155       ?force_synchronize_per_thread_data@__crt_cached_ptd_host@@AAEPAU__acrt_ptd@@XZ 00410155 f i libucrt:fclose.obj
 0001:0000f19b       ?get_current_state_index@__crt_state_management@@YAIABV__crt_scoped_get_last_error_reset@@@Z 0041019b f i libucrt:fclose.obj
 0001:0000f19e       ?get_errno@__crt_cached_ptd_host@@QAEAAU?$cached@H@1@XZ 0041019e f i libucrt:fclose.obj
 0001:0000f1a2       ?get_flags@__crt_stdio_stream@@QBEJXZ 004101a2 f i libucrt:fclose.obj
 0001:0000f1a9       ?get_raw_ptd@__crt_cached_ptd_host@@QAEPAU__acrt_ptd@@XZ 004101a9 f i libucrt:fclose.obj
 0001:0000f1c6       ?is_in_use@__crt_stdio_stream@@QBE_NXZ 004101c6 f i libucrt:fclose.obj
 0001:0000f1d2       ?is_string_backed@__crt_stdio_stream@@QBE_NXZ 004101d2 f i libucrt:fclose.obj
 0001:0000f1de       ?public_stream@__crt_stdio_stream@@QBEPAU_iobuf@@XZ 004101de f i libucrt:fclose.obj
 0001:0000f1e1       ?set@?$cached@H@__crt_cached_ptd_host@@QAEHH@Z 004101e1 f i libucrt:fclose.obj
 0001:0000f1f3       ?unsafe_value@?$cached@H@__crt_cached_ptd_host@@QAEHXZ 004101f3 f i libucrt:fclose.obj
 0001:0000f1f6       ?unsafe_value@?$cached@K@__crt_cached_ptd_host@@QAEKXZ 004101f6 f i libucrt:fclose.obj
 0001:0000f1f9       ?valid@?$cached@H@__crt_cached_ptd_host@@QBE_NXZ 004101f9 f i libucrt:fclose.obj
 0001:0000f1fd       ?valid@?$cached@K@__crt_cached_ptd_host@@QBE_NXZ 004101fd f i libucrt:fclose.obj
 0001:0000f201       ?valid@__crt_stdio_stream@@QBE_NXZ 00410201 f i libucrt:fclose.obj
 0001:0000f208       ___acrt_enable_global_locale_sync 00410208 f i libucrt:fclose.obj
 0001:0000f21d       ___acrt_locale_changed     0041021d f i libucrt:fclose.obj
 0001:0000f228       __fclose_nolock            00410228 f   libucrt:fclose.obj
 0001:0000f258       _fclose                    00410258 f   libucrt:fclose.obj
 0001:0000f40d       ??$getc_nolock@PAU_iobuf@@@?$__crt_char_traits@D@@SAH$$QAPAU_iobuf@@@Z 0041040d f i libucrt:fgets.obj
 0001:0000f41f       ??$getc_nolock@PAU_iobuf@@@?$__crt_char_traits@_W@@SAG$$QAPAU_iobuf@@@Z 0041041f f i libucrt:fgets.obj
 0001:0000f431       ?validate_stream_is_ansi_if_required@?$__acrt_stdio_char_traits@D@@SA_NQAU_iobuf@@@Z 00410431 f i libucrt:fgets.obj
 0001:0000f4b8       ?validate_stream_is_ansi_if_required@?$__acrt_stdio_char_traits@_W@@SA_NQAU_iobuf@@@Z 004104b8 f i libucrt:fgets.obj
 0001:0000f4bb       _fgets                     004104bb f   libucrt:fgets.obj
 0001:0000f4c6       _fgetws                    004104c6 f   libucrt:fgets.obj
 0001:0000f6cc       ??$open_file@ABQBDABQBDABHPAU_iobuf@@@?$__crt_char_traits@D@@SAPAU_iobuf@@ABQBD0ABH$$QAPAU1@@Z 004106cc f i libucrt:fopen.obj
 0001:0000f6ef       ??$open_file@ABQB_WABQB_WABHPAU_iobuf@@@?$__crt_char_traits@_W@@SAPAU_iobuf@@ABQB_W0ABH$$QAPAU1@@Z 004106ef f i libucrt:fopen.obj
 0001:0000f712       ?unlock@__crt_stdio_stream@@QBEXXZ 00410712 f i libucrt:fopen.obj
 0001:0000f71b       __fsopen                   0041071b f   libucrt:fopen.obj
 0001:0000f726       __wfopen                   00410726 f   libucrt:fopen.obj
 0001:0000f73d       __wfopen_s                 0041073d f   libucrt:fopen.obj
 0001:0000f784       __wfsopen                  00410784 f   libucrt:fopen.obj
 0001:0000f78f       _fopen                     0041078f f   libucrt:fopen.obj
 0001:0000f7a6       _fopen_s                   004107a6 f   libucrt:fopen.obj
 0001:0000f7ed       ??$?0ABV?$stream_output_adapter@D@__crt_stdio_output@@AB_KABQBDAAV__crt_cached_ptd_host@@ABQAD@?$format_validation_base@DV?$stream_output_adapter@D@__crt_stdio_output@@@__crt_stdio_output@@IAE@ABV?$stream_output_adapter@D@1@AB_KABQBDAAV__crt_cached_ptd_host@@ABQAD@Z 004107ed f i libucrt:output.obj
 0001:0000f810       ??$?0ABV?$stream_output_adapter@D@__crt_stdio_output@@AB_KABQBDAAV__crt_cached_ptd_host@@ABQAD@?$positional_parameter_base@DV?$stream_output_adapter@D@__crt_stdio_output@@@__crt_stdio_output@@IAE@ABV?$stream_output_adapter@D@1@AB_KABQBDAAV__crt_cached_ptd_host@@ABQAD@Z 00410810 f i libucrt:output.obj
 0001:0000f858       ??$?0ABV?$stream_output_adapter@D@__crt_stdio_output@@AB_KABQBDAAV__crt_cached_ptd_host@@ABQAD@?$standard_base@DV?$stream_output_adapter@D@__crt_stdio_output@@@__crt_stdio_output@@IAE@ABV?$stream_output_adapter@D@1@AB_KABQBDAAV__crt_cached_ptd_host@@ABQAD@Z 00410858 f i libucrt:output.obj
 0001:0000f88b       ??$?0ABV?$stream_output_adapter@_W@__crt_stdio_output@@AB_KABQB_WAAV__crt_cached_ptd_host@@ABQAD@?$format_validation_base@_WV?$stream_output_adapter@_W@__crt_stdio_output@@@__crt_stdio_output@@IAE@ABV?$stream_output_adapter@_W@1@AB_KABQB_WAAV__crt_cached_ptd_host@@ABQAD@Z 0041088b f i libucrt:output.obj
 0001:0000f8ae       ??$?0ABV?$stream_output_adapter@_W@__crt_stdio_output@@AB_KABQB_WAAV__crt_cached_ptd_host@@ABQAD@?$positional_parameter_base@_WV?$stream_output_adapter@_W@__crt_stdio_output@@@__crt_stdio_output@@IAE@ABV?$stream_output_adapter@_W@1@AB_KABQB_WAAV__crt_cached_ptd_host@@ABQAD@Z 004108ae f i libucrt:output.obj
 0001:0000f8f6       ??$?0ABV?$stream_output_adapter@_W@__crt_stdio_output@@AB_KABQB_WAAV__crt_cached_ptd_host@@ABQAD@?$standard_base@_WV?$stream_output_adapter@_W@__crt_stdio_output@@@__crt_stdio_output@@IAE@ABV?$stream_output_adapter@_W@1@AB_KABQB_WAAV__crt_cached_ptd_host@@ABQAD@Z 004108f6 f i libucrt:output.obj
 0001:0000f929       ??$?0ABV?$string_output_adapter@D@__crt_stdio_output@@AB_KABQBDAAV__crt_cached_ptd_host@@ABQAD@?$format_validation_base@DV?$string_output_adapter@D@__crt_stdio_output@@@__crt_stdio_output@@IAE@ABV?$string_output_adapter@D@1@AB_KABQBDAAV__crt_cached_ptd_host@@ABQAD@Z 00410929 f i libucrt:output.obj
 0001:0000f94c       ??$?0ABV?$string_output_adapter@D@__crt_stdio_output@@AB_KABQBDAAV__crt_cached_ptd_host@@ABQAD@?$positional_parameter_base@DV?$string_output_adapter@D@__crt_stdio_output@@@__crt_stdio_output@@IAE@ABV?$string_output_adapter@D@1@AB_KABQBDAAV__crt_cached_ptd_host@@ABQAD@Z 0041094c f i libucrt:output.obj
 0001:0000f994       ??$?0ABV?$string_output_adapter@D@__crt_stdio_output@@AB_KABQBDAAV__crt_cached_ptd_host@@ABQAD@?$standard_base@DV?$string_output_adapter@D@__crt_stdio_output@@@__crt_stdio_output@@IAE@ABV?$string_output_adapter@D@1@AB_KABQBDAAV__crt_cached_ptd_host@@ABQAD@Z 00410994 f i libucrt:output.obj
 0001:0000f9c7       ??$?0ABV?$string_output_adapter@_W@__crt_stdio_output@@AB_KABQB_WAAV__crt_cached_ptd_host@@ABQAD@?$format_validation_base@_WV?$string_output_adapter@_W@__crt_stdio_output@@@__crt_stdio_output@@IAE@ABV?$string_output_adapter@_W@1@AB_KABQB_WAAV__crt_cached_ptd_host@@ABQAD@Z 004109c7 f i libucrt:output.obj
 0001:0000f9ea       ??$?0ABV?$string_output_adapter@_W@__crt_stdio_output@@AB_KABQB_WAAV__crt_cached_ptd_host@@ABQAD@?$positional_parameter_base@_WV?$string_output_adapter@_W@__crt_stdio_output@@@__crt_stdio_output@@IAE@ABV?$string_output_adapter@_W@1@AB_KABQB_WAAV__crt_cached_ptd_host@@ABQAD@Z 004109ea f i libucrt:output.obj
 0001:0000fa32       ??$?0ABV?$string_output_adapter@_W@__crt_stdio_output@@AB_KABQB_WAAV__crt_cached_ptd_host@@ABQAD@?$standard_base@_WV?$string_output_adapter@_W@__crt_stdio_output@@@__crt_stdio_output@@IAE@ABV?$string_output_adapter@_W@1@AB_KABQB_WAAV__crt_cached_ptd_host@@ABQAD@Z 00410a32 f i libucrt:output.obj
 0001:0000fd6b       ??$_tcstol_internal@DPAPAD$0A@@@YAJAAV__crt_cached_ptd_host@@QBDQAPADH@Z 00410d6b f i libucrt:output.obj
 0001:0000fd96       ??$_tcstol_internal@_WPAPA_W$0A@@@YAJAAV__crt_cached_ptd_host@@QB_WQAPA_WH@Z 00410d96 f i libucrt:output.obj
 0001:00010cf0       ??$count@D@formatting_buffer@__crt_stdio_output@@QBEIXZ 00411cf0 f i libucrt:output.obj
 0001:00010d08       ??$count@_W@formatting_buffer@__crt_stdio_output@@QBEIXZ 00411d08 f i libucrt:output.obj
 0001:00010d21       ??$data@D@formatting_buffer@__crt_stdio_output@@QAEPADXZ 00411d21 f i libucrt:output.obj
 0001:00010d2e       ??$data@_W@formatting_buffer@__crt_stdio_output@@QAEPA_WXZ 00411d2e f i libucrt:output.obj
 0001:00010d3b       ??$ensure_buffer_is_big_enough@D@formatting_buffer@__crt_stdio_output@@QAE_NIAAV__crt_cached_ptd_host@@@Z 00411d3b f i libucrt:output.obj
 0001:00010dbc       ??$ensure_buffer_is_big_enough@_W@formatting_buffer@__crt_stdio_output@@QAE_NIAAV__crt_cached_ptd_host@@@Z 00411dbc f i libucrt:output.obj
 0001:00010e3e       ??$extract_argument_from_va_list@C_J@?$positional_parameter_base@DV?$stream_output_adapter@D@__crt_stdio_output@@@__crt_stdio_output@@IAE_NAA_J@Z 00411e3e f i libucrt:output.obj
 0001:00010ec6       ??$extract_argument_from_va_list@C_J@?$positional_parameter_base@DV?$string_output_adapter@D@__crt_stdio_output@@@__crt_stdio_output@@IAE_NAA_J@Z 00411ec6 f i libucrt:output.obj
 0001:00010f4e       ??$extract_argument_from_va_list@C_J@?$positional_parameter_base@_WV?$stream_output_adapter@_W@__crt_stdio_output@@@__crt_stdio_output@@IAE_NAA_J@Z 00411f4e f i libucrt:output.obj
 0001:00010fd7       ??$extract_argument_from_va_list@C_J@?$positional_parameter_base@_WV?$string_output_adapter@_W@__crt_stdio_output@@@__crt_stdio_output@@IAE_NAA_J@Z 00411fd7 f i libucrt:output.obj
 0001:00011060       ??$extract_argument_from_va_list@C_J@?$standard_base@DV?$stream_output_adapter@D@__crt_stdio_output@@@__crt_stdio_output@@IAE_NAA_J@Z 00412060 f i libucrt:output.obj
 0001:0001107f       ??$extract_argument_from_va_list@C_J@?$standard_base@DV?$string_output_adapter@D@__crt_stdio_output@@@__crt_stdio_output@@IAE_NAA_J@Z 0041207f f i libucrt:output.obj
 0001:0001109e       ??$extract_argument_from_va_list@C_J@?$standard_base@_WV?$stream_output_adapter@_W@__crt_stdio_output@@@__crt_stdio_output@@IAE_NAA_J@Z 0041209e f i libucrt:output.obj
 0001:000110bd       ??$extract_argument_from_va_list@C_J@?$standard_base@_WV?$string_output_adapter@_W@__crt_stdio_output@@@__crt_stdio_output@@IAE_NAA_J@Z 004120bd f i libucrt:output.obj
 0001:000110dc       ??$extract_argument_from_va_list@E_J@?$positional_parameter_base@DV?$stream_output_adapter@D@__crt_stdio_output@@@__crt_stdio_output@@IAE_NAA_J@Z 004120dc f i libucrt:output.obj
 0001:00011164       ??$extract_argument_from_va_list@E_J@?$positional_parameter_base@DV?$string_output_adapter@D@__crt_stdio_output@@@__crt_stdio_output@@IAE_NAA_J@Z 00412164 f i libucrt:output.obj
 0001:000111ec       ??$extract_argument_from_va_list@E_J@?$positional_parameter_base@_WV?$stream_output_adapter@_W@__crt_stdio_output@@@__crt_stdio_output@@IAE_NAA_J@Z 004121ec f i libucrt:output.obj
 0001:00011275       ??$extract_argument_from_va_list@E_J@?$positional_parameter_base@_WV?$string_output_adapter@_W@__crt_stdio_output@@@__crt_stdio_output@@IAE_NAA_J@Z 00412275 f i libucrt:output.obj
 0001:000112fe       ??$extract_argument_from_va_list@E_J@?$standard_base@DV?$stream_output_adapter@D@__crt_stdio_output@@@__crt_stdio_output@@IAE_NAA_J@Z 004122fe f i libucrt:output.obj
 0001:0001131d       ??$extract_argument_from_va_list@E_J@?$standard_base@DV?$string_output_adapter@D@__crt_stdio_output@@@__crt_stdio_output@@IAE_NAA_J@Z 0041231d f i libucrt:output.obj
 0001:0001133c       ??$extract_argument_from_va_list@E_J@?$standard_base@_WV?$stream_output_adapter@_W@__crt_stdio_output@@@__crt_stdio_output@@IAE_NAA_J@Z 0041233c f i libucrt:output.obj
 0001:0001135b       ??$extract_argument_from_va_list@E_J@?$standard_base@_WV?$string_output_adapter@_W@__crt_stdio_output@@@__crt_stdio_output@@IAE_NAA_J@Z 0041235b f i libucrt:output.obj
 0001:0001137a       ??$extract_argument_from_va_list@F_J@?$positional_parameter_base@DV?$stream_output_adapter@D@__crt_stdio_output@@@__crt_stdio_output@@IAE_NAA_J@Z 0041237a f i libucrt:output.obj
 0001:00011402       ??$extract_argument_from_va_list@F_J@?$positional_parameter_base@DV?$string_output_adapter@D@__crt_stdio_output@@@__crt_stdio_output@@IAE_NAA_J@Z 00412402 f i libucrt:output.obj
 0001:0001148a       ??$extract_argument_from_va_list@F_J@?$positional_parameter_base@_WV?$stream_output_adapter@_W@__crt_stdio_output@@@__crt_stdio_output@@IAE_NAA_J@Z 0041248a f i libucrt:output.obj
 0001:00011513       ??$extract_argument_from_va_list@F_J@?$positional_parameter_base@_WV?$string_output_adapter@_W@__crt_stdio_output@@@__crt_stdio_output@@IAE_NAA_J@Z 00412513 f i libucrt:output.obj
 0001:0001159c       ??$extract_argument_from_va_list@F_J@?$standard_base@DV?$stream_output_adapter@D@__crt_stdio_output@@@__crt_stdio_output@@IAE_NAA_J@Z 0041259c f i libucrt:output.obj
 0001:000115bb       ??$extract_argument_from_va_list@F_J@?$standard_base@DV?$string_output_adapter@D@__crt_stdio_output@@@__crt_stdio_output@@IAE_NAA_J@Z 004125bb f i libucrt:output.obj
 0001:000115da       ??$extract_argument_from_va_list@F_J@?$standard_base@_WV?$stream_output_adapter@_W@__crt_stdio_output@@@__crt_stdio_output@@IAE_NAA_J@Z 004125da f i libucrt:output.obj
 0001:000115f9       ??$extract_argument_from_va_list@F_J@?$standard_base@_WV?$string_output_adapter@_W@__crt_stdio_output@@@__crt_stdio_output@@IAE_NAA_J@Z 004125f9 f i libucrt:output.obj
 0001:00011618       ??$extract_argument_from_va_list@GD@?$positional_parameter_base@DV?$stream_output_adapter@D@__crt_stdio_output@@@__crt_stdio_output@@IAE_NAAD@Z 00412618 f i libucrt:output.obj
 0001:0001169f       ??$extract_argument_from_va_list@GD@?$positional_parameter_base@DV?$string_output_adapter@D@__crt_stdio_output@@@__crt_stdio_output@@IAE_NAAD@Z 0041269f f i libucrt:output.obj
 0001:00011726       ??$extract_argument_from_va_list@GD@?$standard_base@DV?$stream_output_adapter@D@__crt_stdio_output@@@__crt_stdio_output@@IAE_NAAD@Z 00412726 f i libucrt:output.obj
 0001:00011740       ??$extract_argument_from_va_list@GD@?$standard_base@DV?$string_output_adapter@D@__crt_stdio_output@@@__crt_stdio_output@@IAE_NAAD@Z 00412740 f i libucrt:output.obj
 0001:0001175a       ??$extract_argument_from_va_list@G_J@?$positional_parameter_base@DV?$stream_output_adapter@D@__crt_stdio_output@@@__crt_stdio_output@@IAE_NAA_J@Z 0041275a f i libucrt:output.obj
 0001:000117e2       ??$extract_argument_from_va_list@G_J@?$positional_parameter_base@DV?$string_output_adapter@D@__crt_stdio_output@@@__crt_stdio_output@@IAE_NAA_J@Z 004127e2 f i libucrt:output.obj
 0001:0001186a       ??$extract_argument_from_va_list@G_J@?$positional_parameter_base@_WV?$stream_output_adapter@_W@__crt_stdio_output@@@__crt_stdio_output@@IAE_NAA_J@Z 0041286a f i libucrt:output.obj
 0001:000118f3       ??$extract_argument_from_va_list@G_J@?$positional_parameter_base@_WV?$string_output_adapter@_W@__crt_stdio_output@@@__crt_stdio_output@@IAE_NAA_J@Z 004128f3 f i libucrt:output.obj
 0001:0001197c       ??$extract_argument_from_va_list@G_J@?$standard_base@DV?$stream_output_adapter@D@__crt_stdio_output@@@__crt_stdio_output@@IAE_NAA_J@Z 0041297c f i libucrt:output.obj
 0001:0001199b       ??$extract_argument_from_va_list@G_J@?$standard_base@DV?$string_output_adapter@D@__crt_stdio_output@@@__crt_stdio_output@@IAE_NAA_J@Z 0041299b f i libucrt:output.obj
 0001:000119ba       ??$extract_argument_from_va_list@G_J@?$standard_base@_WV?$stream_output_adapter@_W@__crt_stdio_output@@@__crt_stdio_output@@IAE_NAA_J@Z 004129ba f i libucrt:output.obj
 0001:000119d9       ??$extract_argument_from_va_list@G_J@?$standard_base@_WV?$string_output_adapter@_W@__crt_stdio_output@@@__crt_stdio_output@@IAE_NAA_J@Z 004129d9 f i libucrt:output.obj
 0001:000119f8       ??$extract_argument_from_va_list@H_J@?$positional_parameter_base@DV?$stream_output_adapter@D@__crt_stdio_output@@@__crt_stdio_output@@IAE_NAA_J@Z 004129f8 f i libucrt:output.obj
 0001:00011a7e       ??$extract_argument_from_va_list@H_J@?$positional_parameter_base@DV?$string_output_adapter@D@__crt_stdio_output@@@__crt_stdio_output@@IAE_NAA_J@Z 00412a7e f i libucrt:output.obj
 0001:00011b04       ??$extract_argument_from_va_list@H_J@?$positional_parameter_base@_WV?$stream_output_adapter@_W@__crt_stdio_output@@@__crt_stdio_output@@IAE_NAA_J@Z 00412b04 f i libucrt:output.obj
 0001:00011b8b       ??$extract_argument_from_va_list@H_J@?$positional_parameter_base@_WV?$string_output_adapter@_W@__crt_stdio_output@@@__crt_stdio_output@@IAE_NAA_J@Z 00412b8b f i libucrt:output.obj
 0001:00011c12       ??$extract_argument_from_va_list@H_J@?$standard_base@DV?$stream_output_adapter@D@__crt_stdio_output@@@__crt_stdio_output@@IAE_NAA_J@Z 00412c12 f i libucrt:output.obj
 0001:00011c30       ??$extract_argument_from_va_list@H_J@?$standard_base@DV?$string_output_adapter@D@__crt_stdio_output@@@__crt_stdio_output@@IAE_NAA_J@Z 00412c30 f i libucrt:output.obj
 0001:00011c4e       ??$extract_argument_from_va_list@H_J@?$standard_base@_WV?$stream_output_adapter@_W@__crt_stdio_output@@@__crt_stdio_output@@IAE_NAA_J@Z 00412c4e f i libucrt:output.obj
 0001:00011c6c       ??$extract_argument_from_va_list@H_J@?$standard_base@_WV?$string_output_adapter@_W@__crt_stdio_output@@@__crt_stdio_output@@IAE_NAA_J@Z 00412c6c f i libucrt:output.obj
 0001:00011c8a       ??$extract_argument_from_va_list@I_J@?$positional_parameter_base@DV?$stream_output_adapter@D@__crt_stdio_output@@@__crt_stdio_output@@IAE_NAA_J@Z 00412c8a f i libucrt:output.obj
 0001:00011d19       ??$extract_argument_from_va_list@I_J@?$positional_parameter_base@DV?$string_output_adapter@D@__crt_stdio_output@@@__crt_stdio_output@@IAE_NAA_J@Z 00412d19 f i libucrt:output.obj
 0001:00011da8       ??$extract_argument_from_va_list@I_J@?$positional_parameter_base@_WV?$stream_output_adapter@_W@__crt_stdio_output@@@__crt_stdio_output@@IAE_NAA_J@Z 00412da8 f i libucrt:output.obj
 0001:00011e38       ??$extract_argument_from_va_list@I_J@?$positional_parameter_base@_WV?$string_output_adapter@_W@__crt_stdio_output@@@__crt_stdio_output@@IAE_NAA_J@Z 00412e38 f i libucrt:output.obj
 0001:00011ec8       ??$extract_argument_from_va_list@I_J@?$standard_base@DV?$stream_output_adapter@D@__crt_stdio_output@@@__crt_stdio_output@@IAE_NAA_J@Z 00412ec8 f i libucrt:output.obj
 0001:00011ee6       ??$extract_argument_from_va_list@I_J@?$standard_base@DV?$string_output_adapter@D@__crt_stdio_output@@@__crt_stdio_output@@IAE_NAA_J@Z 00412ee6 f i libucrt:output.obj
 0001:00011f04       ??$extract_argument_from_va_list@I_J@?$standard_base@_WV?$stream_output_adapter@_W@__crt_stdio_output@@@__crt_stdio_output@@IAE_NAA_J@Z 00412f04 f i libucrt:output.obj
 0001:00011f22       ??$extract_argument_from_va_list@I_J@?$standard_base@_WV?$string_output_adapter@_W@__crt_stdio_output@@@__crt_stdio_output@@IAE_NAA_J@Z 00412f22 f i libucrt:output.obj
 0001:00011f40       ??$extract_argument_from_va_list@PADPAD@?$positional_parameter_base@DV?$stream_output_adapter@D@__crt_stdio_output@@@__crt_stdio_output@@IAE_NAAPAD@Z 00412f40 f i libucrt:output.obj
 0001:00011fc7       ??$extract_argument_from_va_list@PADPAD@?$positional_parameter_base@DV?$string_output_adapter@D@__crt_stdio_output@@@__crt_stdio_output@@IAE_NAAPAD@Z 00412fc7 f i libucrt:output.obj
 0001:0001204e       ??$extract_argument_from_va_list@PADPAD@?$positional_parameter_base@_WV?$stream_output_adapter@_W@__crt_stdio_output@@@__crt_stdio_output@@IAE_NAAPAD@Z 0041304e f i libucrt:output.obj
 0001:000120d6       ??$extract_argument_from_va_list@PADPAD@?$positional_parameter_base@_WV?$string_output_adapter@_W@__crt_stdio_output@@@__crt_stdio_output@@IAE_NAAPAD@Z 004130d6 f i libucrt:output.obj
 0001:0001215e       ??$extract_argument_from_va_list@PADPAD@?$standard_base@DV?$stream_output_adapter@D@__crt_stdio_output@@@__crt_stdio_output@@IAE_NAAPAD@Z 0041315e f i libucrt:output.obj
 0001:00012178       ??$extract_argument_from_va_list@PADPAD@?$standard_base@DV?$string_output_adapter@D@__crt_stdio_output@@@__crt_stdio_output@@IAE_NAAPAD@Z 00413178 f i libucrt:output.obj
 0001:00012192       ??$extract_argument_from_va_list@PADPAD@?$standard_base@_WV?$stream_output_adapter@_W@__crt_stdio_output@@@__crt_stdio_output@@IAE_NAAPAD@Z 00413192 f i libucrt:output.obj
 0001:000121ac       ??$extract_argument_from_va_list@PADPAD@?$standard_base@_WV?$string_output_adapter@_W@__crt_stdio_output@@@__crt_stdio_output@@IAE_NAAPAD@Z 004131ac f i libucrt:output.obj
 0001:000121c6       ??$extract_argument_from_va_list@PAUansi_string@?1??type_case_Z@?$output_processor@DV?$stream_output_adapter@D@__crt_stdio_output@@V?$format_validation_base@DV?$stream_output_adapter@D@__crt_stdio_output@@@2@@__crt_stdio_output@@AAE_NXZ@PAU1?1??234@AAE_NXZ@@?$standard_base@DV?$stream_output_adapter@D@__crt_stdio_output@@@__crt_stdio_output@@IAE_NAAPAUansi_string@?1??type_case_Z@?$output_processor@DV?$stream_output_adapter@D@__crt_stdio_output@@V?$format_validation_base@DV?$stream_output_adapter@D@__crt_stdio_output@@@2@@1@AAE_NXZ@@Z 004131c6 f i libucrt:output.obj
 0001:000121e0       ??$extract_argument_from_va_list@PAUansi_string@?1??type_case_Z@?$output_processor@DV?$stream_output_adapter@D@__crt_stdio_output@@V?$positional_parameter_base@DV?$stream_output_adapter@D@__crt_stdio_output@@@2@@__crt_stdio_output@@AAE_NXZ@PAU1?1??234@AAE_NXZ@@?$positional_parameter_base@DV?$stream_output_adapter@D@__crt_stdio_output@@@__crt_stdio_output@@IAE_NAAPAUansi_string@?1??type_case_Z@?$output_processor@DV?$stream_output_adapter@D@__crt_stdio_output@@V?$positional_parameter_base@DV?$stream_output_adapter@D@__crt_stdio_output@@@2@@1@AAE_NXZ@@Z 004131e0 f i libucrt:output.obj
 0001:00012267       ??$extract_argument_from_va_list@PAUansi_string@?1??type_case_Z@?$output_processor@DV?$stream_output_adapter@D@__crt_stdio_output@@V?$positional_parameter_base@DV?$stream_output_adapter@D@__crt_stdio_output@@@2@@__crt_stdio_output@@AAE_NXZ@PAU1?1??234@AAE_NXZ@@?$standard_base@DV?$stream_output_adapter@D@__crt_stdio_output@@@__crt_stdio_output@@IAE_NAAPAUansi_string@?1??type_case_Z@?$output_processor@DV?$stream_output_adapter@D@__crt_stdio_output@@V?$positional_parameter_base@DV?$stream_output_adapter@D@__crt_stdio_output@@@2@@1@AAE_NXZ@@Z 00413267 f i libucrt:output.obj
 0001:00012281       ??$extract_argument_from_va_list@PAUansi_string@?1??type_case_Z@?$output_processor@DV?$stream_output_adapter@D@__crt_stdio_output@@V?$standard_base@DV?$stream_output_adapter@D@__crt_stdio_output@@@2@@__crt_stdio_output@@AAE_NXZ@PAU1?1??234@AAE_NXZ@@?$standard_base@DV?$stream_output_adapter@D@__crt_stdio_output@@@__crt_stdio_output@@IAE_NAAPAUansi_string@?1??type_case_Z@?$output_processor@DV?$stream_output_adapter@D@__crt_stdio_output@@V?$standard_base@DV?$stream_output_adapter@D@__crt_stdio_output@@@2@@1@AAE_NXZ@@Z 00413281 f i libucrt:output.obj
 0001:0001229b       ??$extract_argument_from_va_list@PAUansi_string@?1??type_case_Z@?$output_processor@DV?$string_output_adapter@D@__crt_stdio_output@@V?$format_validation_base@DV?$string_output_adapter@D@__crt_stdio_output@@@2@@__crt_stdio_output@@AAE_NXZ@PAU1?1??234@AAE_NXZ@@?$standard_base@DV?$string_output_adapter@D@__crt_stdio_output@@@__crt_stdio_output@@IAE_NAAPAUansi_string@?1??type_case_Z@?$output_processor@DV?$string_output_adapter@D@__crt_stdio_output@@V?$format_validation_base@DV?$string_output_adapter@D@__crt_stdio_output@@@2@@1@AAE_NXZ@@Z 0041329b f i libucrt:output.obj
 0001:000122b5       ??$extract_argument_from_va_list@PAUansi_string@?1??type_case_Z@?$output_processor@DV?$string_output_adapter@D@__crt_stdio_output@@V?$positional_parameter_base@DV?$string_output_adapter@D@__crt_stdio_output@@@2@@__crt_stdio_output@@AAE_NXZ@PAU1?1??234@AAE_NXZ@@?$positional_parameter_base@DV?$string_output_adapter@D@__crt_stdio_output@@@__crt_stdio_output@@IAE_NAAPAUansi_string@?1??type_case_Z@?$output_processor@DV?$string_output_adapter@D@__crt_stdio_output@@V?$positional_parameter_base@DV?$string_output_adapter@D@__crt_stdio_output@@@2@@1@AAE_NXZ@@Z 004132b5 f i libucrt:output.obj
 0001:0001233c       ??$extract_argument_from_va_list@PAUansi_string@?1??type_case_Z@?$output_processor@DV?$string_output_adapter@D@__crt_stdio_output@@V?$positional_parameter_base@DV?$string_output_adapter@D@__crt_stdio_output@@@2@@__crt_stdio_output@@AAE_NXZ@PAU1?1??234@AAE_NXZ@@?$standard_base@DV?$string_output_adapter@D@__crt_stdio_output@@@__crt_stdio_output@@IAE_NAAPAUansi_string@?1??type_case_Z@?$output_processor@DV?$string_output_adapter@D@__crt_stdio_output@@V?$positional_parameter_base@DV?$string_output_adapter@D@__crt_stdio_output@@@2@@1@AAE_NXZ@@Z 0041333c f i libucrt:output.obj
 0001:00012356       ??$extract_argument_from_va_list@PAUansi_string@?1??type_case_Z@?$output_processor@DV?$string_output_adapter@D@__crt_stdio_output@@V?$standard_base@DV?$string_output_adapter@D@__crt_stdio_output@@@2@@__crt_stdio_output@@AAE_NXZ@PAU1?1??234@AAE_NXZ@@?$standard_base@DV?$string_output_adapter@D@__crt_stdio_output@@@__crt_stdio_output@@IAE_NAAPAUansi_string@?1??type_case_Z@?$output_processor@DV?$string_output_adapter@D@__crt_stdio_output@@V?$standard_base@DV?$string_output_adapter@D@__crt_stdio_output@@@2@@1@AAE_NXZ@@Z 00413356 f i libucrt:output.obj
 0001:00012370       ??$extract_argument_from_va_list@PAUansi_string@?1??type_case_Z@?$output_processor@_WV?$stream_output_adapter@_W@__crt_stdio_output@@V?$format_validation_base@_WV?$stream_output_adapter@_W@__crt_stdio_output@@@2@@__crt_stdio_output@@AAE_NXZ@PAU1?1??234@AAE_NXZ@@?$standard_base@_WV?$stream_output_adapter@_W@__crt_stdio_output@@@__crt_stdio_output@@IAE_NAAPAUansi_string@?1??type_case_Z@?$output_processor@_WV?$stream_output_adapter@_W@__crt_stdio_output@@V?$format_validation_base@_WV?$stream_output_adapter@_W@__crt_stdio_output@@@2@@1@AAE_NXZ@@Z 00413370 f i libucrt:output.obj
 0001:0001238a       ??$extract_argument_from_va_list@PAUansi_string@?1??type_case_Z@?$output_processor@_WV?$stream_output_adapter@_W@__crt_stdio_output@@V?$positional_parameter_base@_WV?$stream_output_adapter@_W@__crt_stdio_output@@@2@@__crt_stdio_output@@AAE_NXZ@PAU1?1??234@AAE_NXZ@@?$positional_parameter_base@_WV?$stream_output_adapter@_W@__crt_stdio_output@@@__crt_stdio_output@@IAE_NAAPAUansi_string@?1??type_case_Z@?$output_processor@_WV?$stream_output_adapter@_W@__crt_stdio_output@@V?$positional_parameter_base@_WV?$stream_output_adapter@_W@__crt_stdio_output@@@2@@1@AAE_NXZ@@Z 0041338a f i libucrt:output.obj
 0001:00012412       ??$extract_argument_from_va_list@PAUansi_string@?1??type_case_Z@?$output_processor@_WV?$stream_output_adapter@_W@__crt_stdio_output@@V?$positional_parameter_base@_WV?$stream_output_adapter@_W@__crt_stdio_output@@@2@@__crt_stdio_output@@AAE_NXZ@PAU1?1??234@AAE_NXZ@@?$standard_base@_WV?$stream_output_adapter@_W@__crt_stdio_output@@@__crt_stdio_output@@IAE_NAAPAUansi_string@?1??type_case_Z@?$output_processor@_WV?$stream_output_adapter@_W@__crt_stdio_output@@V?$positional_parameter_base@_WV?$stream_output_adapter@_W@__crt_stdio_output@@@2@@1@AAE_NXZ@@Z 00413412 f i libucrt:output.obj
 0001:0001242c       ??$extract_argument_from_va_list@PAUansi_string@?1??type_case_Z@?$output_processor@_WV?$stream_output_adapter@_W@__crt_stdio_output@@V?$standard_base@_WV?$stream_output_adapter@_W@__crt_stdio_output@@@2@@__crt_stdio_output@@AAE_NXZ@PAU1?1??234@AAE_NXZ@@?$standard_base@_WV?$stream_output_adapter@_W@__crt_stdio_output@@@__crt_stdio_output@@IAE_NAAPAUansi_string@?1??type_case_Z@?$output_processor@_WV?$stream_output_adapter@_W@__crt_stdio_output@@V?$standard_base@_WV?$stream_output_adapter@_W@__crt_stdio_output@@@2@@1@AAE_NXZ@@Z 0041342c f i libucrt:output.obj
 0001:00012446       ??$extract_argument_from_va_list@PAUansi_string@?1??type_case_Z@?$output_processor@_WV?$string_output_adapter@_W@__crt_stdio_output@@V?$format_validation_base@_WV?$string_output_adapter@_W@__crt_stdio_output@@@2@@__crt_stdio_output@@AAE_NXZ@PAU1?1??234@AAE_NXZ@@?$standard_base@_WV?$string_output_adapter@_W@__crt_stdio_output@@@__crt_stdio_output@@IAE_NAAPAUansi_string@?1??type_case_Z@?$output_processor@_WV?$string_output_adapter@_W@__crt_stdio_output@@V?$format_validation_base@_WV?$string_output_adapter@_W@__crt_stdio_output@@@2@@1@AAE_NXZ@@Z 00413446 f i libucrt:output.obj
 0001:00012460       ??$extract_argument_from_va_list@PAUansi_string@?1??type_case_Z@?$output_processor@_WV?$string_output_adapter@_W@__crt_stdio_output@@V?$positional_parameter_base@_WV?$string_output_adapter@_W@__crt_stdio_output@@@2@@__crt_stdio_output@@AAE_NXZ@PAU1?1??234@AAE_NXZ@@?$positional_parameter_base@_WV?$string_output_adapter@_W@__crt_stdio_output@@@__crt_stdio_output@@IAE_NAAPAUansi_string@?1??type_case_Z@?$output_processor@_WV?$string_output_adapter@_W@__crt_stdio_output@@V?$positional_parameter_base@_WV?$string_output_adapter@_W@__crt_stdio_output@@@2@@1@AAE_NXZ@@Z 00413460 f i libucrt:output.obj
 0001:000124e8       ??$extract_argument_from_va_list@PAUansi_string@?1??type_case_Z@?$output_processor@_WV?$string_output_adapter@_W@__crt_stdio_output@@V?$positional_parameter_base@_WV?$string_output_adapter@_W@__crt_stdio_output@@@2@@__crt_stdio_output@@AAE_NXZ@PAU1?1??234@AAE_NXZ@@?$standard_base@_WV?$string_output_adapter@_W@__crt_stdio_output@@@__crt_stdio_output@@IAE_NAAPAUansi_string@?1??type_case_Z@?$output_processor@_WV?$string_output_adapter@_W@__crt_stdio_output@@V?$positional_parameter_base@_WV?$string_output_adapter@_W@__crt_stdio_output@@@2@@1@AAE_NXZ@@Z 004134e8 f i libucrt:output.obj
 0001:00012502       ??$extract_argument_from_va_list@PAUansi_string@?1??type_case_Z@?$output_processor@_WV?$string_output_adapter@_W@__crt_stdio_output@@V?$standard_base@_WV?$string_output_adapter@_W@__crt_stdio_output@@@2@@__crt_stdio_output@@AAE_NXZ@PAU1?1??234@AAE_NXZ@@?$standard_base@_WV?$string_output_adapter@_W@__crt_stdio_output@@@__crt_stdio_output@@IAE_NAAPAUansi_string@?1??type_case_Z@?$output_processor@_WV?$string_output_adapter@_W@__crt_stdio_output@@V?$standard_base@_WV?$string_output_adapter@_W@__crt_stdio_output@@@2@@1@AAE_NXZ@@Z 00413502 f i libucrt:output.obj
 0001:0001251c       ??$extract_argument_from_va_list@PAXPAX@?$positional_parameter_base@DV?$stream_output_adapter@D@__crt_stdio_output@@@__crt_stdio_output@@IAE_NAAPAX@Z 0041351c f i libucrt:output.obj
 0001:000125a3       ??$extract_argument_from_va_list@PAXPAX@?$positional_parameter_base@DV?$string_output_adapter@D@__crt_stdio_output@@@__crt_stdio_output@@IAE_NAAPAX@Z 004135a3 f i libucrt:output.obj
 0001:0001262a       ??$extract_argument_from_va_list@PAXPAX@?$positional_parameter_base@_WV?$stream_output_adapter@_W@__crt_stdio_output@@@__crt_stdio_output@@IAE_NAAPAX@Z 0041362a f i libucrt:output.obj
 0001:000126b2       ??$extract_argument_from_va_list@PAXPAX@?$positional_parameter_base@_WV?$string_output_adapter@_W@__crt_stdio_output@@@__crt_stdio_output@@IAE_NAAPAX@Z 004136b2 f i libucrt:output.obj
 0001:0001273a       ??$extract_argument_from_va_list@PAXPAX@?$standard_base@DV?$stream_output_adapter@D@__crt_stdio_output@@@__crt_stdio_output@@IAE_NAAPAX@Z 0041373a f i libucrt:output.obj
 0001:00012754       ??$extract_argument_from_va_list@PAXPAX@?$standard_base@DV?$string_output_adapter@D@__crt_stdio_output@@@__crt_stdio_output@@IAE_NAAPAX@Z 00413754 f i libucrt:output.obj
 0001:0001276e       ??$extract_argument_from_va_list@PAXPAX@?$standard_base@_WV?$stream_output_adapter@_W@__crt_stdio_output@@@__crt_stdio_output@@IAE_NAAPAX@Z 0041376e f i libucrt:output.obj
 0001:00012788       ??$extract_argument_from_va_list@PAXPAX@?$standard_base@_WV?$string_output_adapter@_W@__crt_stdio_output@@@__crt_stdio_output@@IAE_NAAPAX@Z 00413788 f i libucrt:output.obj
 0001:000127a2       ??$extract_argument_from_va_list@U_CRT_DOUBLE@@U1@@?$positional_parameter_base@DV?$stream_output_adapter@D@__crt_stdio_output@@@__crt_stdio_output@@IAE_NAAU_CRT_DOUBLE@@@Z 004137a2 f i libucrt:output.obj
 0001:00012837       ??$extract_argument_from_va_list@U_CRT_DOUBLE@@U1@@?$positional_parameter_base@DV?$string_output_adapter@D@__crt_stdio_output@@@__crt_stdio_output@@IAE_NAAU_CRT_DOUBLE@@@Z 00413837 f i libucrt:output.obj
 0001:000128cc       ??$extract_argument_from_va_list@U_CRT_DOUBLE@@U1@@?$positional_parameter_base@_WV?$stream_output_adapter@_W@__crt_stdio_output@@@__crt_stdio_output@@IAE_NAAU_CRT_DOUBLE@@@Z 004138cc f i libucrt:output.obj
 0001:00012962       ??$extract_argument_from_va_list@U_CRT_DOUBLE@@U1@@?$positional_parameter_base@_WV?$string_output_adapter@_W@__crt_stdio_output@@@__crt_stdio_output@@IAE_NAAU_CRT_DOUBLE@@@Z 00413962 f i libucrt:output.obj
 0001:000129f8       ??$extract_argument_from_va_list@U_CRT_DOUBLE@@U1@@?$standard_base@DV?$stream_output_adapter@D@__crt_stdio_output@@@__crt_stdio_output@@IAE_NAAU_CRT_DOUBLE@@@Z 004139f8 f i libucrt:output.obj
 0001:00012a18       ??$extract_argument_from_va_list@U_CRT_DOUBLE@@U1@@?$standard_base@DV?$string_output_adapter@D@__crt_stdio_output@@@__crt_stdio_output@@IAE_NAAU_CRT_DOUBLE@@@Z 00413a18 f i libucrt:output.obj
 0001:00012a38       ??$extract_argument_from_va_list@U_CRT_DOUBLE@@U1@@?$standard_base@_WV?$stream_output_adapter@_W@__crt_stdio_output@@@__crt_stdio_output@@IAE_NAAU_CRT_DOUBLE@@@Z 00413a38 f i libucrt:output.obj
 0001:00012a58       ??$extract_argument_from_va_list@U_CRT_DOUBLE@@U1@@?$standard_base@_WV?$string_output_adapter@_W@__crt_stdio_output@@@__crt_stdio_output@@IAE_NAAU_CRT_DOUBLE@@@Z 00413a58 f i libucrt:output.obj
 0001:00012a78       ??$extract_argument_from_va_list@_J_J@?$positional_parameter_base@DV?$stream_output_adapter@D@__crt_stdio_output@@@__crt_stdio_output@@IAE_NAA_J@Z 00413a78 f i libucrt:output.obj
 0001:00012b0d       ??$extract_argument_from_va_list@_J_J@?$positional_parameter_base@DV?$string_output_adapter@D@__crt_stdio_output@@@__crt_stdio_output@@IAE_NAA_J@Z 00413b0d f i libucrt:output.obj
 0001:00012ba2       ??$extract_argument_from_va_list@_J_J@?$positional_parameter_base@_WV?$stream_output_adapter@_W@__crt_stdio_output@@@__crt_stdio_output@@IAE_NAA_J@Z 00413ba2 f i libucrt:output.obj
 0001:00012c38       ??$extract_argument_from_va_list@_J_J@?$positional_parameter_base@_WV?$string_output_adapter@_W@__crt_stdio_output@@@__crt_stdio_output@@IAE_NAA_J@Z 00413c38 f i libucrt:output.obj
 0001:00012cce       ??$extract_argument_from_va_list@_J_J@?$standard_base@DV?$stream_output_adapter@D@__crt_stdio_output@@@__crt_stdio_output@@IAE_NAA_J@Z 00413cce f i libucrt:output.obj
 0001:00012cee       ??$extract_argument_from_va_list@_J_J@?$standard_base@DV?$string_output_adapter@D@__crt_stdio_output@@@__crt_stdio_output@@IAE_NAA_J@Z 00413cee f i libucrt:output.obj
 0001:00012d0e       ??$extract_argument_from_va_list@_J_J@?$standard_base@_WV?$stream_output_adapter@_W@__crt_stdio_output@@@__crt_stdio_output@@IAE_NAA_J@Z 00413d0e f i libucrt:output.obj
 0001:00012d2e       ??$extract_argument_from_va_list@_J_J@?$standard_base@_WV?$string_output_adapter@_W@__crt_stdio_output@@@__crt_stdio_output@@IAE_NAA_J@Z 00413d2e f i libucrt:output.obj
 0001:00012d4e       ??$extract_argument_from_va_list@_K_J@?$positional_parameter_base@DV?$stream_output_adapter@D@__crt_stdio_output@@@__crt_stdio_output@@IAE_NAA_J@Z 00413d4e f i libucrt:output.obj
 0001:00012de3       ??$extract_argument_from_va_list@_K_J@?$positional_parameter_base@DV?$string_output_adapter@D@__crt_stdio_output@@@__crt_stdio_output@@IAE_NAA_J@Z 00413de3 f i libucrt:output.obj
 0001:00012e78       ??$extract_argument_from_va_list@_K_J@?$positional_parameter_base@_WV?$stream_output_adapter@_W@__crt_stdio_output@@@__crt_stdio_output@@IAE_NAA_J@Z 00413e78 f i libucrt:output.obj
 0001:00012f0e       ??$extract_argument_from_va_list@_K_J@?$positional_parameter_base@_WV?$string_output_adapter@_W@__crt_stdio_output@@@__crt_stdio_output@@IAE_NAA_J@Z 00413f0e f i libucrt:output.obj
 0001:00012fa4       ??$extract_argument_from_va_list@_K_J@?$standard_base@DV?$stream_output_adapter@D@__crt_stdio_output@@@__crt_stdio_output@@IAE_NAA_J@Z 00413fa4 f i libucrt:output.obj
 0001:00012fc4       ??$extract_argument_from_va_list@_K_J@?$standard_base@DV?$string_output_adapter@D@__crt_stdio_output@@@__crt_stdio_output@@IAE_NAA_J@Z 00413fc4 f i libucrt:output.obj
 0001:00012fe4       ??$extract_argument_from_va_list@_K_J@?$standard_base@_WV?$stream_output_adapter@_W@__crt_stdio_output@@@__crt_stdio_output@@IAE_NAA_J@Z 00413fe4 f i libucrt:output.obj
 0001:00013004       ??$extract_argument_from_va_list@_K_J@?$standard_base@_WV?$string_output_adapter@_W@__crt_stdio_output@@@__crt_stdio_output@@IAE_NAA_J@Z 00414004 f i libucrt:output.obj
 0001:00013024       ??$extract_argument_from_va_list@_W_W@?$positional_parameter_base@DV?$stream_output_adapter@D@__crt_stdio_output@@@__crt_stdio_output@@IAE_NAA_W@Z 00414024 f i libucrt:output.obj
 0001:000130af       ??$extract_argument_from_va_list@_W_W@?$positional_parameter_base@DV?$string_output_adapter@D@__crt_stdio_output@@@__crt_stdio_output@@IAE_NAA_W@Z 004140af f i libucrt:output.obj
 0001:0001313a       ??$extract_argument_from_va_list@_W_W@?$positional_parameter_base@_WV?$stream_output_adapter@_W@__crt_stdio_output@@@__crt_stdio_output@@IAE_NAA_W@Z 0041413a f i libucrt:output.obj
 0001:000131c6       ??$extract_argument_from_va_list@_W_W@?$positional_parameter_base@_WV?$string_output_adapter@_W@__crt_stdio_output@@@__crt_stdio_output@@IAE_NAA_W@Z 004141c6 f i libucrt:output.obj
 0001:00013252       ??$extract_argument_from_va_list@_W_W@?$standard_base@DV?$stream_output_adapter@D@__crt_stdio_output@@@__crt_stdio_output@@IAE_NAA_W@Z 00414252 f i libucrt:output.obj
 0001:0001326e       ??$extract_argument_from_va_list@_W_W@?$standard_base@DV?$string_output_adapter@D@__crt_stdio_output@@@__crt_stdio_output@@IAE_NAA_W@Z 0041426e f i libucrt:output.obj
 0001:0001328a       ??$extract_argument_from_va_list@_W_W@?$standard_base@_WV?$stream_output_adapter@_W@__crt_stdio_output@@@__crt_stdio_output@@IAE_NAA_W@Z 0041428a f i libucrt:output.obj
 0001:000132a6       ??$extract_argument_from_va_list@_W_W@?$standard_base@_WV?$string_output_adapter@_W@__crt_stdio_output@@@__crt_stdio_output@@IAE_NAA_W@Z 004142a6 f i libucrt:output.obj
 0001:000132c2       ??$get_parameter_type@D@?$positional_parameter_base@DV?$stream_output_adapter@D@__crt_stdio_output@@@__crt_stdio_output@@CA?AW4parameter_type@01@PAD@Z 004142c2 f i libucrt:output.obj
 0001:000132c6       ??$get_parameter_type@D@?$positional_parameter_base@DV?$string_output_adapter@D@__crt_stdio_output@@@__crt_stdio_output@@CA?AW4parameter_type@01@PAD@Z 004142c6 f i libucrt:output.obj
 0001:000132ca       ??$get_parameter_type@D@?$positional_parameter_base@_WV?$stream_output_adapter@_W@__crt_stdio_output@@@__crt_stdio_output@@CA?AW4parameter_type@01@PAD@Z 004142ca f i libucrt:output.obj
 0001:000132ce       ??$get_parameter_type@D@?$positional_parameter_base@_WV?$string_output_adapter@_W@__crt_stdio_output@@@__crt_stdio_output@@CA?AW4parameter_type@01@PAD@Z 004142ce f i libucrt:output.obj
 0001:000132d2       ??$get_parameter_type@Uansi_string@?1??type_case_Z@?$output_processor@DV?$stream_output_adapter@D@__crt_stdio_output@@V?$positional_parameter_base@DV?$stream_output_adapter@D@__crt_stdio_output@@@2@@__crt_stdio_output@@AAE_NXZ@@?$positional_parameter_base@DV?$stream_output_adapter@D@__crt_stdio_output@@@__crt_stdio_output@@CA?AW4parameter_type@01@PAUansi_string@?1??type_case_Z@?$output_processor@DV?$stream_output_adapter@D@__crt_stdio_output@@V?$positional_parameter_base@DV?$stream_output_adapter@D@__crt_stdio_output@@@2@@1@AAE_NXZ@@Z 004142d2 f i libucrt:output.obj
 0001:000132d6       ??$get_parameter_type@Uansi_string@?1??type_case_Z@?$output_processor@DV?$string_output_adapter@D@__crt_stdio_output@@V?$positional_parameter_base@DV?$string_output_adapter@D@__crt_stdio_output@@@2@@__crt_stdio_output@@AAE_NXZ@@?$positional_parameter_base@DV?$string_output_adapter@D@__crt_stdio_output@@@__crt_stdio_output@@CA?AW4parameter_type@01@PAUansi_string@?1??type_case_Z@?$output_processor@DV?$string_output_adapter@D@__crt_stdio_output@@V?$positional_parameter_base@DV?$string_output_adapter@D@__crt_stdio_output@@@2@@1@AAE_NXZ@@Z 004142d6 f i libucrt:output.obj
 0001:000132da       ??$get_parameter_type@Uansi_string@?1??type_case_Z@?$output_processor@_WV?$stream_output_adapter@_W@__crt_stdio_output@@V?$positional_parameter_base@_WV?$stream_output_adapter@_W@__crt_stdio_output@@@2@@__crt_stdio_output@@AAE_NXZ@@?$positional_parameter_base@_WV?$stream_output_adapter@_W@__crt_stdio_output@@@__crt_stdio_output@@CA?AW4parameter_type@01@PAUansi_string@?1??type_case_Z@?$output_processor@_WV?$stream_output_adapter@_W@__crt_stdio_output@@V?$positional_parameter_base@_WV?$stream_output_adapter@_W@__crt_stdio_output@@@2@@1@AAE_NXZ@@Z 004142da f i libucrt:output.obj
 0001:000132de       ??$get_parameter_type@Uansi_string@?1??type_case_Z@?$output_processor@_WV?$string_output_adapter@_W@__crt_stdio_output@@V?$positional_parameter_base@_WV?$string_output_adapter@_W@__crt_stdio_output@@@2@@__crt_stdio_output@@AAE_NXZ@@?$positional_parameter_base@_WV?$string_output_adapter@_W@__crt_stdio_output@@@__crt_stdio_output@@CA?AW4parameter_type@01@PAUansi_string@?1??type_case_Z@?$output_processor@_WV?$string_output_adapter@_W@__crt_stdio_output@@V?$positional_parameter_base@_WV?$string_output_adapter@_W@__crt_stdio_output@@@2@@1@AAE_NXZ@@Z 004142de f i libucrt:output.obj
 0001:000132e2       ??$get_parameter_type@X@?$positional_parameter_base@DV?$stream_output_adapter@D@__crt_stdio_output@@@__crt_stdio_output@@CA?AW4parameter_type@01@PAX@Z 004142e2 f i libucrt:output.obj
 0001:000132e6       ??$get_parameter_type@X@?$positional_parameter_base@DV?$string_output_adapter@D@__crt_stdio_output@@@__crt_stdio_output@@CA?AW4parameter_type@01@PAX@Z 004142e6 f i libucrt:output.obj
 0001:000132ea       ??$get_parameter_type@X@?$positional_parameter_base@_WV?$stream_output_adapter@_W@__crt_stdio_output@@@__crt_stdio_output@@CA?AW4parameter_type@01@PAX@Z 004142ea f i libucrt:output.obj
 0001:000132ee       ??$get_parameter_type@X@?$positional_parameter_base@_WV?$string_output_adapter@_W@__crt_stdio_output@@@__crt_stdio_output@@CA?AW4parameter_type@01@PAX@Z 004142ee f i libucrt:output.obj
 0001:000132f2       ??$is_character_specifier@D@?$positional_parameter_base@DV?$stream_output_adapter@D@__crt_stdio_output@@@__crt_stdio_output@@CA_ND@Z 004142f2 f i libucrt:output.obj
 0001:0001330a       ??$is_character_specifier@D@?$positional_parameter_base@DV?$string_output_adapter@D@__crt_stdio_output@@@__crt_stdio_output@@CA_ND@Z 0041430a f i libucrt:output.obj
 0001:00013322       ??$is_character_specifier@_W@?$positional_parameter_base@_WV?$stream_output_adapter@_W@__crt_stdio_output@@@__crt_stdio_output@@CA_N_W@Z 00414322 f i libucrt:output.obj
 0001:0001333d       ??$is_character_specifier@_W@?$positional_parameter_base@_WV?$string_output_adapter@_W@__crt_stdio_output@@@__crt_stdio_output@@CA_N_W@Z 0041433d f i libucrt:output.obj
 0001:00013358       ??$is_integral_specifier@D@?$positional_parameter_base@DV?$stream_output_adapter@D@__crt_stdio_output@@@__crt_stdio_output@@CA_ND@Z 00414358 f i libucrt:output.obj
 0001:00013384       ??$is_integral_specifier@D@?$positional_parameter_base@DV?$string_output_adapter@D@__crt_stdio_output@@@__crt_stdio_output@@CA_ND@Z 00414384 f i libucrt:output.obj
 0001:000133b0       ??$is_integral_specifier@_W@?$positional_parameter_base@_WV?$stream_output_adapter@_W@__crt_stdio_output@@@__crt_stdio_output@@CA_N_W@Z 004143b0 f i libucrt:output.obj
 0001:000133eb       ??$is_integral_specifier@_W@?$positional_parameter_base@_WV?$string_output_adapter@_W@__crt_stdio_output@@@__crt_stdio_output@@CA_N_W@Z 004143eb f i libucrt:output.obj
 0001:00013426       ??$is_overflow_condition@K@__crt_strtox@@YA_NIK@Z 00414426 f i libucrt:output.obj
 0001:00013457       ??$is_pointer_specifier@D@?$positional_parameter_base@DV?$stream_output_adapter@D@__crt_stdio_output@@@__crt_stdio_output@@CA_ND@Z 00414457 f i libucrt:output.obj
 0001:00013465       ??$is_pointer_specifier@D@?$positional_parameter_base@DV?$string_output_adapter@D@__crt_stdio_output@@@__crt_stdio_output@@CA_ND@Z 00414465 f i libucrt:output.obj
 0001:00013473       ??$is_pointer_specifier@_W@?$positional_parameter_base@_WV?$stream_output_adapter@_W@__crt_stdio_output@@@__crt_stdio_output@@CA_N_W@Z 00414473 f i libucrt:output.obj
 0001:00013482       ??$is_pointer_specifier@_W@?$positional_parameter_base@_WV?$string_output_adapter@_W@__crt_stdio_output@@@__crt_stdio_output@@CA_N_W@Z 00414482 f i libucrt:output.obj
 0001:00013491       ??$is_string_specifier@D@?$positional_parameter_base@DV?$stream_output_adapter@D@__crt_stdio_output@@@__crt_stdio_output@@CA_ND@Z 00414491 f i libucrt:output.obj
 0001:000134a9       ??$is_string_specifier@D@?$positional_parameter_base@DV?$string_output_adapter@D@__crt_stdio_output@@@__crt_stdio_output@@CA_ND@Z 004144a9 f i libucrt:output.obj
 0001:000134c1       ??$is_string_specifier@_W@?$positional_parameter_base@_WV?$stream_output_adapter@_W@__crt_stdio_output@@@__crt_stdio_output@@CA_N_W@Z 004144c1 f i libucrt:output.obj
 0001:000134dc       ??$is_string_specifier@_W@?$positional_parameter_base@_WV?$string_output_adapter@_W@__crt_stdio_output@@@__crt_stdio_output@@CA_N_W@Z 004144dc f i libucrt:output.obj
 0001:000134f7       ??$is_wide_character_specifier@D@__crt_stdio_output@@YA_N_KDW4length_modifier@0@@Z 004144f7 f i libucrt:output.obj
 0001:00013528       ??$is_wide_character_specifier@_W@__crt_stdio_output@@YA_N_K_WW4length_modifier@0@@Z 00414528 f i libucrt:output.obj
 0001:00013576       ??$make_c_string_character_source@DPAPAD@__crt_strtox@@YA?AV?$c_string_character_source@D@0@QBDQAPAD@Z 00414576 f i libucrt:output.obj
 0001:00013591       ??$make_c_string_character_source@_WPAPA_W@__crt_strtox@@YA?AV?$c_string_character_source@_W@0@QB_WQAPA_W@Z 00414591 f i libucrt:output.obj
 0001:000135ac       ??$parse_integer@KV?$c_string_character_source@D@__crt_strtox@@$0A@@__crt_strtox@@YAKAAV__crt_cached_ptd_host@@V?$c_string_character_source@D@0@H_N@Z 004145ac f i libucrt:output.obj
 0001:000137bb       ??$parse_integer@KV?$c_string_character_source@_W@__crt_strtox@@$0A@@__crt_strtox@@YAKAAV__crt_cached_ptd_host@@V?$c_string_character_source@_W@0@H_N@Z 004147bb f i libucrt:output.obj
 0001:00013d8a       ??$peek_va_arg@C@__crt_stdio_output@@YACPAD@Z 00414d8a f i libucrt:output.obj
 0001:00013d96       ??$peek_va_arg@E@__crt_stdio_output@@YAEPAD@Z 00414d96 f i libucrt:output.obj
 0001:00013da2       ??$peek_va_arg@F@__crt_stdio_output@@YAFPAD@Z 00414da2 f i libucrt:output.obj
 0001:00013daf       ??$peek_va_arg@G@__crt_stdio_output@@YAGPAD@Z 00414daf f i libucrt:output.obj
 0001:00013dbc       ??$peek_va_arg@H@__crt_stdio_output@@YAHPAD@Z 00414dbc f i libucrt:output.obj
 0001:00013dc8       ??$peek_va_arg@I@__crt_stdio_output@@YAIPAD@Z 00414dc8 f i libucrt:output.obj
 0001:00013dd4       ??$peek_va_arg@PAD@__crt_stdio_output@@YAPADPAD@Z 00414dd4 f i libucrt:output.obj
 0001:00013de0       ??$peek_va_arg@PAUansi_string@?1??type_case_Z@?$output_processor@DV?$stream_output_adapter@D@__crt_stdio_output@@V?$positional_parameter_base@DV?$stream_output_adapter@D@__crt_stdio_output@@@2@@__crt_stdio_output@@AAE_NXZ@@__crt_stdio_output@@YAPAUansi_string@?1??type_case_Z@?$output_processor@DV?$stream_output_adapter@D@__crt_stdio_output@@V?$positional_parameter_base@DV?$stream_output_adapter@D@__crt_stdio_output@@@2@@0@AAE_NXZ@PAD@Z 00414de0 f i libucrt:output.obj
 0001:00013dec       ??$peek_va_arg@PAUansi_string@?1??type_case_Z@?$output_processor@DV?$string_output_adapter@D@__crt_stdio_output@@V?$positional_parameter_base@DV?$string_output_adapter@D@__crt_stdio_output@@@2@@__crt_stdio_output@@AAE_NXZ@@__crt_stdio_output@@YAPAUansi_string@?1??type_case_Z@?$output_processor@DV?$string_output_adapter@D@__crt_stdio_output@@V?$positional_parameter_base@DV?$string_output_adapter@D@__crt_stdio_output@@@2@@0@AAE_NXZ@PAD@Z 00414dec f i libucrt:output.obj
 0001:00013df8       ??$peek_va_arg@PAUansi_string@?1??type_case_Z@?$output_processor@_WV?$stream_output_adapter@_W@__crt_stdio_output@@V?$positional_parameter_base@_WV?$stream_output_adapter@_W@__crt_stdio_output@@@2@@__crt_stdio_output@@AAE_NXZ@@__crt_stdio_output@@YAPAUansi_string@?1??type_case_Z@?$output_processor@_WV?$stream_output_adapter@_W@__crt_stdio_output@@V?$positional_parameter_base@_WV?$stream_output_adapter@_W@__crt_stdio_output@@@2@@0@AAE_NXZ@PAD@Z 00414df8 f i libucrt:output.obj
 0001:00013e04       ??$peek_va_arg@PAUansi_string@?1??type_case_Z@?$output_processor@_WV?$string_output_adapter@_W@__crt_stdio_output@@V?$positional_parameter_base@_WV?$string_output_adapter@_W@__crt_stdio_output@@@2@@__crt_stdio_output@@AAE_NXZ@@__crt_stdio_output@@YAPAUansi_string@?1??type_case_Z@?$output_processor@_WV?$string_output_adapter@_W@__crt_stdio_output@@V?$positional_parameter_base@_WV?$string_output_adapter@_W@__crt_stdio_output@@@2@@0@AAE_NXZ@PAD@Z 00414e04 f i libucrt:output.obj
 0001:00013e10       ??$peek_va_arg@PAX@__crt_stdio_output@@YAPAXPAD@Z 00414e10 f i libucrt:output.obj
 0001:00013e1c       ??$peek_va_arg@U_CRT_DOUBLE@@@__crt_stdio_output@@YA?AU_CRT_DOUBLE@@PAD@Z 00414e1c f i libucrt:output.obj
 0001:00013e2b       ??$peek_va_arg@_J@__crt_stdio_output@@YA_JPAD@Z 00414e2b f i libucrt:output.obj
 0001:00013e3a       ??$peek_va_arg@_K@__crt_stdio_output@@YA_KPAD@Z 00414e3a f i libucrt:output.obj
 0001:00013e49       ??$peek_va_arg@_W@__crt_stdio_output@@YA_WPAD@Z 00414e49 f i libucrt:output.obj
 0001:00013e56       ??$puttc_nolock_internal@ABDPAU_iobuf@@AAV__crt_cached_ptd_host@@@?$__crt_char_traits@D@@SAHABD$$QAPAU_iobuf@@AAV__crt_cached_ptd_host@@@Z 00414e56 f i libucrt:output.obj
 0001:00013e74       ??$puttc_nolock_internal@AB_WPAU_iobuf@@AAV__crt_cached_ptd_host@@@?$__crt_char_traits@_W@@SAGAB_W$$QAPAU_iobuf@@AAV__crt_cached_ptd_host@@@Z 00414e74 f i libucrt:output.obj
 0001:00013e92       ??$read_va_arg@C@__crt_stdio_output@@YACAAPAD@Z 00414e92 f i libucrt:output.obj
 0001:00013ea4       ??$read_va_arg@E@__crt_stdio_output@@YAEAAPAD@Z 00414ea4 f i libucrt:output.obj
 0001:00013eb6       ??$read_va_arg@F@__crt_stdio_output@@YAFAAPAD@Z 00414eb6 f i libucrt:output.obj
 0001:00013ec9       ??$read_va_arg@G@__crt_stdio_output@@YAGAAPAD@Z 00414ec9 f i libucrt:output.obj
 0001:00013edc       ??$read_va_arg@H@__crt_stdio_output@@YAHAAPAD@Z 00414edc f i libucrt:output.obj
 0001:00013eee       ??$read_va_arg@I@__crt_stdio_output@@YAIAAPAD@Z 00414eee f i libucrt:output.obj
 0001:00013f00       ??$read_va_arg@PAD@__crt_stdio_output@@YAPADAAPAD@Z 00414f00 f i libucrt:output.obj
 0001:00013f12       ??$read_va_arg@PAUansi_string@?1??type_case_Z@?$output_processor@DV?$stream_output_adapter@D@__crt_stdio_output@@V?$format_validation_base@DV?$stream_output_adapter@D@__crt_stdio_output@@@2@@__crt_stdio_output@@AAE_NXZ@@__crt_stdio_output@@YAPAUansi_string@?1??type_case_Z@?$output_processor@DV?$stream_output_adapter@D@__crt_stdio_output@@V?$format_validation_base@DV?$stream_output_adapter@D@__crt_stdio_output@@@2@@0@AAE_NXZ@AAPAD@Z 00414f12 f i libucrt:output.obj
 0001:00013f24       ??$read_va_arg@PAUansi_string@?1??type_case_Z@?$output_processor@DV?$stream_output_adapter@D@__crt_stdio_output@@V?$positional_parameter_base@DV?$stream_output_adapter@D@__crt_stdio_output@@@2@@__crt_stdio_output@@AAE_NXZ@@__crt_stdio_output@@YAPAUansi_string@?1??type_case_Z@?$output_processor@DV?$stream_output_adapter@D@__crt_stdio_output@@V?$positional_parameter_base@DV?$stream_output_adapter@D@__crt_stdio_output@@@2@@0@AAE_NXZ@AAPAD@Z 00414f24 f i libucrt:output.obj
 0001:00013f36       ??$read_va_arg@PAUansi_string@?1??type_case_Z@?$output_processor@DV?$stream_output_adapter@D@__crt_stdio_output@@V?$standard_base@DV?$stream_output_adapter@D@__crt_stdio_output@@@2@@__crt_stdio_output@@AAE_NXZ@@__crt_stdio_output@@YAPAUansi_string@?1??type_case_Z@?$output_processor@DV?$stream_output_adapter@D@__crt_stdio_output@@V?$standard_base@DV?$stream_output_adapter@D@__crt_stdio_output@@@2@@0@AAE_NXZ@AAPAD@Z 00414f36 f i libucrt:output.obj
 0001:00013f48       ??$read_va_arg@PAUansi_string@?1??type_case_Z@?$output_processor@DV?$string_output_adapter@D@__crt_stdio_output@@V?$format_validation_base@DV?$string_output_adapter@D@__crt_stdio_output@@@2@@__crt_stdio_output@@AAE_NXZ@@__crt_stdio_output@@YAPAUansi_string@?1??type_case_Z@?$output_processor@DV?$string_output_adapter@D@__crt_stdio_output@@V?$format_validation_base@DV?$string_output_adapter@D@__crt_stdio_output@@@2@@0@AAE_NXZ@AAPAD@Z 00414f48 f i libucrt:output.obj
 0001:00013f5a       ??$read_va_arg@PAUansi_string@?1??type_case_Z@?$output_processor@DV?$string_output_adapter@D@__crt_stdio_output@@V?$positional_parameter_base@DV?$string_output_adapter@D@__crt_stdio_output@@@2@@__crt_stdio_output@@AAE_NXZ@@__crt_stdio_output@@YAPAUansi_string@?1??type_case_Z@?$output_processor@DV?$string_output_adapter@D@__crt_stdio_output@@V?$positional_parameter_base@DV?$string_output_adapter@D@__crt_stdio_output@@@2@@0@AAE_NXZ@AAPAD@Z 00414f5a f i libucrt:output.obj
 0001:00013f6c       ??$read_va_arg@PAUansi_string@?1??type_case_Z@?$output_processor@DV?$string_output_adapter@D@__crt_stdio_output@@V?$standard_base@DV?$string_output_adapter@D@__crt_stdio_output@@@2@@__crt_stdio_output@@AAE_NXZ@@__crt_stdio_output@@YAPAUansi_string@?1??type_case_Z@?$output_processor@DV?$string_output_adapter@D@__crt_stdio_output@@V?$standard_base@DV?$string_output_adapter@D@__crt_stdio_output@@@2@@0@AAE_NXZ@AAPAD@Z 00414f6c f i libucrt:output.obj
 0001:00013f7e       ??$read_va_arg@PAUansi_string@?1??type_case_Z@?$output_processor@_WV?$stream_output_adapter@_W@__crt_stdio_output@@V?$format_validation_base@_WV?$stream_output_adapter@_W@__crt_stdio_output@@@2@@__crt_stdio_output@@AAE_NXZ@@__crt_stdio_output@@YAPAUansi_string@?1??type_case_Z@?$output_processor@_WV?$stream_output_adapter@_W@__crt_stdio_output@@V?$format_validation_base@_WV?$stream_output_adapter@_W@__crt_stdio_output@@@2@@0@AAE_NXZ@AAPAD@Z 00414f7e f i libucrt:output.obj
 0001:00013f90       ??$read_va_arg@PAUansi_string@?1??type_case_Z@?$output_processor@_WV?$stream_output_adapter@_W@__crt_stdio_output@@V?$positional_parameter_base@_WV?$stream_output_adapter@_W@__crt_stdio_output@@@2@@__crt_stdio_output@@AAE_NXZ@@__crt_stdio_output@@YAPAUansi_string@?1??type_case_Z@?$output_processor@_WV?$stream_output_adapter@_W@__crt_stdio_output@@V?$positional_parameter_base@_WV?$stream_output_adapter@_W@__crt_stdio_output@@@2@@0@AAE_NXZ@AAPAD@Z 00414f90 f i libucrt:output.obj
 0001:00013fa2       ??$read_va_arg@PAUansi_string@?1??type_case_Z@?$output_processor@_WV?$stream_output_adapter@_W@__crt_stdio_output@@V?$standard_base@_WV?$stream_output_adapter@_W@__crt_stdio_output@@@2@@__crt_stdio_output@@AAE_NXZ@@__crt_stdio_output@@YAPAUansi_string@?1??type_case_Z@?$output_processor@_WV?$stream_output_adapter@_W@__crt_stdio_output@@V?$standard_base@_WV?$stream_output_adapter@_W@__crt_stdio_output@@@2@@0@AAE_NXZ@AAPAD@Z 00414fa2 f i libucrt:output.obj
 0001:00013fb4       ??$read_va_arg@PAUansi_string@?1??type_case_Z@?$output_processor@_WV?$string_output_adapter@_W@__crt_stdio_output@@V?$format_validation_base@_WV?$string_output_adapter@_W@__crt_stdio_output@@@2@@__crt_stdio_output@@AAE_NXZ@@__crt_stdio_output@@YAPAUansi_string@?1??type_case_Z@?$output_processor@_WV?$string_output_adapter@_W@__crt_stdio_output@@V?$format_validation_base@_WV?$string_output_adapter@_W@__crt_stdio_output@@@2@@0@AAE_NXZ@AAPAD@Z 00414fb4 f i libucrt:output.obj
 0001:00013fc6       ??$read_va_arg@PAUansi_string@?1??type_case_Z@?$output_processor@_WV?$string_output_adapter@_W@__crt_stdio_output@@V?$positional_parameter_base@_WV?$string_output_adapter@_W@__crt_stdio_output@@@2@@__crt_stdio_output@@AAE_NXZ@@__crt_stdio_output@@YAPAUansi_string@?1??type_case_Z@?$output_processor@_WV?$string_output_adapter@_W@__crt_stdio_output@@V?$positional_parameter_base@_WV?$string_output_adapter@_W@__crt_stdio_output@@@2@@0@AAE_NXZ@AAPAD@Z 00414fc6 f i libucrt:output.obj
 0001:00013fd8       ??$read_va_arg@PAUansi_string@?1??type_case_Z@?$output_processor@_WV?$string_output_adapter@_W@__crt_stdio_output@@V?$standard_base@_WV?$string_output_adapter@_W@__crt_stdio_output@@@2@@__crt_stdio_output@@AAE_NXZ@@__crt_stdio_output@@YAPAUansi_string@?1??type_case_Z@?$output_processor@_WV?$string_output_adapter@_W@__crt_stdio_output@@V?$standard_base@_WV?$string_output_adapter@_W@__crt_stdio_output@@@2@@0@AAE_NXZ@AAPAD@Z 00414fd8 f i libucrt:output.obj
 0001:00013fea       ??$read_va_arg@PAX@__crt_stdio_output@@YAPAXAAPAD@Z 00414fea f i libucrt:output.obj
 0001:00013ffc       ??$read_va_arg@U_CRT_DOUBLE@@@__crt_stdio_output@@YA?AU_CRT_DOUBLE@@AAPAD@Z 00414ffc f i libucrt:output.obj
 0001:00014012       ??$read_va_arg@_J@__crt_stdio_output@@YA_JAAPAD@Z 00415012 f i libucrt:output.obj
 0001:00014027       ??$read_va_arg@_K@__crt_stdio_output@@YA_KAAPAD@Z 00415027 f i libucrt:output.obj
 0001:0001403c       ??$read_va_arg@_W@__crt_stdio_output@@YA_WAAPAD@Z 0041503c f i libucrt:output.obj
 0001:0001404f       ??$scratch_count@D@formatting_buffer@__crt_stdio_output@@QBEIXZ 0041504f f i libucrt:output.obj
 0001:00014054       ??$scratch_data@D@formatting_buffer@__crt_stdio_output@@QAEPADXZ 00415054 f i libucrt:output.obj
 0001:00014072       ??$type_case_integer@$07@?$output_processor@DV?$stream_output_adapter@D@__crt_stdio_output@@V?$format_validation_base@DV?$stream_output_adapter@D@__crt_stdio_output@@@2@@__crt_stdio_output@@AAE_N_N@Z 00415072 f i libucrt:output.obj
 0001:000141ef       ??$type_case_integer@$07@?$output_processor@DV?$stream_output_adapter@D@__crt_stdio_output@@V?$positional_parameter_base@DV?$stream_output_adapter@D@__crt_stdio_output@@@2@@__crt_stdio_output@@AAE_N_N@Z 004151ef f i libucrt:output.obj
 0001:00014380       ??$type_case_integer@$07@?$output_processor@DV?$stream_output_adapter@D@__crt_stdio_output@@V?$standard_base@DV?$stream_output_adapter@D@__crt_stdio_output@@@2@@__crt_stdio_output@@AAE_N_N@Z 00415380 f i libucrt:output.obj
 0001:000144fd       ??$type_case_integer@$07@?$output_processor@DV?$string_output_adapter@D@__crt_stdio_output@@V?$format_validation_base@DV?$string_output_adapter@D@__crt_stdio_output@@@2@@__crt_stdio_output@@AAE_N_N@Z 004154fd f i libucrt:output.obj
 0001:0001467a       ??$type_case_integer@$07@?$output_processor@DV?$string_output_adapter@D@__crt_stdio_output@@V?$positional_parameter_base@DV?$string_output_adapter@D@__crt_stdio_output@@@2@@__crt_stdio_output@@AAE_N_N@Z 0041567a f i libucrt:output.obj
 0001:0001480b       ??$type_case_integer@$07@?$output_processor@DV?$string_output_adapter@D@__crt_stdio_output@@V?$standard_base@DV?$string_output_adapter@D@__crt_stdio_output@@@2@@__crt_stdio_output@@AAE_N_N@Z 0041580b f i libucrt:output.obj
 0001:00014988       ??$type_case_integer@$07@?$output_processor@_WV?$stream_output_adapter@_W@__crt_stdio_output@@V?$format_validation_base@_WV?$stream_output_adapter@_W@__crt_stdio_output@@@2@@__crt_stdio_output@@AAE_N_N@Z 00415988 f i libucrt:output.obj
 0001:00014b0a       ??$type_case_integer@$07@?$output_processor@_WV?$stream_output_adapter@_W@__crt_stdio_output@@V?$positional_parameter_base@_WV?$stream_output_adapter@_W@__crt_stdio_output@@@2@@__crt_stdio_output@@AAE_N_N@Z 00415b0a f i libucrt:output.obj
 0001:00014c9f       ??$type_case_integer@$07@?$output_processor@_WV?$stream_output_adapter@_W@__crt_stdio_output@@V?$standard_base@_WV?$stream_output_adapter@_W@__crt_stdio_output@@@2@@__crt_stdio_output@@AAE_N_N@Z 00415c9f f i libucrt:output.obj
 0001:00014e21       ??$type_case_integer@$07@?$output_processor@_WV?$string_output_adapter@_W@__crt_stdio_output@@V?$format_validation_base@_WV?$string_output_adapter@_W@__crt_stdio_output@@@2@@__crt_stdio_output@@AAE_N_N@Z 00415e21 f i libucrt:output.obj
 0001:00014fa3       ??$type_case_integer@$07@?$output_processor@_WV?$string_output_adapter@_W@__crt_stdio_output@@V?$positional_parameter_base@_WV?$string_output_adapter@_W@__crt_stdio_output@@@2@@__crt_stdio_output@@AAE_N_N@Z 00415fa3 f i libucrt:output.obj
 0001:00015138       ??$type_case_integer@$07@?$output_processor@_WV?$string_output_adapter@_W@__crt_stdio_output@@V?$standard_base@_WV?$string_output_adapter@_W@__crt_stdio_output@@@2@@__crt_stdio_output@@AAE_N_N@Z 00416138 f i libucrt:output.obj
 0001:000152ba       ??$type_case_integer@$09@?$output_processor@DV?$stream_output_adapter@D@__crt_stdio_output@@V?$format_validation_base@DV?$stream_output_adapter@D@__crt_stdio_output@@@2@@__crt_stdio_output@@AAE_N_N@Z 004162ba f i libucrt:output.obj
 0001:00015437       ??$type_case_integer@$09@?$output_processor@DV?$stream_output_adapter@D@__crt_stdio_output@@V?$positional_parameter_base@DV?$stream_output_adapter@D@__crt_stdio_output@@@2@@__crt_stdio_output@@AAE_N_N@Z 00416437 f i libucrt:output.obj
 0001:000155c8       ??$type_case_integer@$09@?$output_processor@DV?$stream_output_adapter@D@__crt_stdio_output@@V?$standard_base@DV?$stream_output_adapter@D@__crt_stdio_output@@@2@@__crt_stdio_output@@AAE_N_N@Z 004165c8 f i libucrt:output.obj
 0001:00015745       ??$type_case_integer@$09@?$output_processor@DV?$string_output_adapter@D@__crt_stdio_output@@V?$format_validation_base@DV?$string_output_adapter@D@__crt_stdio_output@@@2@@__crt_stdio_output@@AAE_N_N@Z 00416745 f i libucrt:output.obj
 0001:000158c2       ??$type_case_integer@$09@?$output_processor@DV?$string_output_adapter@D@__crt_stdio_output@@V?$positional_parameter_base@DV?$string_output_adapter@D@__crt_stdio_output@@@2@@__crt_stdio_output@@AAE_N_N@Z 004168c2 f i libucrt:output.obj
 0001:00015a53       ??$type_case_integer@$09@?$output_processor@DV?$string_output_adapter@D@__crt_stdio_output@@V?$standard_base@DV?$string_output_adapter@D@__crt_stdio_output@@@2@@__crt_stdio_output@@AAE_N_N@Z 00416a53 f i libucrt:output.obj
 0001:00015bd0       ??$type_case_integer@$09@?$output_processor@_WV?$stream_output_adapter@_W@__crt_stdio_output@@V?$format_validation_base@_WV?$stream_output_adapter@_W@__crt_stdio_output@@@2@@__crt_stdio_output@@AAE_N_N@Z 00416bd0 f i libucrt:output.obj
 0001:00015d52       ??$type_case_integer@$09@?$output_processor@_WV?$stream_output_adapter@_W@__crt_stdio_output@@V?$positional_parameter_base@_WV?$stream_output_adapter@_W@__crt_stdio_output@@@2@@__crt_stdio_output@@AAE_N_N@Z 00416d52 f i libucrt:output.obj
 0001:00015ee7       ??$type_case_integer@$09@?$output_processor@_WV?$stream_output_adapter@_W@__crt_stdio_output@@V?$standard_base@_WV?$stream_output_adapter@_W@__crt_stdio_output@@@2@@__crt_stdio_output@@AAE_N_N@Z 00416ee7 f i libucrt:output.obj
 0001:00016069       ??$type_case_integer@$09@?$output_processor@_WV?$string_output_adapter@_W@__crt_stdio_output@@V?$format_validation_base@_WV?$string_output_adapter@_W@__crt_stdio_output@@@2@@__crt_stdio_output@@AAE_N_N@Z 00417069 f i libucrt:output.obj
 0001:000161eb       ??$type_case_integer@$09@?$output_processor@_WV?$string_output_adapter@_W@__crt_stdio_output@@V?$positional_parameter_base@_WV?$string_output_adapter@_W@__crt_stdio_output@@@2@@__crt_stdio_output@@AAE_N_N@Z 004171eb f i libucrt:output.obj
 0001:00016380       ??$type_case_integer@$09@?$output_processor@_WV?$string_output_adapter@_W@__crt_stdio_output@@V?$standard_base@_WV?$string_output_adapter@_W@__crt_stdio_output@@@2@@__crt_stdio_output@@AAE_N_N@Z 00417380 f i libucrt:output.obj
 0001:00016502       ??$type_case_integer@$0BA@@?$output_processor@DV?$stream_output_adapter@D@__crt_stdio_output@@V?$format_validation_base@DV?$stream_output_adapter@D@__crt_stdio_output@@@2@@__crt_stdio_output@@AAE_N_N@Z 00417502 f i libucrt:output.obj
 0001:0001667f       ??$type_case_integer@$0BA@@?$output_processor@DV?$stream_output_adapter@D@__crt_stdio_output@@V?$positional_parameter_base@DV?$stream_output_adapter@D@__crt_stdio_output@@@2@@__crt_stdio_output@@AAE_N_N@Z 0041767f f i libucrt:output.obj
 0001:00016810       ??$type_case_integer@$0BA@@?$output_processor@DV?$stream_output_adapter@D@__crt_stdio_output@@V?$standard_base@DV?$stream_output_adapter@D@__crt_stdio_output@@@2@@__crt_stdio_output@@AAE_N_N@Z 00417810 f i libucrt:output.obj
 0001:0001698d       ??$type_case_integer@$0BA@@?$output_processor@DV?$string_output_adapter@D@__crt_stdio_output@@V?$format_validation_base@DV?$string_output_adapter@D@__crt_stdio_output@@@2@@__crt_stdio_output@@AAE_N_N@Z 0041798d f i libucrt:output.obj
 0001:00016b0a       ??$type_case_integer@$0BA@@?$output_processor@DV?$string_output_adapter@D@__crt_stdio_output@@V?$positional_parameter_base@DV?$string_output_adapter@D@__crt_stdio_output@@@2@@__crt_stdio_output@@AAE_N_N@Z 00417b0a f i libucrt:output.obj
 0001:00016c9b       ??$type_case_integer@$0BA@@?$output_processor@DV?$string_output_adapter@D@__crt_stdio_output@@V?$standard_base@DV?$string_output_adapter@D@__crt_stdio_output@@@2@@__crt_stdio_output@@AAE_N_N@Z 00417c9b f i libucrt:output.obj
 0001:00016e18       ??$type_case_integer@$0BA@@?$output_processor@_WV?$stream_output_adapter@_W@__crt_stdio_output@@V?$format_validation_base@_WV?$stream_output_adapter@_W@__crt_stdio_output@@@2@@__crt_stdio_output@@AAE_N_N@Z 00417e18 f i libucrt:output.obj
 0001:00016f9a       ??$type_case_integer@$0BA@@?$output_processor@_WV?$stream_output_adapter@_W@__crt_stdio_output@@V?$positional_parameter_base@_WV?$stream_output_adapter@_W@__crt_stdio_output@@@2@@__crt_stdio_output@@AAE_N_N@Z 00417f9a f i libucrt:output.obj
 0001:0001712f       ??$type_case_integer@$0BA@@?$output_processor@_WV?$stream_output_adapter@_W@__crt_stdio_output@@V?$standard_base@_WV?$stream_output_adapter@_W@__crt_stdio_output@@@2@@__crt_stdio_output@@AAE_N_N@Z 0041812f f i libucrt:output.obj
 0001:000172b1       ??$type_case_integer@$0BA@@?$output_processor@_WV?$string_output_adapter@_W@__crt_stdio_output@@V?$format_validation_base@_WV?$string_output_adapter@_W@__crt_stdio_output@@@2@@__crt_stdio_output@@AAE_N_N@Z 004182b1 f i libucrt:output.obj
 0001:00017433       ??$type_case_integer@$0BA@@?$output_processor@_WV?$string_output_adapter@_W@__crt_stdio_output@@V?$positional_parameter_base@_WV?$string_output_adapter@_W@__crt_stdio_output@@@2@@__crt_stdio_output@@AAE_N_N@Z 00418433 f i libucrt:output.obj
 0001:000175c8       ??$type_case_integer@$0BA@@?$output_processor@_WV?$string_output_adapter@_W@__crt_stdio_output@@V?$standard_base@_WV?$string_output_adapter@_W@__crt_stdio_output@@@2@@__crt_stdio_output@@AAE_N_N@Z 004185c8 f i libucrt:output.obj
 0001:0001774a       ??$type_case_integer_parse_into_buffer@I$07@?$output_processor@DV?$stream_output_adapter@D@__crt_stdio_output@@V?$format_validation_base@DV?$stream_output_adapter@D@__crt_stdio_output@@@2@@__crt_stdio_output@@AAEXI_N@Z 0041874a f i libucrt:output.obj
 0001:000177b4       ??$type_case_integer_parse_into_buffer@I$07@?$output_processor@DV?$stream_output_adapter@D@__crt_stdio_output@@V?$positional_parameter_base@DV?$stream_output_adapter@D@__crt_stdio_output@@@2@@__crt_stdio_output@@AAEXI_N@Z 004187b4 f i libucrt:output.obj
 0001:0001781e       ??$type_case_integer_parse_into_buffer@I$07@?$output_processor@DV?$stream_output_adapter@D@__crt_stdio_output@@V?$standard_base@DV?$stream_output_adapter@D@__crt_stdio_output@@@2@@__crt_stdio_output@@AAEXI_N@Z 0041881e f i libucrt:output.obj
 0001:00017888       ??$type_case_integer_parse_into_buffer@I$07@?$output_processor@DV?$string_output_adapter@D@__crt_stdio_output@@V?$format_validation_base@DV?$string_output_adapter@D@__crt_stdio_output@@@2@@__crt_stdio_output@@AAEXI_N@Z 00418888 f i libucrt:output.obj
 0001:000178f2       ??$type_case_integer_parse_into_buffer@I$07@?$output_processor@DV?$string_output_adapter@D@__crt_stdio_output@@V?$positional_parameter_base@DV?$string_output_adapter@D@__crt_stdio_output@@@2@@__crt_stdio_output@@AAEXI_N@Z 004188f2 f i libucrt:output.obj
 0001:0001795c       ??$type_case_integer_parse_into_buffer@I$07@?$output_processor@DV?$string_output_adapter@D@__crt_stdio_output@@V?$standard_base@DV?$string_output_adapter@D@__crt_stdio_output@@@2@@__crt_stdio_output@@AAEXI_N@Z 0041895c f i libucrt:output.obj
 0001:000179c6       ??$type_case_integer_parse_into_buffer@I$07@?$output_processor@_WV?$stream_output_adapter@_W@__crt_stdio_output@@V?$format_validation_base@_WV?$stream_output_adapter@_W@__crt_stdio_output@@@2@@__crt_stdio_output@@AAEXI_N@Z 004189c6 f i libucrt:output.obj
 0001:00017a33       ??$type_case_integer_parse_into_buffer@I$07@?$output_processor@_WV?$stream_output_adapter@_W@__crt_stdio_output@@V?$positional_parameter_base@_WV?$stream_output_adapter@_W@__crt_stdio_output@@@2@@__crt_stdio_output@@AAEXI_N@Z 00418a33 f i libucrt:output.obj
 0001:00017aa0       ??$type_case_integer_parse_into_buffer@I$07@?$output_processor@_WV?$stream_output_adapter@_W@__crt_stdio_output@@V?$standard_base@_WV?$stream_output_adapter@_W@__crt_stdio_output@@@2@@__crt_stdio_output@@AAEXI_N@Z 00418aa0 f i libucrt:output.obj
 0001:00017b0d       ??$type_case_integer_parse_into_buffer@I$07@?$output_processor@_WV?$string_output_adapter@_W@__crt_stdio_output@@V?$format_validation_base@_WV?$string_output_adapter@_W@__crt_stdio_output@@@2@@__crt_stdio_output@@AAEXI_N@Z 00418b0d f i libucrt:output.obj
 0001:00017b7a       ??$type_case_integer_parse_into_buffer@I$07@?$output_processor@_WV?$string_output_adapter@_W@__crt_stdio_output@@V?$positional_parameter_base@_WV?$string_output_adapter@_W@__crt_stdio_output@@@2@@__crt_stdio_output@@AAEXI_N@Z 00418b7a f i libucrt:output.obj
 0001:00017be7       ??$type_case_integer_parse_into_buffer@I$07@?$output_processor@_WV?$string_output_adapter@_W@__crt_stdio_output@@V?$standard_base@_WV?$string_output_adapter@_W@__crt_stdio_output@@@2@@__crt_stdio_output@@AAEXI_N@Z 00418be7 f i libucrt:output.obj
 0001:00017c54       ??$type_case_integer_parse_into_buffer@I$09@?$output_processor@DV?$stream_output_adapter@D@__crt_stdio_output@@V?$format_validation_base@DV?$stream_output_adapter@D@__crt_stdio_output@@@2@@__crt_stdio_output@@AAEXI_N@Z 00418c54 f i libucrt:output.obj
 0001:00017cce       ??$type_case_integer_parse_into_buffer@I$09@?$output_processor@DV?$stream_output_adapter@D@__crt_stdio_output@@V?$positional_parameter_base@DV?$stream_output_adapter@D@__crt_stdio_output@@@2@@__crt_stdio_output@@AAEXI_N@Z 00418cce f i libucrt:output.obj
 0001:00017d48       ??$type_case_integer_parse_into_buffer@I$09@?$output_processor@DV?$stream_output_adapter@D@__crt_stdio_output@@V?$standard_base@DV?$stream_output_adapter@D@__crt_stdio_output@@@2@@__crt_stdio_output@@AAEXI_N@Z 00418d48 f i libucrt:output.obj
 0001:00017dc2       ??$type_case_integer_parse_into_buffer@I$09@?$output_processor@DV?$string_output_adapter@D@__crt_stdio_output@@V?$format_validation_base@DV?$string_output_adapter@D@__crt_stdio_output@@@2@@__crt_stdio_output@@AAEXI_N@Z 00418dc2 f i libucrt:output.obj
 0001:00017e3c       ??$type_case_integer_parse_into_buffer@I$09@?$output_processor@DV?$string_output_adapter@D@__crt_stdio_output@@V?$positional_parameter_base@DV?$string_output_adapter@D@__crt_stdio_output@@@2@@__crt_stdio_output@@AAEXI_N@Z 00418e3c f i libucrt:output.obj
 0001:00017eb6       ??$type_case_integer_parse_into_buffer@I$09@?$output_processor@DV?$string_output_adapter@D@__crt_stdio_output@@V?$standard_base@DV?$string_output_adapter@D@__crt_stdio_output@@@2@@__crt_stdio_output@@AAEXI_N@Z 00418eb6 f i libucrt:output.obj
 0001:00017f30       ??$type_case_integer_parse_into_buffer@I$09@?$output_processor@_WV?$stream_output_adapter@_W@__crt_stdio_output@@V?$format_validation_base@_WV?$stream_output_adapter@_W@__crt_stdio_output@@@2@@__crt_stdio_output@@AAEXI_N@Z 00418f30 f i libucrt:output.obj
 0001:00017fbf       ??$type_case_integer_parse_into_buffer@I$09@?$output_processor@_WV?$stream_output_adapter@_W@__crt_stdio_output@@V?$positional_parameter_base@_WV?$stream_output_adapter@_W@__crt_stdio_output@@@2@@__crt_stdio_output@@AAEXI_N@Z 00418fbf f i libucrt:output.obj
 0001:0001804e       ??$type_case_integer_parse_into_buffer@I$09@?$output_processor@_WV?$stream_output_adapter@_W@__crt_stdio_output@@V?$standard_base@_WV?$stream_output_adapter@_W@__crt_stdio_output@@@2@@__crt_stdio_output@@AAEXI_N@Z 0041904e f i libucrt:output.obj
 0001:000180dd       ??$type_case_integer_parse_into_buffer@I$09@?$output_processor@_WV?$string_output_adapter@_W@__crt_stdio_output@@V?$format_validation_base@_WV?$string_output_adapter@_W@__crt_stdio_output@@@2@@__crt_stdio_output@@AAEXI_N@Z 004190dd f i libucrt:output.obj
 0001:0001816c       ??$type_case_integer_parse_into_buffer@I$09@?$output_processor@_WV?$string_output_adapter@_W@__crt_stdio_output@@V?$positional_parameter_base@_WV?$string_output_adapter@_W@__crt_stdio_output@@@2@@__crt_stdio_output@@AAEXI_N@Z 0041916c f i libucrt:output.obj
 0001:000181fb       ??$type_case_integer_parse_into_buffer@I$09@?$output_processor@_WV?$string_output_adapter@_W@__crt_stdio_output@@V?$standard_base@_WV?$string_output_adapter@_W@__crt_stdio_output@@@2@@__crt_stdio_output@@AAEXI_N@Z 004191fb f i libucrt:output.obj
 0001:0001828a       ??$type_case_integer_parse_into_buffer@I$0BA@@?$output_processor@DV?$stream_output_adapter@D@__crt_stdio_output@@V?$format_validation_base@DV?$stream_output_adapter@D@__crt_stdio_output@@@2@@__crt_stdio_output@@AAEXI_N@Z 0041928a f i libucrt:output.obj
 0001:00018312       ??$type_case_integer_parse_into_buffer@I$0BA@@?$output_processor@DV?$stream_output_adapter@D@__crt_stdio_output@@V?$positional_parameter_base@DV?$stream_output_adapter@D@__crt_stdio_output@@@2@@__crt_stdio_output@@AAEXI_N@Z 00419312 f i libucrt:output.obj
 0001:0001839a       ??$type_case_integer_parse_into_buffer@I$0BA@@?$output_processor@DV?$stream_output_adapter@D@__crt_stdio_output@@V?$standard_base@DV?$stream_output_adapter@D@__crt_stdio_output@@@2@@__crt_stdio_output@@AAEXI_N@Z 0041939a f i libucrt:output.obj
 0001:00018422       ??$type_case_integer_parse_into_buffer@I$0BA@@?$output_processor@DV?$string_output_adapter@D@__crt_stdio_output@@V?$format_validation_base@DV?$string_output_adapter@D@__crt_stdio_output@@@2@@__crt_stdio_output@@AAEXI_N@Z 00419422 f i libucrt:output.obj
 0001:000184aa       ??$type_case_integer_parse_into_buffer@I$0BA@@?$output_processor@DV?$string_output_adapter@D@__crt_stdio_output@@V?$positional_parameter_base@DV?$string_output_adapter@D@__crt_stdio_output@@@2@@__crt_stdio_output@@AAEXI_N@Z 004194aa f i libucrt:output.obj
 0001:00018532       ??$type_case_integer_parse_into_buffer@I$0BA@@?$output_processor@DV?$string_output_adapter@D@__crt_stdio_output@@V?$standard_base@DV?$string_output_adapter@D@__crt_stdio_output@@@2@@__crt_stdio_output@@AAEXI_N@Z 00419532 f i libucrt:output.obj
 0001:000185ba       ??$type_case_integer_parse_into_buffer@I$0BA@@?$output_processor@_WV?$stream_output_adapter@_W@__crt_stdio_output@@V?$format_validation_base@_WV?$stream_output_adapter@_W@__crt_stdio_output@@@2@@__crt_stdio_output@@AAEXI_N@Z 004195ba f i libucrt:output.obj
 0001:00018647       ??$type_case_integer_parse_into_buffer@I$0BA@@?$output_processor@_WV?$stream_output_adapter@_W@__crt_stdio_output@@V?$positional_parameter_base@_WV?$stream_output_adapter@_W@__crt_stdio_output@@@2@@__crt_stdio_output@@AAEXI_N@Z 00419647 f i libucrt:output.obj
 0001:000186d4       ??$type_case_integer_parse_into_buffer@I$0BA@@?$output_processor@_WV?$stream_output_adapter@_W@__crt_stdio_output@@V?$standard_base@_WV?$stream_output_adapter@_W@__crt_stdio_output@@@2@@__crt_stdio_output@@AAEXI_N@Z 004196d4 f i libucrt:output.obj
 0001:00018761       ??$type_case_integer_parse_into_buffer@I$0BA@@?$output_processor@_WV?$string_output_adapter@_W@__crt_stdio_output@@V?$format_validation_base@_WV?$string_output_adapter@_W@__crt_stdio_output@@@2@@__crt_stdio_output@@AAEXI_N@Z 00419761 f i libucrt:output.obj
 0001:000187ee       ??$type_case_integer_parse_into_buffer@I$0BA@@?$output_processor@_WV?$string_output_adapter@_W@__crt_stdio_output@@V?$positional_parameter_base@_WV?$string_output_adapter@_W@__crt_stdio_output@@@2@@__crt_stdio_output@@AAEXI_N@Z 004197ee f i libucrt:output.obj
 0001:0001887b       ??$type_case_integer_parse_into_buffer@I$0BA@@?$output_processor@_WV?$string_output_adapter@_W@__crt_stdio_output@@V?$standard_base@_WV?$string_output_adapter@_W@__crt_stdio_output@@@2@@__crt_stdio_output@@AAEXI_N@Z 0041987b f i libucrt:output.obj
 0001:00018908       ??$type_case_integer_parse_into_buffer@_K$07@?$output_processor@DV?$stream_output_adapter@D@__crt_stdio_output@@V?$format_validation_base@DV?$stream_output_adapter@D@__crt_stdio_output@@@2@@__crt_stdio_output@@AAEX_K_N@Z 00419908 f i libucrt:output.obj
 0001:00018980       ??$type_case_integer_parse_into_buffer@_K$07@?$output_processor@DV?$stream_output_adapter@D@__crt_stdio_output@@V?$positional_parameter_base@DV?$stream_output_adapter@D@__crt_stdio_output@@@2@@__crt_stdio_output@@AAEX_K_N@Z 00419980 f i libucrt:output.obj
 0001:000189f8       ??$type_case_integer_parse_into_buffer@_K$07@?$output_processor@DV?$stream_output_adapter@D@__crt_stdio_output@@V?$standard_base@DV?$stream_output_adapter@D@__crt_stdio_output@@@2@@__crt_stdio_output@@AAEX_K_N@Z 004199f8 f i libucrt:output.obj
 0001:00018a70       ??$type_case_integer_parse_into_buffer@_K$07@?$output_processor@DV?$string_output_adapter@D@__crt_stdio_output@@V?$format_validation_base@DV?$string_output_adapter@D@__crt_stdio_output@@@2@@__crt_stdio_output@@AAEX_K_N@Z 00419a70 f i libucrt:output.obj
 0001:00018ae8       ??$type_case_integer_parse_into_buffer@_K$07@?$output_processor@DV?$string_output_adapter@D@__crt_stdio_output@@V?$positional_parameter_base@DV?$string_output_adapter@D@__crt_stdio_output@@@2@@__crt_stdio_output@@AAEX_K_N@Z 00419ae8 f i libucrt:output.obj
 0001:00018b60       ??$type_case_integer_parse_into_buffer@_K$07@?$output_processor@DV?$string_output_adapter@D@__crt_stdio_output@@V?$standard_base@DV?$string_output_adapter@D@__crt_stdio_output@@@2@@__crt_stdio_output@@AAEX_K_N@Z 00419b60 f i libucrt:output.obj
 0001:00018bd8       ??$type_case_integer_parse_into_buffer@_K$07@?$output_processor@_WV?$stream_output_adapter@_W@__crt_stdio_output@@V?$format_validation_base@_WV?$stream_output_adapter@_W@__crt_stdio_output@@@2@@__crt_stdio_output@@AAEX_K_N@Z 00419bd8 f i libucrt:output.obj
 0001:00018c61       ??$type_case_integer_parse_into_buffer@_K$07@?$output_processor@_WV?$stream_output_adapter@_W@__crt_stdio_output@@V?$positional_parameter_base@_WV?$stream_output_adapter@_W@__crt_stdio_output@@@2@@__crt_stdio_output@@AAEX_K_N@Z 00419c61 f i libucrt:output.obj
 0001:00018cea       ??$type_case_integer_parse_into_buffer@_K$07@?$output_processor@_WV?$stream_output_adapter@_W@__crt_stdio_output@@V?$standard_base@_WV?$stream_output_adapter@_W@__crt_stdio_output@@@2@@__crt_stdio_output@@AAEX_K_N@Z 00419cea f i libucrt:output.obj
 0001:00018d73       ??$type_case_integer_parse_into_buffer@_K$07@?$output_processor@_WV?$string_output_adapter@_W@__crt_stdio_output@@V?$format_validation_base@_WV?$string_output_adapter@_W@__crt_stdio_output@@@2@@__crt_stdio_output@@AAEX_K_N@Z 00419d73 f i libucrt:output.obj
 0001:00018dfc       ??$type_case_integer_parse_into_buffer@_K$07@?$output_processor@_WV?$string_output_adapter@_W@__crt_stdio_output@@V?$positional_parameter_base@_WV?$string_output_adapter@_W@__crt_stdio_output@@@2@@__crt_stdio_output@@AAEX_K_N@Z 00419dfc f i libucrt:output.obj
 0001:00018e85       ??$type_case_integer_parse_into_buffer@_K$07@?$output_processor@_WV?$string_output_adapter@_W@__crt_stdio_output@@V?$standard_base@_WV?$string_output_adapter@_W@__crt_stdio_output@@@2@@__crt_stdio_output@@AAEX_K_N@Z 00419e85 f i libucrt:output.obj
 0001:00018f0e       ??$type_case_integer_parse_into_buffer@_K$09@?$output_processor@DV?$stream_output_adapter@D@__crt_stdio_output@@V?$format_validation_base@DV?$stream_output_adapter@D@__crt_stdio_output@@@2@@__crt_stdio_output@@AAEX_K_N@Z 00419f0e f i libucrt:output.obj
 0001:00018faa       ??$type_case_integer_parse_into_buffer@_K$09@?$output_processor@DV?$stream_output_adapter@D@__crt_stdio_output@@V?$positional_parameter_base@DV?$stream_output_adapter@D@__crt_stdio_output@@@2@@__crt_stdio_output@@AAEX_K_N@Z 00419faa f i libucrt:output.obj
 0001:00019046       ??$type_case_integer_parse_into_buffer@_K$09@?$output_processor@DV?$stream_output_adapter@D@__crt_stdio_output@@V?$standard_base@DV?$stream_output_adapter@D@__crt_stdio_output@@@2@@__crt_stdio_output@@AAEX_K_N@Z 0041a046 f i libucrt:output.obj
 0001:000190e2       ??$type_case_integer_parse_into_buffer@_K$09@?$output_processor@DV?$string_output_adapter@D@__crt_stdio_output@@V?$format_validation_base@DV?$string_output_adapter@D@__crt_stdio_output@@@2@@__crt_stdio_output@@AAEX_K_N@Z 0041a0e2 f i libucrt:output.obj
 0001:0001917e       ??$type_case_integer_parse_into_buffer@_K$09@?$output_processor@DV?$string_output_adapter@D@__crt_stdio_output@@V?$positional_parameter_base@DV?$string_output_adapter@D@__crt_stdio_output@@@2@@__crt_stdio_output@@AAEX_K_N@Z 0041a17e f i libucrt:output.obj
 0001:0001921a       ??$type_case_integer_parse_into_buffer@_K$09@?$output_processor@DV?$string_output_adapter@D@__crt_stdio_output@@V?$standard_base@DV?$string_output_adapter@D@__crt_stdio_output@@@2@@__crt_stdio_output@@AAEX_K_N@Z 0041a21a f i libucrt:output.obj
 0001:000192b6       ??$type_case_integer_parse_into_buffer@_K$09@?$output_processor@_WV?$stream_output_adapter@_W@__crt_stdio_output@@V?$format_validation_base@_WV?$stream_output_adapter@_W@__crt_stdio_output@@@2@@__crt_stdio_output@@AAEX_K_N@Z 0041a2b6 f i libucrt:output.obj
 0001:00019365       ??$type_case_integer_parse_into_buffer@_K$09@?$output_processor@_WV?$stream_output_adapter@_W@__crt_stdio_output@@V?$positional_parameter_base@_WV?$stream_output_adapter@_W@__crt_stdio_output@@@2@@__crt_stdio_output@@AAEX_K_N@Z 0041a365 f i libucrt:output.obj
 0001:00019414       ??$type_case_integer_parse_into_buffer@_K$09@?$output_processor@_WV?$stream_output_adapter@_W@__crt_stdio_output@@V?$standard_base@_WV?$stream_output_adapter@_W@__crt_stdio_output@@@2@@__crt_stdio_output@@AAEX_K_N@Z 0041a414 f i libucrt:output.obj
 0001:000194c3       ??$type_case_integer_parse_into_buffer@_K$09@?$output_processor@_WV?$string_output_adapter@_W@__crt_stdio_output@@V?$format_validation_base@_WV?$string_output_adapter@_W@__crt_stdio_output@@@2@@__crt_stdio_output@@AAEX_K_N@Z 0041a4c3 f i libucrt:output.obj
 0001:00019572       ??$type_case_integer_parse_into_buffer@_K$09@?$output_processor@_WV?$string_output_adapter@_W@__crt_stdio_output@@V?$positional_parameter_base@_WV?$string_output_adapter@_W@__crt_stdio_output@@@2@@__crt_stdio_output@@AAEX_K_N@Z 0041a572 f i libucrt:output.obj
 0001:00019621       ??$type_case_integer_parse_into_buffer@_K$09@?$output_processor@_WV?$string_output_adapter@_W@__crt_stdio_output@@V?$standard_base@_WV?$string_output_adapter@_W@__crt_stdio_output@@@2@@__crt_stdio_output@@AAEX_K_N@Z 0041a621 f i libucrt:output.obj
 0001:000196d0       ??$type_case_integer_parse_into_buffer@_K$0BA@@?$output_processor@DV?$stream_output_adapter@D@__crt_stdio_output@@V?$format_validation_base@DV?$stream_output_adapter@D@__crt_stdio_output@@@2@@__crt_stdio_output@@AAEX_K_N@Z 0041a6d0 f i libucrt:output.obj
 0001:00019762       ??$type_case_integer_parse_into_buffer@_K$0BA@@?$output_processor@DV?$stream_output_adapter@D@__crt_stdio_output@@V?$positional_parameter_base@DV?$stream_output_adapter@D@__crt_stdio_output@@@2@@__crt_stdio_output@@AAEX_K_N@Z 0041a762 f i libucrt:output.obj
 0001:000197f4       ??$type_case_integer_parse_into_buffer@_K$0BA@@?$output_processor@DV?$stream_output_adapter@D@__crt_stdio_output@@V?$standard_base@DV?$stream_output_adapter@D@__crt_stdio_output@@@2@@__crt_stdio_output@@AAEX_K_N@Z 0041a7f4 f i libucrt:output.obj
 0001:00019886       ??$type_case_integer_parse_into_buffer@_K$0BA@@?$output_processor@DV?$string_output_adapter@D@__crt_stdio_output@@V?$format_validation_base@DV?$string_output_adapter@D@__crt_stdio_output@@@2@@__crt_stdio_output@@AAEX_K_N@Z 0041a886 f i libucrt:output.obj
 0001:00019918       ??$type_case_integer_parse_into_buffer@_K$0BA@@?$output_processor@DV?$string_output_adapter@D@__crt_stdio_output@@V?$positional_parameter_base@DV?$string_output_adapter@D@__crt_stdio_output@@@2@@__crt_stdio_output@@AAEX_K_N@Z 0041a918 f i libucrt:output.obj
 0001:000199aa       ??$type_case_integer_parse_into_buffer@_K$0BA@@?$output_processor@DV?$string_output_adapter@D@__crt_stdio_output@@V?$standard_base@DV?$string_output_adapter@D@__crt_stdio_output@@@2@@__crt_stdio_output@@AAEX_K_N@Z 0041a9aa f i libucrt:output.obj
 0001:00019a3c       ??$type_case_integer_parse_into_buffer@_K$0BA@@?$output_processor@_WV?$stream_output_adapter@_W@__crt_stdio_output@@V?$format_validation_base@_WV?$stream_output_adapter@_W@__crt_stdio_output@@@2@@__crt_stdio_output@@AAEX_K_N@Z 0041aa3c f i libucrt:output.obj
 0001:00019ad7       ??$type_case_integer_parse_into_buffer@_K$0BA@@?$output_processor@_WV?$stream_output_adapter@_W@__crt_stdio_output@@V?$positional_parameter_base@_WV?$stream_output_adapter@_W@__crt_stdio_output@@@2@@__crt_stdio_output@@AAEX_K_N@Z 0041aad7 f i libucrt:output.obj
 0001:00019b72       ??$type_case_integer_parse_into_buffer@_K$0BA@@?$output_processor@_WV?$stream_output_adapter@_W@__crt_stdio_output@@V?$standard_base@_WV?$stream_output_adapter@_W@__crt_stdio_output@@@2@@__crt_stdio_output@@AAEX_K_N@Z 0041ab72 f i libucrt:output.obj
 0001:00019c0d       ??$type_case_integer_parse_into_buffer@_K$0BA@@?$output_processor@_WV?$string_output_adapter@_W@__crt_stdio_output@@V?$format_validation_base@_WV?$string_output_adapter@_W@__crt_stdio_output@@@2@@__crt_stdio_output@@AAEX_K_N@Z 0041ac0d f i libucrt:output.obj
 0001:00019ca8       ??$type_case_integer_parse_into_buffer@_K$0BA@@?$output_processor@_WV?$string_output_adapter@_W@__crt_stdio_output@@V?$positional_parameter_base@_WV?$string_output_adapter@_W@__crt_stdio_output@@@2@@__crt_stdio_output@@AAEX_K_N@Z 0041aca8 f i libucrt:output.obj
 0001:00019d43       ??$type_case_integer_parse_into_buffer@_K$0BA@@?$output_processor@_WV?$string_output_adapter@_W@__crt_stdio_output@@V?$standard_base@_WV?$string_output_adapter@_W@__crt_stdio_output@@@2@@__crt_stdio_output@@AAEX_K_N@Z 0041ad43 f i libucrt:output.obj
 0001:00019dde       ??$write_multiple_characters@V?$stream_output_adapter@D@__crt_stdio_output@@D@__crt_stdio_output@@YAXABV?$stream_output_adapter@D@0@DHQAHAAV__crt_cached_ptd_host@@@Z 0041adde f i libucrt:output.obj
 0001:00019e0d       ??$write_multiple_characters@V?$stream_output_adapter@_W@__crt_stdio_output@@D@__crt_stdio_output@@YAXABV?$stream_output_adapter@_W@0@DHQAHAAV__crt_cached_ptd_host@@@Z 0041ae0d f i libucrt:output.obj
 0001:00019e41       ??$write_multiple_characters@V?$string_output_adapter@D@__crt_stdio_output@@D@__crt_stdio_output@@YAXABV?$string_output_adapter@D@0@DHQAHAAV__crt_cached_ptd_host@@@Z 0041ae41 f i libucrt:output.obj
 0001:00019ea2       ??$write_multiple_characters@V?$string_output_adapter@_W@__crt_stdio_output@@D@__crt_stdio_output@@YAXABV?$string_output_adapter@_W@0@DHQAHAAV__crt_cached_ptd_host@@@Z 0041aea2 f i libucrt:output.obj
 0001:0001a0cf       ??0?$c_string_character_source@D@__crt_strtox@@QAE@QBDQAPBD@Z 0041b0cf f i libucrt:output.obj
 0001:0001a0eb       ??0?$c_string_character_source@_W@__crt_strtox@@QAE@QB_WQAPB_W@Z 0041b0eb f i libucrt:output.obj
 0001:0001a107       ??0?$common_data@D@__crt_stdio_output@@IAE@AAV__crt_cached_ptd_host@@@Z 0041b107 f i libucrt:output.obj
 0001:0001a14e       ??0?$common_data@_W@__crt_stdio_output@@IAE@AAV__crt_cached_ptd_host@@@Z 0041b14e f i libucrt:output.obj
 0001:0001a19a       ??0?$output_adapter_data@DV?$stream_output_adapter@D@__crt_stdio_output@@@__crt_stdio_output@@IAE@ABV?$stream_output_adapter@D@1@_KQBDAAV__crt_cached_ptd_host@@QAD@Z 0041b19a f i libucrt:output.obj
 0001:0001a201       ??0?$output_adapter_data@DV?$string_output_adapter@D@__crt_stdio_output@@@__crt_stdio_output@@IAE@ABV?$string_output_adapter@D@1@_KQBDAAV__crt_cached_ptd_host@@QAD@Z 0041b201 f i libucrt:output.obj
 0001:0001a268       ??0?$output_adapter_data@_WV?$stream_output_adapter@_W@__crt_stdio_output@@@__crt_stdio_output@@IAE@ABV?$stream_output_adapter@_W@1@_KQB_WAAV__crt_cached_ptd_host@@QAD@Z 0041b268 f i libucrt:output.obj
 0001:0001a2d4       ??0?$output_adapter_data@_WV?$string_output_adapter@_W@__crt_stdio_output@@@__crt_stdio_output@@IAE@ABV?$string_output_adapter@_W@1@_KQB_WAAV__crt_cached_ptd_host@@QAD@Z 0041b2d4 f i libucrt:output.obj
 0001:0001a340       ??0?$output_processor@DV?$stream_output_adapter@D@__crt_stdio_output@@V?$format_validation_base@DV?$stream_output_adapter@D@__crt_stdio_output@@@2@@__crt_stdio_output@@QAE@ABV?$stream_output_adapter@D@1@_KQBDAAV__crt_cached_ptd_host@@QAD@Z 0041b340 f i libucrt:output.obj
 0001:0001a36d       ??0?$output_processor@DV?$stream_output_adapter@D@__crt_stdio_output@@V?$positional_parameter_base@DV?$stream_output_adapter@D@__crt_stdio_output@@@2@@__crt_stdio_output@@QAE@ABV?$stream_output_adapter@D@1@_KQBDAAV__crt_cached_ptd_host@@QAD@Z 0041b36d f i libucrt:output.obj
 0001:0001a393       ??0?$output_processor@DV?$stream_output_adapter@D@__crt_stdio_output@@V?$standard_base@DV?$stream_output_adapter@D@__crt_stdio_output@@@2@@__crt_stdio_output@@QAE@ABV?$stream_output_adapter@D@1@_KQBDAAV__crt_cached_ptd_host@@QAD@Z 0041b393 f i libucrt:output.obj
 0001:0001a3c0       ??0?$output_processor@DV?$string_output_adapter@D@__crt_stdio_output@@V?$format_validation_base@DV?$string_output_adapter@D@__crt_stdio_output@@@2@@__crt_stdio_output@@QAE@ABV?$string_output_adapter@D@1@_KQBDAAV__crt_cached_ptd_host@@QAD@Z 0041b3c0 f i libucrt:output.obj
 0001:0001a3ed       ??0?$output_processor@DV?$string_output_adapter@D@__crt_stdio_output@@V?$positional_parameter_base@DV?$string_output_adapter@D@__crt_stdio_output@@@2@@__crt_stdio_output@@QAE@ABV?$string_output_adapter@D@1@_KQBDAAV__crt_cached_ptd_host@@QAD@Z 0041b3ed f i libucrt:output.obj
 0001:0001a413       ??0?$output_processor@DV?$string_output_adapter@D@__crt_stdio_output@@V?$standard_base@DV?$string_output_adapter@D@__crt_stdio_output@@@2@@__crt_stdio_output@@QAE@ABV?$string_output_adapter@D@1@_KQBDAAV__crt_cached_ptd_host@@QAD@Z 0041b413 f i libucrt:output.obj
 0001:0001a440       ??0?$output_processor@_WV?$stream_output_adapter@_W@__crt_stdio_output@@V?$format_validation_base@_WV?$stream_output_adapter@_W@__crt_stdio_output@@@2@@__crt_stdio_output@@QAE@ABV?$stream_output_adapter@_W@1@_KQB_WAAV__crt_cached_ptd_host@@QAD@Z 0041b440 f i libucrt:output.obj
 0001:0001a46d       ??0?$output_processor@_WV?$stream_output_adapter@_W@__crt_stdio_output@@V?$positional_parameter_base@_WV?$stream_output_adapter@_W@__crt_stdio_output@@@2@@__crt_stdio_output@@QAE@ABV?$stream_output_adapter@_W@1@_KQB_WAAV__crt_cached_ptd_host@@QAD@Z 0041b46d f i libucrt:output.obj
 0001:0001a493       ??0?$output_processor@_WV?$stream_output_adapter@_W@__crt_stdio_output@@V?$standard_base@_WV?$stream_output_adapter@_W@__crt_stdio_output@@@2@@__crt_stdio_output@@QAE@ABV?$stream_output_adapter@_W@1@_KQB_WAAV__crt_cached_ptd_host@@QAD@Z 0041b493 f i libucrt:output.obj
 0001:0001a4c0       ??0?$output_processor@_WV?$string_output_adapter@_W@__crt_stdio_output@@V?$format_validation_base@_WV?$string_output_adapter@_W@__crt_stdio_output@@@2@@__crt_stdio_output@@QAE@ABV?$string_output_adapter@_W@1@_KQB_WAAV__crt_cached_ptd_host@@QAD@Z 0041b4c0 f i libucrt:output.obj
 0001:0001a4ed       ??0?$output_processor@_WV?$string_output_adapter@_W@__crt_stdio_output@@V?$positional_parameter_base@_WV?$string_output_adapter@_W@__crt_stdio_output@@@2@@__crt_stdio_output@@QAE@ABV?$string_output_adapter@_W@1@_KQB_WAAV__crt_cached_ptd_host@@QAD@Z 0041b4ed f i libucrt:output.obj
 0001:0001a513       ??0?$output_processor@_WV?$string_output_adapter@_W@__crt_stdio_output@@V?$standard_base@_WV?$string_output_adapter@_W@__crt_stdio_output@@@2@@__crt_stdio_output@@QAE@ABV?$string_output_adapter@_W@1@_KQB_WAAV__crt_cached_ptd_host@@QAD@Z 0041b513 f i libucrt:output.obj
 0001:0001a540       ??0?$stream_output_adapter@D@__crt_stdio_output@@QAE@QAU_iobuf@@@Z 0041b540 f i libucrt:output.obj
 0001:0001a550       ??0?$stream_output_adapter@_W@__crt_stdio_output@@QAE@QAU_iobuf@@@Z 0041b550 f i libucrt:output.obj
 0001:0001a560       ??0?$string_output_adapter@D@__crt_stdio_output@@QAE@QAU?$string_output_adapter_context@D@1@@Z 0041b560 f i libucrt:output.obj
 0001:0001a570       ??0?$string_output_adapter@_W@__crt_stdio_output@@QAE@QAU?$string_output_adapter_context@_W@1@@Z 0041b570 f i libucrt:output.obj
 0001:0001a580       ??0__acrt_stdio_temporary_buffering_guard@@QAE@QAU_iobuf@@AAV__crt_cached_ptd_host@@@Z 0041b580 f i libucrt:output.obj
 0001:0001a5a4       ??0formatting_buffer@__crt_stdio_output@@QAE@XZ 0041b5a4 f i libucrt:output.obj
 0001:0001a5b5       ??0guard@?$cached@H@__crt_cached_ptd_host@@QAE@AAU12@@Z 0041b5b5 f i libucrt:output.obj
 0001:0001a5d4       ??1?$c_string_character_source@D@__crt_strtox@@QAE@XZ 0041b5d4 f i libucrt:output.obj
 0001:0001a5e0       ??1?$c_string_character_source@_W@__crt_strtox@@QAE@XZ 0041b5e0 f i libucrt:output.obj
 0001:0001a5ec       ??1?$common_data@D@__crt_stdio_output@@QAE@XZ 0041b5ec f i libucrt:output.obj
 0001:0001a5f4       ??1?$common_data@_W@__crt_stdio_output@@QAE@XZ 0041b5f4 f i libucrt:output.obj
 0001:0001a5fc       ??1?$format_validation_base@DV?$stream_output_adapter@D@__crt_stdio_output@@@__crt_stdio_output@@QAE@XZ 0041b5fc f i libucrt:output.obj
 0001:0001a604       ??1?$format_validation_base@DV?$string_output_adapter@D@__crt_stdio_output@@@__crt_stdio_output@@QAE@XZ 0041b604 f i libucrt:output.obj
 0001:0001a60c       ??1?$format_validation_base@_WV?$stream_output_adapter@_W@__crt_stdio_output@@@__crt_stdio_output@@QAE@XZ 0041b60c f i libucrt:output.obj
 0001:0001a614       ??1?$format_validation_base@_WV?$string_output_adapter@_W@__crt_stdio_output@@@__crt_stdio_output@@QAE@XZ 0041b614 f i libucrt:output.obj
 0001:0001a61c       ??1?$output_adapter_data@DV?$stream_output_adapter@D@__crt_stdio_output@@@__crt_stdio_output@@QAE@XZ 0041b61c f i libucrt:output.obj
 0001:0001a624       ??1?$output_adapter_data@DV?$string_output_adapter@D@__crt_stdio_output@@@__crt_stdio_output@@QAE@XZ 0041b624 f i libucrt:output.obj
 0001:0001a62c       ??1?$output_adapter_data@_WV?$stream_output_adapter@_W@__crt_stdio_output@@@__crt_stdio_output@@QAE@XZ 0041b62c f i libucrt:output.obj
 0001:0001a634       ??1?$output_adapter_data@_WV?$string_output_adapter@_W@__crt_stdio_output@@@__crt_stdio_output@@QAE@XZ 0041b634 f i libucrt:output.obj
 0001:0001a63c       ??1?$output_processor@DV?$stream_output_adapter@D@__crt_stdio_output@@V?$format_validation_base@DV?$stream_output_adapter@D@__crt_stdio_output@@@2@@__crt_stdio_output@@QAE@XZ 0041b63c f i libucrt:output.obj
 0001:0001a644       ??1?$output_processor@DV?$stream_output_adapter@D@__crt_stdio_output@@V?$positional_parameter_base@DV?$stream_output_adapter@D@__crt_stdio_output@@@2@@__crt_stdio_output@@QAE@XZ 0041b644 f i libucrt:output.obj
 0001:0001a64c       ??1?$output_processor@DV?$stream_output_adapter@D@__crt_stdio_output@@V?$standard_base@DV?$stream_output_adapter@D@__crt_stdio_output@@@2@@__crt_stdio_output@@QAE@XZ 0041b64c f i libucrt:output.obj
 0001:0001a654       ??1?$output_processor@DV?$string_output_adapter@D@__crt_stdio_output@@V?$format_validation_base@DV?$string_output_adapter@D@__crt_stdio_output@@@2@@__crt_stdio_output@@QAE@XZ 0041b654 f i libucrt:output.obj
 0001:0001a65c       ??1?$output_processor@DV?$string_output_adapter@D@__crt_stdio_output@@V?$positional_parameter_base@DV?$string_output_adapter@D@__crt_stdio_output@@@2@@__crt_stdio_output@@QAE@XZ 0041b65c f i libucrt:output.obj
 0001:0001a664       ??1?$output_processor@DV?$string_output_adapter@D@__crt_stdio_output@@V?$standard_base@DV?$string_output_adapter@D@__crt_stdio_output@@@2@@__crt_stdio_output@@QAE@XZ 0041b664 f i libucrt:output.obj
 0001:0001a66c       ??1?$output_processor@_WV?$stream_output_adapter@_W@__crt_stdio_output@@V?$format_validation_base@_WV?$stream_output_adapter@_W@__crt_stdio_output@@@2@@__crt_stdio_output@@QAE@XZ 0041b66c f i libucrt:output.obj
 0001:0001a674       ??1?$output_processor@_WV?$stream_output_adapter@_W@__crt_stdio_output@@V?$positional_parameter_base@_WV?$stream_output_adapter@_W@__crt_stdio_output@@@2@@__crt_stdio_output@@QAE@XZ 0041b674 f i libucrt:output.obj
 0001:0001a67c       ??1?$output_processor@_WV?$stream_output_adapter@_W@__crt_stdio_output@@V?$standard_base@_WV?$stream_output_adapter@_W@__crt_stdio_output@@@2@@__crt_stdio_output@@QAE@XZ 0041b67c f i libucrt:output.obj
 0001:0001a684       ??1?$output_processor@_WV?$string_output_adapter@_W@__crt_stdio_output@@V?$format_validation_base@_WV?$string_output_adapter@_W@__crt_stdio_output@@@2@@__crt_stdio_output@@QAE@XZ 0041b684 f i libucrt:output.obj
 0001:0001a68c       ??1?$output_processor@_WV?$string_output_adapter@_W@__crt_stdio_output@@V?$positional_parameter_base@_WV?$string_output_adapter@_W@__crt_stdio_output@@@2@@__crt_stdio_output@@QAE@XZ 0041b68c f i libucrt:output.obj
 0001:0001a694       ??1?$output_processor@_WV?$string_output_adapter@_W@__crt_stdio_output@@V?$standard_base@_WV?$string_output_adapter@_W@__crt_stdio_output@@@2@@__crt_stdio_output@@QAE@XZ 0041b694 f i libucrt:output.obj
 0001:0001a69c       ??1?$positional_parameter_base@DV?$stream_output_adapter@D@__crt_stdio_output@@@__crt_stdio_output@@QAE@XZ 0041b69c f i libucrt:output.obj
 0001:0001a6a4       ??1?$positional_parameter_base@DV?$string_output_adapter@D@__crt_stdio_output@@@__crt_stdio_output@@QAE@XZ 0041b6a4 f i libucrt:output.obj
 0001:0001a6ac       ??1?$positional_parameter_base@_WV?$stream_output_adapter@_W@__crt_stdio_output@@@__crt_stdio_output@@QAE@XZ 0041b6ac f i libucrt:output.obj
 0001:0001a6b4       ??1?$positional_parameter_base@_WV?$string_output_adapter@_W@__crt_stdio_output@@@__crt_stdio_output@@QAE@XZ 0041b6b4 f i libucrt:output.obj
 0001:0001a6bc       ??1?$standard_base@DV?$stream_output_adapter@D@__crt_stdio_output@@@__crt_stdio_output@@QAE@XZ 0041b6bc f i libucrt:output.obj
 0001:0001a6c4       ??1?$standard_base@DV?$string_output_adapter@D@__crt_stdio_output@@@__crt_stdio_output@@QAE@XZ 0041b6c4 f i libucrt:output.obj
 0001:0001a6cc       ??1?$standard_base@_WV?$stream_output_adapter@_W@__crt_stdio_output@@@__crt_stdio_output@@QAE@XZ 0041b6cc f i libucrt:output.obj
 0001:0001a6d4       ??1?$standard_base@_WV?$string_output_adapter@_W@__crt_stdio_output@@@__crt_stdio_output@@QAE@XZ 0041b6d4 f i libucrt:output.obj
 0001:0001a6dc       ??1__acrt_stdio_temporary_buffering_guard@@QAE@XZ 0041b6dc f i libucrt:output.obj
 0001:0001a6ef       ??1formatting_buffer@__crt_stdio_output@@QAE@XZ 0041b6ef f i libucrt:output.obj
 0001:0001a709       ??1guard@?$cached@H@__crt_cached_ptd_host@@QAE@XZ 0041b709 f i libucrt:output.obj
 0001:0001a71f       ??4?$__crt_unique_heap_ptr@DU__crt_internal_free_policy@@@@QAEAAV0@$$QAV0@@Z 0041b71f f i libucrt:output.obj
 0001:0001a743       ??A?$spectre_mitigated_lookup_table@Ustate_transition_pair@__crt_stdio_output@@$0IA@@__crt_stdio_output@@QBEABUstate_transition_pair@1@I@Z 0041b743 f i libucrt:output.obj
 0001:0001abbb       ?adjust_hexit@?$output_processor@DV?$stream_output_adapter@D@__crt_stdio_output@@V?$format_validation_base@DV?$stream_output_adapter@D@__crt_stdio_output@@@2@@__crt_stdio_output@@CADH_N@Z 0041bbbb f i libucrt:output.obj
 0001:0001abcf       ?adjust_hexit@?$output_processor@DV?$stream_output_adapter@D@__crt_stdio_output@@V?$positional_parameter_base@DV?$stream_output_adapter@D@__crt_stdio_output@@@2@@__crt_stdio_output@@CADH_N@Z 0041bbcf f i libucrt:output.obj
 0001:0001abe3       ?adjust_hexit@?$output_processor@DV?$stream_output_adapter@D@__crt_stdio_output@@V?$standard_base@DV?$stream_output_adapter@D@__crt_stdio_output@@@2@@__crt_stdio_output@@CADH_N@Z 0041bbe3 f i libucrt:output.obj
 0001:0001abf7       ?adjust_hexit@?$output_processor@DV?$string_output_adapter@D@__crt_stdio_output@@V?$format_validation_base@DV?$string_output_adapter@D@__crt_stdio_output@@@2@@__crt_stdio_output@@CADH_N@Z 0041bbf7 f i libucrt:output.obj
 0001:0001ac0b       ?adjust_hexit@?$output_processor@DV?$string_output_adapter@D@__crt_stdio_output@@V?$positional_parameter_base@DV?$string_output_adapter@D@__crt_stdio_output@@@2@@__crt_stdio_output@@CADH_N@Z 0041bc0b f i libucrt:output.obj
 0001:0001ac1f       ?adjust_hexit@?$output_processor@DV?$string_output_adapter@D@__crt_stdio_output@@V?$standard_base@DV?$string_output_adapter@D@__crt_stdio_output@@@2@@__crt_stdio_output@@CADH_N@Z 0041bc1f f i libucrt:output.obj
 0001:0001ac33       ?adjust_hexit@?$output_processor@_WV?$stream_output_adapter@_W@__crt_stdio_output@@V?$format_validation_base@_WV?$stream_output_adapter@_W@__crt_stdio_output@@@2@@__crt_stdio_output@@CADH_N@Z 0041bc33 f i libucrt:output.obj
 0001:0001ac47       ?adjust_hexit@?$output_processor@_WV?$stream_output_adapter@_W@__crt_stdio_output@@V?$positional_parameter_base@_WV?$stream_output_adapter@_W@__crt_stdio_output@@@2@@__crt_stdio_output@@CADH_N@Z 0041bc47 f i libucrt:output.obj
 0001:0001ac5b       ?adjust_hexit@?$output_processor@_WV?$stream_output_adapter@_W@__crt_stdio_output@@V?$standard_base@_WV?$stream_output_adapter@_W@__crt_stdio_output@@@2@@__crt_stdio_output@@CADH_N@Z 0041bc5b f i libucrt:output.obj
 0001:0001ac6f       ?adjust_hexit@?$output_processor@_WV?$string_output_adapter@_W@__crt_stdio_output@@V?$format_validation_base@_WV?$string_output_adapter@_W@__crt_stdio_output@@@2@@__crt_stdio_output@@CADH_N@Z 0041bc6f f i libucrt:output.obj
 0001:0001ac83       ?adjust_hexit@?$output_processor@_WV?$string_output_adapter@_W@__crt_stdio_output@@V?$positional_parameter_base@_WV?$string_output_adapter@_W@__crt_stdio_output@@@2@@__crt_stdio_output@@CADH_N@Z 0041bc83 f i libucrt:output.obj
 0001:0001ac97       ?adjust_hexit@?$output_processor@_WV?$string_output_adapter@_W@__crt_stdio_output@@V?$standard_base@_WV?$string_output_adapter@_W@__crt_stdio_output@@@2@@__crt_stdio_output@@CADH_N@Z 0041bc97 f i libucrt:output.obj
 0001:0001acab       ?advance_to_next_pass@?$positional_parameter_base@DV?$stream_output_adapter@D@__crt_stdio_output@@@__crt_stdio_output@@IAE_NXZ 0041bcab f i libucrt:output.obj
 0001:0001acf7       ?advance_to_next_pass@?$positional_parameter_base@DV?$string_output_adapter@D@__crt_stdio_output@@@__crt_stdio_output@@IAE_NXZ 0041bcf7 f i libucrt:output.obj
 0001:0001ad43       ?advance_to_next_pass@?$positional_parameter_base@_WV?$stream_output_adapter@_W@__crt_stdio_output@@@__crt_stdio_output@@IAE_NXZ 0041bd43 f i libucrt:output.obj
 0001:0001ad8f       ?advance_to_next_pass@?$positional_parameter_base@_WV?$string_output_adapter@_W@__crt_stdio_output@@@__crt_stdio_output@@IAE_NXZ 0041bd8f f i libucrt:output.obj
 0001:0001addb       ?advance_to_next_pass@?$standard_base@DV?$stream_output_adapter@D@__crt_stdio_output@@@__crt_stdio_output@@IAE_NXZ 0041bddb f i libucrt:output.obj
 0001:0001adec       ?advance_to_next_pass@?$standard_base@DV?$string_output_adapter@D@__crt_stdio_output@@@__crt_stdio_output@@IAE_NXZ 0041bdec f i libucrt:output.obj
 0001:0001adfd       ?advance_to_next_pass@?$standard_base@_WV?$stream_output_adapter@_W@__crt_stdio_output@@@__crt_stdio_output@@IAE_NXZ 0041bdfd f i libucrt:output.obj
 0001:0001ae0e       ?advance_to_next_pass@?$standard_base@_WV?$string_output_adapter@_W@__crt_stdio_output@@@__crt_stdio_output@@IAE_NXZ 0041be0e f i libucrt:output.obj
 0001:0001ae1f       ?check@?$cached@H@__crt_cached_ptd_host@@QBE_NH@Z 0041be1f f i libucrt:output.obj
 0001:0001ae3b       ?create_guard@?$cached@H@__crt_cached_ptd_host@@QAE?AVguard@12@XZ 0041be3b f i libucrt:output.obj
 0001:0001ae58       ?crop_zeroes@__crt_stdio_output@@YAXPADQAU__crt_locale_pointers@@@Z 0041be58 f i libucrt:output.obj
 0001:0001aeb8       ?disable@guard@?$cached@H@__crt_cached_ptd_host@@QAEXXZ 0041beb8 f i libucrt:output.obj
 0001:0001aebd       ?enable@guard@?$cached@H@__crt_cached_ptd_host@@QAEXXZ 0041bebd f i libucrt:output.obj
 0001:0001aec2       ?find_next_state@?$output_processor@DV?$stream_output_adapter@D@__crt_stdio_output@@V?$format_validation_base@DV?$stream_output_adapter@D@__crt_stdio_output@@@2@@__crt_stdio_output@@ABE?AW4state@2@DW432@@Z 0041bec2 f i libucrt:output.obj
 0001:0001aeff       ?find_next_state@?$output_processor@DV?$stream_output_adapter@D@__crt_stdio_output@@V?$positional_parameter_base@DV?$stream_output_adapter@D@__crt_stdio_output@@@2@@__crt_stdio_output@@ABE?AW4state@2@DW432@@Z 0041beff f i libucrt:output.obj
 0001:0001af3c       ?find_next_state@?$output_processor@DV?$stream_output_adapter@D@__crt_stdio_output@@V?$standard_base@DV?$stream_output_adapter@D@__crt_stdio_output@@@2@@__crt_stdio_output@@ABE?AW4state@2@DW432@@Z 0041bf3c f i libucrt:output.obj
 0001:0001af77       ?find_next_state@?$output_processor@DV?$string_output_adapter@D@__crt_stdio_output@@V?$format_validation_base@DV?$string_output_adapter@D@__crt_stdio_output@@@2@@__crt_stdio_output@@ABE?AW4state@2@DW432@@Z 0041bf77 f i libucrt:output.obj
 0001:0001afb4       ?find_next_state@?$output_processor@DV?$string_output_adapter@D@__crt_stdio_output@@V?$positional_parameter_base@DV?$string_output_adapter@D@__crt_stdio_output@@@2@@__crt_stdio_output@@ABE?AW4state@2@DW432@@Z 0041bfb4 f i libucrt:output.obj
 0001:0001aff1       ?find_next_state@?$output_processor@DV?$string_output_adapter@D@__crt_stdio_output@@V?$standard_base@DV?$string_output_adapter@D@__crt_stdio_output@@@2@@__crt_stdio_output@@ABE?AW4state@2@DW432@@Z 0041bff1 f i libucrt:output.obj
 0001:0001b02c       ?find_next_state@?$output_processor@_WV?$stream_output_adapter@_W@__crt_stdio_output@@V?$format_validation_base@_WV?$stream_output_adapter@_W@__crt_stdio_output@@@2@@__crt_stdio_output@@ABE?AW4state@2@_WW432@@Z 0041c02c f i libucrt:output.obj
 0001:0001b068       ?find_next_state@?$output_processor@_WV?$stream_output_adapter@_W@__crt_stdio_output@@V?$positional_parameter_base@_WV?$stream_output_adapter@_W@__crt_stdio_output@@@2@@__crt_stdio_output@@ABE?AW4state@2@_WW432@@Z 0041c068 f i libucrt:output.obj
 0001:0001b0a4       ?find_next_state@?$output_processor@_WV?$stream_output_adapter@_W@__crt_stdio_output@@V?$standard_base@_WV?$stream_output_adapter@_W@__crt_stdio_output@@@2@@__crt_stdio_output@@ABE?AW4state@2@_WW432@@Z 0041c0a4 f i libucrt:output.obj
 0001:0001b0de       ?find_next_state@?$output_processor@_WV?$string_output_adapter@_W@__crt_stdio_output@@V?$format_validation_base@_WV?$string_output_adapter@_W@__crt_stdio_output@@@2@@__crt_stdio_output@@ABE?AW4state@2@_WW432@@Z 0041c0de f i libucrt:output.obj
 0001:0001b11a       ?find_next_state@?$output_processor@_WV?$string_output_adapter@_W@__crt_stdio_output@@V?$positional_parameter_base@_WV?$string_output_adapter@_W@__crt_stdio_output@@@2@@__crt_stdio_output@@ABE?AW4state@2@_WW432@@Z 0041c11a f i libucrt:output.obj
 0001:0001b156       ?find_next_state@?$output_processor@_WV?$string_output_adapter@_W@__crt_stdio_output@@V?$standard_base@_WV?$string_output_adapter@_W@__crt_stdio_output@@@2@@__crt_stdio_output@@ABE?AW4state@2@_WW432@@Z 0041c156 f i libucrt:output.obj
 0001:0001b190       ?force_decimal_point@__crt_stdio_output@@YAXPADQAU__crt_locale_pointers@@@Z 0041c190 f i libucrt:output.obj
 0001:0001b1ec       ?get@?$c_string_character_source@D@__crt_strtox@@QAEDXZ 0041c1ec f i libucrt:output.obj
 0001:0001b1f4       ?get@?$c_string_character_source@_W@__crt_strtox@@QAE_WXZ 0041c1f4 f i libucrt:output.obj
 0001:0001b200       ?get_locale@__crt_cached_ptd_host@@QAEPAU__crt_locale_pointers@@XZ 0041c200 f i libucrt:output.obj
 0001:0001b215       ?get_parameter_type@?$positional_parameter_base@DV?$stream_output_adapter@D@__crt_stdio_output@@@__crt_stdio_output@@CA?AW4parameter_type@12@F@Z 0041c215 f i libucrt:output.obj
 0001:0001b219       ?get_parameter_type@?$positional_parameter_base@DV?$stream_output_adapter@D@__crt_stdio_output@@@__crt_stdio_output@@CA?AW4parameter_type@12@G@Z 0041c219 f i libucrt:output.obj
 0001:0001b21d       ?get_parameter_type@?$positional_parameter_base@DV?$stream_output_adapter@D@__crt_stdio_output@@@__crt_stdio_output@@CA?AW4parameter_type@12@H@Z 0041c21d f i libucrt:output.obj
 0001:0001b221       ?get_parameter_type@?$positional_parameter_base@DV?$stream_output_adapter@D@__crt_stdio_output@@@__crt_stdio_output@@CA?AW4parameter_type@12@I@Z 0041c221 f i libucrt:output.obj
 0001:0001b225       ?get_parameter_type@?$positional_parameter_base@DV?$stream_output_adapter@D@__crt_stdio_output@@@__crt_stdio_output@@CA?AW4parameter_type@12@U_CRT_DOUBLE@@@Z 0041c225 f i libucrt:output.obj
 0001:0001b229       ?get_parameter_type@?$positional_parameter_base@DV?$stream_output_adapter@D@__crt_stdio_output@@@__crt_stdio_output@@CA?AW4parameter_type@12@_J@Z 0041c229 f i libucrt:output.obj
 0001:0001b22d       ?get_parameter_type@?$positional_parameter_base@DV?$stream_output_adapter@D@__crt_stdio_output@@@__crt_stdio_output@@CA?AW4parameter_type@12@_K@Z 0041c22d f i libucrt:output.obj
 0001:0001b231       ?get_parameter_type@?$positional_parameter_base@DV?$stream_output_adapter@D@__crt_stdio_output@@@__crt_stdio_output@@CA?AW4parameter_type@12@_W@Z 0041c231 f i libucrt:output.obj
 0001:0001b235       ?get_parameter_type@?$positional_parameter_base@DV?$string_output_adapter@D@__crt_stdio_output@@@__crt_stdio_output@@CA?AW4parameter_type@12@F@Z 0041c235 f i libucrt:output.obj
 0001:0001b239       ?get_parameter_type@?$positional_parameter_base@DV?$string_output_adapter@D@__crt_stdio_output@@@__crt_stdio_output@@CA?AW4parameter_type@12@G@Z 0041c239 f i libucrt:output.obj
 0001:0001b23d       ?get_parameter_type@?$positional_parameter_base@DV?$string_output_adapter@D@__crt_stdio_output@@@__crt_stdio_output@@CA?AW4parameter_type@12@H@Z 0041c23d f i libucrt:output.obj
 0001:0001b241       ?get_parameter_type@?$positional_parameter_base@DV?$string_output_adapter@D@__crt_stdio_output@@@__crt_stdio_output@@CA?AW4parameter_type@12@I@Z 0041c241 f i libucrt:output.obj
 0001:0001b245       ?get_parameter_type@?$positional_parameter_base@DV?$string_output_adapter@D@__crt_stdio_output@@@__crt_stdio_output@@CA?AW4parameter_type@12@U_CRT_DOUBLE@@@Z 0041c245 f i libucrt:output.obj
 0001:0001b249       ?get_parameter_type@?$positional_parameter_base@DV?$string_output_adapter@D@__crt_stdio_output@@@__crt_stdio_output@@CA?AW4parameter_type@12@_J@Z 0041c249 f i libucrt:output.obj
 0001:0001b24d       ?get_parameter_type@?$positional_parameter_base@DV?$string_output_adapter@D@__crt_stdio_output@@@__crt_stdio_output@@CA?AW4parameter_type@12@_K@Z 0041c24d f i libucrt:output.obj
 0001:0001b251       ?get_parameter_type@?$positional_parameter_base@DV?$string_output_adapter@D@__crt_stdio_output@@@__crt_stdio_output@@CA?AW4parameter_type@12@_W@Z 0041c251 f i libucrt:output.obj
 0001:0001b255       ?get_parameter_type@?$positional_parameter_base@_WV?$stream_output_adapter@_W@__crt_stdio_output@@@__crt_stdio_output@@CA?AW4parameter_type@12@F@Z 0041c255 f i libucrt:output.obj
 0001:0001b259       ?get_parameter_type@?$positional_parameter_base@_WV?$stream_output_adapter@_W@__crt_stdio_output@@@__crt_stdio_output@@CA?AW4parameter_type@12@G@Z 0041c259 f i libucrt:output.obj
 0001:0001b25d       ?get_parameter_type@?$positional_parameter_base@_WV?$stream_output_adapter@_W@__crt_stdio_output@@@__crt_stdio_output@@CA?AW4parameter_type@12@H@Z 0041c25d f i libucrt:output.obj
 0001:0001b261       ?get_parameter_type@?$positional_parameter_base@_WV?$stream_output_adapter@_W@__crt_stdio_output@@@__crt_stdio_output@@CA?AW4parameter_type@12@I@Z 0041c261 f i libucrt:output.obj
 0001:0001b265       ?get_parameter_type@?$positional_parameter_base@_WV?$stream_output_adapter@_W@__crt_stdio_output@@@__crt_stdio_output@@CA?AW4parameter_type@12@U_CRT_DOUBLE@@@Z 0041c265 f i libucrt:output.obj
 0001:0001b269       ?get_parameter_type@?$positional_parameter_base@_WV?$stream_output_adapter@_W@__crt_stdio_output@@@__crt_stdio_output@@CA?AW4parameter_type@12@_J@Z 0041c269 f i libucrt:output.obj
 0001:0001b26d       ?get_parameter_type@?$positional_parameter_base@_WV?$stream_output_adapter@_W@__crt_stdio_output@@@__crt_stdio_output@@CA?AW4parameter_type@12@_K@Z 0041c26d f i libucrt:output.obj
 0001:0001b271       ?get_parameter_type@?$positional_parameter_base@_WV?$stream_output_adapter@_W@__crt_stdio_output@@@__crt_stdio_output@@CA?AW4parameter_type@12@_W@Z 0041c271 f i libucrt:output.obj
 0001:0001b275       ?get_parameter_type@?$positional_parameter_base@_WV?$string_output_adapter@_W@__crt_stdio_output@@@__crt_stdio_output@@CA?AW4parameter_type@12@F@Z 0041c275 f i libucrt:output.obj
 0001:0001b279       ?get_parameter_type@?$positional_parameter_base@_WV?$string_output_adapter@_W@__crt_stdio_output@@@__crt_stdio_output@@CA?AW4parameter_type@12@G@Z 0041c279 f i libucrt:output.obj
 0001:0001b27d       ?get_parameter_type@?$positional_parameter_base@_WV?$string_output_adapter@_W@__crt_stdio_output@@@__crt_stdio_output@@CA?AW4parameter_type@12@H@Z 0041c27d f i libucrt:output.obj
 0001:0001b281       ?get_parameter_type@?$positional_parameter_base@_WV?$string_output_adapter@_W@__crt_stdio_output@@@__crt_stdio_output@@CA?AW4parameter_type@12@I@Z 0041c281 f i libucrt:output.obj
 0001:0001b285       ?get_parameter_type@?$positional_parameter_base@_WV?$string_output_adapter@_W@__crt_stdio_output@@@__crt_stdio_output@@CA?AW4parameter_type@12@U_CRT_DOUBLE@@@Z 0041c285 f i libucrt:output.obj
 0001:0001b289       ?get_parameter_type@?$positional_parameter_base@_WV?$string_output_adapter@_W@__crt_stdio_output@@@__crt_stdio_output@@CA?AW4parameter_type@12@_J@Z 0041c289 f i libucrt:output.obj
 0001:0001b28d       ?get_parameter_type@?$positional_parameter_base@_WV?$string_output_adapter@_W@__crt_stdio_output@@@__crt_stdio_output@@CA?AW4parameter_type@12@_K@Z 0041c28d f i libucrt:output.obj
 0001:0001b291       ?get_parameter_type@?$positional_parameter_base@_WV?$string_output_adapter@_W@__crt_stdio_output@@@__crt_stdio_output@@CA?AW4parameter_type@12@_W@Z 0041c291 f i libucrt:output.obj
 0001:0001b295       ?has_flag@?$output_processor@DV?$stream_output_adapter@D@__crt_stdio_output@@V?$format_validation_base@DV?$stream_output_adapter@D@__crt_stdio_output@@@2@@__crt_stdio_output@@ABE_NI@Z 0041c295 f i libucrt:output.obj
 0001:0001b2a7       ?has_flag@?$output_processor@DV?$stream_output_adapter@D@__crt_stdio_output@@V?$positional_parameter_base@DV?$stream_output_adapter@D@__crt_stdio_output@@@2@@__crt_stdio_output@@ABE_NI@Z 0041c2a7 f i libucrt:output.obj
 0001:0001b2b9       ?has_flag@?$output_processor@DV?$stream_output_adapter@D@__crt_stdio_output@@V?$standard_base@DV?$stream_output_adapter@D@__crt_stdio_output@@@2@@__crt_stdio_output@@ABE_NI@Z 0041c2b9 f i libucrt:output.obj
 0001:0001b2cb       ?has_flag@?$output_processor@DV?$string_output_adapter@D@__crt_stdio_output@@V?$format_validation_base@DV?$string_output_adapter@D@__crt_stdio_output@@@2@@__crt_stdio_output@@ABE_NI@Z 0041c2cb f i libucrt:output.obj
 0001:0001b2dd       ?has_flag@?$output_processor@DV?$string_output_adapter@D@__crt_stdio_output@@V?$positional_parameter_base@DV?$string_output_adapter@D@__crt_stdio_output@@@2@@__crt_stdio_output@@ABE_NI@Z 0041c2dd f i libucrt:output.obj
 0001:0001b2ef       ?has_flag@?$output_processor@DV?$string_output_adapter@D@__crt_stdio_output@@V?$standard_base@DV?$string_output_adapter@D@__crt_stdio_output@@@2@@__crt_stdio_output@@ABE_NI@Z 0041c2ef f i libucrt:output.obj
 0001:0001b301       ?has_flag@?$output_processor@_WV?$stream_output_adapter@_W@__crt_stdio_output@@V?$format_validation_base@_WV?$stream_output_adapter@_W@__crt_stdio_output@@@2@@__crt_stdio_output@@ABE_NI@Z 0041c301 f i libucrt:output.obj
 0001:0001b313       ?has_flag@?$output_processor@_WV?$stream_output_adapter@_W@__crt_stdio_output@@V?$positional_parameter_base@_WV?$stream_output_adapter@_W@__crt_stdio_output@@@2@@__crt_stdio_output@@ABE_NI@Z 0041c313 f i libucrt:output.obj
 0001:0001b325       ?has_flag@?$output_processor@_WV?$stream_output_adapter@_W@__crt_stdio_output@@V?$standard_base@_WV?$stream_output_adapter@_W@__crt_stdio_output@@@2@@__crt_stdio_output@@ABE_NI@Z 0041c325 f i libucrt:output.obj
 0001:0001b337       ?has_flag@?$output_processor@_WV?$string_output_adapter@_W@__crt_stdio_output@@V?$format_validation_base@_WV?$string_output_adapter@_W@__crt_stdio_output@@@2@@__crt_stdio_output@@ABE_NI@Z 0041c337 f i libucrt:output.obj
 0001:0001b349       ?has_flag@?$output_processor@_WV?$string_output_adapter@_W@__crt_stdio_output@@V?$positional_parameter_base@_WV?$string_output_adapter@_W@__crt_stdio_output@@@2@@__crt_stdio_output@@ABE_NI@Z 0041c349 f i libucrt:output.obj
 0001:0001b35b       ?has_flag@?$output_processor@_WV?$string_output_adapter@_W@__crt_stdio_output@@V?$standard_base@_WV?$string_output_adapter@_W@__crt_stdio_output@@@2@@__crt_stdio_output@@ABE_NI@Z 0041c35b f i libucrt:output.obj
 0001:0001b36d       ?is_positional_parameter_reappearance_consistent@?$positional_parameter_base@DV?$stream_output_adapter@D@__crt_stdio_output@@@__crt_stdio_output@@AAE_NABUparameter_data@12@W4parameter_type@12@DW4length_modifier@2@@Z 0041c36d f i libucrt:output.obj
 0001:0001b487       ?is_positional_parameter_reappearance_consistent@?$positional_parameter_base@DV?$string_output_adapter@D@__crt_stdio_output@@@__crt_stdio_output@@AAE_NABUparameter_data@12@W4parameter_type@12@DW4length_modifier@2@@Z 0041c487 f i libucrt:output.obj
 0001:0001b5a1       ?is_positional_parameter_reappearance_consistent@?$positional_parameter_base@_WV?$stream_output_adapter@_W@__crt_stdio_output@@@__crt_stdio_output@@AAE_NABUparameter_data@12@W4parameter_type@12@_WW4length_modifier@2@@Z 0041c5a1 f i libucrt:output.obj
 0001:0001b6bc       ?is_positional_parameter_reappearance_consistent@?$positional_parameter_base@_WV?$string_output_adapter@_W@__crt_stdio_output@@@__crt_stdio_output@@AAE_NABUparameter_data@12@W4parameter_type@12@_WW4length_modifier@2@@Z 0041c6bc f i libucrt:output.obj
 0001:0001b7d7       ?maximum_signed_value@__crt_strtox@@YAJK@Z 0041c7d7 f i libucrt:output.obj
 0001:0001b7dd       ?minimum_signed_value@__crt_strtox@@YAJK@Z 0041c7dd f i libucrt:output.obj
 0001:0001b7e3       ?narrow_null_string@?$output_processor@DV?$stream_output_adapter@D@__crt_stdio_output@@V?$format_validation_base@DV?$stream_output_adapter@D@__crt_stdio_output@@@2@@__crt_stdio_output@@CAPADXZ 0041c7e3 f i libucrt:output.obj
 0001:0001b7e9       ?narrow_null_string@?$output_processor@DV?$stream_output_adapter@D@__crt_stdio_output@@V?$positional_parameter_base@DV?$stream_output_adapter@D@__crt_stdio_output@@@2@@__crt_stdio_output@@CAPADXZ 0041c7e9 f i libucrt:output.obj
 0001:0001b7ef       ?narrow_null_string@?$output_processor@DV?$stream_output_adapter@D@__crt_stdio_output@@V?$standard_base@DV?$stream_output_adapter@D@__crt_stdio_output@@@2@@__crt_stdio_output@@CAPADXZ 0041c7ef f i libucrt:output.obj
 0001:0001b7f5       ?narrow_null_string@?$output_processor@DV?$string_output_adapter@D@__crt_stdio_output@@V?$format_validation_base@DV?$string_output_adapter@D@__crt_stdio_output@@@2@@__crt_stdio_output@@CAPADXZ 0041c7f5 f i libucrt:output.obj
 0001:0001b7fb       ?narrow_null_string@?$output_processor@DV?$string_output_adapter@D@__crt_stdio_output@@V?$positional_parameter_base@DV?$string_output_adapter@D@__crt_stdio_output@@@2@@__crt_stdio_output@@CAPADXZ 0041c7fb f i libucrt:output.obj
 0001:0001b801       ?narrow_null_string@?$output_processor@DV?$string_output_adapter@D@__crt_stdio_output@@V?$standard_base@DV?$string_output_adapter@D@__crt_stdio_output@@@2@@__crt_stdio_output@@CAPADXZ 0041c801 f i libucrt:output.obj
 0001:0001b807       ?narrow_null_string@?$output_processor@_WV?$stream_output_adapter@_W@__crt_stdio_output@@V?$format_validation_base@_WV?$stream_output_adapter@_W@__crt_stdio_output@@@2@@__crt_stdio_output@@CAPADXZ 0041c807 f i libucrt:output.obj
 0001:0001b80d       ?narrow_null_string@?$output_processor@_WV?$stream_output_adapter@_W@__crt_stdio_output@@V?$positional_parameter_base@_WV?$stream_output_adapter@_W@__crt_stdio_output@@@2@@__crt_stdio_output@@CAPADXZ 0041c80d f i libucrt:output.obj
 0001:0001b813       ?narrow_null_string@?$output_processor@_WV?$stream_output_adapter@_W@__crt_stdio_output@@V?$standard_base@_WV?$stream_output_adapter@_W@__crt_stdio_output@@@2@@__crt_stdio_output@@CAPADXZ 0041c813 f i libucrt:output.obj
 0001:0001b819       ?narrow_null_string@?$output_processor@_WV?$string_output_adapter@_W@__crt_stdio_output@@V?$format_validation_base@_WV?$string_output_adapter@_W@__crt_stdio_output@@@2@@__crt_stdio_output@@CAPADXZ 0041c819 f i libucrt:output.obj
 0001:0001b81f       ?narrow_null_string@?$output_processor@_WV?$string_output_adapter@_W@__crt_stdio_output@@V?$positional_parameter_base@_WV?$string_output_adapter@_W@__crt_stdio_output@@@2@@__crt_stdio_output@@CAPADXZ 0041c81f f i libucrt:output.obj
 0001:0001b825       ?narrow_null_string@?$output_processor@_WV?$string_output_adapter@_W@__crt_stdio_output@@V?$standard_base@_WV?$string_output_adapter@_W@__crt_stdio_output@@@2@@__crt_stdio_output@@CAPADXZ 0041c825 f i libucrt:output.obj
 0001:0001b82b       ?parse_digit@__crt_strtox@@YAID@Z 0041c82b f i libucrt:output.obj
 0001:0001b865       ?parse_digit@__crt_strtox@@YAI_W@Z 0041c865 f i libucrt:output.obj
 0001:0001ba2d       ?parse_int_from_format_string@?$output_processor@DV?$stream_output_adapter@D@__crt_stdio_output@@V?$format_validation_base@DV?$stream_output_adapter@D@__crt_stdio_output@@@2@@__crt_stdio_output@@AAE_NQAH@Z 0041ca2d f i libucrt:output.obj
 0001:0001baa5       ?parse_int_from_format_string@?$output_processor@DV?$stream_output_adapter@D@__crt_stdio_output@@V?$positional_parameter_base@DV?$stream_output_adapter@D@__crt_stdio_output@@@2@@__crt_stdio_output@@AAE_NQAH@Z 0041caa5 f i libucrt:output.obj
 0001:0001bb1d       ?parse_int_from_format_string@?$output_processor@DV?$stream_output_adapter@D@__crt_stdio_output@@V?$standard_base@DV?$stream_output_adapter@D@__crt_stdio_output@@@2@@__crt_stdio_output@@AAE_NQAH@Z 0041cb1d f i libucrt:output.obj
 0001:0001bb95       ?parse_int_from_format_string@?$output_processor@DV?$string_output_adapter@D@__crt_stdio_output@@V?$format_validation_base@DV?$string_output_adapter@D@__crt_stdio_output@@@2@@__crt_stdio_output@@AAE_NQAH@Z 0041cb95 f i libucrt:output.obj
 0001:0001bc0d       ?parse_int_from_format_string@?$output_processor@DV?$string_output_adapter@D@__crt_stdio_output@@V?$positional_parameter_base@DV?$string_output_adapter@D@__crt_stdio_output@@@2@@__crt_stdio_output@@AAE_NQAH@Z 0041cc0d f i libucrt:output.obj
 0001:0001bc85       ?parse_int_from_format_string@?$output_processor@DV?$string_output_adapter@D@__crt_stdio_output@@V?$standard_base@DV?$string_output_adapter@D@__crt_stdio_output@@@2@@__crt_stdio_output@@AAE_NQAH@Z 0041cc85 f i libucrt:output.obj
 0001:0001bcfd       ?parse_int_from_format_string@?$output_processor@_WV?$stream_output_adapter@_W@__crt_stdio_output@@V?$format_validation_base@_WV?$stream_output_adapter@_W@__crt_stdio_output@@@2@@__crt_stdio_output@@AAE_NQAH@Z 0041ccfd f i libucrt:output.obj
 0001:0001bd77       ?parse_int_from_format_string@?$output_processor@_WV?$stream_output_adapter@_W@__crt_stdio_output@@V?$positional_parameter_base@_WV?$stream_output_adapter@_W@__crt_stdio_output@@@2@@__crt_stdio_output@@AAE_NQAH@Z 0041cd77 f i libucrt:output.obj
 0001:0001bdf1       ?parse_int_from_format_string@?$output_processor@_WV?$stream_output_adapter@_W@__crt_stdio_output@@V?$standard_base@_WV?$stream_output_adapter@_W@__crt_stdio_output@@@2@@__crt_stdio_output@@AAE_NQAH@Z 0041cdf1 f i libucrt:output.obj
 0001:0001be6b       ?parse_int_from_format_string@?$output_processor@_WV?$string_output_adapter@_W@__crt_stdio_output@@V?$format_validation_base@_WV?$string_output_adapter@_W@__crt_stdio_output@@@2@@__crt_stdio_output@@AAE_NQAH@Z 0041ce6b f i libucrt:output.obj
 0001:0001bee5       ?parse_int_from_format_string@?$output_processor@_WV?$string_output_adapter@_W@__crt_stdio_output@@V?$positional_parameter_base@_WV?$string_output_adapter@_W@__crt_stdio_output@@@2@@__crt_stdio_output@@AAE_NQAH@Z 0041cee5 f i libucrt:output.obj
 0001:0001bf5f       ?parse_int_from_format_string@?$output_processor@_WV?$string_output_adapter@_W@__crt_stdio_output@@V?$standard_base@_WV?$string_output_adapter@_W@__crt_stdio_output@@@2@@__crt_stdio_output@@AAE_NQAH@Z 0041cf5f f i libucrt:output.obj
 0001:0001bfd9       ?process@?$output_processor@DV?$stream_output_adapter@D@__crt_stdio_output@@V?$format_validation_base@DV?$stream_output_adapter@D@__crt_stdio_output@@@2@@__crt_stdio_output@@QAEHXZ 0041cfd9 f i libucrt:output.obj
 0001:0001c291       ?process@?$output_processor@DV?$stream_output_adapter@D@__crt_stdio_output@@V?$positional_parameter_base@DV?$stream_output_adapter@D@__crt_stdio_output@@@2@@__crt_stdio_output@@QAEHXZ 0041d291 f i libucrt:output.obj
 0001:0001c565       ?process@?$output_processor@DV?$stream_output_adapter@D@__crt_stdio_output@@V?$standard_base@DV?$stream_output_adapter@D@__crt_stdio_output@@@2@@__crt_stdio_output@@QAEHXZ 0041d565 f i libucrt:output.obj
 0001:0001c811       ?process@?$output_processor@DV?$string_output_adapter@D@__crt_stdio_output@@V?$format_validation_base@DV?$string_output_adapter@D@__crt_stdio_output@@@2@@__crt_stdio_output@@QAEHXZ 0041d811 f i libucrt:output.obj
 0001:0001caf1       ?process@?$output_processor@DV?$string_output_adapter@D@__crt_stdio_output@@V?$positional_parameter_base@DV?$string_output_adapter@D@__crt_stdio_output@@@2@@__crt_stdio_output@@QAEHXZ 0041daf1 f i libucrt:output.obj
 0001:0001cdf1       ?process@?$output_processor@DV?$string_output_adapter@D@__crt_stdio_output@@V?$standard_base@DV?$string_output_adapter@D@__crt_stdio_output@@@2@@__crt_stdio_output@@QAEHXZ 0041ddf1 f i libucrt:output.obj
 0001:0001d0c5       ?process@?$output_processor@_WV?$stream_output_adapter@_W@__crt_stdio_output@@V?$format_validation_base@_WV?$stream_output_adapter@_W@__crt_stdio_output@@@2@@__crt_stdio_output@@QAEHXZ 0041e0c5 f i libucrt:output.obj
 0001:0001d2e1       ?process@?$output_processor@_WV?$stream_output_adapter@_W@__crt_stdio_output@@V?$positional_parameter_base@_WV?$stream_output_adapter@_W@__crt_stdio_output@@@2@@__crt_stdio_output@@QAEHXZ 0041e2e1 f i libucrt:output.obj
 0001:0001d535       ?process@?$output_processor@_WV?$stream_output_adapter@_W@__crt_stdio_output@@V?$standard_base@_WV?$stream_output_adapter@_W@__crt_stdio_output@@@2@@__crt_stdio_output@@QAEHXZ 0041e535 f i libucrt:output.obj
 0001:0001d745       ?process@?$output_processor@_WV?$string_output_adapter@_W@__crt_stdio_output@@V?$format_validation_base@_WV?$string_output_adapter@_W@__crt_stdio_output@@@2@@__crt_stdio_output@@QAEHXZ 0041e745 f i libucrt:output.obj
 0001:0001d995       ?process@?$output_processor@_WV?$string_output_adapter@_W@__crt_stdio_output@@V?$positional_parameter_base@_WV?$string_output_adapter@_W@__crt_stdio_output@@@2@@__crt_stdio_output@@QAEHXZ 0041e995 f i libucrt:output.obj
 0001:0001dbfd       ?process@?$output_processor@_WV?$string_output_adapter@_W@__crt_stdio_output@@V?$standard_base@_WV?$string_output_adapter@_W@__crt_stdio_output@@@2@@__crt_stdio_output@@QAEHXZ 0041ebfd f i libucrt:output.obj
 0001:0001de3d       ?restore_state@?$c_string_character_source@D@__crt_strtox@@QAE_NQBD@Z 0041ee3d f i libucrt:output.obj
 0001:0001de4d       ?restore_state@?$c_string_character_source@_W@__crt_strtox@@QAE_NQB_W@Z 0041ee4d f i libucrt:output.obj
 0001:0001de5d       ?save_state@?$c_string_character_source@D@__crt_strtox@@QBEPBDXZ 0041ee5d f i libucrt:output.obj
 0001:0001de60       ?save_state@?$c_string_character_source@_W@__crt_strtox@@QBEPB_WXZ 0041ee60 f i libucrt:output.obj
 0001:0001de63       ?set_flag@?$output_processor@DV?$stream_output_adapter@D@__crt_stdio_output@@V?$format_validation_base@DV?$stream_output_adapter@D@__crt_stdio_output@@@2@@__crt_stdio_output@@AAEXI@Z 0041ee63 f i libucrt:output.obj
 0001:0001de72       ?set_flag@?$output_processor@DV?$stream_output_adapter@D@__crt_stdio_output@@V?$positional_parameter_base@DV?$stream_output_adapter@D@__crt_stdio_output@@@2@@__crt_stdio_output@@AAEXI@Z 0041ee72 f i libucrt:output.obj
 0001:0001de81       ?set_flag@?$output_processor@DV?$stream_output_adapter@D@__crt_stdio_output@@V?$standard_base@DV?$stream_output_adapter@D@__crt_stdio_output@@@2@@__crt_stdio_output@@AAEXI@Z 0041ee81 f i libucrt:output.obj
 0001:0001de90       ?set_flag@?$output_processor@DV?$string_output_adapter@D@__crt_stdio_output@@V?$format_validation_base@DV?$string_output_adapter@D@__crt_stdio_output@@@2@@__crt_stdio_output@@AAEXI@Z 0041ee90 f i libucrt:output.obj
 0001:0001de9f       ?set_flag@?$output_processor@DV?$string_output_adapter@D@__crt_stdio_output@@V?$positional_parameter_base@DV?$string_output_adapter@D@__crt_stdio_output@@@2@@__crt_stdio_output@@AAEXI@Z 0041ee9f f i libucrt:output.obj
 0001:0001deae       ?set_flag@?$output_processor@DV?$string_output_adapter@D@__crt_stdio_output@@V?$standard_base@DV?$string_output_adapter@D@__crt_stdio_output@@@2@@__crt_stdio_output@@AAEXI@Z 0041eeae f i libucrt:output.obj
 0001:0001debd       ?set_flag@?$output_processor@_WV?$stream_output_adapter@_W@__crt_stdio_output@@V?$format_validation_base@_WV?$stream_output_adapter@_W@__crt_stdio_output@@@2@@__crt_stdio_output@@AAEXI@Z 0041eebd f i libucrt:output.obj
 0001:0001decc       ?set_flag@?$output_processor@_WV?$stream_output_adapter@_W@__crt_stdio_output@@V?$positional_parameter_base@_WV?$stream_output_adapter@_W@__crt_stdio_output@@@2@@__crt_stdio_output@@AAEXI@Z 0041eecc f i libucrt:output.obj
 0001:0001dedb       ?set_flag@?$output_processor@_WV?$stream_output_adapter@_W@__crt_stdio_output@@V?$standard_base@_WV?$stream_output_adapter@_W@__crt_stdio_output@@@2@@__crt_stdio_output@@AAEXI@Z 0041eedb f i libucrt:output.obj
 0001:0001deea       ?set_flag@?$output_processor@_WV?$string_output_adapter@_W@__crt_stdio_output@@V?$format_validation_base@_WV?$string_output_adapter@_W@__crt_stdio_output@@@2@@__crt_stdio_output@@AAEXI@Z 0041eeea f i libucrt:output.obj
 0001:0001def9       ?set_flag@?$output_processor@_WV?$string_output_adapter@_W@__crt_stdio_output@@V?$positional_parameter_base@_WV?$string_output_adapter@_W@__crt_stdio_output@@@2@@__crt_stdio_output@@AAEXI@Z 0041eef9 f i libucrt:output.obj
 0001:0001df08       ?set_flag@?$output_processor@_WV?$string_output_adapter@_W@__crt_stdio_output@@V?$standard_base@_WV?$string_output_adapter@_W@__crt_stdio_output@@@2@@__crt_stdio_output@@AAEXI@Z 0041ef08 f i libucrt:output.obj
 0001:0001df17       ?should_format@?$positional_parameter_base@DV?$stream_output_adapter@D@__crt_stdio_output@@@__crt_stdio_output@@IAE_NXZ 0041ef17 f i libucrt:output.obj
 0001:0001df2d       ?should_format@?$positional_parameter_base@DV?$string_output_adapter@D@__crt_stdio_output@@@__crt_stdio_output@@IAE_NXZ 0041ef2d f i libucrt:output.obj
 0001:0001df43       ?should_format@?$positional_parameter_base@_WV?$stream_output_adapter@_W@__crt_stdio_output@@@__crt_stdio_output@@IAE_NXZ 0041ef43 f i libucrt:output.obj
 0001:0001df59       ?should_format@?$positional_parameter_base@_WV?$string_output_adapter@_W@__crt_stdio_output@@@__crt_stdio_output@@IAE_NXZ 0041ef59 f i libucrt:output.obj
 0001:0001df6f       ?should_format@?$standard_base@DV?$stream_output_adapter@D@__crt_stdio_output@@@__crt_stdio_output@@IAE_NXZ 0041ef6f f i libucrt:output.obj
 0001:0001df72       ?should_format@?$standard_base@DV?$string_output_adapter@D@__crt_stdio_output@@@__crt_stdio_output@@IAE_NXZ 0041ef72 f i libucrt:output.obj
 0001:0001df75       ?should_format@?$standard_base@_WV?$stream_output_adapter@_W@__crt_stdio_output@@@__crt_stdio_output@@IAE_NXZ 0041ef75 f i libucrt:output.obj
 0001:0001df78       ?should_format@?$standard_base@_WV?$string_output_adapter@_W@__crt_stdio_output@@@__crt_stdio_output@@IAE_NXZ 0041ef78 f i libucrt:output.obj
 0001:0001df7b       ?should_skip_normal_state_processing@?$positional_parameter_base@DV?$stream_output_adapter@D@__crt_stdio_output@@@__crt_stdio_output@@IAE_NXZ 0041ef7b f i libucrt:output.obj
 0001:0001dfa3       ?should_skip_normal_state_processing@?$positional_parameter_base@DV?$string_output_adapter@D@__crt_stdio_output@@@__crt_stdio_output@@IAE_NXZ 0041efa3 f i libucrt:output.obj
 0001:0001dfcb       ?should_skip_normal_state_processing@?$positional_parameter_base@_WV?$stream_output_adapter@_W@__crt_stdio_output@@@__crt_stdio_output@@IAE_NXZ 0041efcb f i libucrt:output.obj
 0001:0001dff3       ?should_skip_normal_state_processing@?$positional_parameter_base@_WV?$string_output_adapter@_W@__crt_stdio_output@@@__crt_stdio_output@@IAE_NXZ 0041eff3 f i libucrt:output.obj
 0001:0001e01b       ?should_skip_normal_state_processing@?$standard_base@DV?$stream_output_adapter@D@__crt_stdio_output@@@__crt_stdio_output@@IAE_NXZ 0041f01b f i libucrt:output.obj
 0001:0001e01e       ?should_skip_normal_state_processing@?$standard_base@DV?$string_output_adapter@D@__crt_stdio_output@@@__crt_stdio_output@@IAE_NXZ 0041f01e f i libucrt:output.obj
 0001:0001e021       ?should_skip_normal_state_processing@?$standard_base@_WV?$stream_output_adapter@_W@__crt_stdio_output@@@__crt_stdio_output@@IAE_NXZ 0041f021 f i libucrt:output.obj
 0001:0001e024       ?should_skip_normal_state_processing@?$standard_base@_WV?$string_output_adapter@_W@__crt_stdio_output@@@__crt_stdio_output@@IAE_NXZ 0041f024 f i libucrt:output.obj
 0001:0001e027       ?should_skip_type_state_output@?$positional_parameter_base@DV?$stream_output_adapter@D@__crt_stdio_output@@@__crt_stdio_output@@IBE_NXZ 0041f027 f i libucrt:output.obj
 0001:0001e03e       ?should_skip_type_state_output@?$positional_parameter_base@DV?$string_output_adapter@D@__crt_stdio_output@@@__crt_stdio_output@@IBE_NXZ 0041f03e f i libucrt:output.obj
 0001:0001e055       ?should_skip_type_state_output@?$positional_parameter_base@_WV?$stream_output_adapter@_W@__crt_stdio_output@@@__crt_stdio_output@@IBE_NXZ 0041f055 f i libucrt:output.obj
 0001:0001e06c       ?should_skip_type_state_output@?$positional_parameter_base@_WV?$string_output_adapter@_W@__crt_stdio_output@@@__crt_stdio_output@@IBE_NXZ 0041f06c f i libucrt:output.obj
 0001:0001e083       ?should_skip_type_state_output@?$standard_base@DV?$stream_output_adapter@D@__crt_stdio_output@@@__crt_stdio_output@@IBE_NXZ 0041f083 f i libucrt:output.obj
 0001:0001e086       ?should_skip_type_state_output@?$standard_base@DV?$string_output_adapter@D@__crt_stdio_output@@@__crt_stdio_output@@IBE_NXZ 0041f086 f i libucrt:output.obj
 0001:0001e089       ?should_skip_type_state_output@?$standard_base@_WV?$stream_output_adapter@_W@__crt_stdio_output@@@__crt_stdio_output@@IBE_NXZ 0041f089 f i libucrt:output.obj
 0001:0001e08c       ?should_skip_type_state_output@?$standard_base@_WV?$string_output_adapter@_W@__crt_stdio_output@@@__crt_stdio_output@@IBE_NXZ 0041f08c f i libucrt:output.obj
 0001:0001e08f       ?state_case_dot@?$output_processor@DV?$stream_output_adapter@D@__crt_stdio_output@@V?$format_validation_base@DV?$stream_output_adapter@D@__crt_stdio_output@@@2@@__crt_stdio_output@@AAE_NXZ 0041f08f f i libucrt:output.obj
 0001:0001e096       ?state_case_dot@?$output_processor@DV?$stream_output_adapter@D@__crt_stdio_output@@V?$positional_parameter_base@DV?$stream_output_adapter@D@__crt_stdio_output@@@2@@__crt_stdio_output@@AAE_NXZ 0041f096 f i libucrt:output.obj
 0001:0001e09d       ?state_case_dot@?$output_processor@DV?$stream_output_adapter@D@__crt_stdio_output@@V?$standard_base@DV?$stream_output_adapter@D@__crt_stdio_output@@@2@@__crt_stdio_output@@AAE_NXZ 0041f09d f i libucrt:output.obj
 0001:0001e0a4       ?state_case_dot@?$output_processor@DV?$string_output_adapter@D@__crt_stdio_output@@V?$format_validation_base@DV?$string_output_adapter@D@__crt_stdio_output@@@2@@__crt_stdio_output@@AAE_NXZ 0041f0a4 f i libucrt:output.obj
 0001:0001e0ab       ?state_case_dot@?$output_processor@DV?$string_output_adapter@D@__crt_stdio_output@@V?$positional_parameter_base@DV?$string_output_adapter@D@__crt_stdio_output@@@2@@__crt_stdio_output@@AAE_NXZ 0041f0ab f i libucrt:output.obj
 0001:0001e0b2       ?state_case_dot@?$output_processor@DV?$string_output_adapter@D@__crt_stdio_output@@V?$standard_base@DV?$string_output_adapter@D@__crt_stdio_output@@@2@@__crt_stdio_output@@AAE_NXZ 0041f0b2 f i libucrt:output.obj
 0001:0001e0b9       ?state_case_dot@?$output_processor@_WV?$stream_output_adapter@_W@__crt_stdio_output@@V?$format_validation_base@_WV?$stream_output_adapter@_W@__crt_stdio_output@@@2@@__crt_stdio_output@@AAE_NXZ 0041f0b9 f i libucrt:output.obj
 0001:0001e0c0       ?state_case_dot@?$output_processor@_WV?$stream_output_adapter@_W@__crt_stdio_output@@V?$positional_parameter_base@_WV?$stream_output_adapter@_W@__crt_stdio_output@@@2@@__crt_stdio_output@@AAE_NXZ 0041f0c0 f i libucrt:output.obj
 0001:0001e0c7       ?state_case_dot@?$output_processor@_WV?$stream_output_adapter@_W@__crt_stdio_output@@V?$standard_base@_WV?$stream_output_adapter@_W@__crt_stdio_output@@@2@@__crt_stdio_output@@AAE_NXZ 0041f0c7 f i libucrt:output.obj
 0001:0001e0ce       ?state_case_dot@?$output_processor@_WV?$string_output_adapter@_W@__crt_stdio_output@@V?$format_validation_base@_WV?$string_output_adapter@_W@__crt_stdio_output@@@2@@__crt_stdio_output@@AAE_NXZ 0041f0ce f i libucrt:output.obj
 0001:0001e0d5       ?state_case_dot@?$output_processor@_WV?$string_output_adapter@_W@__crt_stdio_output@@V?$positional_parameter_base@_WV?$string_output_adapter@_W@__crt_stdio_output@@@2@@__crt_stdio_output@@AAE_NXZ 0041f0d5 f i libucrt:output.obj
 0001:0001e0dc       ?state_case_dot@?$output_processor@_WV?$string_output_adapter@_W@__crt_stdio_output@@V?$standard_base@_WV?$string_output_adapter@_W@__crt_stdio_output@@@2@@__crt_stdio_output@@AAE_NXZ 0041f0dc f i libucrt:output.obj
 0001:0001e0e3       ?state_case_flag@?$output_processor@DV?$stream_output_adapter@D@__crt_stdio_output@@V?$format_validation_base@DV?$stream_output_adapter@D@__crt_stdio_output@@@2@@__crt_stdio_output@@AAE_NXZ 0041f0e3 f i libucrt:output.obj
 0001:0001e120       ?state_case_flag@?$output_processor@DV?$stream_output_adapter@D@__crt_stdio_output@@V?$positional_parameter_base@DV?$stream_output_adapter@D@__crt_stdio_output@@@2@@__crt_stdio_output@@AAE_NXZ 0041f120 f i libucrt:output.obj
 0001:0001e15d       ?state_case_flag@?$output_processor@DV?$stream_output_adapter@D@__crt_stdio_output@@V?$standard_base@DV?$stream_output_adapter@D@__crt_stdio_output@@@2@@__crt_stdio_output@@AAE_NXZ 0041f15d f i libucrt:output.obj
 0001:0001e19a       ?state_case_flag@?$output_processor@DV?$string_output_adapter@D@__crt_stdio_output@@V?$format_validation_base@DV?$string_output_adapter@D@__crt_stdio_output@@@2@@__crt_stdio_output@@AAE_NXZ 0041f19a f i libucrt:output.obj
 0001:0001e1d7       ?state_case_flag@?$output_processor@DV?$string_output_adapter@D@__crt_stdio_output@@V?$positional_parameter_base@DV?$string_output_adapter@D@__crt_stdio_output@@@2@@__crt_stdio_output@@AAE_NXZ 0041f1d7 f i libucrt:output.obj
 0001:0001e214       ?state_case_flag@?$output_processor@DV?$string_output_adapter@D@__crt_stdio_output@@V?$standard_base@DV?$string_output_adapter@D@__crt_stdio_output@@@2@@__crt_stdio_output@@AAE_NXZ 0041f214 f i libucrt:output.obj
 0001:0001e251       ?state_case_flag@?$output_processor@_WV?$stream_output_adapter@_W@__crt_stdio_output@@V?$format_validation_base@_WV?$stream_output_adapter@_W@__crt_stdio_output@@@2@@__crt_stdio_output@@AAE_NXZ 0041f251 f i libucrt:output.obj
 0001:0001e28e       ?state_case_flag@?$output_processor@_WV?$stream_output_adapter@_W@__crt_stdio_output@@V?$positional_parameter_base@_WV?$stream_output_adapter@_W@__crt_stdio_output@@@2@@__crt_stdio_output@@AAE_NXZ 0041f28e f i libucrt:output.obj
 0001:0001e2cb       ?state_case_flag@?$output_processor@_WV?$stream_output_adapter@_W@__crt_stdio_output@@V?$standard_base@_WV?$stream_output_adapter@_W@__crt_stdio_output@@@2@@__crt_stdio_output@@AAE_NXZ 0041f2cb f i libucrt:output.obj
 0001:0001e308       ?state_case_flag@?$output_processor@_WV?$string_output_adapter@_W@__crt_stdio_output@@V?$format_validation_base@_WV?$string_output_adapter@_W@__crt_stdio_output@@@2@@__crt_stdio_output@@AAE_NXZ 0041f308 f i libucrt:output.obj
 0001:0001e345       ?state_case_flag@?$output_processor@_WV?$string_output_adapter@_W@__crt_stdio_output@@V?$positional_parameter_base@_WV?$string_output_adapter@_W@__crt_stdio_output@@@2@@__crt_stdio_output@@AAE_NXZ 0041f345 f i libucrt:output.obj
 0001:0001e382       ?state_case_flag@?$output_processor@_WV?$string_output_adapter@_W@__crt_stdio_output@@V?$standard_base@_WV?$string_output_adapter@_W@__crt_stdio_output@@@2@@__crt_stdio_output@@AAE_NXZ 0041f382 f i libucrt:output.obj
 0001:0001e3bf       ?state_case_normal@?$output_processor@DV?$stream_output_adapter@D@__crt_stdio_output@@V?$format_validation_base@DV?$stream_output_adapter@D@__crt_stdio_output@@@2@@__crt_stdio_output@@AAE_NXZ 0041f3bf f i libucrt:output.obj
 0001:0001e47f       ?state_case_normal@?$output_processor@DV?$stream_output_adapter@D@__crt_stdio_output@@V?$positional_parameter_base@DV?$stream_output_adapter@D@__crt_stdio_output@@@2@@__crt_stdio_output@@AAE_NXZ 0041f47f f i libucrt:output.obj
 0001:0001e54a       ?state_case_normal@?$output_processor@DV?$stream_output_adapter@D@__crt_stdio_output@@V?$standard_base@DV?$stream_output_adapter@D@__crt_stdio_output@@@2@@__crt_stdio_output@@AAE_NXZ 0041f54a f i libucrt:output.obj
 0001:0001e60a       ?state_case_normal@?$output_processor@DV?$string_output_adapter@D@__crt_stdio_output@@V?$format_validation_base@DV?$string_output_adapter@D@__crt_stdio_output@@@2@@__crt_stdio_output@@AAE_NXZ 0041f60a f i libucrt:output.obj
 0001:0001e706       ?state_case_normal@?$output_processor@DV?$string_output_adapter@D@__crt_stdio_output@@V?$positional_parameter_base@DV?$string_output_adapter@D@__crt_stdio_output@@@2@@__crt_stdio_output@@AAE_NXZ 0041f706 f i libucrt:output.obj
 0001:0001e80d       ?state_case_normal@?$output_processor@DV?$string_output_adapter@D@__crt_stdio_output@@V?$standard_base@DV?$string_output_adapter@D@__crt_stdio_output@@@2@@__crt_stdio_output@@AAE_NXZ 0041f80d f i libucrt:output.obj
 0001:0001e909       ?state_case_normal@?$output_processor@_WV?$stream_output_adapter@_W@__crt_stdio_output@@V?$format_validation_base@_WV?$stream_output_adapter@_W@__crt_stdio_output@@@2@@__crt_stdio_output@@AAE_NXZ 0041f909 f i libucrt:output.obj
 0001:0001e927       ?state_case_normal@?$output_processor@_WV?$stream_output_adapter@_W@__crt_stdio_output@@V?$positional_parameter_base@_WV?$stream_output_adapter@_W@__crt_stdio_output@@@2@@__crt_stdio_output@@AAE_NXZ 0041f927 f i libucrt:output.obj
 0001:0001e954       ?state_case_normal@?$output_processor@_WV?$stream_output_adapter@_W@__crt_stdio_output@@V?$standard_base@_WV?$stream_output_adapter@_W@__crt_stdio_output@@@2@@__crt_stdio_output@@AAE_NXZ 0041f954 f i libucrt:output.obj
 0001:0001e972       ?state_case_normal@?$output_processor@_WV?$string_output_adapter@_W@__crt_stdio_output@@V?$format_validation_base@_WV?$string_output_adapter@_W@__crt_stdio_output@@@2@@__crt_stdio_output@@AAE_NXZ 0041f972 f i libucrt:output.obj
 0001:0001e9ba       ?state_case_normal@?$output_processor@_WV?$string_output_adapter@_W@__crt_stdio_output@@V?$positional_parameter_base@_WV?$string_output_adapter@_W@__crt_stdio_output@@@2@@__crt_stdio_output@@AAE_NXZ 0041f9ba f i libucrt:output.obj
 0001:0001ea0d       ?state_case_normal@?$output_processor@_WV?$string_output_adapter@_W@__crt_stdio_output@@V?$standard_base@_WV?$string_output_adapter@_W@__crt_stdio_output@@@2@@__crt_stdio_output@@AAE_NXZ 0041fa0d f i libucrt:output.obj
 0001:0001ea55       ?state_case_normal_common@?$output_processor@DV?$stream_output_adapter@D@__crt_stdio_output@@V?$format_validation_base@DV?$stream_output_adapter@D@__crt_stdio_output@@@2@@__crt_stdio_output@@AAE_NXZ 0041fa55 f i libucrt:output.obj
 0001:0001eaec       ?state_case_normal_common@?$output_processor@DV?$stream_output_adapter@D@__crt_stdio_output@@V?$positional_parameter_base@DV?$stream_output_adapter@D@__crt_stdio_output@@@2@@__crt_stdio_output@@AAE_NXZ 0041faec f i libucrt:output.obj
 0001:0001eb83       ?state_case_normal_common@?$output_processor@DV?$stream_output_adapter@D@__crt_stdio_output@@V?$standard_base@DV?$stream_output_adapter@D@__crt_stdio_output@@@2@@__crt_stdio_output@@AAE_NXZ 0041fb83 f i libucrt:output.obj
 0001:0001ec1a       ?state_case_normal_common@?$output_processor@DV?$string_output_adapter@D@__crt_stdio_output@@V?$format_validation_base@DV?$string_output_adapter@D@__crt_stdio_output@@@2@@__crt_stdio_output@@AAE_NXZ 0041fc1a f i libucrt:output.obj
 0001:0001ecfa       ?state_case_normal_common@?$output_processor@DV?$string_output_adapter@D@__crt_stdio_output@@V?$positional_parameter_base@DV?$string_output_adapter@D@__crt_stdio_output@@@2@@__crt_stdio_output@@AAE_NXZ 0041fcfa f i libucrt:output.obj
 0001:0001edda       ?state_case_normal_common@?$output_processor@DV?$string_output_adapter@D@__crt_stdio_output@@V?$standard_base@DV?$string_output_adapter@D@__crt_stdio_output@@@2@@__crt_stdio_output@@AAE_NXZ 0041fdda f i libucrt:output.obj
 0001:0001eeba       ?state_case_normal_common@?$output_processor@_WV?$stream_output_adapter@_W@__crt_stdio_output@@V?$format_validation_base@_WV?$stream_output_adapter@_W@__crt_stdio_output@@@2@@__crt_stdio_output@@AAE_NXZ 0041feba f i libucrt:output.obj
 0001:0001eed8       ?state_case_normal_common@?$output_processor@_WV?$stream_output_adapter@_W@__crt_stdio_output@@V?$positional_parameter_base@_WV?$stream_output_adapter@_W@__crt_stdio_output@@@2@@__crt_stdio_output@@AAE_NXZ 0041fed8 f i libucrt:output.obj
 0001:0001eef6       ?state_case_normal_common@?$output_processor@_WV?$stream_output_adapter@_W@__crt_stdio_output@@V?$standard_base@_WV?$stream_output_adapter@_W@__crt_stdio_output@@@2@@__crt_stdio_output@@AAE_NXZ 0041fef6 f i libucrt:output.obj
 0001:0001ef14       ?state_case_normal_common@?$output_processor@_WV?$string_output_adapter@_W@__crt_stdio_output@@V?$format_validation_base@_WV?$string_output_adapter@_W@__crt_stdio_output@@@2@@__crt_stdio_output@@AAE_NXZ 0041ff14 f i libucrt:output.obj
 0001:0001ef5c       ?state_case_normal_common@?$output_processor@_WV?$string_output_adapter@_W@__crt_stdio_output@@V?$positional_parameter_base@_WV?$string_output_adapter@_W@__crt_stdio_output@@@2@@__crt_stdio_output@@AAE_NXZ 0041ff5c f i libucrt:output.obj
 0001:0001efa4       ?state_case_normal_common@?$output_processor@_WV?$string_output_adapter@_W@__crt_stdio_output@@V?$standard_base@_WV?$string_output_adapter@_W@__crt_stdio_output@@@2@@__crt_stdio_output@@AAE_NXZ 0041ffa4 f i libucrt:output.obj
 0001:0001efec       ?state_case_normal_tchar@?$output_processor@DV?$stream_output_adapter@D@__crt_stdio_output@@V?$format_validation_base@DV?$stream_output_adapter@D@__crt_stdio_output@@@2@@__crt_stdio_output@@AAE_ND@Z 0041ffec f i libucrt:output.obj
 0001:0001f073       ?state_case_normal_tchar@?$output_processor@DV?$stream_output_adapter@D@__crt_stdio_output@@V?$positional_parameter_base@DV?$stream_output_adapter@D@__crt_stdio_output@@@2@@__crt_stdio_output@@AAE_ND@Z 00420073 f i libucrt:output.obj
 0001:0001f0fa       ?state_case_normal_tchar@?$output_processor@DV?$stream_output_adapter@D@__crt_stdio_output@@V?$standard_base@DV?$stream_output_adapter@D@__crt_stdio_output@@@2@@__crt_stdio_output@@AAE_ND@Z 004200fa f i libucrt:output.obj
 0001:0001f181       ?state_case_normal_tchar@?$output_processor@DV?$string_output_adapter@D@__crt_stdio_output@@V?$format_validation_base@DV?$string_output_adapter@D@__crt_stdio_output@@@2@@__crt_stdio_output@@AAE_ND@Z 00420181 f i libucrt:output.obj
 0001:0001f22c       ?state_case_normal_tchar@?$output_processor@DV?$string_output_adapter@D@__crt_stdio_output@@V?$positional_parameter_base@DV?$string_output_adapter@D@__crt_stdio_output@@@2@@__crt_stdio_output@@AAE_ND@Z 0042022c f i libucrt:output.obj
 0001:0001f2d7       ?state_case_normal_tchar@?$output_processor@DV?$string_output_adapter@D@__crt_stdio_output@@V?$standard_base@DV?$string_output_adapter@D@__crt_stdio_output@@@2@@__crt_stdio_output@@AAE_ND@Z 004202d7 f i libucrt:output.obj
 0001:0001f382       ?state_case_normal_tchar@?$output_processor@_WV?$stream_output_adapter@_W@__crt_stdio_output@@V?$format_validation_base@_WV?$stream_output_adapter@_W@__crt_stdio_output@@@2@@__crt_stdio_output@@AAE_N_W@Z 00420382 f i libucrt:output.obj
 0001:0001f38b       ?state_case_normal_tchar@?$output_processor@_WV?$stream_output_adapter@_W@__crt_stdio_output@@V?$positional_parameter_base@_WV?$stream_output_adapter@_W@__crt_stdio_output@@@2@@__crt_stdio_output@@AAE_N_W@Z 0042038b f i libucrt:output.obj
 0001:0001f394       ?state_case_normal_tchar@?$output_processor@_WV?$stream_output_adapter@_W@__crt_stdio_output@@V?$standard_base@_WV?$stream_output_adapter@_W@__crt_stdio_output@@@2@@__crt_stdio_output@@AAE_N_W@Z 00420394 f i libucrt:output.obj
 0001:0001f39d       ?state_case_normal_tchar@?$output_processor@_WV?$string_output_adapter@_W@__crt_stdio_output@@V?$format_validation_base@_WV?$string_output_adapter@_W@__crt_stdio_output@@@2@@__crt_stdio_output@@AAE_N_W@Z 0042039d f i libucrt:output.obj
 0001:0001f3a6       ?state_case_normal_tchar@?$output_processor@_WV?$string_output_adapter@_W@__crt_stdio_output@@V?$positional_parameter_base@_WV?$string_output_adapter@_W@__crt_stdio_output@@@2@@__crt_stdio_output@@AAE_N_W@Z 004203a6 f i libucrt:output.obj
 0001:0001f3af       ?state_case_normal_tchar@?$output_processor@_WV?$string_output_adapter@_W@__crt_stdio_output@@V?$standard_base@_WV?$string_output_adapter@_W@__crt_stdio_output@@@2@@__crt_stdio_output@@AAE_N_W@Z 004203af f i libucrt:output.obj
 0001:0001f3b8       ?state_case_percent@?$output_processor@DV?$stream_output_adapter@D@__crt_stdio_output@@V?$format_validation_base@DV?$stream_output_adapter@D@__crt_stdio_output@@@2@@__crt_stdio_output@@AAE_NXZ 004203b8 f i libucrt:output.obj
 0001:0001f3d0       ?state_case_percent@?$output_processor@DV?$stream_output_adapter@D@__crt_stdio_output@@V?$positional_parameter_base@DV?$stream_output_adapter@D@__crt_stdio_output@@@2@@__crt_stdio_output@@AAE_NXZ 004203d0 f i libucrt:output.obj
 0001:0001f3e8       ?state_case_percent@?$output_processor@DV?$stream_output_adapter@D@__crt_stdio_output@@V?$standard_base@DV?$stream_output_adapter@D@__crt_stdio_output@@@2@@__crt_stdio_output@@AAE_NXZ 004203e8 f i libucrt:output.obj
 0001:0001f400       ?state_case_percent@?$output_processor@DV?$string_output_adapter@D@__crt_stdio_output@@V?$format_validation_base@DV?$string_output_adapter@D@__crt_stdio_output@@@2@@__crt_stdio_output@@AAE_NXZ 00420400 f i libucrt:output.obj
 0001:0001f418       ?state_case_percent@?$output_processor@DV?$string_output_adapter@D@__crt_stdio_output@@V?$positional_parameter_base@DV?$string_output_adapter@D@__crt_stdio_output@@@2@@__crt_stdio_output@@AAE_NXZ 00420418 f i libucrt:output.obj
 0001:0001f430       ?state_case_percent@?$output_processor@DV?$string_output_adapter@D@__crt_stdio_output@@V?$standard_base@DV?$string_output_adapter@D@__crt_stdio_output@@@2@@__crt_stdio_output@@AAE_NXZ 00420430 f i libucrt:output.obj
 0001:0001f448       ?state_case_percent@?$output_processor@_WV?$stream_output_adapter@_W@__crt_stdio_output@@V?$format_validation_base@_WV?$stream_output_adapter@_W@__crt_stdio_output@@@2@@__crt_stdio_output@@AAE_NXZ 00420448 f i libucrt:output.obj
 0001:0001f460       ?state_case_percent@?$output_processor@_WV?$stream_output_adapter@_W@__crt_stdio_output@@V?$positional_parameter_base@_WV?$stream_output_adapter@_W@__crt_stdio_output@@@2@@__crt_stdio_output@@AAE_NXZ 00420460 f i libucrt:output.obj
 0001:0001f478       ?state_case_percent@?$output_processor@_WV?$stream_output_adapter@_W@__crt_stdio_output@@V?$standard_base@_WV?$stream_output_adapter@_W@__crt_stdio_output@@@2@@__crt_stdio_output@@AAE_NXZ 00420478 f i libucrt:output.obj
 0001:0001f490       ?state_case_percent@?$output_processor@_WV?$string_output_adapter@_W@__crt_stdio_output@@V?$format_validation_base@_WV?$string_output_adapter@_W@__crt_stdio_output@@@2@@__crt_stdio_output@@AAE_NXZ 00420490 f i libucrt:output.obj
 0001:0001f4a8       ?state_case_percent@?$output_processor@_WV?$string_output_adapter@_W@__crt_stdio_output@@V?$positional_parameter_base@_WV?$string_output_adapter@_W@__crt_stdio_output@@@2@@__crt_stdio_output@@AAE_NXZ 004204a8 f i libucrt:output.obj
 0001:0001f4c0       ?state_case_percent@?$output_processor@_WV?$string_output_adapter@_W@__crt_stdio_output@@V?$standard_base@_WV?$string_output_adapter@_W@__crt_stdio_output@@@2@@__crt_stdio_output@@AAE_NXZ 004204c0 f i libucrt:output.obj
 0001:0001f4d8       ?state_case_precision@?$output_processor@DV?$stream_output_adapter@D@__crt_stdio_output@@V?$format_validation_base@DV?$stream_output_adapter@D@__crt_stdio_output@@@2@@__crt_stdio_output@@AAE_NXZ 004204d8 f i libucrt:output.obj
 0001:0001f4fe       ?state_case_precision@?$output_processor@DV?$stream_output_adapter@D@__crt_stdio_output@@V?$positional_parameter_base@DV?$stream_output_adapter@D@__crt_stdio_output@@@2@@__crt_stdio_output@@AAE_NXZ 004204fe f i libucrt:output.obj
 0001:0001f538       ?state_case_precision@?$output_processor@DV?$stream_output_adapter@D@__crt_stdio_output@@V?$standard_base@DV?$stream_output_adapter@D@__crt_stdio_output@@@2@@__crt_stdio_output@@AAE_NXZ 00420538 f i libucrt:output.obj
 0001:0001f55e       ?state_case_precision@?$output_processor@DV?$string_output_adapter@D@__crt_stdio_output@@V?$format_validation_base@DV?$string_output_adapter@D@__crt_stdio_output@@@2@@__crt_stdio_output@@AAE_NXZ 0042055e f i libucrt:output.obj
 0001:0001f584       ?state_case_precision@?$output_processor@DV?$string_output_adapter@D@__crt_stdio_output@@V?$positional_parameter_base@DV?$string_output_adapter@D@__crt_stdio_output@@@2@@__crt_stdio_output@@AAE_NXZ 00420584 f i libucrt:output.obj
 0001:0001f5be       ?state_case_precision@?$output_processor@DV?$string_output_adapter@D@__crt_stdio_output@@V?$standard_base@DV?$string_output_adapter@D@__crt_stdio_output@@@2@@__crt_stdio_output@@AAE_NXZ 004205be f i libucrt:output.obj
 0001:0001f5e4       ?state_case_precision@?$output_processor@_WV?$stream_output_adapter@_W@__crt_stdio_output@@V?$format_validation_base@_WV?$stream_output_adapter@_W@__crt_stdio_output@@@2@@__crt_stdio_output@@AAE_NXZ 004205e4 f i libucrt:output.obj
 0001:0001f60b       ?state_case_precision@?$output_processor@_WV?$stream_output_adapter@_W@__crt_stdio_output@@V?$positional_parameter_base@_WV?$stream_output_adapter@_W@__crt_stdio_output@@@2@@__crt_stdio_output@@AAE_NXZ 0042060b f i libucrt:output.obj
 0001:0001f646       ?state_case_precision@?$output_processor@_WV?$stream_output_adapter@_W@__crt_stdio_output@@V?$standard_base@_WV?$stream_output_adapter@_W@__crt_stdio_output@@@2@@__crt_stdio_output@@AAE_NXZ 00420646 f i libucrt:output.obj
 0001:0001f66d       ?state_case_precision@?$output_processor@_WV?$string_output_adapter@_W@__crt_stdio_output@@V?$format_validation_base@_WV?$string_output_adapter@_W@__crt_stdio_output@@@2@@__crt_stdio_output@@AAE_NXZ 0042066d f i libucrt:output.obj
 0001:0001f694       ?state_case_precision@?$output_processor@_WV?$string_output_adapter@_W@__crt_stdio_output@@V?$positional_parameter_base@_WV?$string_output_adapter@_W@__crt_stdio_output@@@2@@__crt_stdio_output@@AAE_NXZ 00420694 f i libucrt:output.obj
 0001:0001f6cf       ?state_case_precision@?$output_processor@_WV?$string_output_adapter@_W@__crt_stdio_output@@V?$standard_base@_WV?$string_output_adapter@_W@__crt_stdio_output@@@2@@__crt_stdio_output@@AAE_NXZ 004206cf f i libucrt:output.obj
 0001:0001f6f6       ?state_case_size@?$output_processor@DV?$stream_output_adapter@D@__crt_stdio_output@@V?$format_validation_base@DV?$stream_output_adapter@D@__crt_stdio_output@@@2@@__crt_stdio_output@@AAE_NXZ 004206f6 f i libucrt:output.obj
 0001:0001f854       ?state_case_size@?$output_processor@DV?$stream_output_adapter@D@__crt_stdio_output@@V?$positional_parameter_base@DV?$stream_output_adapter@D@__crt_stdio_output@@@2@@__crt_stdio_output@@AAE_NXZ 00420854 f i libucrt:output.obj
 0001:0001f9b2       ?state_case_size@?$output_processor@DV?$stream_output_adapter@D@__crt_stdio_output@@V?$standard_base@DV?$stream_output_adapter@D@__crt_stdio_output@@@2@@__crt_stdio_output@@AAE_NXZ 004209b2 f i libucrt:output.obj
 0001:0001fb10       ?state_case_size@?$output_processor@DV?$string_output_adapter@D@__crt_stdio_output@@V?$format_validation_base@DV?$string_output_adapter@D@__crt_stdio_output@@@2@@__crt_stdio_output@@AAE_NXZ 00420b10 f i libucrt:output.obj
 0001:0001fc6e       ?state_case_size@?$output_processor@DV?$string_output_adapter@D@__crt_stdio_output@@V?$positional_parameter_base@DV?$string_output_adapter@D@__crt_stdio_output@@@2@@__crt_stdio_output@@AAE_NXZ 00420c6e f i libucrt:output.obj
 0001:0001fdcc       ?state_case_size@?$output_processor@DV?$string_output_adapter@D@__crt_stdio_output@@V?$standard_base@DV?$string_output_adapter@D@__crt_stdio_output@@@2@@__crt_stdio_output@@AAE_NXZ 00420dcc f i libucrt:output.obj
 0001:0001ff2a       ?state_case_size@?$output_processor@_WV?$stream_output_adapter@_W@__crt_stdio_output@@V?$format_validation_base@_WV?$stream_output_adapter@_W@__crt_stdio_output@@@2@@__crt_stdio_output@@AAE_NXZ 00420f2a f i libucrt:output.obj
 0001:000200b8       ?state_case_size@?$output_processor@_WV?$stream_output_adapter@_W@__crt_stdio_output@@V?$positional_parameter_base@_WV?$stream_output_adapter@_W@__crt_stdio_output@@@2@@__crt_stdio_output@@AAE_NXZ 004210b8 f i libucrt:output.obj
 0001:00020246       ?state_case_size@?$output_processor@_WV?$stream_output_adapter@_W@__crt_stdio_output@@V?$standard_base@_WV?$stream_output_adapter@_W@__crt_stdio_output@@@2@@__crt_stdio_output@@AAE_NXZ 00421246 f i libucrt:output.obj
 0001:000203d4       ?state_case_size@?$output_processor@_WV?$string_output_adapter@_W@__crt_stdio_output@@V?$format_validation_base@_WV?$string_output_adapter@_W@__crt_stdio_output@@@2@@__crt_stdio_output@@AAE_NXZ 004213d4 f i libucrt:output.obj
 0001:00020562       ?state_case_size@?$output_processor@_WV?$string_output_adapter@_W@__crt_stdio_output@@V?$positional_parameter_base@_WV?$string_output_adapter@_W@__crt_stdio_output@@@2@@__crt_stdio_output@@AAE_NXZ 00421562 f i libucrt:output.obj
 0001:000206f0       ?state_case_size@?$output_processor@_WV?$string_output_adapter@_W@__crt_stdio_output@@V?$standard_base@_WV?$string_output_adapter@_W@__crt_stdio_output@@@2@@__crt_stdio_output@@AAE_NXZ 004216f0 f i libucrt:output.obj
 0001:0002087e       ?state_case_type@?$output_processor@DV?$stream_output_adapter@D@__crt_stdio_output@@V?$format_validation_base@DV?$stream_output_adapter@D@__crt_stdio_output@@@2@@__crt_stdio_output@@AAE_NXZ 0042187e f i libucrt:output.obj
 0001:00020bc6       ?state_case_type@?$output_processor@DV?$stream_output_adapter@D@__crt_stdio_output@@V?$positional_parameter_base@DV?$stream_output_adapter@D@__crt_stdio_output@@@2@@__crt_stdio_output@@AAE_NXZ 00421bc6 f i libucrt:output.obj
 0001:00020f1d       ?state_case_type@?$output_processor@DV?$stream_output_adapter@D@__crt_stdio_output@@V?$standard_base@DV?$stream_output_adapter@D@__crt_stdio_output@@@2@@__crt_stdio_output@@AAE_NXZ 00421f1d f i libucrt:output.obj
 0001:00021265       ?state_case_type@?$output_processor@DV?$string_output_adapter@D@__crt_stdio_output@@V?$format_validation_base@DV?$string_output_adapter@D@__crt_stdio_output@@@2@@__crt_stdio_output@@AAE_NXZ 00422265 f i libucrt:output.obj
 0001:000215f3       ?state_case_type@?$output_processor@DV?$string_output_adapter@D@__crt_stdio_output@@V?$positional_parameter_base@DV?$string_output_adapter@D@__crt_stdio_output@@@2@@__crt_stdio_output@@AAE_NXZ 004225f3 f i libucrt:output.obj
 0001:00021990       ?state_case_type@?$output_processor@DV?$string_output_adapter@D@__crt_stdio_output@@V?$standard_base@DV?$string_output_adapter@D@__crt_stdio_output@@@2@@__crt_stdio_output@@AAE_NXZ 00422990 f i libucrt:output.obj
 0001:00021d1e       ?state_case_type@?$output_processor@_WV?$stream_output_adapter@_W@__crt_stdio_output@@V?$format_validation_base@_WV?$stream_output_adapter@_W@__crt_stdio_output@@@2@@__crt_stdio_output@@AAE_NXZ 00422d1e f i libucrt:output.obj
 0001:00022083       ?state_case_type@?$output_processor@_WV?$stream_output_adapter@_W@__crt_stdio_output@@V?$positional_parameter_base@_WV?$stream_output_adapter@_W@__crt_stdio_output@@@2@@__crt_stdio_output@@AAE_NXZ 00423083 f i libucrt:output.obj
 0001:000223f7       ?state_case_type@?$output_processor@_WV?$stream_output_adapter@_W@__crt_stdio_output@@V?$standard_base@_WV?$stream_output_adapter@_W@__crt_stdio_output@@@2@@__crt_stdio_output@@AAE_NXZ 004233f7 f i libucrt:output.obj
 0001:0002275c       ?state_case_type@?$output_processor@_WV?$string_output_adapter@_W@__crt_stdio_output@@V?$format_validation_base@_WV?$string_output_adapter@_W@__crt_stdio_output@@@2@@__crt_stdio_output@@AAE_NXZ 0042375c f i libucrt:output.obj
 0001:00022b7d       ?state_case_type@?$output_processor@_WV?$string_output_adapter@_W@__crt_stdio_output@@V?$positional_parameter_base@_WV?$string_output_adapter@_W@__crt_stdio_output@@@2@@__crt_stdio_output@@AAE_NXZ 00423b7d f i libucrt:output.obj
 0001:00022fad       ?state_case_type@?$output_processor@_WV?$string_output_adapter@_W@__crt_stdio_output@@V?$standard_base@_WV?$string_output_adapter@_W@__crt_stdio_output@@@2@@__crt_stdio_output@@AAE_NXZ 00423fad f i libucrt:output.obj
 0001:000233ce       ?state_case_width@?$output_processor@DV?$stream_output_adapter@D@__crt_stdio_output@@V?$format_validation_base@DV?$stream_output_adapter@D@__crt_stdio_output@@@2@@__crt_stdio_output@@AAE_NXZ 004243ce f i libucrt:output.obj
 0001:000233f9       ?state_case_width@?$output_processor@DV?$stream_output_adapter@D@__crt_stdio_output@@V?$positional_parameter_base@DV?$stream_output_adapter@D@__crt_stdio_output@@@2@@__crt_stdio_output@@AAE_NXZ 004243f9 f i libucrt:output.obj
 0001:00023439       ?state_case_width@?$output_processor@DV?$stream_output_adapter@D@__crt_stdio_output@@V?$standard_base@DV?$stream_output_adapter@D@__crt_stdio_output@@@2@@__crt_stdio_output@@AAE_NXZ 00424439 f i libucrt:output.obj
 0001:00023464       ?state_case_width@?$output_processor@DV?$string_output_adapter@D@__crt_stdio_output@@V?$format_validation_base@DV?$string_output_adapter@D@__crt_stdio_output@@@2@@__crt_stdio_output@@AAE_NXZ 00424464 f i libucrt:output.obj
 0001:0002348f       ?state_case_width@?$output_processor@DV?$string_output_adapter@D@__crt_stdio_output@@V?$positional_parameter_base@DV?$string_output_adapter@D@__crt_stdio_output@@@2@@__crt_stdio_output@@AAE_NXZ 0042448f f i libucrt:output.obj
 0001:000234cf       ?state_case_width@?$output_processor@DV?$string_output_adapter@D@__crt_stdio_output@@V?$standard_base@DV?$string_output_adapter@D@__crt_stdio_output@@@2@@__crt_stdio_output@@AAE_NXZ 004244cf f i libucrt:output.obj
 0001:000234fa       ?state_case_width@?$output_processor@_WV?$stream_output_adapter@_W@__crt_stdio_output@@V?$format_validation_base@_WV?$stream_output_adapter@_W@__crt_stdio_output@@@2@@__crt_stdio_output@@AAE_NXZ 004244fa f i libucrt:output.obj
 0001:00023526       ?state_case_width@?$output_processor@_WV?$stream_output_adapter@_W@__crt_stdio_output@@V?$positional_parameter_base@_WV?$stream_output_adapter@_W@__crt_stdio_output@@@2@@__crt_stdio_output@@AAE_NXZ 00424526 f i libucrt:output.obj
 0001:00023567       ?state_case_width@?$output_processor@_WV?$stream_output_adapter@_W@__crt_stdio_output@@V?$standard_base@_WV?$stream_output_adapter@_W@__crt_stdio_output@@@2@@__crt_stdio_output@@AAE_NXZ 00424567 f i libucrt:output.obj
 0001:00023593       ?state_case_width@?$output_processor@_WV?$string_output_adapter@_W@__crt_stdio_output@@V?$format_validation_base@_WV?$string_output_adapter@_W@__crt_stdio_output@@@2@@__crt_stdio_output@@AAE_NXZ 00424593 f i libucrt:output.obj
 0001:000235bf       ?state_case_width@?$output_processor@_WV?$string_output_adapter@_W@__crt_stdio_output@@V?$positional_parameter_base@_WV?$string_output_adapter@_W@__crt_stdio_output@@@2@@__crt_stdio_output@@AAE_NXZ 004245bf f i libucrt:output.obj
 0001:00023600       ?state_case_width@?$output_processor@_WV?$string_output_adapter@_W@__crt_stdio_output@@V?$standard_base@_WV?$string_output_adapter@_W@__crt_stdio_output@@@2@@__crt_stdio_output@@AAE_NXZ 00424600 f i libucrt:output.obj
 0001:0002362c       ?state_count@?$format_validation_base@DV?$stream_output_adapter@D@__crt_stdio_output@@@__crt_stdio_output@@KAIXZ 0042462c f i libucrt:output.obj
 0001:00023630       ?state_count@?$format_validation_base@DV?$string_output_adapter@D@__crt_stdio_output@@@__crt_stdio_output@@KAIXZ 00424630 f i libucrt:output.obj
 0001:00023634       ?state_count@?$format_validation_base@_WV?$stream_output_adapter@_W@__crt_stdio_output@@@__crt_stdio_output@@KAIXZ 00424634 f i libucrt:output.obj
 0001:00023638       ?state_count@?$format_validation_base@_WV?$string_output_adapter@_W@__crt_stdio_output@@@__crt_stdio_output@@KAIXZ 00424638 f i libucrt:output.obj
 0001:0002363c       ?state_count@?$standard_base@DV?$stream_output_adapter@D@__crt_stdio_output@@@__crt_stdio_output@@KAIXZ 0042463c f i libucrt:output.obj
 0001:00023640       ?state_count@?$standard_base@DV?$string_output_adapter@D@__crt_stdio_output@@@__crt_stdio_output@@KAIXZ 00424640 f i libucrt:output.obj
 0001:00023644       ?state_count@?$standard_base@_WV?$stream_output_adapter@_W@__crt_stdio_output@@@__crt_stdio_output@@KAIXZ 00424644 f i libucrt:output.obj
 0001:00023648       ?state_count@?$standard_base@_WV?$string_output_adapter@_W@__crt_stdio_output@@@__crt_stdio_output@@KAIXZ 00424648 f i libucrt:output.obj
 0001:0002364c       ?state_transition_table@?$format_validation_base@DV?$stream_output_adapter@D@__crt_stdio_output@@@__crt_stdio_output@@KAABV?$spectre_mitigated_lookup_table@Ustate_transition_pair@__crt_stdio_output@@$0IA@@2@XZ 0042464c f i libucrt:output.obj
 0001:00023652       ?state_transition_table@?$format_validation_base@DV?$string_output_adapter@D@__crt_stdio_output@@@__crt_stdio_output@@KAABV?$spectre_mitigated_lookup_table@Ustate_transition_pair@__crt_stdio_output@@$0IA@@2@XZ 00424652 f i libucrt:output.obj
 0001:00023658       ?state_transition_table@?$format_validation_base@_WV?$stream_output_adapter@_W@__crt_stdio_output@@@__crt_stdio_output@@KAABV?$spectre_mitigated_lookup_table@Ustate_transition_pair@__crt_stdio_output@@$0IA@@2@XZ 00424658 f i libucrt:output.obj
 0001:0002365e       ?state_transition_table@?$format_validation_base@_WV?$string_output_adapter@_W@__crt_stdio_output@@@__crt_stdio_output@@KAABV?$spectre_mitigated_lookup_table@Ustate_transition_pair@__crt_stdio_output@@$0IA@@2@XZ 0042465e f i libucrt:output.obj
 0001:00023664       ?state_transition_table@?$standard_base@DV?$stream_output_adapter@D@__crt_stdio_output@@@__crt_stdio_output@@KAABV?$spectre_mitigated_lookup_table@Ustate_transition_pair@__crt_stdio_output@@$0IA@@2@XZ 00424664 f i libucrt:output.obj
 0001:0002366a       ?state_transition_table@?$standard_base@DV?$string_output_adapter@D@__crt_stdio_output@@@__crt_stdio_output@@KAABV?$spectre_mitigated_lookup_table@Ustate_transition_pair@__crt_stdio_output@@$0IA@@2@XZ 0042466a f i libucrt:output.obj
 0001:00023670       ?state_transition_table@?$standard_base@_WV?$stream_output_adapter@_W@__crt_stdio_output@@@__crt_stdio_output@@KAABV?$spectre_mitigated_lookup_table@Ustate_transition_pair@__crt_stdio_output@@$0IA@@2@XZ 00424670 f i libucrt:output.obj
 0001:00023676       ?state_transition_table@?$standard_base@_WV?$string_output_adapter@_W@__crt_stdio_output@@@__crt_stdio_output@@KAABV?$spectre_mitigated_lookup_table@Ustate_transition_pair@__crt_stdio_output@@$0IA@@2@XZ 00424676 f i libucrt:output.obj
 0001:0002367c       ?tchar_string@?$common_data@D@__crt_stdio_output@@IAEAAPADD@Z 0042467c f i libucrt:output.obj
 0001:00023682       ?tchar_string@?$common_data@D@__crt_stdio_output@@IAEAAPADXZ 00424682 f i libucrt:output.obj
 0001:00023686       ?tchar_string@?$common_data@_W@__crt_stdio_output@@IAEAAPA_WXZ 00424686 f i libucrt:output.obj
 0001:0002368a       ?tchar_string@?$common_data@_W@__crt_stdio_output@@IAEAAPA_W_W@Z 0042468a f i libucrt:output.obj
 0001:00023690       ?to_integer_size@__crt_stdio_output@@YAIW4length_modifier@1@@Z 00424690 f i libucrt:output.obj
 0001:000236e4       ?type_case_X@?$output_processor@DV?$stream_output_adapter@D@__crt_stdio_output@@V?$format_validation_base@DV?$stream_output_adapter@D@__crt_stdio_output@@@2@@__crt_stdio_output@@AAE_NXZ 004246e4 f i libucrt:output.obj
 0001:000236ec       ?type_case_X@?$output_processor@DV?$stream_output_adapter@D@__crt_stdio_output@@V?$positional_parameter_base@DV?$stream_output_adapter@D@__crt_stdio_output@@@2@@__crt_stdio_output@@AAE_NXZ 004246ec f i libucrt:output.obj
 0001:000236f4       ?type_case_X@?$output_processor@DV?$stream_output_adapter@D@__crt_stdio_output@@V?$standard_base@DV?$stream_output_adapter@D@__crt_stdio_output@@@2@@__crt_stdio_output@@AAE_NXZ 004246f4 f i libucrt:output.obj
 0001:000236fc       ?type_case_X@?$output_processor@DV?$string_output_adapter@D@__crt_stdio_output@@V?$format_validation_base@DV?$string_output_adapter@D@__crt_stdio_output@@@2@@__crt_stdio_output@@AAE_NXZ 004246fc f i libucrt:output.obj
 0001:00023704       ?type_case_X@?$output_processor@DV?$string_output_adapter@D@__crt_stdio_output@@V?$positional_parameter_base@DV?$string_output_adapter@D@__crt_stdio_output@@@2@@__crt_stdio_output@@AAE_NXZ 00424704 f i libucrt:output.obj
 0001:0002370c       ?type_case_X@?$output_processor@DV?$string_output_adapter@D@__crt_stdio_output@@V?$standard_base@DV?$string_output_adapter@D@__crt_stdio_output@@@2@@__crt_stdio_output@@AAE_NXZ 0042470c f i libucrt:output.obj
 0001:00023714       ?type_case_X@?$output_processor@_WV?$stream_output_adapter@_W@__crt_stdio_output@@V?$format_validation_base@_WV?$stream_output_adapter@_W@__crt_stdio_output@@@2@@__crt_stdio_output@@AAE_NXZ 00424714 f i libucrt:output.obj
 0001:0002371c       ?type_case_X@?$output_processor@_WV?$stream_output_adapter@_W@__crt_stdio_output@@V?$positional_parameter_base@_WV?$stream_output_adapter@_W@__crt_stdio_output@@@2@@__crt_stdio_output@@AAE_NXZ 0042471c f i libucrt:output.obj
 0001:00023724       ?type_case_X@?$output_processor@_WV?$stream_output_adapter@_W@__crt_stdio_output@@V?$standard_base@_WV?$stream_output_adapter@_W@__crt_stdio_output@@@2@@__crt_stdio_output@@AAE_NXZ 00424724 f i libucrt:output.obj
 0001:0002372c       ?type_case_X@?$output_processor@_WV?$string_output_adapter@_W@__crt_stdio_output@@V?$format_validation_base@_WV?$string_output_adapter@_W@__crt_stdio_output@@@2@@__crt_stdio_output@@AAE_NXZ 0042472c f i libucrt:output.obj
 0001:00023734       ?type_case_X@?$output_processor@_WV?$string_output_adapter@_W@__crt_stdio_output@@V?$positional_parameter_base@_WV?$string_output_adapter@_W@__crt_stdio_output@@@2@@__crt_stdio_output@@AAE_NXZ 00424734 f i libucrt:output.obj
 0001:0002373c       ?type_case_X@?$output_processor@_WV?$string_output_adapter@_W@__crt_stdio_output@@V?$standard_base@_WV?$string_output_adapter@_W@__crt_stdio_output@@@2@@__crt_stdio_output@@AAE_NXZ 0042473c f i libucrt:output.obj
 0001:00023744       ?type_case_Z@?$output_processor@DV?$stream_output_adapter@D@__crt_stdio_output@@V?$format_validation_base@DV?$stream_output_adapter@D@__crt_stdio_output@@@2@@__crt_stdio_output@@AAE_NXZ 00424744 f i libucrt:output.obj
 0001:0002379e       ?type_case_Z@?$output_processor@DV?$stream_output_adapter@D@__crt_stdio_output@@V?$positional_parameter_base@DV?$stream_output_adapter@D@__crt_stdio_output@@@2@@__crt_stdio_output@@AAE_NXZ 0042479e f i libucrt:output.obj
 0001:00023812       ?type_case_Z@?$output_processor@DV?$stream_output_adapter@D@__crt_stdio_output@@V?$standard_base@DV?$stream_output_adapter@D@__crt_stdio_output@@@2@@__crt_stdio_output@@AAE_NXZ 00424812 f i libucrt:output.obj
 0001:0002386c       ?type_case_Z@?$output_processor@DV?$string_output_adapter@D@__crt_stdio_output@@V?$format_validation_base@DV?$string_output_adapter@D@__crt_stdio_output@@@2@@__crt_stdio_output@@AAE_NXZ 0042486c f i libucrt:output.obj
 0001:000238c6       ?type_case_Z@?$output_processor@DV?$string_output_adapter@D@__crt_stdio_output@@V?$positional_parameter_base@DV?$string_output_adapter@D@__crt_stdio_output@@@2@@__crt_stdio_output@@AAE_NXZ 004248c6 f i libucrt:output.obj
 0001:0002393a       ?type_case_Z@?$output_processor@DV?$string_output_adapter@D@__crt_stdio_output@@V?$standard_base@DV?$string_output_adapter@D@__crt_stdio_output@@@2@@__crt_stdio_output@@AAE_NXZ 0042493a f i libucrt:output.obj
 0001:00023994       ?type_case_Z@?$output_processor@_WV?$stream_output_adapter@_W@__crt_stdio_output@@V?$format_validation_base@_WV?$stream_output_adapter@_W@__crt_stdio_output@@@2@@__crt_stdio_output@@AAE_NXZ 00424994 f i libucrt:output.obj
 0001:000239ee       ?type_case_Z@?$output_processor@_WV?$stream_output_adapter@_W@__crt_stdio_output@@V?$positional_parameter_base@_WV?$stream_output_adapter@_W@__crt_stdio_output@@@2@@__crt_stdio_output@@AAE_NXZ 004249ee f i libucrt:output.obj
 0001:00023a62       ?type_case_Z@?$output_processor@_WV?$stream_output_adapter@_W@__crt_stdio_output@@V?$standard_base@_WV?$stream_output_adapter@_W@__crt_stdio_output@@@2@@__crt_stdio_output@@AAE_NXZ 00424a62 f i libucrt:output.obj
 0001:00023abc       ?type_case_Z@?$output_processor@_WV?$string_output_adapter@_W@__crt_stdio_output@@V?$format_validation_base@_WV?$string_output_adapter@_W@__crt_stdio_output@@@2@@__crt_stdio_output@@AAE_NXZ 00424abc f i libucrt:output.obj
 0001:00023b16       ?type_case_Z@?$output_processor@_WV?$string_output_adapter@_W@__crt_stdio_output@@V?$positional_parameter_base@_WV?$string_output_adapter@_W@__crt_stdio_output@@@2@@__crt_stdio_output@@AAE_NXZ 00424b16 f i libucrt:output.obj
 0001:00023b8a       ?type_case_Z@?$output_processor@_WV?$string_output_adapter@_W@__crt_stdio_output@@V?$standard_base@_WV?$string_output_adapter@_W@__crt_stdio_output@@@2@@__crt_stdio_output@@AAE_NXZ 00424b8a f i libucrt:output.obj
 0001:00023be4       ?type_case_a@?$output_processor@DV?$stream_output_adapter@D@__crt_stdio_output@@V?$format_validation_base@DV?$stream_output_adapter@D@__crt_stdio_output@@@2@@__crt_stdio_output@@AAE_NXZ 00424be4 f i libucrt:output.obj
 0001:00023d6e       ?type_case_a@?$output_processor@DV?$stream_output_adapter@D@__crt_stdio_output@@V?$positional_parameter_base@DV?$stream_output_adapter@D@__crt_stdio_output@@@2@@__crt_stdio_output@@AAE_NXZ 00424d6e f i libucrt:output.obj
 0001:00023f19       ?type_case_a@?$output_processor@DV?$stream_output_adapter@D@__crt_stdio_output@@V?$standard_base@DV?$stream_output_adapter@D@__crt_stdio_output@@@2@@__crt_stdio_output@@AAE_NXZ 00424f19 f i libucrt:output.obj
 0001:000240a3       ?type_case_a@?$output_processor@DV?$string_output_adapter@D@__crt_stdio_output@@V?$format_validation_base@DV?$string_output_adapter@D@__crt_stdio_output@@@2@@__crt_stdio_output@@AAE_NXZ 004250a3 f i libucrt:output.obj
 0001:0002422d       ?type_case_a@?$output_processor@DV?$string_output_adapter@D@__crt_stdio_output@@V?$positional_parameter_base@DV?$string_output_adapter@D@__crt_stdio_output@@@2@@__crt_stdio_output@@AAE_NXZ 0042522d f i libucrt:output.obj
 0001:000243d8       ?type_case_a@?$output_processor@DV?$string_output_adapter@D@__crt_stdio_output@@V?$standard_base@DV?$string_output_adapter@D@__crt_stdio_output@@@2@@__crt_stdio_output@@AAE_NXZ 004253d8 f i libucrt:output.obj
 0001:00024562       ?type_case_a@?$output_processor@_WV?$stream_output_adapter@_W@__crt_stdio_output@@V?$format_validation_base@_WV?$stream_output_adapter@_W@__crt_stdio_output@@@2@@__crt_stdio_output@@AAE_NXZ 00425562 f i libucrt:output.obj
 0001:00024702       ?type_case_a@?$output_processor@_WV?$stream_output_adapter@_W@__crt_stdio_output@@V?$positional_parameter_base@_WV?$stream_output_adapter@_W@__crt_stdio_output@@@2@@__crt_stdio_output@@AAE_NXZ 00425702 f i libucrt:output.obj
 0001:000248c3       ?type_case_a@?$output_processor@_WV?$stream_output_adapter@_W@__crt_stdio_output@@V?$standard_base@_WV?$stream_output_adapter@_W@__crt_stdio_output@@@2@@__crt_stdio_output@@AAE_NXZ 004258c3 f i libucrt:output.obj
 0001:00024a63       ?type_case_a@?$output_processor@_WV?$string_output_adapter@_W@__crt_stdio_output@@V?$format_validation_base@_WV?$string_output_adapter@_W@__crt_stdio_output@@@2@@__crt_stdio_output@@AAE_NXZ 00425a63 f i libucrt:output.obj
 0001:00024c03       ?type_case_a@?$output_processor@_WV?$string_output_adapter@_W@__crt_stdio_output@@V?$positional_parameter_base@_WV?$string_output_adapter@_W@__crt_stdio_output@@@2@@__crt_stdio_output@@AAE_NXZ 00425c03 f i libucrt:output.obj
 0001:00024dc4       ?type_case_a@?$output_processor@_WV?$string_output_adapter@_W@__crt_stdio_output@@V?$standard_base@_WV?$string_output_adapter@_W@__crt_stdio_output@@@2@@__crt_stdio_output@@AAE_NXZ 00425dc4 f i libucrt:output.obj
 0001:00024f64       ?type_case_c@?$output_processor@DV?$stream_output_adapter@D@__crt_stdio_output@@V?$format_validation_base@DV?$stream_output_adapter@D@__crt_stdio_output@@@2@@__crt_stdio_output@@AAE_NXZ 00425f64 f i libucrt:output.obj
 0001:00024f6c       ?type_case_c@?$output_processor@DV?$stream_output_adapter@D@__crt_stdio_output@@V?$positional_parameter_base@DV?$stream_output_adapter@D@__crt_stdio_output@@@2@@__crt_stdio_output@@AAE_NXZ 00425f6c f i libucrt:output.obj
 0001:00024f74       ?type_case_c@?$output_processor@DV?$stream_output_adapter@D@__crt_stdio_output@@V?$standard_base@DV?$stream_output_adapter@D@__crt_stdio_output@@@2@@__crt_stdio_output@@AAE_NXZ 00425f74 f i libucrt:output.obj
 0001:00024f7c       ?type_case_c@?$output_processor@DV?$string_output_adapter@D@__crt_stdio_output@@V?$format_validation_base@DV?$string_output_adapter@D@__crt_stdio_output@@@2@@__crt_stdio_output@@AAE_NXZ 00425f7c f i libucrt:output.obj
 0001:00024f84       ?type_case_c@?$output_processor@DV?$string_output_adapter@D@__crt_stdio_output@@V?$positional_parameter_base@DV?$string_output_adapter@D@__crt_stdio_output@@@2@@__crt_stdio_output@@AAE_NXZ 00425f84 f i libucrt:output.obj
 0001:00024f8c       ?type_case_c@?$output_processor@DV?$string_output_adapter@D@__crt_stdio_output@@V?$standard_base@DV?$string_output_adapter@D@__crt_stdio_output@@@2@@__crt_stdio_output@@AAE_NXZ 00425f8c f i libucrt:output.obj
 0001:00024f94       ?type_case_c@?$output_processor@_WV?$stream_output_adapter@_W@__crt_stdio_output@@V?$format_validation_base@_WV?$stream_output_adapter@_W@__crt_stdio_output@@@2@@__crt_stdio_output@@AAE_NXZ 00425f94 f i libucrt:output.obj
 0001:00024f9c       ?type_case_c@?$output_processor@_WV?$stream_output_adapter@_W@__crt_stdio_output@@V?$positional_parameter_base@_WV?$stream_output_adapter@_W@__crt_stdio_output@@@2@@__crt_stdio_output@@AAE_NXZ 00425f9c f i libucrt:output.obj
 0001:00024fa4       ?type_case_c@?$output_processor@_WV?$stream_output_adapter@_W@__crt_stdio_output@@V?$standard_base@_WV?$stream_output_adapter@_W@__crt_stdio_output@@@2@@__crt_stdio_output@@AAE_NXZ 00425fa4 f i libucrt:output.obj
 0001:00024fac       ?type_case_c@?$output_processor@_WV?$string_output_adapter@_W@__crt_stdio_output@@V?$format_validation_base@_WV?$string_output_adapter@_W@__crt_stdio_output@@@2@@__crt_stdio_output@@AAE_NXZ 00425fac f i libucrt:output.obj
 0001:00024fb4       ?type_case_c@?$output_processor@_WV?$string_output_adapter@_W@__crt_stdio_output@@V?$positional_parameter_base@_WV?$string_output_adapter@_W@__crt_stdio_output@@@2@@__crt_stdio_output@@AAE_NXZ 00425fb4 f i libucrt:output.obj
 0001:00024fbc       ?type_case_c@?$output_processor@_WV?$string_output_adapter@_W@__crt_stdio_output@@V?$standard_base@_WV?$string_output_adapter@_W@__crt_stdio_output@@@2@@__crt_stdio_output@@AAE_NXZ 00425fbc f i libucrt:output.obj
 0001:00024fc4       ?type_case_c_tchar@?$output_processor@DV?$stream_output_adapter@D@__crt_stdio_output@@V?$format_validation_base@DV?$stream_output_adapter@D@__crt_stdio_output@@@2@@__crt_stdio_output@@AAE_ND@Z 00425fc4 f i libucrt:output.obj
 0001:00025059       ?type_case_c_tchar@?$output_processor@DV?$stream_output_adapter@D@__crt_stdio_output@@V?$positional_parameter_base@DV?$stream_output_adapter@D@__crt_stdio_output@@@2@@__crt_stdio_output@@AAE_ND@Z 00426059 f i libucrt:output.obj
 0001:0002511a       ?type_case_c_tchar@?$output_processor@DV?$stream_output_adapter@D@__crt_stdio_output@@V?$standard_base@DV?$stream_output_adapter@D@__crt_stdio_output@@@2@@__crt_stdio_output@@AAE_ND@Z 0042611a f i libucrt:output.obj
 0001:000251af       ?type_case_c_tchar@?$output_processor@DV?$string_output_adapter@D@__crt_stdio_output@@V?$format_validation_base@DV?$string_output_adapter@D@__crt_stdio_output@@@2@@__crt_stdio_output@@AAE_ND@Z 004261af f i libucrt:output.obj
 0001:00025244       ?type_case_c_tchar@?$output_processor@DV?$string_output_adapter@D@__crt_stdio_output@@V?$positional_parameter_base@DV?$string_output_adapter@D@__crt_stdio_output@@@2@@__crt_stdio_output@@AAE_ND@Z 00426244 f i libucrt:output.obj
 0001:00025305       ?type_case_c_tchar@?$output_processor@DV?$string_output_adapter@D@__crt_stdio_output@@V?$standard_base@DV?$string_output_adapter@D@__crt_stdio_output@@@2@@__crt_stdio_output@@AAE_ND@Z 00426305 f i libucrt:output.obj
 0001:0002539a       ?type_case_c_tchar@?$output_processor@_WV?$stream_output_adapter@_W@__crt_stdio_output@@V?$format_validation_base@_WV?$stream_output_adapter@_W@__crt_stdio_output@@@2@@__crt_stdio_output@@AAE_N_W@Z 0042639a f i libucrt:output.obj
 0001:00025441       ?type_case_c_tchar@?$output_processor@_WV?$stream_output_adapter@_W@__crt_stdio_output@@V?$positional_parameter_base@_WV?$stream_output_adapter@_W@__crt_stdio_output@@@2@@__crt_stdio_output@@AAE_N_W@Z 00426441 f i libucrt:output.obj
 0001:0002550c       ?type_case_c_tchar@?$output_processor@_WV?$stream_output_adapter@_W@__crt_stdio_output@@V?$standard_base@_WV?$stream_output_adapter@_W@__crt_stdio_output@@@2@@__crt_stdio_output@@AAE_N_W@Z 0042650c f i libucrt:output.obj
 0001:000255b3       ?type_case_c_tchar@?$output_processor@_WV?$string_output_adapter@_W@__crt_stdio_output@@V?$format_validation_base@_WV?$string_output_adapter@_W@__crt_stdio_output@@@2@@__crt_stdio_output@@AAE_N_W@Z 004265b3 f i libucrt:output.obj
 0001:0002565a       ?type_case_c_tchar@?$output_processor@_WV?$string_output_adapter@_W@__crt_stdio_output@@V?$positional_parameter_base@_WV?$string_output_adapter@_W@__crt_stdio_output@@@2@@__crt_stdio_output@@AAE_N_W@Z 0042665a f i libucrt:output.obj
 0001:00025725       ?type_case_c_tchar@?$output_processor@_WV?$string_output_adapter@_W@__crt_stdio_output@@V?$standard_base@_WV?$string_output_adapter@_W@__crt_stdio_output@@@2@@__crt_stdio_output@@AAE_N_W@Z 00426725 f i libucrt:output.obj
 0001:000257cc       ?type_case_d@?$output_processor@DV?$stream_output_adapter@D@__crt_stdio_output@@V?$format_validation_base@DV?$stream_output_adapter@D@__crt_stdio_output@@@2@@__crt_stdio_output@@AAE_NXZ 004267cc f i libucrt:output.obj
 0001:000257d8       ?type_case_d@?$output_processor@DV?$stream_output_adapter@D@__crt_stdio_output@@V?$positional_parameter_base@DV?$stream_output_adapter@D@__crt_stdio_output@@@2@@__crt_stdio_output@@AAE_NXZ 004267d8 f i libucrt:output.obj
 0001:000257e4       ?type_case_d@?$output_processor@DV?$stream_output_adapter@D@__crt_stdio_output@@V?$standard_base@DV?$stream_output_adapter@D@__crt_stdio_output@@@2@@__crt_stdio_output@@AAE_NXZ 004267e4 f i libucrt:output.obj
 0001:000257f0       ?type_case_d@?$output_processor@DV?$string_output_adapter@D@__crt_stdio_output@@V?$format_validation_base@DV?$string_output_adapter@D@__crt_stdio_output@@@2@@__crt_stdio_output@@AAE_NXZ 004267f0 f i libucrt:output.obj
 0001:000257fc       ?type_case_d@?$output_processor@DV?$string_output_adapter@D@__crt_stdio_output@@V?$positional_parameter_base@DV?$string_output_adapter@D@__crt_stdio_output@@@2@@__crt_stdio_output@@AAE_NXZ 004267fc f i libucrt:output.obj
 0001:00025808       ?type_case_d@?$output_processor@DV?$string_output_adapter@D@__crt_stdio_output@@V?$standard_base@DV?$string_output_adapter@D@__crt_stdio_output@@@2@@__crt_stdio_output@@AAE_NXZ 00426808 f i libucrt:output.obj
 0001:00025814       ?type_case_d@?$output_processor@_WV?$stream_output_adapter@_W@__crt_stdio_output@@V?$format_validation_base@_WV?$stream_output_adapter@_W@__crt_stdio_output@@@2@@__crt_stdio_output@@AAE_NXZ 00426814 f i libucrt:output.obj
 0001:00025820       ?type_case_d@?$output_processor@_WV?$stream_output_adapter@_W@__crt_stdio_output@@V?$positional_parameter_base@_WV?$stream_output_adapter@_W@__crt_stdio_output@@@2@@__crt_stdio_output@@AAE_NXZ 00426820 f i libucrt:output.obj
 0001:0002582c       ?type_case_d@?$output_processor@_WV?$stream_output_adapter@_W@__crt_stdio_output@@V?$standard_base@_WV?$stream_output_adapter@_W@__crt_stdio_output@@@2@@__crt_stdio_output@@AAE_NXZ 0042682c f i libucrt:output.obj
 0001:00025838       ?type_case_d@?$output_processor@_WV?$string_output_adapter@_W@__crt_stdio_output@@V?$format_validation_base@_WV?$string_output_adapter@_W@__crt_stdio_output@@@2@@__crt_stdio_output@@AAE_NXZ 00426838 f i libucrt:output.obj
 0001:00025844       ?type_case_d@?$output_processor@_WV?$string_output_adapter@_W@__crt_stdio_output@@V?$positional_parameter_base@_WV?$string_output_adapter@_W@__crt_stdio_output@@@2@@__crt_stdio_output@@AAE_NXZ 00426844 f i libucrt:output.obj
 0001:00025850       ?type_case_d@?$output_processor@_WV?$string_output_adapter@_W@__crt_stdio_output@@V?$standard_base@_WV?$string_output_adapter@_W@__crt_stdio_output@@@2@@__crt_stdio_output@@AAE_NXZ 00426850 f i libucrt:output.obj
 0001:0002585c       ?type_case_n@?$output_processor@DV?$stream_output_adapter@D@__crt_stdio_output@@V?$format_validation_base@DV?$stream_output_adapter@D@__crt_stdio_output@@@2@@__crt_stdio_output@@AAE_NXZ 0042685c f i libucrt:output.obj
 0001:000258e0       ?type_case_n@?$output_processor@DV?$stream_output_adapter@D@__crt_stdio_output@@V?$positional_parameter_base@DV?$stream_output_adapter@D@__crt_stdio_output@@@2@@__crt_stdio_output@@AAE_NXZ 004268e0 f i libucrt:output.obj
 0001:0002598d       ?type_case_n@?$output_processor@DV?$stream_output_adapter@D@__crt_stdio_output@@V?$standard_base@DV?$stream_output_adapter@D@__crt_stdio_output@@@2@@__crt_stdio_output@@AAE_NXZ 0042698d f i libucrt:output.obj
 0001:00025a11       ?type_case_n@?$output_processor@DV?$string_output_adapter@D@__crt_stdio_output@@V?$format_validation_base@DV?$string_output_adapter@D@__crt_stdio_output@@@2@@__crt_stdio_output@@AAE_NXZ 00426a11 f i libucrt:output.obj
 0001:00025a95       ?type_case_n@?$output_processor@DV?$string_output_adapter@D@__crt_stdio_output@@V?$positional_parameter_base@DV?$string_output_adapter@D@__crt_stdio_output@@@2@@__crt_stdio_output@@AAE_NXZ 00426a95 f i libucrt:output.obj
 0001:00025b42       ?type_case_n@?$output_processor@DV?$string_output_adapter@D@__crt_stdio_output@@V?$standard_base@DV?$string_output_adapter@D@__crt_stdio_output@@@2@@__crt_stdio_output@@AAE_NXZ 00426b42 f i libucrt:output.obj
 0001:00025bc6       ?type_case_n@?$output_processor@_WV?$stream_output_adapter@_W@__crt_stdio_output@@V?$format_validation_base@_WV?$stream_output_adapter@_W@__crt_stdio_output@@@2@@__crt_stdio_output@@AAE_NXZ 00426bc6 f i libucrt:output.obj
 0001:00025c4a       ?type_case_n@?$output_processor@_WV?$stream_output_adapter@_W@__crt_stdio_output@@V?$positional_parameter_base@_WV?$stream_output_adapter@_W@__crt_stdio_output@@@2@@__crt_stdio_output@@AAE_NXZ 00426c4a f i libucrt:output.obj
 0001:00025cf7       ?type_case_n@?$output_processor@_WV?$stream_output_adapter@_W@__crt_stdio_output@@V?$standard_base@_WV?$stream_output_adapter@_W@__crt_stdio_output@@@2@@__crt_stdio_output@@AAE_NXZ 00426cf7 f i libucrt:output.obj
 0001:00025d7b       ?type_case_n@?$output_processor@_WV?$string_output_adapter@_W@__crt_stdio_output@@V?$format_validation_base@_WV?$string_output_adapter@_W@__crt_stdio_output@@@2@@__crt_stdio_output@@AAE_NXZ 00426d7b f i libucrt:output.obj
 0001:00025dff       ?type_case_n@?$output_processor@_WV?$string_output_adapter@_W@__crt_stdio_output@@V?$positional_parameter_base@_WV?$string_output_adapter@_W@__crt_stdio_output@@@2@@__crt_stdio_output@@AAE_NXZ 00426dff f i libucrt:output.obj
 0001:00025eac       ?type_case_n@?$output_processor@_WV?$string_output_adapter@_W@__crt_stdio_output@@V?$standard_base@_WV?$string_output_adapter@_W@__crt_stdio_output@@@2@@__crt_stdio_output@@AAE_NXZ 00426eac f i libucrt:output.obj
 0001:00025f30       ?type_case_o@?$output_processor@DV?$stream_output_adapter@D@__crt_stdio_output@@V?$format_validation_base@DV?$stream_output_adapter@D@__crt_stdio_output@@@2@@__crt_stdio_output@@AAE_NXZ 00426f30 f i libucrt:output.obj
 0001:00025f4d       ?type_case_o@?$output_processor@DV?$stream_output_adapter@D@__crt_stdio_output@@V?$positional_parameter_base@DV?$stream_output_adapter@D@__crt_stdio_output@@@2@@__crt_stdio_output@@AAE_NXZ 00426f4d f i libucrt:output.obj
 0001:00025f6a       ?type_case_o@?$output_processor@DV?$stream_output_adapter@D@__crt_stdio_output@@V?$standard_base@DV?$stream_output_adapter@D@__crt_stdio_output@@@2@@__crt_stdio_output@@AAE_NXZ 00426f6a f i libucrt:output.obj
 0001:00025f87       ?type_case_o@?$output_processor@DV?$string_output_adapter@D@__crt_stdio_output@@V?$format_validation_base@DV?$string_output_adapter@D@__crt_stdio_output@@@2@@__crt_stdio_output@@AAE_NXZ 00426f87 f i libucrt:output.obj
 0001:00025fa4       ?type_case_o@?$output_processor@DV?$string_output_adapter@D@__crt_stdio_output@@V?$positional_parameter_base@DV?$string_output_adapter@D@__crt_stdio_output@@@2@@__crt_stdio_output@@AAE_NXZ 00426fa4 f i libucrt:output.obj
 0001:00025fc1       ?type_case_o@?$output_processor@DV?$string_output_adapter@D@__crt_stdio_output@@V?$standard_base@DV?$string_output_adapter@D@__crt_stdio_output@@@2@@__crt_stdio_output@@AAE_NXZ 00426fc1 f i libucrt:output.obj
 0001:00025fde       ?type_case_o@?$output_processor@_WV?$stream_output_adapter@_W@__crt_stdio_output@@V?$format_validation_base@_WV?$stream_output_adapter@_W@__crt_stdio_output@@@2@@__crt_stdio_output@@AAE_NXZ 00426fde f i libucrt:output.obj
 0001:00025ffb       ?type_case_o@?$output_processor@_WV?$stream_output_adapter@_W@__crt_stdio_output@@V?$positional_parameter_base@_WV?$stream_output_adapter@_W@__crt_stdio_output@@@2@@__crt_stdio_output@@AAE_NXZ 00426ffb f i libucrt:output.obj
 0001:00026018       ?type_case_o@?$output_processor@_WV?$stream_output_adapter@_W@__crt_stdio_output@@V?$standard_base@_WV?$stream_output_adapter@_W@__crt_stdio_output@@@2@@__crt_stdio_output@@AAE_NXZ 00427018 f i libucrt:output.obj
 0001:00026035       ?type_case_o@?$output_processor@_WV?$string_output_adapter@_W@__crt_stdio_output@@V?$format_validation_base@_WV?$string_output_adapter@_W@__crt_stdio_output@@@2@@__crt_stdio_output@@AAE_NXZ 00427035 f i libucrt:output.obj
 0001:00026052       ?type_case_o@?$output_processor@_WV?$string_output_adapter@_W@__crt_stdio_output@@V?$positional_parameter_base@_WV?$string_output_adapter@_W@__crt_stdio_output@@@2@@__crt_stdio_output@@AAE_NXZ 00427052 f i libucrt:output.obj
 0001:0002606f       ?type_case_o@?$output_processor@_WV?$string_output_adapter@_W@__crt_stdio_output@@V?$standard_base@_WV?$string_output_adapter@_W@__crt_stdio_output@@@2@@__crt_stdio_output@@AAE_NXZ 0042706f f i libucrt:output.obj
 0001:0002608c       ?type_case_p@?$output_processor@DV?$stream_output_adapter@D@__crt_stdio_output@@V?$format_validation_base@DV?$stream_output_adapter@D@__crt_stdio_output@@@2@@__crt_stdio_output@@AAE_NXZ 0042708c f i libucrt:output.obj
 0001:000260a2       ?type_case_p@?$output_processor@DV?$stream_output_adapter@D@__crt_stdio_output@@V?$positional_parameter_base@DV?$stream_output_adapter@D@__crt_stdio_output@@@2@@__crt_stdio_output@@AAE_NXZ 004270a2 f i libucrt:output.obj
 0001:000260b8       ?type_case_p@?$output_processor@DV?$stream_output_adapter@D@__crt_stdio_output@@V?$standard_base@DV?$stream_output_adapter@D@__crt_stdio_output@@@2@@__crt_stdio_output@@AAE_NXZ 004270b8 f i libucrt:output.obj
 0001:000260ce       ?type_case_p@?$output_processor@DV?$string_output_adapter@D@__crt_stdio_output@@V?$format_validation_base@DV?$string_output_adapter@D@__crt_stdio_output@@@2@@__crt_stdio_output@@AAE_NXZ 004270ce f i libucrt:output.obj
 0001:000260e4       ?type_case_p@?$output_processor@DV?$string_output_adapter@D@__crt_stdio_output@@V?$positional_parameter_base@DV?$string_output_adapter@D@__crt_stdio_output@@@2@@__crt_stdio_output@@AAE_NXZ 004270e4 f i libucrt:output.obj
 0001:000260fa       ?type_case_p@?$output_processor@DV?$string_output_adapter@D@__crt_stdio_output@@V?$standard_base@DV?$string_output_adapter@D@__crt_stdio_output@@@2@@__crt_stdio_output@@AAE_NXZ 004270fa f i libucrt:output.obj
 0001:00026110       ?type_case_p@?$output_processor@_WV?$stream_output_adapter@_W@__crt_stdio_output@@V?$format_validation_base@_WV?$stream_output_adapter@_W@__crt_stdio_output@@@2@@__crt_stdio_output@@AAE_NXZ 00427110 f i libucrt:output.obj
 0001:00026126       ?type_case_p@?$output_processor@_WV?$stream_output_adapter@_W@__crt_stdio_output@@V?$positional_parameter_base@_WV?$stream_output_adapter@_W@__crt_stdio_output@@@2@@__crt_stdio_output@@AAE_NXZ 00427126 f i libucrt:output.obj
 0001:0002613c       ?type_case_p@?$output_processor@_WV?$stream_output_adapter@_W@__crt_stdio_output@@V?$standard_base@_WV?$stream_output_adapter@_W@__crt_stdio_output@@@2@@__crt_stdio_output@@AAE_NXZ 0042713c f i libucrt:output.obj
 0001:00026152       ?type_case_p@?$output_processor@_WV?$string_output_adapter@_W@__crt_stdio_output@@V?$format_validation_base@_WV?$string_output_adapter@_W@__crt_stdio_output@@@2@@__crt_stdio_output@@AAE_NXZ 00427152 f i libucrt:output.obj
 0001:00026168       ?type_case_p@?$output_processor@_WV?$string_output_adapter@_W@__crt_stdio_output@@V?$positional_parameter_base@_WV?$string_output_adapter@_W@__crt_stdio_output@@@2@@__crt_stdio_output@@AAE_NXZ 00427168 f i libucrt:output.obj
 0001:0002617e       ?type_case_p@?$output_processor@_WV?$string_output_adapter@_W@__crt_stdio_output@@V?$standard_base@_WV?$string_output_adapter@_W@__crt_stdio_output@@@2@@__crt_stdio_output@@AAE_NXZ 0042717e f i libucrt:output.obj
 0001:00026194       ?type_case_s@?$output_processor@DV?$stream_output_adapter@D@__crt_stdio_output@@V?$format_validation_base@DV?$stream_output_adapter@D@__crt_stdio_output@@@2@@__crt_stdio_output@@AAE_NXZ 00427194 f i libucrt:output.obj
 0001:00026205       ?type_case_s@?$output_processor@DV?$stream_output_adapter@D@__crt_stdio_output@@V?$positional_parameter_base@DV?$stream_output_adapter@D@__crt_stdio_output@@@2@@__crt_stdio_output@@AAE_NXZ 00427205 f i libucrt:output.obj
 0001:00026283       ?type_case_s@?$output_processor@DV?$stream_output_adapter@D@__crt_stdio_output@@V?$standard_base@DV?$stream_output_adapter@D@__crt_stdio_output@@@2@@__crt_stdio_output@@AAE_NXZ 00427283 f i libucrt:output.obj
 0001:000262f4       ?type_case_s@?$output_processor@DV?$string_output_adapter@D@__crt_stdio_output@@V?$format_validation_base@DV?$string_output_adapter@D@__crt_stdio_output@@@2@@__crt_stdio_output@@AAE_NXZ 004272f4 f i libucrt:output.obj
 0001:00026365       ?type_case_s@?$output_processor@DV?$string_output_adapter@D@__crt_stdio_output@@V?$positional_parameter_base@DV?$string_output_adapter@D@__crt_stdio_output@@@2@@__crt_stdio_output@@AAE_NXZ 00427365 f i libucrt:output.obj
 0001:000263e3       ?type_case_s@?$output_processor@DV?$string_output_adapter@D@__crt_stdio_output@@V?$standard_base@DV?$string_output_adapter@D@__crt_stdio_output@@@2@@__crt_stdio_output@@AAE_NXZ 004273e3 f i libucrt:output.obj
 0001:00026454       ?type_case_s@?$output_processor@_WV?$stream_output_adapter@_W@__crt_stdio_output@@V?$format_validation_base@_WV?$stream_output_adapter@_W@__crt_stdio_output@@@2@@__crt_stdio_output@@AAE_NXZ 00427454 f i libucrt:output.obj
 0001:000264c7       ?type_case_s@?$output_processor@_WV?$stream_output_adapter@_W@__crt_stdio_output@@V?$positional_parameter_base@_WV?$stream_output_adapter@_W@__crt_stdio_output@@@2@@__crt_stdio_output@@AAE_NXZ 004274c7 f i libucrt:output.obj
 0001:00026547       ?type_case_s@?$output_processor@_WV?$stream_output_adapter@_W@__crt_stdio_output@@V?$standard_base@_WV?$stream_output_adapter@_W@__crt_stdio_output@@@2@@__crt_stdio_output@@AAE_NXZ 00427547 f i libucrt:output.obj
 0001:000265ba       ?type_case_s@?$output_processor@_WV?$string_output_adapter@_W@__crt_stdio_output@@V?$format_validation_base@_WV?$string_output_adapter@_W@__crt_stdio_output@@@2@@__crt_stdio_output@@AAE_NXZ 004275ba f i libucrt:output.obj
 0001:0002662d       ?type_case_s@?$output_processor@_WV?$string_output_adapter@_W@__crt_stdio_output@@V?$positional_parameter_base@_WV?$string_output_adapter@_W@__crt_stdio_output@@@2@@__crt_stdio_output@@AAE_NXZ 0042762d f i libucrt:output.obj
 0001:000266ad       ?type_case_s@?$output_processor@_WV?$string_output_adapter@_W@__crt_stdio_output@@V?$standard_base@_WV?$string_output_adapter@_W@__crt_stdio_output@@@2@@__crt_stdio_output@@AAE_NXZ 004276ad f i libucrt:output.obj
 0001:00026720       ?type_case_s_compute_narrow_string_length@?$output_processor@DV?$stream_output_adapter@D@__crt_stdio_output@@V?$format_validation_base@DV?$stream_output_adapter@D@__crt_stdio_output@@@2@@__crt_stdio_output@@AAEHHD@Z 00427720 f i libucrt:output.obj
 0001:00026736       ?type_case_s_compute_narrow_string_length@?$output_processor@DV?$stream_output_adapter@D@__crt_stdio_output@@V?$positional_parameter_base@DV?$stream_output_adapter@D@__crt_stdio_output@@@2@@__crt_stdio_output@@AAEHHD@Z 00427736 f i libucrt:output.obj
 0001:0002674c       ?type_case_s_compute_narrow_string_length@?$output_processor@DV?$stream_output_adapter@D@__crt_stdio_output@@V?$standard_base@DV?$stream_output_adapter@D@__crt_stdio_output@@@2@@__crt_stdio_output@@AAEHHD@Z 0042774c f i libucrt:output.obj
 0001:00026762       ?type_case_s_compute_narrow_string_length@?$output_processor@DV?$string_output_adapter@D@__crt_stdio_output@@V?$format_validation_base@DV?$string_output_adapter@D@__crt_stdio_output@@@2@@__crt_stdio_output@@AAEHHD@Z 00427762 f i libucrt:output.obj
 0001:00026778       ?type_case_s_compute_narrow_string_length@?$output_processor@DV?$string_output_adapter@D@__crt_stdio_output@@V?$positional_parameter_base@DV?$string_output_adapter@D@__crt_stdio_output@@@2@@__crt_stdio_output@@AAEHHD@Z 00427778 f i libucrt:output.obj
 0001:0002678e       ?type_case_s_compute_narrow_string_length@?$output_processor@DV?$string_output_adapter@D@__crt_stdio_output@@V?$standard_base@DV?$string_output_adapter@D@__crt_stdio_output@@@2@@__crt_stdio_output@@AAEHHD@Z 0042778e f i libucrt:output.obj
 0001:000267a4       ?type_case_s_compute_narrow_string_length@?$output_processor@_WV?$stream_output_adapter@_W@__crt_stdio_output@@V?$format_validation_base@_WV?$stream_output_adapter@_W@__crt_stdio_output@@@2@@__crt_stdio_output@@AAEHH_W@Z 004277a4 f i libucrt:output.obj
 0001:000267f9       ?type_case_s_compute_narrow_string_length@?$output_processor@_WV?$stream_output_adapter@_W@__crt_stdio_output@@V?$positional_parameter_base@_WV?$stream_output_adapter@_W@__crt_stdio_output@@@2@@__crt_stdio_output@@AAEHH_W@Z 004277f9 f i libucrt:output.obj
 0001:0002684e       ?type_case_s_compute_narrow_string_length@?$output_processor@_WV?$stream_output_adapter@_W@__crt_stdio_output@@V?$standard_base@_WV?$stream_output_adapter@_W@__crt_stdio_output@@@2@@__crt_stdio_output@@AAEHH_W@Z 0042784e f i libucrt:output.obj
 0001:000268a3       ?type_case_s_compute_narrow_string_length@?$output_processor@_WV?$string_output_adapter@_W@__crt_stdio_output@@V?$format_validation_base@_WV?$string_output_adapter@_W@__crt_stdio_output@@@2@@__crt_stdio_output@@AAEHH_W@Z 004278a3 f i libucrt:output.obj
 0001:000268f8       ?type_case_s_compute_narrow_string_length@?$output_processor@_WV?$string_output_adapter@_W@__crt_stdio_output@@V?$positional_parameter_base@_WV?$string_output_adapter@_W@__crt_stdio_output@@@2@@__crt_stdio_output@@AAEHH_W@Z 004278f8 f i libucrt:output.obj
 0001:0002694d       ?type_case_s_compute_narrow_string_length@?$output_processor@_WV?$string_output_adapter@_W@__crt_stdio_output@@V?$standard_base@_WV?$string_output_adapter@_W@__crt_stdio_output@@@2@@__crt_stdio_output@@AAEHH_W@Z 0042794d f i libucrt:output.obj
 0001:000269a2       ?type_case_u@?$output_processor@DV?$stream_output_adapter@D@__crt_stdio_output@@V?$format_validation_base@DV?$stream_output_adapter@D@__crt_stdio_output@@@2@@__crt_stdio_output@@AAE_NXZ 004279a2 f i libucrt:output.obj
 0001:000269aa       ?type_case_u@?$output_processor@DV?$stream_output_adapter@D@__crt_stdio_output@@V?$positional_parameter_base@DV?$stream_output_adapter@D@__crt_stdio_output@@@2@@__crt_stdio_output@@AAE_NXZ 004279aa f i libucrt:output.obj
 0001:000269b2       ?type_case_u@?$output_processor@DV?$stream_output_adapter@D@__crt_stdio_output@@V?$standard_base@DV?$stream_output_adapter@D@__crt_stdio_output@@@2@@__crt_stdio_output@@AAE_NXZ 004279b2 f i libucrt:output.obj
 0001:000269ba       ?type_case_u@?$output_processor@DV?$string_output_adapter@D@__crt_stdio_output@@V?$format_validation_base@DV?$string_output_adapter@D@__crt_stdio_output@@@2@@__crt_stdio_output@@AAE_NXZ 004279ba f i libucrt:output.obj
 0001:000269c2       ?type_case_u@?$output_processor@DV?$string_output_adapter@D@__crt_stdio_output@@V?$positional_parameter_base@DV?$string_output_adapter@D@__crt_stdio_output@@@2@@__crt_stdio_output@@AAE_NXZ 004279c2 f i libucrt:output.obj
 0001:000269ca       ?type_case_u@?$output_processor@DV?$string_output_adapter@D@__crt_stdio_output@@V?$standard_base@DV?$string_output_adapter@D@__crt_stdio_output@@@2@@__crt_stdio_output@@AAE_NXZ 004279ca f i libucrt:output.obj
 0001:000269d2       ?type_case_u@?$output_processor@_WV?$stream_output_adapter@_W@__crt_stdio_output@@V?$format_validation_base@_WV?$stream_output_adapter@_W@__crt_stdio_output@@@2@@__crt_stdio_output@@AAE_NXZ 004279d2 f i libucrt:output.obj
 0001:000269da       ?type_case_u@?$output_processor@_WV?$stream_output_adapter@_W@__crt_stdio_output@@V?$positional_parameter_base@_WV?$stream_output_adapter@_W@__crt_stdio_output@@@2@@__crt_stdio_output@@AAE_NXZ 004279da f i libucrt:output.obj
 0001:000269e2       ?type_case_u@?$output_processor@_WV?$stream_output_adapter@_W@__crt_stdio_output@@V?$standard_base@_WV?$stream_output_adapter@_W@__crt_stdio_output@@@2@@__crt_stdio_output@@AAE_NXZ 004279e2 f i libucrt:output.obj
 0001:000269ea       ?type_case_u@?$output_processor@_WV?$string_output_adapter@_W@__crt_stdio_output@@V?$format_validation_base@_WV?$string_output_adapter@_W@__crt_stdio_output@@@2@@__crt_stdio_output@@AAE_NXZ 004279ea f i libucrt:output.obj
 0001:000269f2       ?type_case_u@?$output_processor@_WV?$string_output_adapter@_W@__crt_stdio_output@@V?$positional_parameter_base@_WV?$string_output_adapter@_W@__crt_stdio_output@@@2@@__crt_stdio_output@@AAE_NXZ 004279f2 f i libucrt:output.obj
 0001:000269fa       ?type_case_u@?$output_processor@_WV?$string_output_adapter@_W@__crt_stdio_output@@V?$standard_base@_WV?$string_output_adapter@_W@__crt_stdio_output@@@2@@__crt_stdio_output@@AAE_NXZ 004279fa f i libucrt:output.obj
 0001:00026a02       ?type_case_x@?$output_processor@DV?$stream_output_adapter@D@__crt_stdio_output@@V?$format_validation_base@DV?$stream_output_adapter@D@__crt_stdio_output@@@2@@__crt_stdio_output@@AAE_NXZ 00427a02 f i libucrt:output.obj
 0001:00026a0a       ?type_case_x@?$output_processor@DV?$stream_output_adapter@D@__crt_stdio_output@@V?$positional_parameter_base@DV?$stream_output_adapter@D@__crt_stdio_output@@@2@@__crt_stdio_output@@AAE_NXZ 00427a0a f i libucrt:output.obj
 0001:00026a12       ?type_case_x@?$output_processor@DV?$stream_output_adapter@D@__crt_stdio_output@@V?$standard_base@DV?$stream_output_adapter@D@__crt_stdio_output@@@2@@__crt_stdio_output@@AAE_NXZ 00427a12 f i libucrt:output.obj
 0001:00026a1a       ?type_case_x@?$output_processor@DV?$string_output_adapter@D@__crt_stdio_output@@V?$format_validation_base@DV?$string_output_adapter@D@__crt_stdio_output@@@2@@__crt_stdio_output@@AAE_NXZ 00427a1a f i libucrt:output.obj
 0001:00026a22       ?type_case_x@?$output_processor@DV?$string_output_adapter@D@__crt_stdio_output@@V?$positional_parameter_base@DV?$string_output_adapter@D@__crt_stdio_output@@@2@@__crt_stdio_output@@AAE_NXZ 00427a22 f i libucrt:output.obj
 0001:00026a2a       ?type_case_x@?$output_processor@DV?$string_output_adapter@D@__crt_stdio_output@@V?$standard_base@DV?$string_output_adapter@D@__crt_stdio_output@@@2@@__crt_stdio_output@@AAE_NXZ 00427a2a f i libucrt:output.obj
 0001:00026a32       ?type_case_x@?$output_processor@_WV?$stream_output_adapter@_W@__crt_stdio_output@@V?$format_validation_base@_WV?$stream_output_adapter@_W@__crt_stdio_output@@@2@@__crt_stdio_output@@AAE_NXZ 00427a32 f i libucrt:output.obj
 0001:00026a3a       ?type_case_x@?$output_processor@_WV?$stream_output_adapter@_W@__crt_stdio_output@@V?$positional_parameter_base@_WV?$stream_output_adapter@_W@__crt_stdio_output@@@2@@__crt_stdio_output@@AAE_NXZ 00427a3a f i libucrt:output.obj
 0001:00026a42       ?type_case_x@?$output_processor@_WV?$stream_output_adapter@_W@__crt_stdio_output@@V?$standard_base@_WV?$stream_output_adapter@_W@__crt_stdio_output@@@2@@__crt_stdio_output@@AAE_NXZ 00427a42 f i libucrt:output.obj
 0001:00026a4a       ?type_case_x@?$output_processor@_WV?$string_output_adapter@_W@__crt_stdio_output@@V?$format_validation_base@_WV?$string_output_adapter@_W@__crt_stdio_output@@@2@@__crt_stdio_output@@AAE_NXZ 00427a4a f i libucrt:output.obj
 0001:00026a52       ?type_case_x@?$output_processor@_WV?$string_output_adapter@_W@__crt_stdio_output@@V?$positional_parameter_base@_WV?$string_output_adapter@_W@__crt_stdio_output@@@2@@__crt_stdio_output@@AAE_NXZ 00427a52 f i libucrt:output.obj
 0001:00026a5a       ?type_case_x@?$output_processor@_WV?$string_output_adapter@_W@__crt_stdio_output@@V?$standard_base@_WV?$string_output_adapter@_W@__crt_stdio_output@@@2@@__crt_stdio_output@@AAE_NXZ 00427a5a f i libucrt:output.obj
 0001:00026a62       ?unget@?$c_string_character_source@D@__crt_strtox@@QAEXD@Z 00427a62 f i libucrt:output.obj
 0001:00026a8b       ?unget@?$c_string_character_source@_W@__crt_strtox@@QAEX_W@Z 00427a8b f i libucrt:output.obj
 0001:00026ab9       ?unset_flag@?$output_processor@DV?$stream_output_adapter@D@__crt_stdio_output@@V?$format_validation_base@DV?$stream_output_adapter@D@__crt_stdio_output@@@2@@__crt_stdio_output@@AAEXI@Z 00427ab9 f i libucrt:output.obj
 0001:00026aca       ?unset_flag@?$output_processor@DV?$stream_output_adapter@D@__crt_stdio_output@@V?$positional_parameter_base@DV?$stream_output_adapter@D@__crt_stdio_output@@@2@@__crt_stdio_output@@AAEXI@Z 00427aca f i libucrt:output.obj
 0001:00026adb       ?unset_flag@?$output_processor@DV?$stream_output_adapter@D@__crt_stdio_output@@V?$standard_base@DV?$stream_output_adapter@D@__crt_stdio_output@@@2@@__crt_stdio_output@@AAEXI@Z 00427adb f i libucrt:output.obj
 0001:00026aec       ?unset_flag@?$output_processor@DV?$string_output_adapter@D@__crt_stdio_output@@V?$format_validation_base@DV?$string_output_adapter@D@__crt_stdio_output@@@2@@__crt_stdio_output@@AAEXI@Z 00427aec f i libucrt:output.obj
 0001:00026afd       ?unset_flag@?$output_processor@DV?$string_output_adapter@D@__crt_stdio_output@@V?$positional_parameter_base@DV?$string_output_adapter@D@__crt_stdio_output@@@2@@__crt_stdio_output@@AAEXI@Z 00427afd f i libucrt:output.obj
 0001:00026b0e       ?unset_flag@?$output_processor@DV?$string_output_adapter@D@__crt_stdio_output@@V?$standard_base@DV?$string_output_adapter@D@__crt_stdio_output@@@2@@__crt_stdio_output@@AAEXI@Z 00427b0e f i libucrt:output.obj
 0001:00026b1f       ?unset_flag@?$output_processor@_WV?$stream_output_adapter@_W@__crt_stdio_output@@V?$format_validation_base@_WV?$stream_output_adapter@_W@__crt_stdio_output@@@2@@__crt_stdio_output@@AAEXI@Z 00427b1f f i libucrt:output.obj
 0001:00026b30       ?unset_flag@?$output_processor@_WV?$stream_output_adapter@_W@__crt_stdio_output@@V?$positional_parameter_base@_WV?$stream_output_adapter@_W@__crt_stdio_output@@@2@@__crt_stdio_output@@AAEXI@Z 00427b30 f i libucrt:output.obj
 0001:00026b41       ?unset_flag@?$output_processor@_WV?$stream_output_adapter@_W@__crt_stdio_output@@V?$standard_base@_WV?$stream_output_adapter@_W@__crt_stdio_output@@@2@@__crt_stdio_output@@AAEXI@Z 00427b41 f i libucrt:output.obj
 0001:00026b52       ?unset_flag@?$output_processor@_WV?$string_output_adapter@_W@__crt_stdio_output@@V?$format_validation_base@_WV?$string_output_adapter@_W@__crt_stdio_output@@@2@@__crt_stdio_output@@AAEXI@Z 00427b52 f i libucrt:output.obj
 0001:00026b63       ?unset_flag@?$output_processor@_WV?$string_output_adapter@_W@__crt_stdio_output@@V?$positional_parameter_base@_WV?$string_output_adapter@_W@__crt_stdio_output@@@2@@__crt_stdio_output@@AAEXI@Z 00427b63 f i libucrt:output.obj
 0001:00026b74       ?unset_flag@?$output_processor@_WV?$string_output_adapter@_W@__crt_stdio_output@@V?$standard_base@_WV?$string_output_adapter@_W@__crt_stdio_output@@@2@@__crt_stdio_output@@AAEXI@Z 00427b74 f i libucrt:output.obj
 0001:00026b85       ?update_field_width@?$positional_parameter_base@DV?$stream_output_adapter@D@__crt_stdio_output@@@__crt_stdio_output@@IAE_NXZ 00427b85 f i libucrt:output.obj
 0001:00026c59       ?update_field_width@?$positional_parameter_base@DV?$string_output_adapter@D@__crt_stdio_output@@@__crt_stdio_output@@IAE_NXZ 00427c59 f i libucrt:output.obj
 0001:00026d2d       ?update_field_width@?$positional_parameter_base@_WV?$stream_output_adapter@_W@__crt_stdio_output@@@__crt_stdio_output@@IAE_NXZ 00427d2d f i libucrt:output.obj
 0001:00026e02       ?update_field_width@?$positional_parameter_base@_WV?$string_output_adapter@_W@__crt_stdio_output@@@__crt_stdio_output@@IAE_NXZ 00427e02 f i libucrt:output.obj
 0001:00026ed7       ?update_field_width@?$standard_base@DV?$stream_output_adapter@D@__crt_stdio_output@@@__crt_stdio_output@@IAE_NXZ 00427ed7 f i libucrt:output.obj
 0001:00026ee7       ?update_field_width@?$standard_base@DV?$string_output_adapter@D@__crt_stdio_output@@@__crt_stdio_output@@IAE_NXZ 00427ee7 f i libucrt:output.obj
 0001:00026ef7       ?update_field_width@?$standard_base@_WV?$stream_output_adapter@_W@__crt_stdio_output@@@__crt_stdio_output@@IAE_NXZ 00427ef7 f i libucrt:output.obj
 0001:00026f07       ?update_field_width@?$standard_base@_WV?$string_output_adapter@_W@__crt_stdio_output@@@__crt_stdio_output@@IAE_NXZ 00427f07 f i libucrt:output.obj
 0001:00026f20       ?update_locale@__crt_cached_ptd_host@@AAEXXZ 00427f20 f i libucrt:output.obj
 0001:00026f30       ?update_locale_slow@__crt_cached_ptd_host@@AAEXXZ 00427f30 f i libucrt:output.obj
 0001:00026f8b       ?update_precision@?$positional_parameter_base@DV?$stream_output_adapter@D@__crt_stdio_output@@@__crt_stdio_output@@IAE_NXZ 00427f8b f i libucrt:output.obj
 0001:0002705f       ?update_precision@?$positional_parameter_base@DV?$string_output_adapter@D@__crt_stdio_output@@@__crt_stdio_output@@IAE_NXZ 0042805f f i libucrt:output.obj
 0001:00027133       ?update_precision@?$positional_parameter_base@_WV?$stream_output_adapter@_W@__crt_stdio_output@@@__crt_stdio_output@@IAE_NXZ 00428133 f i libucrt:output.obj
 0001:00027208       ?update_precision@?$positional_parameter_base@_WV?$string_output_adapter@_W@__crt_stdio_output@@@__crt_stdio_output@@IAE_NXZ 00428208 f i libucrt:output.obj
 0001:000272dd       ?update_precision@?$standard_base@DV?$stream_output_adapter@D@__crt_stdio_output@@@__crt_stdio_output@@IAE_NXZ 004282dd f i libucrt:output.obj
 0001:000272ed       ?update_precision@?$standard_base@DV?$string_output_adapter@D@__crt_stdio_output@@@__crt_stdio_output@@IAE_NXZ 004282ed f i libucrt:output.obj
 0001:000272fd       ?update_precision@?$standard_base@_WV?$stream_output_adapter@_W@__crt_stdio_output@@@__crt_stdio_output@@IAE_NXZ 004282fd f i libucrt:output.obj
 0001:0002730d       ?update_precision@?$standard_base@_WV?$string_output_adapter@_W@__crt_stdio_output@@@__crt_stdio_output@@IAE_NXZ 0042830d f i libucrt:output.obj
 0001:0002731d       ?validate@?$c_string_character_source@D@__crt_strtox@@QBE_NXZ 0042831d f i libucrt:output.obj
 0001:00027338       ?validate@?$c_string_character_source@_W@__crt_strtox@@QBE_NXZ 00428338 f i libucrt:output.obj
 0001:00027353       ?validate@?$stream_output_adapter@D@__crt_stdio_output@@QBE_NAAV__crt_cached_ptd_host@@@Z 00428353 f i libucrt:output.obj
 0001:0002738b       ?validate@?$stream_output_adapter@_W@__crt_stdio_output@@QBE_NAAV__crt_cached_ptd_host@@@Z 0042838b f i libucrt:output.obj
 0001:000273bc       ?validate@?$string_output_adapter@D@__crt_stdio_output@@QBE_NAAV__crt_cached_ptd_host@@@Z 004283bc f i libucrt:output.obj
 0001:000273ed       ?validate@?$string_output_adapter@_W@__crt_stdio_output@@QBE_NAAV__crt_cached_ptd_host@@@Z 004283ed f i libucrt:output.obj
 0001:0002741e       ?validate_and_store_parameter_data@?$positional_parameter_base@DV?$stream_output_adapter@D@__crt_stdio_output@@@__crt_stdio_output@@AAE_NAAUparameter_data@12@W4parameter_type@12@DW4length_modifier@2@@Z 0042841e f i libucrt:output.obj
 0001:00027480       ?validate_and_store_parameter_data@?$positional_parameter_base@DV?$string_output_adapter@D@__crt_stdio_output@@@__crt_stdio_output@@AAE_NAAUparameter_data@12@W4parameter_type@12@DW4length_modifier@2@@Z 00428480 f i libucrt:output.obj
 0001:000274e2       ?validate_and_store_parameter_data@?$positional_parameter_base@_WV?$stream_output_adapter@_W@__crt_stdio_output@@@__crt_stdio_output@@AAE_NAAUparameter_data@12@W4parameter_type@12@_WW4length_modifier@2@@Z 004284e2 f i libucrt:output.obj
 0001:00027546       ?validate_and_store_parameter_data@?$positional_parameter_base@_WV?$string_output_adapter@_W@__crt_stdio_output@@@__crt_stdio_output@@AAE_NAAUparameter_data@12@W4parameter_type@12@_WW4length_modifier@2@@Z 00428546 f i libucrt:output.obj
 0001:000275aa       ?validate_and_update_state_at_beginning_of_format_character@?$positional_parameter_base@DV?$stream_output_adapter@D@__crt_stdio_output@@@__crt_stdio_output@@IAE_NXZ 004285aa f i libucrt:output.obj
 0001:000276c3       ?validate_and_update_state_at_beginning_of_format_character@?$positional_parameter_base@DV?$string_output_adapter@D@__crt_stdio_output@@@__crt_stdio_output@@IAE_NXZ 004286c3 f i libucrt:output.obj
 0001:000277dc       ?validate_and_update_state_at_beginning_of_format_character@?$positional_parameter_base@_WV?$stream_output_adapter@_W@__crt_stdio_output@@@__crt_stdio_output@@IAE_NXZ 004287dc f i libucrt:output.obj
 0001:000278ff       ?validate_and_update_state_at_beginning_of_format_character@?$positional_parameter_base@_WV?$string_output_adapter@_W@__crt_stdio_output@@@__crt_stdio_output@@IAE_NXZ 004288ff f i libucrt:output.obj
 0001:00027a22       ?validate_and_update_state_at_beginning_of_format_character@?$standard_base@DV?$stream_output_adapter@D@__crt_stdio_output@@@__crt_stdio_output@@IAE_NXZ 00428a22 f i libucrt:output.obj
 0001:00027a25       ?validate_and_update_state_at_beginning_of_format_character@?$standard_base@DV?$string_output_adapter@D@__crt_stdio_output@@@__crt_stdio_output@@IAE_NXZ 00428a25 f i libucrt:output.obj
 0001:00027a28       ?validate_and_update_state_at_beginning_of_format_character@?$standard_base@_WV?$stream_output_adapter@_W@__crt_stdio_output@@@__crt_stdio_output@@IAE_NXZ 00428a28 f i libucrt:output.obj
 0001:00027a2b       ?validate_and_update_state_at_beginning_of_format_character@?$standard_base@_WV?$string_output_adapter@_W@__crt_stdio_output@@@__crt_stdio_output@@IAE_NXZ 00428a2b f i libucrt:output.obj
 0001:00027a2e       ?validate_and_update_state_at_end_of_format_string@?$format_validation_base@DV?$stream_output_adapter@D@__crt_stdio_output@@@__crt_stdio_output@@IAE_NXZ 00428a2e f i libucrt:output.obj
 0001:00027a5f       ?validate_and_update_state_at_end_of_format_string@?$format_validation_base@DV?$string_output_adapter@D@__crt_stdio_output@@@__crt_stdio_output@@IAE_NXZ 00428a5f f i libucrt:output.obj
 0001:00027a90       ?validate_and_update_state_at_end_of_format_string@?$format_validation_base@_WV?$stream_output_adapter@_W@__crt_stdio_output@@@__crt_stdio_output@@IAE_NXZ 00428a90 f i libucrt:output.obj
 0001:00027ac1       ?validate_and_update_state_at_end_of_format_string@?$format_validation_base@_WV?$string_output_adapter@_W@__crt_stdio_output@@@__crt_stdio_output@@IAE_NXZ 00428ac1 f i libucrt:output.obj
 0001:00027af2       ?validate_and_update_state_at_end_of_format_string@?$positional_parameter_base@DV?$stream_output_adapter@D@__crt_stdio_output@@@__crt_stdio_output@@IAE_NXZ 00428af2 f i libucrt:output.obj
 0001:00027bb1       ?validate_and_update_state_at_end_of_format_string@?$positional_parameter_base@DV?$string_output_adapter@D@__crt_stdio_output@@@__crt_stdio_output@@IAE_NXZ 00428bb1 f i libucrt:output.obj
 0001:00027c70       ?validate_and_update_state_at_end_of_format_string@?$positional_parameter_base@_WV?$stream_output_adapter@_W@__crt_stdio_output@@@__crt_stdio_output@@IAE_NXZ 00428c70 f i libucrt:output.obj
 0001:00027d2f       ?validate_and_update_state_at_end_of_format_string@?$positional_parameter_base@_WV?$string_output_adapter@_W@__crt_stdio_output@@@__crt_stdio_output@@IAE_NXZ 00428d2f f i libucrt:output.obj
 0001:00027dee       ?validate_and_update_state_at_end_of_format_string@?$standard_base@DV?$stream_output_adapter@D@__crt_stdio_output@@@__crt_stdio_output@@IBE_NXZ 00428dee f i libucrt:output.obj
 0001:00027df1       ?validate_and_update_state_at_end_of_format_string@?$standard_base@DV?$string_output_adapter@D@__crt_stdio_output@@@__crt_stdio_output@@IBE_NXZ 00428df1 f i libucrt:output.obj
 0001:00027df4       ?validate_and_update_state_at_end_of_format_string@?$standard_base@_WV?$stream_output_adapter@_W@__crt_stdio_output@@@__crt_stdio_output@@IBE_NXZ 00428df4 f i libucrt:output.obj
 0001:00027df7       ?validate_and_update_state_at_end_of_format_string@?$standard_base@_WV?$string_output_adapter@_W@__crt_stdio_output@@@__crt_stdio_output@@IBE_NXZ 00428df7 f i libucrt:output.obj
 0001:00027dfa       ?validate_state_for_type_case_a@?$positional_parameter_base@DV?$stream_output_adapter@D@__crt_stdio_output@@@__crt_stdio_output@@IAE_NXZ 00428dfa f i libucrt:output.obj
 0001:00027e59       ?validate_state_for_type_case_a@?$positional_parameter_base@DV?$string_output_adapter@D@__crt_stdio_output@@@__crt_stdio_output@@IAE_NXZ 00428e59 f i libucrt:output.obj
 0001:00027eb8       ?validate_state_for_type_case_a@?$positional_parameter_base@_WV?$stream_output_adapter@_W@__crt_stdio_output@@@__crt_stdio_output@@IAE_NXZ 00428eb8 f i libucrt:output.obj
 0001:00027f17       ?validate_state_for_type_case_a@?$positional_parameter_base@_WV?$string_output_adapter@_W@__crt_stdio_output@@@__crt_stdio_output@@IAE_NXZ 00428f17 f i libucrt:output.obj
 0001:00027f76       ?validate_state_for_type_case_a@?$standard_base@DV?$stream_output_adapter@D@__crt_stdio_output@@@__crt_stdio_output@@IBE_NXZ 00428f76 f i libucrt:output.obj
 0001:00027f79       ?validate_state_for_type_case_a@?$standard_base@DV?$string_output_adapter@D@__crt_stdio_output@@@__crt_stdio_output@@IBE_NXZ 00428f79 f i libucrt:output.obj
 0001:00027f7c       ?validate_state_for_type_case_a@?$standard_base@_WV?$stream_output_adapter@_W@__crt_stdio_output@@@__crt_stdio_output@@IBE_NXZ 00428f7c f i libucrt:output.obj
 0001:00027f7f       ?validate_state_for_type_case_a@?$standard_base@_WV?$string_output_adapter@_W@__crt_stdio_output@@@__crt_stdio_output@@IBE_NXZ 00428f7f f i libucrt:output.obj
 0001:00027f82       ?wide_character_to_digit@__crt_strtox@@YAH_W@Z 00428f82 f i libucrt:output.obj
 0001:00028123       ?wide_null_string@?$output_processor@DV?$stream_output_adapter@D@__crt_stdio_output@@V?$format_validation_base@DV?$stream_output_adapter@D@__crt_stdio_output@@@2@@__crt_stdio_output@@CAPA_WXZ 00429123 f i libucrt:output.obj
 0001:00028129       ?wide_null_string@?$output_processor@DV?$stream_output_adapter@D@__crt_stdio_output@@V?$positional_parameter_base@DV?$stream_output_adapter@D@__crt_stdio_output@@@2@@__crt_stdio_output@@CAPA_WXZ 00429129 f i libucrt:output.obj
 0001:0002812f       ?wide_null_string@?$output_processor@DV?$stream_output_adapter@D@__crt_stdio_output@@V?$standard_base@DV?$stream_output_adapter@D@__crt_stdio_output@@@2@@__crt_stdio_output@@CAPA_WXZ 0042912f f i libucrt:output.obj
 0001:00028135       ?wide_null_string@?$output_processor@DV?$string_output_adapter@D@__crt_stdio_output@@V?$format_validation_base@DV?$string_output_adapter@D@__crt_stdio_output@@@2@@__crt_stdio_output@@CAPA_WXZ 00429135 f i libucrt:output.obj
 0001:0002813b       ?wide_null_string@?$output_processor@DV?$string_output_adapter@D@__crt_stdio_output@@V?$positional_parameter_base@DV?$string_output_adapter@D@__crt_stdio_output@@@2@@__crt_stdio_output@@CAPA_WXZ 0042913b f i libucrt:output.obj
 0001:00028141       ?wide_null_string@?$output_processor@DV?$string_output_adapter@D@__crt_stdio_output@@V?$standard_base@DV?$string_output_adapter@D@__crt_stdio_output@@@2@@__crt_stdio_output@@CAPA_WXZ 00429141 f i libucrt:output.obj
 0001:00028147       ?wide_null_string@?$output_processor@_WV?$stream_output_adapter@_W@__crt_stdio_output@@V?$format_validation_base@_WV?$stream_output_adapter@_W@__crt_stdio_output@@@2@@__crt_stdio_output@@CAPA_WXZ 00429147 f i libucrt:output.obj
 0001:0002814d       ?wide_null_string@?$output_processor@_WV?$stream_output_adapter@_W@__crt_stdio_output@@V?$positional_parameter_base@_WV?$stream_output_adapter@_W@__crt_stdio_output@@@2@@__crt_stdio_output@@CAPA_WXZ 0042914d f i libucrt:output.obj
 0001:00028153       ?wide_null_string@?$output_processor@_WV?$stream_output_adapter@_W@__crt_stdio_output@@V?$standard_base@_WV?$stream_output_adapter@_W@__crt_stdio_output@@@2@@__crt_stdio_output@@CAPA_WXZ 00429153 f i libucrt:output.obj
 0001:00028159       ?wide_null_string@?$output_processor@_WV?$string_output_adapter@_W@__crt_stdio_output@@V?$format_validation_base@_WV?$string_output_adapter@_W@__crt_stdio_output@@@2@@__crt_stdio_output@@CAPA_WXZ 00429159 f i libucrt:output.obj
 0001:0002815f       ?wide_null_string@?$output_processor@_WV?$string_output_adapter@_W@__crt_stdio_output@@V?$positional_parameter_base@_WV?$string_output_adapter@_W@__crt_stdio_output@@@2@@__crt_stdio_output@@CAPA_WXZ 0042915f f i libucrt:output.obj
 0001:00028165       ?wide_null_string@?$output_processor@_WV?$string_output_adapter@_W@__crt_stdio_output@@V?$standard_base@_WV?$string_output_adapter@_W@__crt_stdio_output@@@2@@__crt_stdio_output@@CAPA_WXZ 00429165 f i libucrt:output.obj
 0001:0002816b       ?write_character@?$output_adapter_common@DV?$stream_output_adapter@D@__crt_stdio_output@@@__crt_stdio_output@@QBEXDQAHAAV__crt_cached_ptd_host@@@Z 0042916b f i libucrt:output.obj
 0001:0002818d       ?write_character@?$output_adapter_common@_WV?$stream_output_adapter@_W@__crt_stdio_output@@@__crt_stdio_output@@QBEX_WQAHAAV__crt_cached_ptd_host@@@Z 0042918d f i libucrt:output.obj
 0001:000281af       ?write_character@?$string_output_adapter@D@__crt_stdio_output@@QBE_NDQAHAAV__crt_cached_ptd_host@@@Z 004291af f i libucrt:output.obj
 0001:000281f1       ?write_character@?$string_output_adapter@_W@__crt_stdio_output@@QBE_N_WQAHAAV__crt_cached_ptd_host@@@Z 004291f1 f i libucrt:output.obj
 0001:00028236       ?write_character_without_count_update@?$stream_output_adapter@D@__crt_stdio_output@@QBE_NDAAV__crt_cached_ptd_host@@@Z 00429236 f i libucrt:output.obj
 0001:00028270       ?write_character_without_count_update@?$stream_output_adapter@_W@__crt_stdio_output@@QBE_N_WAAV__crt_cached_ptd_host@@@Z 00429270 f i libucrt:output.obj
 0001:000282ad       ?write_stored_string_tchar@?$output_processor@DV?$stream_output_adapter@D@__crt_stdio_output@@V?$format_validation_base@DV?$stream_output_adapter@D@__crt_stdio_output@@@2@@__crt_stdio_output@@AAE_ND@Z 004292ad f i libucrt:output.obj
 0001:00028350       ?write_stored_string_tchar@?$output_processor@DV?$stream_output_adapter@D@__crt_stdio_output@@V?$positional_parameter_base@DV?$stream_output_adapter@D@__crt_stdio_output@@@2@@__crt_stdio_output@@AAE_ND@Z 00429350 f i libucrt:output.obj
 0001:000283f3       ?write_stored_string_tchar@?$output_processor@DV?$stream_output_adapter@D@__crt_stdio_output@@V?$standard_base@DV?$stream_output_adapter@D@__crt_stdio_output@@@2@@__crt_stdio_output@@AAE_ND@Z 004293f3 f i libucrt:output.obj
 0001:00028496       ?write_stored_string_tchar@?$output_processor@DV?$string_output_adapter@D@__crt_stdio_output@@V?$format_validation_base@DV?$string_output_adapter@D@__crt_stdio_output@@@2@@__crt_stdio_output@@AAE_ND@Z 00429496 f i libucrt:output.obj
 0001:00028539       ?write_stored_string_tchar@?$output_processor@DV?$string_output_adapter@D@__crt_stdio_output@@V?$positional_parameter_base@DV?$string_output_adapter@D@__crt_stdio_output@@@2@@__crt_stdio_output@@AAE_ND@Z 00429539 f i libucrt:output.obj
 0001:000285dc       ?write_stored_string_tchar@?$output_processor@DV?$string_output_adapter@D@__crt_stdio_output@@V?$standard_base@DV?$string_output_adapter@D@__crt_stdio_output@@@2@@__crt_stdio_output@@AAE_ND@Z 004295dc f i libucrt:output.obj
 0001:0002867f       ?write_stored_string_tchar@?$output_processor@_WV?$stream_output_adapter@_W@__crt_stdio_output@@V?$format_validation_base@_WV?$stream_output_adapter@_W@__crt_stdio_output@@@2@@__crt_stdio_output@@AAE_N_W@Z 0042967f f i libucrt:output.obj
 0001:0002872f       ?write_stored_string_tchar@?$output_processor@_WV?$stream_output_adapter@_W@__crt_stdio_output@@V?$positional_parameter_base@_WV?$stream_output_adapter@_W@__crt_stdio_output@@@2@@__crt_stdio_output@@AAE_N_W@Z 0042972f f i libucrt:output.obj
 0001:000287df       ?write_stored_string_tchar@?$output_processor@_WV?$stream_output_adapter@_W@__crt_stdio_output@@V?$standard_base@_WV?$stream_output_adapter@_W@__crt_stdio_output@@@2@@__crt_stdio_output@@AAE_N_W@Z 004297df f i libucrt:output.obj
 0001:0002888f       ?write_stored_string_tchar@?$output_processor@_WV?$string_output_adapter@_W@__crt_stdio_output@@V?$format_validation_base@_WV?$string_output_adapter@_W@__crt_stdio_output@@@2@@__crt_stdio_output@@AAE_N_W@Z 0042988f f i libucrt:output.obj
 0001:00028969       ?write_stored_string_tchar@?$output_processor@_WV?$string_output_adapter@_W@__crt_stdio_output@@V?$positional_parameter_base@_WV?$string_output_adapter@_W@__crt_stdio_output@@@2@@__crt_stdio_output@@AAE_N_W@Z 00429969 f i libucrt:output.obj
 0001:00028a43       ?write_stored_string_tchar@?$output_processor@_WV?$string_output_adapter@_W@__crt_stdio_output@@V?$standard_base@_WV?$string_output_adapter@_W@__crt_stdio_output@@@2@@__crt_stdio_output@@AAE_N_W@Z 00429a43 f i libucrt:output.obj
 0001:00028b1d       ?write_string@?$stream_output_adapter@D@__crt_stdio_output@@QBEXQBDHQAHAAV__crt_cached_ptd_host@@@Z 00429b1d f i libucrt:output.obj
 0001:00028b49       ?write_string@?$stream_output_adapter@_W@__crt_stdio_output@@QBEXQB_WHQAHAAV__crt_cached_ptd_host@@@Z 00429b49 f i libucrt:output.obj
 0001:00028b75       ?write_string@?$string_output_adapter@D@__crt_stdio_output@@QBEXQBDHQAHAAV__crt_cached_ptd_host@@@Z 00429b75 f i libucrt:output.obj
 0001:00028bdc       ?write_string@?$string_output_adapter@_W@__crt_stdio_output@@QBEXQB_WHQAHAAV__crt_cached_ptd_host@@@Z 00429bdc f i libucrt:output.obj
 0001:00028c4d       ?write_string_impl@?$output_adapter_common@DV?$stream_output_adapter@D@__crt_stdio_output@@@__crt_stdio_output@@IBEXQBDHQAHAAV__crt_cached_ptd_host@@@Z 00429c4d f i libucrt:output.obj
 0001:00028ccc       ?write_string_impl@?$output_adapter_common@_WV?$stream_output_adapter@_W@__crt_stdio_output@@@__crt_stdio_output@@IBEXQB_WHQAHAAV__crt_cached_ptd_host@@@Z 00429ccc f i libucrt:output.obj
 0001:00028d4e       ___acrt_disable_global_locale_sync 00429d4e f i libucrt:output.obj
 0001:00028d61       ___acrt_isleadbyte_l_noupdate 00429d61 f i libucrt:output.obj
 0001:00028d7f       ___acrt_locale_get_ctype_array_value 00429d7f f i libucrt:output.obj
 0001:00028da1       ___ascii_iswalpha          00429da1 f i libucrt:output.obj
 0001:00028dc4       ___ascii_toupper           00429dc4 f i libucrt:output.obj
 0001:00028ddb       ___ascii_towupper          00429ddb f i libucrt:output.obj
 0001:00028df2       ___stdio_common_vfprintf   00429df2 f   libucrt:output.obj
 0001:00028e96       ___stdio_common_vfprintf_p 00429e96 f   libucrt:output.obj
 0001:00028f3a       ___stdio_common_vfprintf_s 00429f3a f   libucrt:output.obj
 0001:00028fde       ___stdio_common_vfwprintf  00429fde f   libucrt:output.obj
 0001:00029082       ___stdio_common_vfwprintf_p 0042a082 f   libucrt:output.obj
 0001:00029126       ___stdio_common_vfwprintf_s 0042a126 f   libucrt:output.obj
 0001:000291ca       ___stdio_common_vsnprintf_s 0042a1ca f   libucrt:output.obj
 0001:0002920e       ___stdio_common_vsnwprintf_s 0042a20e f   libucrt:output.obj
 0001:00029252       ___stdio_common_vsprintf   0042a252 f   libucrt:output.obj
 0001:00029293       ___stdio_common_vsprintf_p 0042a293 f   libucrt:output.obj
 0001:000292d4       ___stdio_common_vsprintf_s 0042a2d4 f   libucrt:output.obj
 0001:00029315       ___stdio_common_vswprintf  0042a315 f   libucrt:output.obj
 0001:00029356       ___stdio_common_vswprintf_p 0042a356 f   libucrt:output.obj
 0001:00029397       ___stdio_common_vswprintf_s 0042a397 f   libucrt:output.obj
 0001:000293d8       __ctype_fast_check_internal 0042a3d8 f i libucrt:output.obj
 0001:000293f2       __isdigit_fast_internal    0042a3f2 f i libucrt:output.obj
 0001:0002940c       __tolower_fast_internal    0042a40c f i libucrt:output.obj
 0001:00029425       ??$?0$0BAE@@?$__crt_win32_buffer@_WU__crt_win32_buffer_internal_dynamic_resizing@@@@QAE@AAY0BAE@_W@Z 0042a425 f i libucrt:getcwd.obj
 0001:0002944b       ??$__acrt_convert_wcs_mbs_cp@D_WV<lambda_62f6974d9771e494a5ea317cc32e971c>@@U__crt_win32_buffer_internal_dynamic_resizing@@@@YAHQBDAAV?$__crt_win32_buffer@_WU__crt_win32_buffer_internal_dynamic_resizing@@@@ABV<lambda_62f6974d9771e494a5ea317cc32e971c>@@I@Z 0042a44b f i libucrt:getcwd.obj
 0001:000294fd       ??$__acrt_convert_wcs_mbs_cp@_WDV<lambda_0fec1a7b3f42a53036604e18c2d5e07e>@@U__crt_win32_buffer_no_resizing@@@@YAHQB_WAAV?$__crt_win32_buffer@DU__crt_win32_buffer_no_resizing@@@@ABV<lambda_0fec1a7b3f42a53036604e18c2d5e07e>@@I@Z 0042a4fd f i libucrt:getcwd.obj
 0001:000295bf       ??$__acrt_convert_wcs_mbs_cp@_WDV<lambda_fecc33a432ccb74a901dff60d61ca385>@@U__crt_win32_buffer_public_dynamic_resizing@@@@YAHQB_WAAV?$__crt_win32_buffer@DU__crt_win32_buffer_public_dynamic_resizing@@@@ABV<lambda_fecc33a432ccb74a901dff60d61ca385>@@I@Z 0042a5bf f i libucrt:getcwd.obj
 0001:00029685       ??$__acrt_get_full_path_name_narrow_acp_or_utf8@U__crt_win32_buffer_no_resizing@@@@YAHQBDAAV?$__crt_win32_buffer@DU__crt_win32_buffer_no_resizing@@@@@Z 0042a685 f i libucrt:getcwd.obj
 0001:0002978c       ??$__acrt_get_full_path_name_narrow_acp_or_utf8@U__crt_win32_buffer_public_dynamic_resizing@@@@YAHQBDAAV?$__crt_win32_buffer@DU__crt_win32_buffer_public_dynamic_resizing@@@@@Z 0042a78c f i libucrt:getcwd.obj
 0001:00029893       ??$__acrt_get_full_path_name_wide@U__crt_win32_buffer_internal_dynamic_resizing@@@@YAHQB_WAAV?$__crt_win32_buffer@_WU__crt_win32_buffer_internal_dynamic_resizing@@@@@Z 0042a893 f i libucrt:getcwd.obj
 0001:000298ad       ??$__acrt_get_full_path_name_wide@U__crt_win32_buffer_no_resizing@@@@YAHQB_WAAV?$__crt_win32_buffer@_WU__crt_win32_buffer_no_resizing@@@@@Z 0042a8ad f i libucrt:getcwd.obj
 0001:000298c7       ??$__acrt_get_full_path_name_wide@U__crt_win32_buffer_public_dynamic_resizing@@@@YAHQB_WAAV?$__crt_win32_buffer@_WU__crt_win32_buffer_public_dynamic_resizing@@@@@Z 0042a8c7 f i libucrt:getcwd.obj
 0001:000298e1       ??$__acrt_mbs_to_wcs_cp@U__crt_win32_buffer_internal_dynamic_resizing@@@@YAHQBDAAV?$__crt_win32_buffer@_WU__crt_win32_buffer_internal_dynamic_resizing@@@@I@Z 0042a8e1 f i libucrt:getcwd.obj
 0001:000298fe       ??$__acrt_wcs_to_mbs_cp@U__crt_win32_buffer_no_resizing@@@@YAHQB_WAAV?$__crt_win32_buffer@DU__crt_win32_buffer_no_resizing@@@@I@Z 0042a8fe f i libucrt:getcwd.obj
 0001:0002991b       ??$__acrt_wcs_to_mbs_cp@U__crt_win32_buffer_public_dynamic_resizing@@@@YAHQB_WAAV?$__crt_win32_buffer@DU__crt_win32_buffer_public_dynamic_resizing@@@@I@Z 0042a91b f i libucrt:getcwd.obj
 0001:00029938       ??$call_win32_function@V<lambda_0d87af4cf61654f651d26e3c6a4f13fc>@@@?$__crt_win32_buffer@_WU__crt_win32_buffer_public_dynamic_resizing@@@@QAEHABV<lambda_0d87af4cf61654f651d26e3c6a4f13fc>@@@Z 0042a938 f i libucrt:getcwd.obj
 0001:0002999e       ??$call_win32_function@V<lambda_33d632c04396b3de813369f94278cf6d>@@@?$__crt_win32_buffer@_WU__crt_win32_buffer_no_resizing@@@@QAEHABV<lambda_33d632c04396b3de813369f94278cf6d>@@@Z 0042a99e f i libucrt:getcwd.obj
 0001:00029a04       ??$call_win32_function@V<lambda_44f1df80ccead0226c26eac3423fba1d>@@@?$__crt_win32_buffer@_WU__crt_win32_buffer_internal_dynamic_resizing@@@@QAEHABV<lambda_44f1df80ccead0226c26eac3423fba1d>@@@Z 0042aa04 f i libucrt:getcwd.obj
 0001:00029cf6       ??$get_full_path_name@AAY03DAAV?$__crt_win32_buffer@DU__crt_win32_buffer_no_resizing@@@@@?$__crt_char_traits@D@@SAHAAY03DAAV?$__crt_win32_buffer@DU__crt_win32_buffer_no_resizing@@@@@Z 0042acf6 f i libucrt:getcwd.obj
 0001:00029d01       ??$get_full_path_name@AAY03DAAV?$__crt_win32_buffer@DU__crt_win32_buffer_public_dynamic_resizing@@@@@?$__crt_char_traits@D@@SAHAAY03DAAV?$__crt_win32_buffer@DU__crt_win32_buffer_public_dynamic_resizing@@@@@Z 0042ad01 f i libucrt:getcwd.obj
 0001:00029d0c       ??$get_full_path_name@AAY03_WAAV?$__crt_win32_buffer@_WU__crt_win32_buffer_no_resizing@@@@@?$__crt_char_traits@_W@@SAHAAY03_WAAV?$__crt_win32_buffer@_WU__crt_win32_buffer_no_resizing@@@@@Z 0042ad0c f i libucrt:getcwd.obj
 0001:00029d17       ??$get_full_path_name@AAY03_WAAV?$__crt_win32_buffer@_WU__crt_win32_buffer_public_dynamic_resizing@@@@@?$__crt_char_traits@_W@@SAHAAY03_WAAV?$__crt_win32_buffer@_WU__crt_win32_buffer_public_dynamic_resizing@@@@@Z 0042ad17 f i libucrt:getcwd.obj
 0001:00029d22       ??0<lambda_0d87af4cf61654f651d26e3c6a4f13fc>@@QAE@ABQB_W@Z 0042ad22 f i libucrt:getcwd.obj
 0001:00029d34       ??0<lambda_33d632c04396b3de813369f94278cf6d>@@QAE@ABQB_W@Z 0042ad34 f i libucrt:getcwd.obj
 0001:00029d46       ??0<lambda_44f1df80ccead0226c26eac3423fba1d>@@QAE@ABQB_W@Z 0042ad46 f i libucrt:getcwd.obj
 0001:00029d58       ??0?$__crt_win32_buffer@DU__crt_win32_buffer_no_resizing@@@@QAE@QADI@Z 0042ad58 f i libucrt:getcwd.obj
 0001:00029d7c       ??0?$__crt_win32_buffer@DU__crt_win32_buffer_public_dynamic_resizing@@@@QAE@ABV__crt_win32_buffer_debug_info@@@Z 0042ad7c f i libucrt:getcwd.obj
 0001:00029d94       ??0?$__crt_win32_buffer@_WU__crt_win32_buffer_no_resizing@@@@QAE@QA_WI@Z 0042ad94 f i libucrt:getcwd.obj
 0001:00029db8       ??0?$__crt_win32_buffer@_WU__crt_win32_buffer_public_dynamic_resizing@@@@QAE@ABV__crt_win32_buffer_debug_info@@@Z 0042adb8 f i libucrt:getcwd.obj
 0001:00029dd0       ??0_LocaleUpdate@@QAE@QAU__crt_locale_pointers@@@Z 0042add0 f i libucrt:getcwd.obj
 0001:00029e52       ??0__crt_win32_buffer_debug_info@@QAE@HPBDH@Z 0042ae52 f i libucrt:getcwd.obj
 0001:00029e57       ??1?$__crt_win32_buffer@DU__crt_win32_buffer_no_resizing@@@@QAE@XZ 0042ae57 f i libucrt:getcwd.obj
 0001:00029e62       ??1?$__crt_win32_buffer@DU__crt_win32_buffer_public_dynamic_resizing@@@@QAE@XZ 0042ae62 f i libucrt:getcwd.obj
 0001:00029e67       ??1?$__crt_win32_buffer@_WU__crt_win32_buffer_internal_dynamic_resizing@@@@QAE@XZ 0042ae67 f i libucrt:getcwd.obj
 0001:00029e6c       ??1?$__crt_win32_buffer@_WU__crt_win32_buffer_no_resizing@@@@QAE@XZ 0042ae6c f i libucrt:getcwd.obj
 0001:00029e77       ??1?$__crt_win32_buffer@_WU__crt_win32_buffer_public_dynamic_resizing@@@@QAE@XZ 0042ae77 f i libucrt:getcwd.obj
 0001:00029e7c       ??1_LocaleUpdate@@QAE@XZ   0042ae7c f i libucrt:getcwd.obj
 0001:00029e8c       ??R<lambda_0d87af4cf61654f651d26e3c6a4f13fc>@@QBEKPA_WK@Z 0042ae8c f i libucrt:getcwd.obj
 0001:00029ea5       ??R<lambda_0fec1a7b3f42a53036604e18c2d5e07e>@@QBEHIQB_WQADI@Z 0042aea5 f i libucrt:getcwd.obj
 0001:00029ec9       ??R<lambda_33d632c04396b3de813369f94278cf6d>@@QBEKPA_WK@Z 0042aec9 f i libucrt:getcwd.obj
 0001:00029ee2       ??R<lambda_44f1df80ccead0226c26eac3423fba1d>@@QBEKPA_WK@Z 0042aee2 f i libucrt:getcwd.obj
 0001:00029efb       ??R<lambda_62f6974d9771e494a5ea317cc32e971c>@@QBEHIQBDQA_WI@Z 0042aefb f i libucrt:getcwd.obj
 0001:00029f1c       ??R<lambda_fecc33a432ccb74a901dff60d61ca385>@@QBEHIQB_WQADI@Z 0042af1c f i libucrt:getcwd.obj
 0001:00029f40       ?GetLocaleT@_LocaleUpdate@@QAEPAU__crt_locale_pointers@@XZ 0042af40 f i libucrt:getcwd.obj
 0001:00029f44       ?__acrt_get_utf8_acp_compatibility_codepage@@YAIXZ 0042af44 f i libucrt:getcwd.obj
 0001:00029f83       ?_deallocate@?$__crt_win32_buffer@DU__crt_win32_buffer_no_resizing@@@@AAEXXZ 0042af83 f i libucrt:getcwd.obj
 0001:00029f8e       ?_deallocate@?$__crt_win32_buffer@DU__crt_win32_buffer_public_dynamic_resizing@@@@AAEXXZ 0042af8e f i libucrt:getcwd.obj
 0001:00029fa8       ?_deallocate@?$__crt_win32_buffer@_WU__crt_win32_buffer_internal_dynamic_resizing@@@@AAEXXZ 0042afa8 f i libucrt:getcwd.obj
 0001:00029fc2       ?_deallocate@?$__crt_win32_buffer@_WU__crt_win32_buffer_no_resizing@@@@AAEXXZ 0042afc2 f i libucrt:getcwd.obj
 0001:00029fcd       ?_deallocate@?$__crt_win32_buffer@_WU__crt_win32_buffer_public_dynamic_resizing@@@@AAEXXZ 0042afcd f i libucrt:getcwd.obj
 0001:00029fe7       ?_reset_no_dealloc@?$__crt_win32_buffer@DU__crt_win32_buffer_public_dynamic_resizing@@@@AAEXXZ 0042afe7 f i libucrt:getcwd.obj
 0001:00029ff7       ?_reset_no_dealloc@?$__crt_win32_buffer@_WU__crt_win32_buffer_public_dynamic_resizing@@@@AAEXXZ 0042aff7 f i libucrt:getcwd.obj
 0001:0002a007       ?allocate@?$__crt_win32_buffer@DU__crt_win32_buffer_no_resizing@@@@QAEHI@Z 0042b007 f i libucrt:getcwd.obj
 0001:0002a02e       ?allocate@?$__crt_win32_buffer@DU__crt_win32_buffer_public_dynamic_resizing@@@@QAEHI@Z 0042b02e f i libucrt:getcwd.obj
 0001:0002a06a       ?allocate@?$__crt_win32_buffer@_WU__crt_win32_buffer_internal_dynamic_resizing@@@@QAEHI@Z 0042b06a f i libucrt:getcwd.obj
 0001:0002a0a9       ?allocate@?$__crt_win32_buffer@_WU__crt_win32_buffer_no_resizing@@@@QAEHI@Z 0042b0a9 f i libucrt:getcwd.obj
 0001:0002a0d0       ?allocate@?$__crt_win32_buffer@_WU__crt_win32_buffer_public_dynamic_resizing@@@@QAEHI@Z 0042b0d0 f i libucrt:getcwd.obj
 0001:0002a10f       ?allocate@__crt_win32_buffer_internal_dynamic_resizing@@SAHQAPAXIABV__crt_win32_buffer_empty_debug_info@@@Z 0042b10f f i libucrt:getcwd.obj
 0001:0002a12e       ?allocate@__crt_win32_buffer_no_resizing@@SAHQAPAXIABV__crt_win32_buffer_empty_debug_info@@@Z 0042b12e f i libucrt:getcwd.obj
 0001:0002a13b       ?allocate@__crt_win32_buffer_public_dynamic_resizing@@SAHQAPAXIABV__crt_win32_buffer_debug_info@@@Z 0042b13b f i libucrt:getcwd.obj
 0001:0002a15a       ?capacity@?$__crt_win32_buffer@DU__crt_win32_buffer_no_resizing@@@@QBEIXZ 0042b15a f i libucrt:getcwd.obj
 0001:0002a15e       ?capacity@?$__crt_win32_buffer@DU__crt_win32_buffer_public_dynamic_resizing@@@@QBEIXZ 0042b15e f i libucrt:getcwd.obj
 0001:0002a162       ?capacity@?$__crt_win32_buffer@_WU__crt_win32_buffer_internal_dynamic_resizing@@@@QBEIXZ 0042b162 f i libucrt:getcwd.obj
 0001:0002a166       ?data@?$__crt_win32_buffer@DU__crt_win32_buffer_no_resizing@@@@QAEPADXZ 0042b166 f i libucrt:getcwd.obj
 0001:0002a16a       ?data@?$__crt_win32_buffer@DU__crt_win32_buffer_public_dynamic_resizing@@@@QAEPADXZ 0042b16a f i libucrt:getcwd.obj
 0001:0002a16e       ?data@?$__crt_win32_buffer@_WU__crt_win32_buffer_internal_dynamic_resizing@@@@QAEPA_WXZ 0042b16e f i libucrt:getcwd.obj
 0001:0002a172       ?deallocate@__crt_win32_buffer_internal_dynamic_resizing@@SAXQAXABV__crt_win32_buffer_empty_debug_info@@@Z 0042b172 f i libucrt:getcwd.obj
 0001:0002a182       ?deallocate@__crt_win32_buffer_no_resizing@@SAXQAXABV__crt_win32_buffer_empty_debug_info@@@Z 0042b182 f i libucrt:getcwd.obj
 0001:0002a185       ?deallocate@__crt_win32_buffer_public_dynamic_resizing@@SAXQAXABV__crt_win32_buffer_debug_info@@@Z 0042b185 f i libucrt:getcwd.obj
 0001:0002a195       ?debug_info@?$__crt_win32_buffer@DU__crt_win32_buffer_no_resizing@@@@QBEABV__crt_win32_buffer_empty_debug_info@@XZ 0042b195 f i libucrt:getcwd.obj
 0001:0002a198       ?debug_info@?$__crt_win32_buffer@DU__crt_win32_buffer_public_dynamic_resizing@@@@QBEABV__crt_win32_buffer_debug_info@@XZ 0042b198 f i libucrt:getcwd.obj
 0001:0002a19b       ?debug_info@?$__crt_win32_buffer@_WU__crt_win32_buffer_internal_dynamic_resizing@@@@QBEABV__crt_win32_buffer_empty_debug_info@@XZ 0042b19b f i libucrt:getcwd.obj
 0001:0002a19e       ?debug_info@?$__crt_win32_buffer@_WU__crt_win32_buffer_no_resizing@@@@QBEABV__crt_win32_buffer_empty_debug_info@@XZ 0042b19e f i libucrt:getcwd.obj
 0001:0002a1a1       ?debug_info@?$__crt_win32_buffer@_WU__crt_win32_buffer_public_dynamic_resizing@@@@QBEABV__crt_win32_buffer_debug_info@@XZ 0042b1a1 f i libucrt:getcwd.obj
 0001:0002a1a4       ?detach@?$__crt_win32_buffer@DU__crt_win32_buffer_public_dynamic_resizing@@@@QAEPADXZ 0042b1a4 f i libucrt:getcwd.obj
 0001:0002a1f1       ?detach@?$__crt_win32_buffer@_WU__crt_win32_buffer_public_dynamic_resizing@@@@QAEPA_WXZ 0042b1f1 f i libucrt:getcwd.obj
 0001:0002a2bb       ?set_to_nullptr@?$__crt_win32_buffer@DU__crt_win32_buffer_no_resizing@@@@QAEXXZ 0042b2bb f i libucrt:getcwd.obj
 0001:0002a2cf       ?set_to_nullptr@?$__crt_win32_buffer@DU__crt_win32_buffer_public_dynamic_resizing@@@@QAEXXZ 0042b2cf f i libucrt:getcwd.obj
 0001:0002a2e6       ?set_to_nullptr@?$__crt_win32_buffer@_WU__crt_win32_buffer_internal_dynamic_resizing@@@@QAEXXZ 0042b2e6 f i libucrt:getcwd.obj
 0001:0002a2fd       ?size@?$__crt_win32_buffer@DU__crt_win32_buffer_no_resizing@@@@QAEXI@Z 0042b2fd f i libucrt:getcwd.obj
 0001:0002a30c       ?size@?$__crt_win32_buffer@DU__crt_win32_buffer_public_dynamic_resizing@@@@QAEXI@Z 0042b30c f i libucrt:getcwd.obj
 0001:0002a31b       ?size@?$__crt_win32_buffer@_WU__crt_win32_buffer_internal_dynamic_resizing@@@@QAEXI@Z 0042b31b f i libucrt:getcwd.obj
 0001:0002a32a       __getcwd                   0042b32a f   libucrt:getcwd.obj
 0001:0002a346       __getdcwd                  0042b346 f   libucrt:getcwd.obj
 0001:0002a364       __wgetcwd                  0042b364 f   libucrt:getcwd.obj
 0001:0002a380       __wgetdcwd                 0042b380 f   libucrt:getcwd.obj
 0001:0002a6b3       ___ascii_tolower           0042b6b3 f i libucrt:tolower_toupper.obj
 0001:0002a6ca       __isleadbyte_fast_internal 0042b6ca f i libucrt:tolower_toupper.obj
 0001:0002a6e8       __tolower                  0042b6e8 f   libucrt:tolower_toupper.obj
 0001:0002a6f5       __tolower_l                0042b6f5 f   libucrt:tolower_toupper.obj
 0001:0002a7f3       __toupper                  0042b7f3 f   libucrt:tolower_toupper.obj
 0001:0002a800       __toupper_fast_internal    0042b800 f i libucrt:tolower_toupper.obj
 0001:0002a819       __toupper_l                0042b819 f   libucrt:tolower_toupper.obj
 0001:0002a917       _tolower                   0042b917 f   libucrt:tolower_toupper.obj
 0001:0002a947       _toupper                   0042b947 f   libucrt:tolower_toupper.obj
 0001:0002a977       _wcsncpy                   0042b977 f   libucrt:wcsncpy.obj
 0001:0002a9c0       _strncat                   0042b9c0 f   libucrt:strncat.obj
 0001:0002ab19       __seh_filter_dll           0042bb19 f   libucrt:exception_filter.obj
 0001:0002ab39       __seh_filter_exe           0042bb39 f   libucrt:exception_filter.obj
 0001:0002ad1d       ___acrt_report_runtime_error 0042bd1d f   libucrt:report_runtime_error.obj
 0001:0002ae32       __invoke_watson_if_error   0042be32 f i libucrt:report_runtime_error.obj
 0001:0002ae54       __query_app_type           0042be54 f   libucrt:report_runtime_error.obj
 0001:0002ae5a       __set_app_type             0042be5a f   libucrt:report_runtime_error.obj
 0001:0002ae69       ??$__crt_fast_decode_pointer@P6AHPAU_exception@@@Z@@YAP6AHPAU_exception@@@ZQ6AH0@Z@Z 0042be69 f i libucrt:matherr.obj
 0001:0002ae7f       ??$__crt_fast_encode_pointer@P6AHPAU_exception@@@Z@@YAP6AHPAU_exception@@@ZQ6AH0@Z@Z 0042be7f f i libucrt:matherr.obj
 0001:0002ae9e       ?__crt_rotate_pointer_value@@YAIIH@Z 0042be9e f i libucrt:matherr.obj
 0001:0002aead       ?get_current_state_index@__crt_state_management@@YAIXZ 0042bead f i libucrt:matherr.obj
 0001:0002aeb0       ?initialize@?$dual_state_global@P6AHPAU_exception@@@Z@__crt_state_management@@QAEXQ6AHPAU_exception@@@Z@Z 0042beb0 f i libucrt:matherr.obj
 0001:0002aecc       ?value@?$dual_state_global@P6AHPAU_exception@@@Z@__crt_state_management@@QAEAAP6AHPAU_exception@@@ZXZ 0042becc f i libucrt:matherr.obj
 0001:0002aecf       ___acrt_has_user_matherr   0042becf f   libucrt:matherr.obj
 0001:0002aee7       ___acrt_initialize_user_matherr 0042bee7 f   libucrt:matherr.obj
 0001:0002aef6       ___acrt_invoke_user_matherr 0042bef6 f   libucrt:matherr.obj
 0001:0002af28       ___setusermatherr          0042bf28 f   libucrt:matherr.obj
 0001:0002af3d       ??$?RE@__crt_internal_free_policy@@QBEXQBE@Z 0042bf3d f i libucrt:argv_parsing.obj
 0001:0002af4f       ??$?RPAD@__crt_internal_free_policy@@QBEXQBQAD@Z 0042bf4f f i libucrt:argv_parsing.obj
 0001:0002af61       ??$?RPA_W@__crt_internal_free_policy@@QBEXQBQA_W@Z 0042bf61 f i libucrt:argv_parsing.obj
 0001:0002b1e6       ??$get_module_file_name@$$TAAY0BAF@DH@?$__crt_char_traits@D@@SAK$$QA$$TAAY0BAF@D$$QAH@Z 0042c1e6 f i libucrt:argv_parsing.obj
 0001:0002b202       ??$get_module_file_name@$$TAAY0BAF@_WH@?$__crt_char_traits@_W@@SAK$$QA$$TAAY0BAF@_W$$QAH@Z 0042c202 f i libucrt:argv_parsing.obj
 0001:0002b531       ??$set_program_name@PAD@?$__crt_char_traits@D@@SAX$$QAPAD@Z 0042c531 f i libucrt:argv_parsing.obj
 0001:0002b542       ??$set_program_name@PA_W@?$__crt_char_traits@_W@@SAX$$QAPA_W@Z 0042c542 f i libucrt:argv_parsing.obj
 0001:0002b573       ??0?$__crt_unique_heap_ptr@EU__crt_internal_free_policy@@@@QAE@QAE@Z 0042c573 f i libucrt:argv_parsing.obj
 0001:0002b583       ??0?$__crt_unique_heap_ptr@PADU__crt_internal_free_policy@@@@QAE@QAPAD@Z 0042c583 f i libucrt:argv_parsing.obj
 0001:0002b593       ??0?$__crt_unique_heap_ptr@PA_WU__crt_internal_free_policy@@@@QAE@QAPA_W@Z 0042c593 f i libucrt:argv_parsing.obj
 0001:0002b5a3       ??1?$__crt_unique_heap_ptr@EU__crt_internal_free_policy@@@@QAE@XZ 0042c5a3 f i libucrt:argv_parsing.obj
 0001:0002b5b5       ??1?$__crt_unique_heap_ptr@PADU__crt_internal_free_policy@@@@QAE@XZ 0042c5b5 f i libucrt:argv_parsing.obj
 0001:0002b5c7       ??1?$__crt_unique_heap_ptr@PA_WU__crt_internal_free_policy@@@@QAE@XZ 0042c5c7 f i libucrt:argv_parsing.obj
 0001:0002b5d9       ??B?$__crt_unique_heap_ptr@EU__crt_internal_free_policy@@@@QBE_NXZ 0042c5d9 f i libucrt:argv_parsing.obj
 0001:0002b60c       ?detach@?$__crt_unique_heap_ptr@EU__crt_internal_free_policy@@@@QAEPAEXZ 0042c60c f i libucrt:argv_parsing.obj
 0001:0002b612       ?detach@?$__crt_unique_heap_ptr@PADU__crt_internal_free_policy@@@@QAEPAPADXZ 0042c612 f i libucrt:argv_parsing.obj
 0001:0002b618       ?detach@?$__crt_unique_heap_ptr@PA_WU__crt_internal_free_policy@@@@QAEPAPA_WXZ 0042c618 f i libucrt:argv_parsing.obj
 0001:0002b63c       ?get@?$__crt_unique_heap_ptr@EU__crt_internal_free_policy@@@@QBEPAEXZ 0042c63c f i libucrt:argv_parsing.obj
 0001:0002b63f       ?get@?$__crt_unique_heap_ptr@PADU__crt_internal_free_policy@@@@QBEPAPADXZ 0042c63f f i libucrt:argv_parsing.obj
 0001:0002b642       ?get@?$__crt_unique_heap_ptr@PA_WU__crt_internal_free_policy@@@@QBEPAPA_WXZ 0042c642 f i libucrt:argv_parsing.obj
 0001:0002b645       ?get_address_of@?$__crt_unique_heap_ptr@PADU__crt_internal_free_policy@@@@QAEPAPAPADXZ 0042c645 f i libucrt:argv_parsing.obj
 0001:0002b648       ?get_address_of@?$__crt_unique_heap_ptr@PA_WU__crt_internal_free_policy@@@@QAEPAPAPA_WXZ 0042c648 f i libucrt:argv_parsing.obj
 0001:0002b663       ?is_valid@?$__crt_unique_heap_ptr@EU__crt_internal_free_policy@@@@QBE_NXZ 0042c663 f i libucrt:argv_parsing.obj
 0001:0002b66a       ?release@?$__crt_unique_heap_ptr@EU__crt_internal_free_policy@@@@QAEXXZ 0042c66a f i libucrt:argv_parsing.obj
 0001:0002b67c       ?release@?$__crt_unique_heap_ptr@PADU__crt_internal_free_policy@@@@QAEXXZ 0042c67c f i libucrt:argv_parsing.obj
 0001:0002b68e       ?release@?$__crt_unique_heap_ptr@PA_WU__crt_internal_free_policy@@@@QAEXXZ 0042c68e f i libucrt:argv_parsing.obj
 0001:0002b6ba       ___acrt_allocate_buffer_for_argv 0042c6ba f   libucrt:argv_parsing.obj
 0001:0002b709       __configure_narrow_argv    0042c709 f   libucrt:argv_parsing.obj
 0001:0002b714       __configure_wide_argv      0042c714 f   libucrt:argv_parsing.obj
 0001:0002b71f       __set_pgmptr               0042c71f f i libucrt:argv_parsing.obj
 0001:0002b72e       __set_wpgmptr              0042c72e f i libucrt:argv_parsing.obj
 0001:0002b73d       ??$?R_W@__crt_internal_free_policy@@QBEXQB_W@Z 0042c73d f i libucrt:environment_initialization.obj
 0001:0002bb59       ??$get_environment_from_os@$$V@?$__crt_char_traits@D@@SAPADXZ 0042cb59 f i libucrt:environment_initialization.obj
 0001:0002bb5e       ??$get_environment_from_os@$$V@?$__crt_char_traits@_W@@SAPA_WXZ 0042cb5e f i libucrt:environment_initialization.obj
 0001:0002bc67       ??$set_variable_in_environment_nolock@PADH@?$__crt_char_traits@D@@SAH$$QAPAD$$QAH@Z 0042cc67 f i libucrt:environment_initialization.obj
 0001:0002bc7f       ??$set_variable_in_environment_nolock@PA_WH@?$__crt_char_traits@_W@@SAH$$QAPA_W$$QAH@Z 0042cc7f f i libucrt:environment_initialization.obj
 0001:0002bc97       ??$tcscpy_s@PADABIAAPAD@?$__crt_char_traits@D@@SAH$$QAPADABIAAPAD@Z 0042cc97 f i libucrt:environment_initialization.obj
 0001:0002bcb5       ??$tcscpy_s@PA_WABIAAPA_W@?$__crt_char_traits@_W@@SAH$$QAPA_WABIAAPA_W@Z 0042ccb5 f i libucrt:environment_initialization.obj
 0001:0002bcd3       ??$tcslen@AAPAD@?$__crt_char_traits@D@@SAIAAPAD@Z 0042ccd3 f i libucrt:environment_initialization.obj
 0001:0002bceb       ??$tcslen@AAPA_W@?$__crt_char_traits@_W@@SAIAAPA_W@Z 0042cceb f i libucrt:environment_initialization.obj
 0001:0002bd09       ??$uninitialize@A6AXAAPAPAD@_E@?$dual_state_global@PAPAD@__crt_state_management@@QAEXA6AXAAPAPAD@_E@Z 0042cd09 f i libucrt:environment_initialization.obj
 0001:0002bd61       ??$uninitialize@A6AXAAPAPA_W@_E@?$dual_state_global@PAPA_W@__crt_state_management@@QAEXA6AXAAPAPA_W@_E@Z 0042cd61 f i libucrt:environment_initialization.obj
 0001:0002bdef       ??0?$__crt_unique_heap_ptr@_WU__crt_internal_free_policy@@@@QAE@QA_W@Z 0042cdef f i libucrt:environment_initialization.obj
 0001:0002bdff       ??1?$__crt_unique_heap_ptr@_WU__crt_internal_free_policy@@@@QAE@XZ 0042cdff f i libucrt:environment_initialization.obj
 0001:0002be11       ??B?$__crt_unique_heap_ptr@PADU__crt_internal_free_policy@@@@QBE_NXZ 0042ce11 f i libucrt:environment_initialization.obj
 0001:0002be18       ??B?$__crt_unique_heap_ptr@PA_WU__crt_internal_free_policy@@@@QBE_NXZ 0042ce18 f i libucrt:environment_initialization.obj
 0001:0002be1f       ??B?$__crt_unique_heap_ptr@_WU__crt_internal_free_policy@@@@QBE_NXZ 0042ce1f f i libucrt:environment_initialization.obj
 0001:0002be26       ?__crt_compute_required_transform_buffer_count@@YAIIQBD@Z 0042ce26 f i libucrt:environment_initialization.obj
 0001:0002be42       ?__crt_compute_required_transform_buffer_count@@YAIIQB_W@Z 0042ce42 f i libucrt:environment_initialization.obj
 0001:0002be60       ?__crt_transform_string@@YAIIQBDQA_WI@Z 0042ce60 f i libucrt:environment_initialization.obj
 0001:0002be7f       ?__crt_transform_string@@YAIIQB_WQADI@Z 0042ce7f f i libucrt:environment_initialization.obj
 0001:0002bea1       ?detach@?$__crt_unique_heap_ptr@DU__crt_internal_free_policy@@@@QAEPADXZ 0042cea1 f i libucrt:environment_initialization.obj
 0001:0002bea7       ?detach@?$__crt_unique_heap_ptr@_WU__crt_internal_free_policy@@@@QAEPA_WXZ 0042cea7 f i libucrt:environment_initialization.obj
 0001:0002bead       ?get@?$__crt_unique_heap_ptr@_WU__crt_internal_free_policy@@@@QBEPA_WXZ 0042cead f i libucrt:environment_initialization.obj
 0001:0002bed4       ?initialize@?$dual_state_global@PAPAD@__crt_state_management@@QAEXQAPAD@Z 0042ced4 f i libucrt:environment_initialization.obj
 0001:0002bef0       ?initialize@?$dual_state_global@PAPA_W@__crt_state_management@@QAEXQAPA_W@Z 0042cef0 f i libucrt:environment_initialization.obj
 0001:0002bf0c       ?is_valid@?$__crt_unique_heap_ptr@PADU__crt_internal_free_policy@@@@QBE_NXZ 0042cf0c f i libucrt:environment_initialization.obj
 0001:0002bf13       ?is_valid@?$__crt_unique_heap_ptr@PA_WU__crt_internal_free_policy@@@@QBE_NXZ 0042cf13 f i libucrt:environment_initialization.obj
 0001:0002bf1a       ?is_valid@?$__crt_unique_heap_ptr@_WU__crt_internal_free_policy@@@@QBE_NXZ 0042cf1a f i libucrt:environment_initialization.obj
 0001:0002bf29       ?release@?$__crt_unique_heap_ptr@_WU__crt_internal_free_policy@@@@QAEXXZ 0042cf29 f i libucrt:environment_initialization.obj
 0001:0002bf3b       ?value@?$dual_state_global@PAPAD@__crt_state_management@@QAEAAPAPADXZ 0042cf3b f i libucrt:environment_initialization.obj
 0001:0002bf3e       ?value@?$dual_state_global@PAPA_W@__crt_state_management@@QAEAAPAPA_WXZ 0042cf3e f i libucrt:environment_initialization.obj
 0001:0002bf41       ___dcrt_get_or_create_narrow_environment_nolock 0042cf41 f   libucrt:environment_initialization.obj
 0001:0002bf46       ___dcrt_get_or_create_wide_environment_nolock 0042cf46 f   libucrt:environment_initialization.obj
 0001:0002bf4b       ___dcrt_uninitialize_environments_nolock 0042cf4b f   libucrt:environment_initialization.obj
 0001:0002bf9c       ___p__environ              0042cf9c f   libucrt:environment_initialization.obj
 0001:0002bfa2       ___p__wenviron             0042cfa2 f   libucrt:environment_initialization.obj
 0001:0002bfa8       __get_initial_narrow_environment 0042cfa8 f   libucrt:environment_initialization.obj
 0001:0002bfbc       __get_initial_wide_environment 0042cfbc f   libucrt:environment_initialization.obj
 0001:0002bfd0       __initialize_narrow_environment 0042cfd0 f   libucrt:environment_initialization.obj
 0001:0002bfd5       __initialize_wide_environment 0042cfd5 f   libucrt:environment_initialization.obj
 0001:0002bfda       __initterm                 0042cfda f   libucrt:initterm.obj
 0001:0002c005       __initterm_e               0042d005 f   libucrt:initterm.obj
 0001:0002c033       ??$?B$$A6GXPAXK0@Z@__crt_fast_encoded_nullptr_t@@QBEP6GXPAXK0@ZXZ 0042d033 f i libucrt:exit.obj
 0001:0002c0db       ??$__crt_fast_decode_pointer@P6GXPAXK0@Z@@YAP6GXPAXK0@ZQ6GX0K0@Z@Z 0042d0db f i libucrt:exit.obj
 0001:0002c0f1       ??$__crt_fast_encode_pointer@P6GXPAXK0@Z@@YAP6GXPAXK0@ZQ6GX0K0@Z@Z 0042d0f1 f i libucrt:exit.obj
 0001:0002c110       ??$__crt_get_proc_address@P6GXI@Z@@YAP6GXI@ZQAUHINSTANCE__@@QBD@Z 0042d110 f i libucrt:exit.obj
 0001:0002c163       ??0?$__crt_unique_handle_t@U__crt_hmodule_traits@@@@QAE@QAUHINSTANCE__@@@Z 0042d163 f i libucrt:exit.obj
 0001:0002c173       ??1?$__crt_unique_handle_t@U__crt_hmodule_traits@@@@QAE@XZ 0042d173 f i libucrt:exit.obj
 0001:0002c287       ?__acrt_select_exit_lock@@YA?AW4__acrt_lock_id@@XZ 0042d287 f i libucrt:exit.obj
 0001:0002c28b       ?__crt_fast_encode_pointer@@YA?AU__crt_fast_encoded_nullptr_t@@$$T@Z 0042d28b f i libucrt:exit.obj
 0001:0002c2a9       ?close@?$__crt_unique_handle_t@U__crt_hmodule_traits@@@@QAEXXZ 0042d2a9 f i libucrt:exit.obj
 0001:0002c2c0       ?close@__crt_hmodule_traits@@SA_NPAUHINSTANCE__@@@Z 0042d2c0 f i libucrt:exit.obj
 0001:0002c39d       ?get@?$__crt_unique_handle_t@U__crt_hmodule_traits@@@@QBEPAUHINSTANCE__@@XZ 0042d39d f i libucrt:exit.obj
 0001:0002c3a0       ?get_address_of@?$__crt_unique_handle_t@U__crt_hmodule_traits@@@@QAEPAPAUHINSTANCE__@@XZ 0042d3a0 f i libucrt:exit.obj
 0001:0002c3a3       ?get_invalid_value@__crt_hmodule_traits@@SAPAUHINSTANCE__@@XZ 0042d3a3 f i libucrt:exit.obj
 0001:0002c48d       __Exit                     0042d48d f   libucrt:exit.obj
 0001:0002c4a3       ___acrt_initialize_thread_local_exit_callback 0042d4a3 f   libucrt:exit.obj
 0001:0002c4b2       __c_exit                   0042d4b2 f   libucrt:exit.obj
 0001:0002c4c1       __cexit                    0042d4c1 f   libucrt:exit.obj
 0001:0002c4d0       __exit                     0042d4d0 f   libucrt:exit.obj
 0001:0002c4e6       __is_c_termination_complete 0042d4e6 f   libucrt:exit.obj
 0001:0002c4ed       __register_thread_local_exe_atexit_callback 0042d4ed f   libucrt:exit.obj
 0001:0002c513       _exit                      0042d513 f   libucrt:exit.obj
 0001:0002c529       _quick_exit                0042d529 f   libucrt:exit.obj
 0001:0002c53f       ??$__crt_interlocked_read@H@@YAHPDH@Z 0042d53f f i libucrt:setmode.obj
 0001:0002c54c       ?value@?$dual_state_global@H@__crt_state_management@@QAEAAHXZ 0042d54c f i libucrt:setmode.obj
 0001:0002c54f       __get_fmode                0042d54f f   libucrt:setmode.obj
 0001:0002c57c       __set_fmode                0042d57c f   libucrt:setmode.obj
 0001:0002c5b9       __setmode                  0042d5b9 f   libucrt:setmode.obj
 0001:0002c6ca       __setmode_nolock           0042d6ca f   libucrt:setmode.obj
 0001:0002c799       ___acrt_initialize_command_line 0042d799 f   libucrt:argv_data.obj
 0001:0002c7b2       ___acrt_uninitialize_command_line 0042d7b2 f   libucrt:argv_data.obj
 0001:0002c7b5       ___p___argc                0042d7b5 f   libucrt:argv_data.obj
 0001:0002c7bb       ___p___argv                0042d7bb f   libucrt:argv_data.obj
 0001:0002c7c1       ___p___wargv               0042d7c1 f   libucrt:argv_data.obj
 0001:0002c7c7       ___p__acmdln               0042d7c7 f   libucrt:argv_data.obj
 0001:0002c7cd       ___p__pgmptr               0042d7cd f   libucrt:argv_data.obj
 0001:0002c7d3       ___p__wcmdln               0042d7d3 f   libucrt:argv_data.obj
 0001:0002c7d9       ___p__wpgmptr              0042d7d9 f   libucrt:argv_data.obj
 0001:0002c7df       __get_pgmptr               0042d7df f   libucrt:argv_data.obj
 0001:0002c810       __get_wpgmptr              0042d810 f   libucrt:argv_data.obj
 0001:0002c844       ??$?RU__crt_locale_data@@@__crt_internal_free_policy@@QBEXQBU__crt_locale_data@@@Z 0042d844 f i libucrt:wsetlocale.obj
 0001:0002c856       ??$?RU__crt_locale_pointers@@@__crt_internal_free_policy@@QBEXQBU__crt_locale_pointers@@@Z 0042d856 f i libucrt:wsetlocale.obj
 0001:0002c868       ??$?RU__crt_multibyte_data@@@__crt_internal_free_policy@@QBEXQBU__crt_multibyte_data@@@Z 0042d868 f i libucrt:wsetlocale.obj
 0001:0002cc11       ??0?$__crt_unique_heap_ptr@U__crt_locale_data@@U__crt_internal_free_policy@@@@QAE@QAU__crt_locale_data@@@Z 0042dc11 f i libucrt:wsetlocale.obj
 0001:0002cc21       ??0?$__crt_unique_heap_ptr@U__crt_locale_pointers@@U__crt_internal_free_policy@@@@QAE@QAU__crt_locale_pointers@@@Z 0042dc21 f i libucrt:wsetlocale.obj
 0001:0002cc31       ??0?$__crt_unique_heap_ptr@U__crt_multibyte_data@@U__crt_internal_free_policy@@@@QAE@QAU__crt_multibyte_data@@@Z 0042dc31 f i libucrt:wsetlocale.obj
 0001:0002cc41       ??0_expandlocale_locale_name_cache@@QAE@QA_WIQAU__crt_qualified_locale_data@@@Z 0042dc41 f i libucrt:wsetlocale.obj
 0001:0002cc8b       ??1?$__crt_unique_heap_ptr@U__crt_locale_data@@U__crt_internal_free_policy@@@@QAE@XZ 0042dc8b f i libucrt:wsetlocale.obj
 0001:0002cc9d       ??1?$__crt_unique_heap_ptr@U__crt_locale_pointers@@U__crt_internal_free_policy@@@@QAE@XZ 0042dc9d f i libucrt:wsetlocale.obj
 0001:0002ccaf       ??1?$__crt_unique_heap_ptr@U__crt_multibyte_data@@U__crt_internal_free_policy@@@@QAE@XZ 0042dcaf f i libucrt:wsetlocale.obj
 0001:0002ccc1       ??1_expandlocale_locale_name_cache@@QAE@XZ 0042dcc1 f i libucrt:wsetlocale.obj
 0001:0002ccf1       ??B?$__crt_unique_heap_ptr@U__crt_locale_data@@U__crt_internal_free_policy@@@@QBE_NXZ 0042dcf1 f i libucrt:wsetlocale.obj
 0001:0002ccf8       ??B?$__crt_unique_heap_ptr@U__crt_locale_pointers@@U__crt_internal_free_policy@@@@QBE_NXZ 0042dcf8 f i libucrt:wsetlocale.obj
 0001:0002ccff       ??B?$__crt_unique_heap_ptr@U__crt_multibyte_data@@U__crt_internal_free_policy@@@@QBE_NXZ 0042dcff f i libucrt:wsetlocale.obj
 0001:0002cf1f       ?commit_locale_name@_expandlocale_locale_name_cache@@QAEXQB_WI@Z 0042df1f f i libucrt:wsetlocale.obj
 0001:0002cf63       ?commit_locale_name_cache_already_updated@_expandlocale_locale_name_cache@@QAEXQB_WI@Z 0042df63 f i libucrt:wsetlocale.obj
 0001:0002cf98       ?detach@?$__crt_unique_heap_ptr@U__crt_locale_data@@U__crt_internal_free_policy@@@@QAEPAU__crt_locale_data@@XZ 0042df98 f i libucrt:wsetlocale.obj
 0001:0002cf9e       ?detach@?$__crt_unique_heap_ptr@U__crt_locale_pointers@@U__crt_internal_free_policy@@@@QAEPAU__crt_locale_pointers@@XZ 0042df9e f i libucrt:wsetlocale.obj
 0001:0002cfa4       ?detach@?$__crt_unique_heap_ptr@U__crt_multibyte_data@@U__crt_internal_free_policy@@@@QAEPAU__crt_multibyte_data@@XZ 0042dfa4 f i libucrt:wsetlocale.obj
 0001:0002cfaa       ?get@?$__crt_unique_heap_ptr@U__crt_locale_data@@U__crt_internal_free_policy@@@@QBEPAU__crt_locale_data@@XZ 0042dfaa f i libucrt:wsetlocale.obj
 0001:0002cfad       ?get@?$__crt_unique_heap_ptr@U__crt_locale_pointers@@U__crt_internal_free_policy@@@@QBEPAU__crt_locale_pointers@@XZ 0042dfad f i libucrt:wsetlocale.obj
 0001:0002cfb0       ?get@?$__crt_unique_heap_ptr@U__crt_multibyte_data@@U__crt_internal_free_policy@@@@QBEPAU__crt_multibyte_data@@XZ 0042dfb0 f i libucrt:wsetlocale.obj
 0001:0002cfb3       ?is_valid@?$__crt_unique_heap_ptr@U__crt_locale_data@@U__crt_internal_free_policy@@@@QBE_NXZ 0042dfb3 f i libucrt:wsetlocale.obj
 0001:0002cfba       ?is_valid@?$__crt_unique_heap_ptr@U__crt_locale_pointers@@U__crt_internal_free_policy@@@@QBE_NXZ 0042dfba f i libucrt:wsetlocale.obj
 0001:0002cfc1       ?is_valid@?$__crt_unique_heap_ptr@U__crt_multibyte_data@@U__crt_internal_free_policy@@@@QBE_NXZ 0042dfc1 f i libucrt:wsetlocale.obj
 0001:0002cfc8       ?release@?$__crt_unique_heap_ptr@U__crt_locale_data@@U__crt_internal_free_policy@@@@QAEXXZ 0042dfc8 f i libucrt:wsetlocale.obj
 0001:0002cfda       ?release@?$__crt_unique_heap_ptr@U__crt_locale_pointers@@U__crt_internal_free_policy@@@@QAEXXZ 0042dfda f i libucrt:wsetlocale.obj
 0001:0002cfec       ?release@?$__crt_unique_heap_ptr@U__crt_multibyte_data@@U__crt_internal_free_policy@@@@QAEXXZ 0042dfec f i libucrt:wsetlocale.obj
 0001:0002cffe       ?value@?$dual_state_global@PAU__crt_locale_data@@@__crt_state_management@@QAEAAPAU__crt_locale_data@@XZ 0042dffe f i libucrt:wsetlocale.obj
 0001:0002d001       ___acrt_copy_locale_name   0042e001 f   libucrt:wsetlocale.obj
 0001:0002d061       ___acrt_set_locale_changed 0042e061 f   libucrt:wsetlocale.obj
 0001:0002d06c       ___acrt_uninitialize_locale 0042e06c f   libucrt:wsetlocale.obj
 0001:0002d093       ___ascii_towlower          0042e093 f i libucrt:wsetlocale.obj
 0001:0002d0aa       ___lc_lctowcs              0042e0aa f   libucrt:wsetlocale.obj
 0001:0002d11a       ___lc_wcstolc              0042e11a f   libucrt:wsetlocale.obj
 0001:0002d26a       __configthreadlocale       0042e26a f   libucrt:wsetlocale.obj
 0001:0002d2fb       __create_locale            0042e2fb f   libucrt:wsetlocale.obj
 0001:0002d725       __free_locale              0042e725 f   libucrt:wsetlocale.obj
 0001:0002d7e7       __get_current_locale       0042e7e7 f   libucrt:wsetlocale.obj
 0001:0002d882       __wcreate_locale           0042e882 f   libucrt:wsetlocale.obj
 0001:0002d989       __wcscats                  0042e989 f   libucrt:wsetlocale.obj
 0001:0002d9ca       __wsetlocale               0042e9ca f   libucrt:wsetlocale.obj
 0001:0002e72f       ?value@?$dual_state_global@J@__crt_state_management@@QAEAAJXZ 0042f72f f i libucrt:new_mode.obj
 0001:0002e732       __query_new_mode           0042f732 f   libucrt:new_mode.obj
 0001:0002e739       __set_new_mode             0042f739 f   libucrt:new_mode.obj
 0001:0002e768       ___p__commode              0042f768 f   libucrt:ncommode.obj
 0001:0002e76e       ??$?B$$A6AXXZ@__crt_fast_encoded_nullptr_t@@QBEP6AXXZXZ 0042f76e f i libucrt:onexit.obj
 0001:0002e774       ??$?BP6AXXZ@__crt_fast_encoded_nullptr_t@@QBEPAP6AXXZXZ 0042f774 f i libucrt:onexit.obj
 0001:0002e77a       ??$?RP6AXXZ@__crt_internal_free_policy@@QBEXQBQ6AXXZ@Z 0042f77a f i libucrt:onexit.obj
 0001:0002e8bd       ??$__crt_fast_decode_pointer@P6AXXZ@@YAP6AXXZQ6AXXZ@Z 0042f8bd f i libucrt:onexit.obj
 0001:0002e8d3       ??$__crt_fast_decode_pointer@PAP6AXXZ@@YAPAP6AXXZQAP6AXXZ@Z 0042f8d3 f i libucrt:onexit.obj
 0001:0002e8e9       ??$__crt_fast_encode_pointer@P6AHXZ@@YAP6AHXZQ6AHXZ@Z 0042f8e9 f i libucrt:onexit.obj
 0001:0002e908       ??$__crt_fast_encode_pointer@P6AXXZ@@YAP6AXXZQ6AXXZ@Z 0042f908 f i libucrt:onexit.obj
 0001:0002e927       ??$__crt_fast_encode_pointer@PAP6AXXZ@@YAPAP6AXXZQAP6AXXZ@Z 0042f927 f i libucrt:onexit.obj
 0001:0002e9b4       ??0?$__crt_unique_heap_ptr@P6AXXZU__crt_internal_free_policy@@@@QAE@QAP6AXXZ@Z 0042f9b4 f i libucrt:onexit.obj
 0001:0002e9c4       ??1?$__crt_unique_heap_ptr@P6AXXZU__crt_internal_free_policy@@@@QAE@XZ 0042f9c4 f i libucrt:onexit.obj
 0001:0002e9d6       ??1scoped_global_state_reset@__crt_state_management@@QAE@XZ 0042f9d6 f i libucrt:onexit.obj
 0001:0002ebd9       ?detach@?$__crt_unique_heap_ptr@P6AXXZU__crt_internal_free_policy@@@@QAEPAP6AXXZXZ 0042fbd9 f i libucrt:onexit.obj
 0001:0002ebdf       ?release@?$__crt_unique_heap_ptr@P6AXXZU__crt_internal_free_policy@@@@QAEXXZ 0042fbdf f i libucrt:onexit.obj
 0001:0002ebf1       __crt_at_quick_exit        0042fbf1 f   libucrt:onexit.obj
 0001:0002ec07       __crt_atexit               0042fc07 f   libucrt:onexit.obj
 0001:0002ec1d       __execute_onexit_table     0042fc1d f   libucrt:onexit.obj
 0001:0002ec5b       __initialize_onexit_table  0042fc5b f   libucrt:onexit.obj
 0001:0002ec84       __register_onexit_function 0042fc84 f   libucrt:onexit.obj
 0001:0002ed93       ??$?BX@__crt_fast_encoded_nullptr_t@@QBEPAXXZ 0042fd93 f i libucrt:initialization.obj
 0001:0002ed99       ??$__crt_fast_encode_pointer@PAX@@YAPAXQAX@Z 0042fd99 f i libucrt:initialization.obj
 0001:0002ee0a       ?__acrt_stdio_is_initialized@@YA_NXZ 0042fe0a f i libucrt:initialization.obj
 0001:0002ee15       ?initialize@?$dual_state_global@PAU__crt_locale_data@@@__crt_state_management@@QAEXQAU__crt_locale_data@@@Z 0042fe15 f i libucrt:initialization.obj
 0001:0002ee31       ___acrt_initialize         0042fe31 f   libucrt:initialization.obj
 0001:0002ee43       ___acrt_thread_attach      0042fe43 f   libucrt:initialization.obj
 0001:0002ee4e       ___acrt_thread_detach      0042fe4e f   libucrt:initialization.obj
 0001:0002ee56       ___acrt_uninitialize       0042fe56 f   libucrt:initialization.obj
 0001:0002ee86       ___acrt_uninitialize_critical 0042fe86 f   libucrt:initialization.obj
 0001:0002ee98       __controlfp_s              0042fe98 f   libucrt:contrlfp.obj
 0001:0002ef0d       __get_terminate            0042ff0d f   libucrt:terminate.obj
 0001:0002ef1f       _set_terminate             0042ff1f f   libucrt:terminate.obj
 0001:0002ef3f       _terminate                 0042ff3f f   libucrt:terminate.obj
 0001:0002ef7b       ??$?B$$A6AHI@Z@__crt_fast_encoded_nullptr_t@@QBEP6AHI@ZXZ 0042ff7b f i libucrt:new_handler.obj
 0001:0002ef81       ??$__crt_fast_decode_pointer@P6AHI@Z@@YAP6AHI@ZQ6AHI@Z@Z 0042ff81 f i libucrt:new_handler.obj
 0001:0002ef97       ??$__crt_fast_encode_pointer@P6AHI@Z@@YAP6AHI@ZQ6AHI@Z@Z 0042ff97 f i libucrt:new_handler.obj
 0001:0002efb6       ?_set_new_handler@@YAP6AHI@ZH@Z 0042ffb6 f   libucrt:new_handler.obj
 0001:0002efc3       ?initialize@?$dual_state_global@P6AHI@Z@__crt_state_management@@QAEXQ6AHI@Z@Z 0042ffc3 f i libucrt:new_handler.obj
 0001:0002efdf       ?value@?$dual_state_global@P6AHI@Z@__crt_state_management@@QAEAAP6AHI@ZXZ 0042ffdf f i libucrt:new_handler.obj
 0001:0002efe2       ___acrt_initialize_new_handler 0042ffe2 f   libucrt:new_handler.obj
 0001:0002eff1       __callnewh                 0042fff1 f   libucrt:new_handler.obj
 0001:0002f01e       __query_new_handler        0043001e f   libucrt:new_handler.obj
 0001:0002f07a       __set_new_handler          0043007a f   libucrt:new_handler.obj
 0001:0002f0e4       _malloc                    004300e4 f   libucrt:malloc.obj
 0001:0002f0ef       _free                      004300ef f   libucrt:free.obj
 0001:0002f10a       ___ascii_stricmp           0043010a f   libucrt:stricmp.obj
 0001:0002f143       __stricmp                  00430143 f   libucrt:stricmp.obj
 0001:0002f143       _stricmp                   00430143 f   libucrt:stricmp.obj
 0001:0002f18c       __stricmp_l                0043018c f   libucrt:stricmp.obj
 0001:0002f21c       ??0?$__crt_scoped_stack_ptr@D@@QAE@U?$__crt_scoped_stack_ptr_tag@D@@@Z 0043021c f i libucrt:strlwr.obj
 0001:0002f22c       ??0?$__crt_scoped_stack_ptr_tag@D@@QAE@QAD@Z 0043022c f i libucrt:strlwr.obj
 0001:0002f23c       ??1?$__crt_scoped_stack_ptr@D@@QAE@XZ 0043023c f i libucrt:strlwr.obj
 0001:0002f245       ??B?$__crt_scoped_stack_ptr@D@@QBE_NXZ 00430245 f i libucrt:strlwr.obj
 0001:0002f3c2       ?get@?$__crt_scoped_stack_ptr@D@@QBEPADXZ 004303c2 f i libucrt:strlwr.obj
 0001:0002f3c5       __MallocaComputeSize       004303c5 f i libucrt:strlwr.obj
 0001:0002f3d8       __MarkAllocaS              004303d8 f i libucrt:strlwr.obj
 0001:0002f3ee       __freea_crt                004303ee f i libucrt:strlwr.obj
 0001:0002f40e       __strlwr                   0043040e f   libucrt:strlwr.obj
 0001:0002f40e       _strlwr                    0043040e f   libucrt:strlwr.obj
 0001:0002f46a       __strlwr_l                 0043046a f   libucrt:strlwr.obj
 0001:0002f484       __strlwr_s                 00430484 f   libucrt:strlwr.obj
 0001:0002f49b       __strlwr_s_l               0043049b f   libucrt:strlwr.obj
 0001:0002f648       __strupr                   00430648 f   libucrt:strupr.obj
 0001:0002f648       _strupr                    00430648 f   libucrt:strupr.obj
 0001:0002f6a4       __strupr_l                 004306a4 f   libucrt:strupr.obj
 0001:0002f6be       __strupr_s                 004306be f   libucrt:strupr.obj
 0001:0002f6d5       __strupr_s_l               004306d5 f   libucrt:strupr.obj
 0001:0002f766       _strcpy_s                  00430766 f   libucrt:strcpy_s.obj
 0001:0002f7c0       __set_abort_behavior       004307c0 f   libucrt:abort.obj
 0001:0002f7e1       _abort                     004307e1 f   libucrt:abort.obj
 0001:0002f825       _calloc                    00430825 f   libucrt:calloc.obj
 0001:0002f830       ??$is_overflow_condition@_K@__crt_strtox@@YA_NI_K@Z 00430830 f i libucrt:atox.obj
 0001:0002f871       ??$make_c_string_character_source@D$$T@__crt_strtox@@YA?AV?$c_string_character_source@D@0@QBD$$T@Z 00430871 f i libucrt:atox.obj
 0001:0002f88c       ??$make_c_string_character_source@_W$$T@__crt_strtox@@YA?AV?$c_string_character_source@_W@0@QB_W$$T@Z 0043088c f i libucrt:atox.obj
 0001:0002f8a7       ??$parse_integer@KV?$c_string_character_source@D@__crt_strtox@@$00@__crt_strtox@@YAKAAV__crt_cached_ptd_host@@V?$c_string_character_source@D@0@H_N@Z 004308a7 f i libucrt:atox.obj
 0001:0002faee       ??$parse_integer@KV?$c_string_character_source@_W@__crt_strtox@@$00@__crt_strtox@@YAKAAV__crt_cached_ptd_host@@V?$c_string_character_source@_W@0@H_N@Z 00430aee f i libucrt:atox.obj
 0001:000300f8       ??$parse_integer@_KV?$c_string_character_source@D@__crt_strtox@@$00@__crt_strtox@@YA_KAAV__crt_cached_ptd_host@@V?$c_string_character_source@D@0@H_N@Z 004310f8 f i libucrt:atox.obj
 0001:000303c0       ??$parse_integer@_KV?$c_string_character_source@_W@__crt_strtox@@$00@__crt_strtox@@YA_KAAV__crt_cached_ptd_host@@V?$c_string_character_source@_W@0@H_N@Z 004313c0 f i libucrt:atox.obj
 0001:00030a46       ??$parse_integer_from_string@JD$$T@__crt_strtox@@YAJQBD$$THQAU__crt_locale_pointers@@@Z 00431a46 f i libucrt:atox.obj
 0001:00030a8d       ??$parse_integer_from_string@J_W$$T@__crt_strtox@@YAJQB_W$$THQAU__crt_locale_pointers@@@Z 00431a8d f i libucrt:atox.obj
 0001:00030ad4       ??$parse_integer_from_string@_JD$$T@__crt_strtox@@YA_JQBD$$THQAU__crt_locale_pointers@@@Z 00431ad4 f i libucrt:atox.obj
 0001:00030b21       ??$parse_integer_from_string@_J_W$$T@__crt_strtox@@YA_JQB_W$$THQAU__crt_locale_pointers@@@Z 00431b21 f i libucrt:atox.obj
 0001:00030b6e       ?is_space@__crt_strtox@@YA_NDQAU__crt_locale_pointers@@@Z 00431b6e f i libucrt:atox.obj
 0001:00030b8c       ?is_space@__crt_strtox@@YA_N_WPAU__crt_locale_pointers@@@Z 00431b8c f i libucrt:atox.obj
 0001:00030ba4       ?maximum_signed_value@__crt_strtox@@YA_J_K@Z 00431ba4 f i libucrt:atox.obj
 0001:00030bad       ?minimum_signed_value@__crt_strtox@@YA_J_K@Z 00431bad f i libucrt:atox.obj
 0001:00030bb5       ___acrt_get_locale_data_prefix 00431bb5 f i libucrt:atox.obj
 0001:00030bc1       __atoi64                   00431bc1 f   libucrt:atox.obj
 0001:00030c06       __atoi64_l                 00431c06 f   libucrt:atox.obj
 0001:00030c4c       __atoi_l                   00431c4c f   libucrt:atox.obj
 0001:00030c8c       __atol_l                   00431c8c f   libucrt:atox.obj
 0001:00030ccc       __atoll_l                  00431ccc f   libucrt:atox.obj
 0001:00030d12       __chvalidchk_l             00431d12 f i libucrt:atox.obj
 0001:00030d3a       __ischartype_l             00431d3a f i libucrt:atox.obj
 0001:00030d91       __wtoi                     00431d91 f   libucrt:atox.obj
 0001:00030dd0       __wtoi64                   00431dd0 f   libucrt:atox.obj
 0001:00030e15       __wtoi64_l                 00431e15 f   libucrt:atox.obj
 0001:00030e5b       __wtoi_l                   00431e5b f   libucrt:atox.obj
 0001:00030e9b       __wtol                     00431e9b f   libucrt:atox.obj
 0001:00030eda       __wtol_l                   00431eda f   libucrt:atox.obj
 0001:00030f1a       __wtoll                    00431f1a f   libucrt:atox.obj
 0001:00030f5f       __wtoll_l                  00431f5f f   libucrt:atox.obj
 0001:00030fa5       _atoi                      00431fa5 f   libucrt:atox.obj
 0001:00030fe4       _atol                      00431fe4 f   libucrt:atox.obj
 0001:00031023       _atoll                     00432023 f   libucrt:atox.obj
 0001:00031070       _strncmp                   00432070 f   libucrt:strncmp.obj
 0001:000310e8       _wcsncmp                   004320e8 f   libucrt:wcsncmp.obj
 0001:00031122       ??$__crt_fast_decode_pointer@P6AXPB_W00II@Z@@YAP6AXPB_W00II@ZQ6AX000II@Z@Z 00432122 f i libucrt:invalid_parameter.obj
 0001:00031138       ??$__crt_fast_encode_pointer@P6AXPB_W00II@Z@@YAP6AXPB_W00II@ZQ6AX000II@Z@Z 00432138 f i libucrt:invalid_parameter.obj
 0001:00031157       ??$initialize_from_array@$$BY00Q6AXPB_W00II@Z@?$dual_state_global@P6AXPB_W00II@Z@__crt_state_management@@QAAXAAY00Q6AXPB_W00II@Z@Z 00432157 f i libucrt:invalid_parameter.obj
 0001:00031168       ?check_synchronize_global_state_index@__crt_cached_ptd_host@@AAEIXZ 00432168 f i libucrt:invalid_parameter.obj
 0001:00031191       ?dangerous_get_state_array@?$dual_state_global@P6AXPB_W00II@Z@__crt_state_management@@QAEPAP6AXPB_W00II@ZXZ 00432191 f i libucrt:invalid_parameter.obj
 0001:00031194       ?get_current_global_state_index@__crt_cached_ptd_host@@QAEIXZ 00432194 f i libucrt:invalid_parameter.obj
 0001:00031199       ?get_raw_ptd_noexit@__crt_cached_ptd_host@@QAEPAU__acrt_ptd@@XZ 00432199 f i libucrt:invalid_parameter.obj
 0001:000311a4       ?try_synchronize_per_thread_data@__crt_cached_ptd_host@@AAEPAU__acrt_ptd@@XZ 004321a4 f i libucrt:invalid_parameter.obj
 0001:000311af       ?value@?$dual_state_global@P6AXPB_W00II@Z@__crt_state_management@@QAEAAP6AXPB_W00II@ZAAV__crt_cached_ptd_host@@@Z 004321af f i libucrt:invalid_parameter.obj
 0001:000311c7       ?value@?$dual_state_global@P6AXPB_W00II@Z@__crt_state_management@@QAEAAP6AXPB_W00II@ZXZ 004321c7 f i libucrt:invalid_parameter.obj
 0001:000311ca       ___acrt_call_reportfault   004321ca f   libucrt:invalid_parameter.obj
 0001:00031303       ___acrt_initialize_invalid_parameter_handler 00432303 f   libucrt:invalid_parameter.obj
 0001:00031312       __get_invalid_parameter_handler 00432312 f   libucrt:invalid_parameter.obj
 0001:00031325       __get_thread_local_invalid_parameter_handler 00432325 f   libucrt:invalid_parameter.obj
 0001:00031336       __invalid_parameter        00432336 f   libucrt:invalid_parameter.obj
 0001:0003136d       __invalid_parameter_internal 0043236d f   libucrt:invalid_parameter.obj
 0001:000313ea       __invalid_parameter_noinfo 004323ea f   libucrt:invalid_parameter.obj
 0001:000313fa       __invalid_parameter_noinfo_noreturn 004323fa f   libucrt:invalid_parameter.obj
 0001:00031417       __invoke_watson            00432417 f   libucrt:invalid_parameter.obj
 0001:0003144b       __set_invalid_parameter_handler 0043244b f   libucrt:invalid_parameter.obj
 0001:0003147b       __set_thread_local_invalid_parameter_handler 0043247b f   libucrt:invalid_parameter.obj
 0001:00031498       ?get_doserrno@__crt_cached_ptd_host@@QAEAAU?$cached@K@1@XZ 00432498 f i libucrt:errno.obj
 0001:0003149c       ?set@?$cached@K@__crt_cached_ptd_host@@QAEKK@Z 0043249c f i libucrt:errno.obj
 0001:000314ae       ___acrt_errno_from_os_error 004324ae f   libucrt:errno.obj
 0001:000314f1       ___acrt_errno_map_os_error 004324f1 f   libucrt:errno.obj
 0001:00031514       ___acrt_errno_map_os_error_ptd 00432514 f   libucrt:errno.obj
 0001:00031538       ___doserrno                00432538 f   libucrt:errno.obj
 0001:0003154b       __errno                    0043254b f   libucrt:errno.obj
 0001:0003155e       __get_doserrno             0043255e f   libucrt:errno.obj
 0001:00031583       __get_errno                00432583 f   libucrt:errno.obj
 0001:000315a8       __set_doserrno             004325a8 f   libucrt:errno.obj
 0001:000315c9       __set_errno                004325c9 f   libucrt:errno.obj
 0001:000315ea       __calloc_base              004325ea f   libucrt:calloc_base.obj
 0001:0003164d       __free_base                0043264d f   libucrt:free_base.obj
 0001:00031694       ??$?B$$A6GHPA_WKJ@Z@__crt_fast_encoded_nullptr_t@@QBEP6GHPA_WKJ@ZXZ 00432694 f i libucrt:winapi_thunks.obj
 0001:0003173c       ??$__crt_fast_decode_pointer@P6GHPA_WKJ@Z@@YAP6GHPA_WKJ@ZQ6GH0KJ@Z@Z 0043273c f i libucrt:winapi_thunks.obj
 0001:00031752       ??$__crt_fast_decode_pointer@PAX@@YAPAXQAX@Z 00432752 f i libucrt:winapi_thunks.obj
 0001:00031768       ??$__crt_fast_encode_pointer@P6GHPA_WKJ@Z@@YAP6GHPA_WKJ@ZQ6GH0KJ@Z@Z 00432768 f i libucrt:winapi_thunks.obj
 0001:00031df8       _GetCurrentThreadEffectiveToken 00432df8 f i libucrt:winapi_thunks.obj
 0001:00031dfc       ___acrt_AppPolicyGetProcessTerminationMethodInternal@4 00432dfc f   libucrt:winapi_thunks.obj
 0001:00031e3c       ___acrt_AppPolicyGetShowDeveloperDiagnosticInternal@4 00432e3c f   libucrt:winapi_thunks.obj
 0001:00031e7c       ___acrt_AppPolicyGetThreadInitializationTypeInternal@4 00432e7c f   libucrt:winapi_thunks.obj
 0001:00031ebc       ___acrt_AppPolicyGetWindowingModelInternal@4 00432ebc f   libucrt:winapi_thunks.obj
 0001:00031efc       ___acrt_AreFileApisANSI@0  00432efc f   libucrt:winapi_thunks.obj
 0001:00031f1b       ___acrt_CompareStringEx@36 00432f1b f   libucrt:winapi_thunks.obj
 0001:00031f78       ___acrt_EnumSystemLocalesEx@16 00432f78 f   libucrt:winapi_thunks.obj
 0001:00031fcc       ___acrt_FlsAlloc@4         00432fcc f   libucrt:winapi_thunks.obj
 0001:0003200b       ___acrt_FlsFree@4          0043300b f   libucrt:winapi_thunks.obj
 0001:0003204a       ___acrt_FlsGetValue@4      0043304a f   libucrt:winapi_thunks.obj
 0001:00032089       ___acrt_FlsSetValue@8      00433089 f   libucrt:winapi_thunks.obj
 0001:000320cb       ___acrt_GetDateFormatEx@28 004330cb f   libucrt:winapi_thunks.obj
 0001:00032122       ___acrt_GetEnabledXStateFeatures@0 00433122 f   libucrt:winapi_thunks.obj
 0001:00032156       ___acrt_GetLocaleInfoEx@16 00433156 f   libucrt:winapi_thunks.obj
 0001:00032195       ___acrt_GetSystemTimePreciseAsFileTime@4 00433195 f   libucrt:winapi_thunks.obj
 0001:000321d4       ___acrt_GetTimeFormatEx@24 004331d4 f   libucrt:winapi_thunks.obj
 0001:00032219       ___acrt_GetUserDefaultLocaleName@8 00433219 f   libucrt:winapi_thunks.obj
 0001:00032255       ___acrt_GetXStateFeaturesMask@8 00433255 f   libucrt:winapi_thunks.obj
 0001:00032295       ___acrt_InitializeCriticalSectionEx@12 00433295 f   libucrt:winapi_thunks.obj
 0001:000322e0       ___acrt_IsValidLocaleName@4 004332e0 f   libucrt:winapi_thunks.obj
 0001:00032318       ___acrt_LCIDToLocaleName@16 00433318 f   libucrt:winapi_thunks.obj
 0001:00032357       ___acrt_LCMapStringEx@36   00433357 f   libucrt:winapi_thunks.obj
 0001:000323b4       ___acrt_LocaleNameToLCID@8 004333b4 f   libucrt:winapi_thunks.obj
 0001:000323e5       ___acrt_LocateXStateFeature@12 004333e5 f   libucrt:winapi_thunks.obj
 0001:00032414       ___acrt_MessageBoxA@16     00433414 f   libucrt:winapi_thunks.obj
 0001:00032446       ___acrt_MessageBoxW@16     00433446 f   libucrt:winapi_thunks.obj
 0001:00032478       ___acrt_RoInitialize@4     00433478 f   libucrt:winapi_thunks.obj
 0001:000324b3       ___acrt_RoUninitialize@0   004334b3 f   libucrt:winapi_thunks.obj
 0001:000324e1       ___acrt_RtlGenRandom@8     004334e1 f   libucrt:winapi_thunks.obj
 0001:00032521       ___acrt_SetThreadStackGuarantee@4 00433521 f   libucrt:winapi_thunks.obj
 0001:0003255c       ___acrt_can_show_message_box 0043355c f   libucrt:winapi_thunks.obj
 0001:00032583       ___acrt_can_use_vista_locale_apis 00433583 f   libucrt:winapi_thunks.obj
 0001:0003258e       ___acrt_can_use_xstate_apis 0043358e f   libucrt:winapi_thunks.obj
 0001:00032599       ___acrt_eagerly_load_locale_apis 00433599 f   libucrt:winapi_thunks.obj
 0001:000325d0       ___acrt_get_parent_window  004335d0 f   libucrt:winapi_thunks.obj
 0001:00032638       ___acrt_initialize_winapi_thunks 00433638 f   libucrt:winapi_thunks.obj
 0001:0003264c       ___acrt_is_interactive     0043364c f   libucrt:winapi_thunks.obj
 0001:000326eb       ___acrt_uninitialize_winapi_thunks 004336eb f   libucrt:winapi_thunks.obj
 0001:00032721       ??0__crt_stdio_stream@@QAE@QAU__crt_stdio_stream_data@@@Z 00433721 f i libucrt:closeall.obj
 0001:00032731       __fcloseall                00433731 f   libucrt:closeall.obj
 0001:00032b9c       ?__acrt_stdio_reset_buffer@@YAXV__crt_stdio_stream@@@Z 00433b9c f i libucrt:fflush.obj
 0001:00032c7e       ?has_all_of@__crt_stdio_stream@@QBE_NJ@Z 00433c7e f i libucrt:fflush.obj
 0001:00032ce6       ?set_flags@__crt_stdio_stream@@QBE_NJ@Z 00433ce6 f i libucrt:fflush.obj
 0001:00032d0a       ?unset_flags@__crt_stdio_stream@@QBE_NJ@Z 00433d0a f i libucrt:fflush.obj
 0001:00032d33       ___acrt_stdio_flush_nolock 00433d33 f   libucrt:fflush.obj
 0001:00032d9c       __fflush_nolock            00433d9c f   libucrt:fflush.obj
 0001:00032e01       __flushall                 00433e01 f   libucrt:fflush.obj
 0001:00032e0a       _fflush                    00433e0a f   libucrt:fflush.obj
 0001:00032e5f       ?has_any_of@__crt_stdio_stream@@QBE_NJ@Z 00433e5f f i libucrt:_freebuf.obj
 0001:00032e74       ?has_crt_buffer@__crt_stdio_stream@@QBE_NXZ 00433e74 f i libucrt:_freebuf.obj
 0001:00032e80       ___acrt_stdio_free_buffer_nolock 00433e80 f   libucrt:_freebuf.obj
 0001:00033048       ___acrt_initialize_lowio   00434048 f   libucrt:ioinit.obj
 0001:000330a8       ___acrt_uninitialize_lowio 004340a8 f   libucrt:ioinit.obj
 0001:000330d4       ?lowio_handle@__crt_stdio_stream@@QBEHXZ 004340d4 f i libucrt:fileno.obj
 0001:000330db       __fileno                   004340db f   libucrt:fileno.obj
 0001:000332af       __close                    004342af f   libucrt:close.obj
 0001:000332df       __close_internal           004342df f   libucrt:close.obj
 0001:00033382       __close_nolock             00434382 f   libucrt:close.obj
 0001:000333b2       __close_nolock_internal    004343b2 f   libucrt:close.obj
 0001:00033452       ??$?RU__crt_stdio_stream_data@@@__crt_internal_free_policy@@QBEXQBU__crt_stdio_stream_data@@@Z 00434452 f i libucrt:stream.obj
 0001:00033464       ??0?$__crt_unique_heap_ptr@U__crt_stdio_stream_data@@U__crt_internal_free_policy@@@@QAE@QAU__crt_stdio_stream_data@@@Z 00434464 f i libucrt:stream.obj
 0001:00033474       ??0__crt_stdio_stream@@QAE@XZ 00434474 f i libucrt:stream.obj
 0001:0003347a       ??1?$__crt_unique_heap_ptr@U__crt_stdio_stream_data@@U__crt_internal_free_policy@@@@QAE@XZ 0043447a f i libucrt:stream.obj
 0001:0003348c       ?__acrt_stdio_allocate_stream@@YA?AV__crt_stdio_stream@@XZ 0043448c f   libucrt:stream.obj
 0001:000334f5       ?__acrt_stdio_free_stream@@YAXV__crt_stdio_stream@@@Z 004344f5 f   libucrt:stream.obj
 0001:00033530       ?deallocate@__crt_stdio_stream@@QAEXXZ 00434530 f i libucrt:stream.obj
 0001:0003353a       ?detach@?$__crt_unique_heap_ptr@U__crt_stdio_stream_data@@U__crt_internal_free_policy@@@@QAEPAU__crt_stdio_stream_data@@XZ 0043453a f i libucrt:stream.obj
 0001:00033602       ?lock@__crt_stdio_stream@@QBEXXZ 00434602 f i libucrt:stream.obj
 0001:0003360b       ?release@?$__crt_unique_heap_ptr@U__crt_stdio_stream_data@@U__crt_internal_free_policy@@@@QAEXXZ 0043460b f i libucrt:stream.obj
 0001:0003361d       ?try_allocate@__crt_stdio_stream@@QAE_NXZ 0043461d f i libucrt:stream.obj
 0001:0003363d       ??$?RU__acrt_ptd@@@__crt_internal_free_policy@@QBEXQBU__acrt_ptd@@@Z 0043463d f i libucrt:per_thread_data.obj
 0001:00033929       ??0?$__crt_unique_heap_ptr@U__acrt_ptd@@U__crt_internal_free_policy@@@@QAE@QAU__acrt_ptd@@@Z 00434929 f i libucrt:per_thread_data.obj
 0001:00033939       ??1?$__crt_unique_heap_ptr@U__acrt_ptd@@U__crt_internal_free_policy@@@@QAE@XZ 00434939 f i libucrt:per_thread_data.obj
 0001:0003394b       ??B?$__crt_unique_heap_ptr@U__acrt_ptd@@U__crt_internal_free_policy@@@@QBE_NXZ 0043494b f i libucrt:per_thread_data.obj
 0001:00033a99       ?dangerous_get_state_array@?$dual_state_global@PAU__crt_locale_data@@@__crt_state_management@@QAEPAPAU__crt_locale_data@@XZ 00434a99 f i libucrt:per_thread_data.obj
 0001:00033b8f       ?detach@?$__crt_unique_heap_ptr@U__acrt_ptd@@U__crt_internal_free_policy@@@@QAEPAU__acrt_ptd@@XZ 00434b8f f i libucrt:per_thread_data.obj
 0001:00033b95       ?get@?$__crt_unique_heap_ptr@U__acrt_ptd@@U__crt_internal_free_policy@@@@QBEPAU__acrt_ptd@@XZ 00434b95 f i libucrt:per_thread_data.obj
 0001:00033d7a       ?is_valid@?$__crt_unique_heap_ptr@U__acrt_ptd@@U__crt_internal_free_policy@@@@QBE_NXZ 00434d7a f i libucrt:per_thread_data.obj
 0001:00033d81       ?release@?$__crt_unique_heap_ptr@U__acrt_ptd@@U__crt_internal_free_policy@@@@QAEXXZ 00434d81 f i libucrt:per_thread_data.obj
 0001:00033df5       ___acrt_freeptd            00434df5 f   libucrt:per_thread_data.obj
 0001:00033e21       ___acrt_getptd             00434e21 f   libucrt:per_thread_data.obj
 0001:00033edc       ___acrt_getptd_head        00434edc f   libucrt:per_thread_data.obj
 0001:00033f72       ___acrt_getptd_noexit      00434f72 f   libucrt:per_thread_data.obj
 0001:00034023       ___acrt_getptd_noexit_explicit 00435023 f   libucrt:per_thread_data.obj
 0001:000340c6       ___acrt_initialize_ptd     004350c6 f   libucrt:per_thread_data.obj
 0001:000340f2       ___acrt_uninitialize_ptd   004350f2 f   libucrt:per_thread_data.obj
 0001:0003410c       ___threadhandle            0043510c f   libucrt:per_thread_data.obj
 0001:00034112       ___threadid                00435112 f   libucrt:per_thread_data.obj
 0001:00034118       ___p___mb_cur_max          00435118 f   libucrt:nlsdata.obj
 0001:0003413d       __fgetwc_nolock            0043513d f   libucrt:fgetwc.obj
 0001:000342ad       __fgetwchar                004352ad f   libucrt:fgetwc.obj
 0001:000342bd       __getwc_nolock             004352bd f   libucrt:fgetwc.obj
 0001:000342c8       _fgetwc                    004352c8 f   libucrt:fgetwc.obj
 0001:0003433f       _getwc                     0043533f f   libucrt:fgetwc.obj
 0001:0003434a       _getwchar                  0043534a f   libucrt:fgetwc.obj
 0001:0003434f       __fgetc_nolock             0043534f f   libucrt:fgetc.obj
 0001:0003438b       __fgetchar                 0043538b f   libucrt:fgetc.obj
 0001:0003439b       __getc_nolock              0043539b f   libucrt:fgetc.obj
 0001:000343a6       _fgetc                     004353a6 f   libucrt:fgetc.obj
 0001:000344b2       _getc                      004354b2 f   libucrt:fgetc.obj
 0001:000344bd       _getchar                   004354bd f   libucrt:fgetc.obj
 0001:000344c2       ??$__acrt_stdio_parse_mode@D@@YA?AU__acrt_stdio_stream_mode@@QBD@Z 004354c2 f i libucrt:openfile.obj
 0001:000346ec       ??$__acrt_stdio_parse_mode@_W@@YA?AU__acrt_stdio_stream_mode@@QB_W@Z 004356ec f i libucrt:openfile.obj
 0001:00034a5d       ??$tcsncmp@AAPBDAAY02$$CBDI@?$__crt_char_traits@D@@SAHAAPBDAAY02$$CBD$$QAI@Z 00435a5d f i libucrt:openfile.obj
 0001:00034a79       ??$tcsncmp@AAPB_WAAY02$$CB_WI@?$__crt_char_traits@_W@@SAHAAPB_WAAY02$$CB_W$$QAI@Z 00435a79 f i libucrt:openfile.obj
 0001:00034a95       ??$tcsnicmp@AAPBDAAY04$$CBDI@?$__crt_char_traits@D@@SAHAAPBDAAY04$$CBD$$QAI@Z 00435a95 f i libucrt:openfile.obj
 0001:00034ab1       ??$tcsnicmp@AAPBDAAY06$$CBDI@?$__crt_char_traits@D@@SAHAAPBDAAY06$$CBD$$QAI@Z 00435ab1 f i libucrt:openfile.obj
 0001:00034acd       ??$tcsnicmp@AAPBDAAY07$$CBDI@?$__crt_char_traits@D@@SAHAAPBDAAY07$$CBD$$QAI@Z 00435acd f i libucrt:openfile.obj
 0001:00034ae9       ??$tcsnicmp@AAPB_WAAY04$$CB_WI@?$__crt_char_traits@_W@@SAHAAPB_WAAY04$$CB_W$$QAI@Z 00435ae9 f i libucrt:openfile.obj
 0001:00034b05       ??$tcsnicmp@AAPB_WAAY06$$CB_WI@?$__crt_char_traits@_W@@SAHAAPB_WAAY06$$CB_W$$QAI@Z 00435b05 f i libucrt:openfile.obj
 0001:00034b21       ??$tcsnicmp@AAPB_WAAY07$$CB_WI@?$__crt_char_traits@_W@@SAHAAPB_WAAY07$$CB_W$$QAI@Z 00435b21 f i libucrt:openfile.obj
 0001:00034b3d       ??$tsopen_s@PAHABQBDABHABHH@?$__crt_char_traits@D@@SAH$$QAPAHABQBDABH2$$QAH@Z 00435b3d f i libucrt:openfile.obj
 0001:00034b65       ??$tsopen_s@PAHABQB_WABHABHH@?$__crt_char_traits@_W@@SAH$$QAPAHABQB_WABH2$$QAH@Z 00435b65 f i libucrt:openfile.obj
 0001:00034b8d       ?__acrt_stdio_parse_mode_D@@YA_NAAU__acrt_stdio_stream_mode@@@Z 00435b8d f i libucrt:openfile.obj
 0001:00034ba8       ?__acrt_stdio_parse_mode_N@@YA_NAAU__acrt_stdio_stream_mode@@@Z 00435ba8 f i libucrt:openfile.obj
 0001:00034bba       ?__acrt_stdio_parse_mode_R@@YA_NAAU__acrt_stdio_stream_mode@@AA_N@Z 00435bba f i libucrt:openfile.obj
 0001:00034bd8       ?__acrt_stdio_parse_mode_S@@YA_NAAU__acrt_stdio_stream_mode@@AA_N@Z 00435bd8 f i libucrt:openfile.obj
 0001:00034bf6       ?__acrt_stdio_parse_mode_T@@YA_NAAU__acrt_stdio_stream_mode@@@Z 00435bf6 f i libucrt:openfile.obj
 0001:00034c15       ?__acrt_stdio_parse_mode_b@@YA_NAAU__acrt_stdio_stream_mode@@@Z 00435c15 f i libucrt:openfile.obj
 0001:00034c35       ?__acrt_stdio_parse_mode_c@@YA_NAAU__acrt_stdio_stream_mode@@AA_N@Z 00435c35 f i libucrt:openfile.obj
 0001:00034c57       ?__acrt_stdio_parse_mode_n@@YA_NAAU__acrt_stdio_stream_mode@@AA_N@Z 00435c57 f i libucrt:openfile.obj
 0001:00034c79       ?__acrt_stdio_parse_mode_plus@@YA_NAAU__acrt_stdio_stream_mode@@AA_N@Z 00435c79 f i libucrt:openfile.obj
 0001:00034caf       ?__acrt_stdio_parse_mode_t@@YA_NAAU__acrt_stdio_stream_mode@@@Z 00435caf f i libucrt:openfile.obj
 0001:00034ccf       ?__acrt_stdio_parse_mode_x@@YA_NAAU__acrt_stdio_stream_mode@@@Z 00435ccf f i libucrt:openfile.obj
 0001:00034cef       __openfile                 00435cef f   libucrt:openfile.obj
 0001:00034cfa       __wopenfile                00435cfa f   libucrt:openfile.obj
 0001:00034d05       __malloc_base              00435d05 f   libucrt:malloc_base.obj
 0001:0003554e       ??1?$__crt_simd_cleanup_guard@$00@@QAE@XZ 0043654e f i libucrt:strnlen.obj
 0001:00035552       ??1?$__crt_simd_cleanup_guard@$0A@@@QAE@XZ 00436552 f i libucrt:strnlen.obj
 0001:00035555       ?compare_equals@?$__crt_simd_traits@$00E@@SA?AT__m256i@@T2@0@Z 00436555 f i libucrt:strnlen.obj
 0001:0003555a       ?compare_equals@?$__crt_simd_traits@$00G@@SA?AT__m256i@@T2@0@Z 0043655a f i libucrt:strnlen.obj
 0001:0003555f       ?compare_equals@?$__crt_simd_traits@$0A@E@@SA?AT__m128i@@T2@0@Z 0043655f f i libucrt:strnlen.obj
 0001:00035564       ?compare_equals@?$__crt_simd_traits@$0A@G@@SA?AT__m128i@@T2@0@Z 00436564 f i libucrt:strnlen.obj
 0001:00035569       ?compute_byte_mask@?$__crt_simd_pack_traits@$00@@SAHT__m256i@@@Z 00436569 f i libucrt:strnlen.obj
 0001:0003556e       ?compute_byte_mask@?$__crt_simd_pack_traits@$0A@@@SAHT__m128i@@@Z 0043656e f i libucrt:strnlen.obj
 0001:00035573       ?get_zero_pack@?$__crt_simd_pack_traits@$00@@SA?AT__m256i@@XZ 00436573 f i libucrt:strnlen.obj
 0001:00035578       ?get_zero_pack@?$__crt_simd_pack_traits@$0A@@@SA?AT__m128i@@XZ 00436578 f i libucrt:strnlen.obj
 0001:0003557c       _strnlen                   0043657c f   libucrt:strnlen.obj
 0001:0003569e       _wcslen                    0043669e f   libucrt:strnlen.obj
 0001:000357c6       _wcsnlen                   004367c6 f   libucrt:strnlen.obj
 0001:00035976       ?value@?$dual_state_global@PAU__crt_multibyte_data@@@__crt_state_management@@QAEAAPAU__crt_multibyte_data@@XZ 00436976 f i libucrt:locale_update.obj
 0001:00035979       ?value_explicit@?$dual_state_global@PAU__crt_locale_data@@@__crt_state_management@@QAEAAPAU__crt_locale_data@@I@Z 00436979 f i libucrt:locale_update.obj
 0001:00035988       ?value_explicit@?$dual_state_global@PAU__crt_multibyte_data@@@__crt_state_management@@QAEAAPAU__crt_multibyte_data@@I@Z 00436988 f i libucrt:locale_update.obj
 0001:00035997       ___acrt_should_sync_with_global_locale 00436997 f i libucrt:locale_update.obj
 0001:000359b3       ___acrt_update_locale_info 004369b3 f   libucrt:locale_update.obj
 0001:000359e0       ___acrt_update_locale_info_explicit 004369e0 f   libucrt:locale_update.obj
 0001:00035a11       ___acrt_update_multibyte_info 00436a11 f   libucrt:locale_update.obj
 0001:00035a3e       ___acrt_update_multibyte_info_explicit 00436a3e f   libucrt:locale_update.obj
 0001:00035a6f       ?__acrt_fp_classify@@YA?AW4__acrt_fp_class@@ABN@Z 00436a6f f i libucrt:cvt.obj
 0001:00035ad1       ?__acrt_fp_is_negative@@YA_NABN@Z 00436ad1 f i libucrt:cvt.obj
 0001:00036451       ?strrchr@@YAPADQADH@Z      00437451 f i libucrt:cvt.obj
 0001:0003645c       ___acrt_fp_format          0043745c f   libucrt:cvt.obj
 0001:000365dd       ?value_or@?$cached@H@__crt_cached_ptd_host@@QBEHH@Z 004375dd f i libucrt:wctomb.obj
 0001:000365f3       __wctomb_internal          004375f3 f   libucrt:wctomb.obj
 0001:0003675d       __wctomb_l                 0043775d f   libucrt:wctomb.obj
 0001:000367b8       __wctomb_s_l               004377b8 f   libucrt:wctomb.obj
 0001:000367f3       _wctomb                    004377f3 f   libucrt:wctomb.obj
 0001:0003683f       _wctomb_s                  0043783f f   libucrt:wctomb.obj
 0001:00036879       __mbtowc_internal          00437879 f   libucrt:mbtowc.obj
 0001:000369ac       __mbtowc_l                 004379ac f   libucrt:mbtowc.obj
 0001:000369e4       _mbtowc                    004379e4 f   libucrt:mbtowc.obj
 0001:00036a1b       __get_printf_count_output  00437a1b f   libucrt:printf_count_output.obj
 0001:00036a30       __set_printf_count_output  00437a30 f   libucrt:printf_count_output.obj
 0001:00036b1e       __fputwc_nolock            00437b1e f   libucrt:fputwc.obj
 0001:00036b54       __fputwc_nolock_internal   00437b54 f   libucrt:fputwc.obj
 0001:00036c8c       __fputwchar                00437c8c f   libucrt:fputwc.obj
 0001:00036ca6       __putwc_nolock             00437ca6 f   libucrt:fputwc.obj
 0001:00036cb1       _fputwc                    00437cb1 f   libucrt:fputwc.obj
 0001:00036ce7       _putwc                     00437ce7 f   libucrt:fputwc.obj
 0001:00036cf2       _putwchar                  00437cf2 f   libucrt:fputwc.obj
 0001:00036e2a       __fputc_nolock             00437e2a f   libucrt:fputc.obj
 0001:00036e5e       __fputc_nolock_internal    00437e5e f   libucrt:fputc.obj
 0001:00036e8b       __fputchar                 00437e8b f   libucrt:fputc.obj
 0001:00036ea5       __putc_nolock              00437ea5 f   libucrt:fputc.obj
 0001:00036eb0       _fputc                     00437eb0 f   libucrt:fputc.obj
 0001:00036ee4       _putc                      00437ee4 f   libucrt:fputc.obj
 0001:00036eef       _putchar                   00437eef f   libucrt:fputc.obj
 0001:00036efa       ?has_any_buffer@__crt_stdio_stream@@QBE_NXZ 00437efa f i libucrt:_sftbuf.obj
 0001:00036f09       ?has_temporary_buffer@__crt_stdio_stream@@QBE_NXZ 00437f09 f i libucrt:_sftbuf.obj
 0001:00036f15       ___acrt_should_use_temporary_buffer 00437f15 f   libucrt:_sftbuf.obj
 0001:00036f50       ___acrt_stdio_begin_temporary_buffering_nolock 00437f50 f   libucrt:_sftbuf.obj
 0001:00036ffc       ___acrt_stdio_end_temporary_buffering_nolock 00437ffc f   libucrt:_sftbuf.obj
 0001:000370a2       ___acrt_MultiByteToWideChar 004380a2 f   libucrt:multibytetowidechar.obj
 0001:00037183       ___acrt_WideCharToMultiByte 00438183 f   libucrt:widechartomultibyte.obj
 0001:00037265       __chdrive                  00438265 f   libucrt:drive.obj
 0001:000372e3       __getdrive                 004382e3 f   libucrt:drive.obj
 0001:00037387       ??0?$__crt_scoped_stack_ptr@_W@@QAE@U?$__crt_scoped_stack_ptr_tag@_W@@@Z 00438387 f i libucrt:lcmapstringa.obj
 0001:00037397       ??0?$__crt_scoped_stack_ptr_tag@_W@@QAE@QA_W@Z 00438397 f i libucrt:lcmapstringa.obj
 0001:000373a7       ??1?$__crt_scoped_stack_ptr@_W@@QAE@XZ 004383a7 f i libucrt:lcmapstringa.obj
 0001:000373b0       ??B?$__crt_scoped_stack_ptr@_W@@QBE_NXZ 004383b0 f i libucrt:lcmapstringa.obj
 0001:000375a5       ?get@?$__crt_scoped_stack_ptr@_W@@QBEPA_WXZ 004385a5 f i libucrt:lcmapstringa.obj
 0001:000375a8       ___acrt_LCMapStringA       004385a8 f   libucrt:lcmapstringa.obj
 0001:000375f1       __set_error_mode           004385f1 f   libucrt:set_error_mode.obj
 0001:000376a8       _wcscat_s                  004386a8 f   libucrt:wcscat_s.obj
 0001:00037717       _wcscpy_s                  00438717 f   libucrt:wcscpy_s.obj
 0001:00037849       _wcsncpy_s                 00438849 f   libucrt:wcsncpy_s.obj
 0001:0003794f       ??$message_box@$$TABQBDABQBDK@?$__crt_char_traits@D@@SAH$$QA$$TABQBD1$$QAK@Z 0043894f f i libucrt:crtmbox.obj
 0001:0003796f       ??$message_box@$$TABQB_WABQB_WK@?$__crt_char_traits@_W@@SAH$$QA$$TABQB_W1$$QAK@Z 0043896f f i libucrt:crtmbox.obj
 0001:0003798f       ??$message_box@PAUHWND__@@ABQBDABQBDABI@?$__crt_char_traits@D@@SAH$$QAPAUHWND__@@ABQBD1ABI@Z 0043898f f i libucrt:crtmbox.obj
 0001:000379af       ??$message_box@PAUHWND__@@ABQB_WABQB_WABI@?$__crt_char_traits@_W@@SAH$$QAPAUHWND__@@ABQB_W1ABI@Z 004389af f i libucrt:crtmbox.obj
 0001:000379cf       ??$output_debug_string@ABQBD@?$__crt_char_traits@D@@SAXABQBD@Z 004389cf f i libucrt:crtmbox.obj
 0001:000379e0       ??$output_debug_string@ABQB_W@?$__crt_char_traits@_W@@SAXABQB_W@Z 004389e0 f i libucrt:crtmbox.obj
 0001:000379f2       ___acrt_show_narrow_message_box 004389f2 f   libucrt:crtmbox.obj
 0001:000379fd       ___acrt_show_wide_message_box 004389fd f   libucrt:crtmbox.obj
 0001:00037a38       ??$__acrt_convert_wcs_mbs_cp@_WDV<lambda_28bda7af82a03b66c1cb3803a755f95d>@@U__crt_win32_buffer_internal_dynamic_resizing@@@@YAHQB_WAAV?$__crt_win32_buffer@DU__crt_win32_buffer_internal_dynamic_resizing@@@@ABV<lambda_28bda7af82a03b66c1cb3803a755f95d>@@I@Z 00438a38 f i libucrt:argv_wildcards.obj
 0001:00037afe       ??$__acrt_wcs_to_mbs_cp@U__crt_win32_buffer_internal_dynamic_resizing@@@@YAHQB_WAAV?$__crt_win32_buffer@DU__crt_win32_buffer_internal_dynamic_resizing@@@@I@Z 00438afe f i libucrt:argv_wildcards.obj
 0001:000383b0       ??$tcslen@ABQBD@?$__crt_char_traits@D@@SAIABQBD@Z 004393b0 f i libucrt:argv_wildcards.obj
 0001:000383c8       ??$tcslen@ABQB_W@?$__crt_char_traits@_W@@SAIABQB_W@Z 004393c8 f i libucrt:argv_wildcards.obj
 0001:000383e6       ??$tcsncpy_s@AAPADIAAPADABI@?$__crt_char_traits@D@@SAHAAPAD$$QAI0ABI@Z 004393e6 f i libucrt:argv_wildcards.obj
 0001:00038409       ??$tcsncpy_s@AAPA_WIAAPA_WABI@?$__crt_char_traits@_W@@SAHAAPA_W$$QAI0ABI@Z 00439409 f i libucrt:argv_wildcards.obj
 0001:0003842c       ??$tcsncpy_s@PADABIABQBDABI@?$__crt_char_traits@D@@SAH$$QAPADABIABQBD1@Z 0043942c f i libucrt:argv_wildcards.obj
 0001:0003844f       ??$tcsncpy_s@PADIABQBDABI@?$__crt_char_traits@D@@SAH$$QAPAD$$QAIABQBDABI@Z 0043944f f i libucrt:argv_wildcards.obj
 0001:00038472       ??$tcsncpy_s@PA_WABIABQB_WABI@?$__crt_char_traits@_W@@SAH$$QAPA_WABIABQB_W1@Z 00439472 f i libucrt:argv_wildcards.obj
 0001:00038495       ??$tcsncpy_s@PA_WIABQB_WABI@?$__crt_char_traits@_W@@SAH$$QAPA_W$$QAIABQB_WABI@Z 00439495 f i libucrt:argv_wildcards.obj
 0001:000384b8       ??$tcspbrk@AAPADAAY02$$CBD@?$__crt_char_traits@D@@SAPADAAPADAAY02$$CBD@Z 004394b8 f i libucrt:argv_wildcards.obj
 0001:000384ce       ??$tcspbrk@AAPA_WAAY02$$CB_W@?$__crt_char_traits@_W@@SAPA_WAAPA_WAAY02$$CB_W@Z 004394ce f i libucrt:argv_wildcards.obj
 0001:000384e4       ??0?$__crt_unique_handle_t@U__crt_findfile_traits@@@@QAE@QAX@Z 004394e4 f i libucrt:argv_wildcards.obj
 0001:000384f4       ??0?$__crt_win32_buffer@DU__crt_win32_buffer_internal_dynamic_resizing@@@@QAE@XZ 004394f4 f i libucrt:argv_wildcards.obj
 0001:0003850a       ??0?$__crt_win32_buffer@_WU__crt_win32_buffer_internal_dynamic_resizing@@@@QAE@XZ 0043950a f i libucrt:argv_wildcards.obj
 0001:0003853a       ??1?$__crt_unique_handle_t@U__crt_findfile_traits@@@@QAE@XZ 0043953a f i libucrt:argv_wildcards.obj
 0001:00038551       ??1?$__crt_win32_buffer@DU__crt_win32_buffer_internal_dynamic_resizing@@@@QAE@XZ 00439551 f i libucrt:argv_wildcards.obj
 0001:000385b4       ??R<lambda_28bda7af82a03b66c1cb3803a755f95d>@@QBEHIQB_WQADI@Z 004395b4 f i libucrt:argv_wildcards.obj
 0001:0003864e       ?_deallocate@?$__crt_win32_buffer@DU__crt_win32_buffer_internal_dynamic_resizing@@@@AAEXXZ 0043964e f i libucrt:argv_wildcards.obj
 0001:00038668       ?allocate@?$__crt_win32_buffer@DU__crt_win32_buffer_internal_dynamic_resizing@@@@QAEHI@Z 00439668 f i libucrt:argv_wildcards.obj
 0001:00038714       ?capacity@?$__crt_win32_buffer@DU__crt_win32_buffer_internal_dynamic_resizing@@@@QBEIXZ 00439714 f i libucrt:argv_wildcards.obj
 0001:00038718       ?close@?$__crt_unique_handle_t@U__crt_findfile_traits@@@@QAEXXZ 00439718 f i libucrt:argv_wildcards.obj
 0001:0003872f       ?close@__crt_findfile_traits@@SA_NPAX@Z 0043972f f i libucrt:argv_wildcards.obj
 0001:00038744       ?data@?$__crt_win32_buffer@DU__crt_win32_buffer_internal_dynamic_resizing@@@@QAEPADXZ 00439744 f i libucrt:argv_wildcards.obj
 0001:00038748       ?debug_info@?$__crt_win32_buffer@DU__crt_win32_buffer_internal_dynamic_resizing@@@@QBEABV__crt_win32_buffer_empty_debug_info@@XZ 00439748 f i libucrt:argv_wildcards.obj
 0001:00038861       ?get@?$__crt_unique_handle_t@U__crt_findfile_traits@@@@QBEPAXXZ 00439861 f i libucrt:argv_wildcards.obj
 0001:00038897       ?get_invalid_value@__crt_findfile_traits@@SAPAXXZ 00439897 f i libucrt:argv_wildcards.obj
 0001:000388e6       ?set_to_nullptr@?$__crt_win32_buffer@DU__crt_win32_buffer_internal_dynamic_resizing@@@@QAEXXZ 004398e6 f i libucrt:argv_wildcards.obj
 0001:000388fd       ?size@?$__crt_win32_buffer@DU__crt_win32_buffer_internal_dynamic_resizing@@@@QAEXI@Z 004398fd f i libucrt:argv_wildcards.obj
 0001:0003891e       ?strpbrk@@YAPADQADQBD@Z    0043991e f i libucrt:argv_wildcards.obj
 0001:00038929       ?wcspbrk@@YAPA_WPA_WPB_W@Z 00439929 f i libucrt:argv_wildcards.obj
 0001:00038934       ___acrt_expand_narrow_argv_wildcards 00439934 f   libucrt:argv_wildcards.obj
 0001:0003893f       ___acrt_expand_wide_argv_wildcards 0043993f f   libucrt:argv_wildcards.obj
 0001:0003894a       ?size@?$__crt_win32_buffer@DU__crt_win32_buffer_no_resizing@@@@QBEIXZ 0043994a f i libucrt:getmodulefilenamea.obj
 0001:0003894e       ___acrt_GetModuleFileNameA 0043994e f   libucrt:getmodulefilenamea.obj
 0001:00038a62       ??$initialize_from_array@$$BY10BAA@E@?$dual_state_global@PAE@__crt_state_management@@QAAXAAY10BAA@E@Z 00439a62 f i libucrt:mbctype.obj
 0001:00038a71       ??$initialize_from_array@$$BY10BAB@E@?$dual_state_global@PAE@__crt_state_management@@QAAXAAY10BAB@E@Z 00439a71 f i libucrt:mbctype.obj
 0001:00038b8d       ?dangerous_get_state_array@?$dual_state_global@PAE@__crt_state_management@@QAEPAPAEXZ 00439b8d f i libucrt:mbctype.obj
 0001:00038b90       ?dangerous_get_state_array@?$dual_state_global@PAU__crt_multibyte_data@@@__crt_state_management@@QAEPAPAU__crt_multibyte_data@@XZ 00439b90 f i libucrt:mbctype.obj
 0001:00038c04       ?initialize@?$dual_state_global@PAU__crt_multibyte_data@@@__crt_state_management@@QAEXQAU__crt_multibyte_data@@@Z 00439c04 f i libucrt:mbctype.obj
 0001:00039024       ?value@?$dual_state_global@PAE@__crt_state_management@@QAEAAPAEXZ 0043a024 f i libucrt:mbctype.obj
 0001:00039027       ___acrt_initialize_multibyte 0043a027 f   libucrt:mbctype.obj
 0001:0003906f       ___acrt_update_thread_multibyte_data 0043a06f f   libucrt:mbctype.obj
 0001:00039082       ___p__mbcasemap            0043a082 f   libucrt:mbctype.obj
 0001:00039088       ___p__mbctype              0043a088 f   libucrt:mbctype.obj
 0001:0003908e       __getmbcp                  0043a08e f   libucrt:mbctype.obj
 0001:000390c2       __setmbcp                  0043a0c2 f   libucrt:mbctype.obj
 0001:000390e1       __setmbcp_nolock           0043a0e1 f   libucrt:mbctype.obj
 0001:000393ba       __ismbbalnum               0043a3ba f   libucrt:ismbbyte.obj
 0001:000393d5       __ismbbalnum_l             0043a3d5 f   libucrt:ismbbyte.obj
 0001:000393f1       __ismbbalpha               0043a3f1 f   libucrt:ismbbyte.obj
 0001:0003940c       __ismbbalpha_l             0043a40c f   libucrt:ismbbyte.obj
 0001:00039428       __ismbbblank               0043a428 f   libucrt:ismbbyte.obj
 0001:0003944b       __ismbbblank_l             0043a44b f   libucrt:ismbbyte.obj
 0001:0003946f       __ismbbgraph               0043a46f f   libucrt:ismbbyte.obj
 0001:0003948a       __ismbbgraph_l             0043a48a f   libucrt:ismbbyte.obj
 0001:000394a6       __ismbbkalnum              0043a4a6 f   libucrt:ismbbyte.obj
 0001:000394be       __ismbbkalnum_l            0043a4be f   libucrt:ismbbyte.obj
 0001:000394d7       __ismbbkana                0043a4d7 f   libucrt:ismbbyte.obj
 0001:000394ea       __ismbbkana_l              0043a4ea f   libucrt:ismbbyte.obj
 0001:00039539       __ismbbkprint              0043a539 f   libucrt:ismbbyte.obj
 0001:00039551       __ismbbkprint_l            0043a551 f   libucrt:ismbbyte.obj
 0001:0003956a       __ismbbkpunct              0043a56a f   libucrt:ismbbyte.obj
 0001:00039582       __ismbbkpunct_l            0043a582 f   libucrt:ismbbyte.obj
 0001:0003959b       __ismbblead                0043a59b f   libucrt:ismbbyte.obj
 0001:000395b3       __ismbblead_l              0043a5b3 f   libucrt:ismbbyte.obj
 0001:000395cc       __ismbbprint               0043a5cc f   libucrt:ismbbyte.obj
 0001:000395e7       __ismbbprint_l             0043a5e7 f   libucrt:ismbbyte.obj
 0001:00039603       __ismbbpunct               0043a603 f   libucrt:ismbbyte.obj
 0001:0003961b       __ismbbpunct_l             0043a61b f   libucrt:ismbbyte.obj
 0001:00039634       __ismbbtrail               0043a634 f   libucrt:ismbbyte.obj
 0001:0003964c       __ismbbtrail_l             0043a64c f   libucrt:ismbbyte.obj
 0001:00039700       ___dcrt_get_narrow_environment_from_os 0043a700 f   libucrt:get_environment_from_os.obj
 0001:000397a0       ___dcrt_get_wide_environment_from_os 0043a7a0 f   libucrt:get_environment_from_os.obj
 0001:00039f1a       ??$get_or_create_environment_nolock@$$V@?$__crt_char_traits@D@@SAPAPADXZ 0043af1a f i libucrt:setenv.obj
 0001:00039f1f       ??$get_or_create_environment_nolock@$$V@?$__crt_char_traits@_W@@SAPAPA_WXZ 0043af1f f i libucrt:setenv.obj
 0001:00039f24       ??$set_environment_variable@ABQADQAD@?$__crt_char_traits@D@@SAHABQAD$$QBQAD@Z 0043af24 f i libucrt:setenv.obj
 0001:00039f3c       ??$set_environment_variable@ABQA_WQA_W@?$__crt_char_traits@_W@@SAHABQA_W$$QBQA_W@Z 0043af3c f i libucrt:setenv.obj
 0001:00039f53       ??$tcschr@ABQADD@?$__crt_char_traits@D@@SAPADABQAD$$QAD@Z 0043af53 f i libucrt:setenv.obj
 0001:00039f6d       ??$tcschr@ABQA_WD@?$__crt_char_traits@_W@@SAPA_WABQA_W$$QAD@Z 0043af6d f i libucrt:setenv.obj
 0001:00039f8b       ??$tcscpy_s@AAPADABIAAPAD@?$__crt_char_traits@D@@SAHAAPADABI0@Z 0043af8b f i libucrt:setenv.obj
 0001:00039fa9       ??$tcscpy_s@AAPA_WABIAAPA_W@?$__crt_char_traits@_W@@SAHAAPA_WABI0@Z 0043afa9 f i libucrt:setenv.obj
 0001:00039fc7       ??$tcscpy_s@ABQADABIABQAD@?$__crt_char_traits@D@@SAHABQADABI0@Z 0043afc7 f i libucrt:setenv.obj
 0001:00039fe5       ??$tcscpy_s@ABQA_WABIABQA_W@?$__crt_char_traits@_W@@SAHABQA_WABI0@Z 0043afe5 f i libucrt:setenv.obj
 0001:0003a003       ??$tcslen@ABQAD@?$__crt_char_traits@D@@SAIABQAD@Z 0043b003 f i libucrt:setenv.obj
 0001:0003a01b       ??$tcslen@ABQA_W@?$__crt_char_traits@_W@@SAIABQA_W@Z 0043b01b f i libucrt:setenv.obj
 0001:0003a039       ??$tcsnicoll@ABQBDAAPADABI@?$__crt_char_traits@D@@SAHABQBDAAPADABI@Z 0043b039 f i libucrt:setenv.obj
 0001:0003a057       ??$tcsnicoll@ABQB_WAAPA_WABI@?$__crt_char_traits@_W@@SAHABQB_WAAPA_WABI@Z 0043b057 f i libucrt:setenv.obj
 0001:0003a099       ?strchr@@YAPADQADH@Z       0043b099 f i libucrt:setenv.obj
 0001:0003a0a4       ?wcschr@@YAPA_WPA_W_W@Z    0043b0a4 f i libucrt:setenv.obj
 0001:0003a0af       ___dcrt_set_variable_in_narrow_environment_nolock 0043b0af f   libucrt:setenv.obj
 0001:0003a0ba       ___dcrt_set_variable_in_wide_environment_nolock 0043b0ba f   libucrt:setenv.obj
 0001:0003a0c5       ___acrt_initialize_locks   0043b0c5 f   libucrt:locks.obj
 0001:0003a106       ___acrt_lock               0043b106 f   libucrt:locks.obj
 0001:0003a11d       ___acrt_uninitialize_locks 0043b11d f   libucrt:locks.obj
 0001:0003a14e       ___acrt_unlock             0043b14e f   libucrt:locks.obj
 0001:0003a165       __lock_locales             0043b165 f   libucrt:locks.obj
 0001:0003a173       __unlock_locales           0043b173 f   libucrt:locks.obj
 0001:0003a323       ___acrt_get_begin_thread_init_policy 0043b323 f   libucrt:win_policies.obj
 0001:0003a367       ___acrt_get_developer_information_policy 0043b367 f   libucrt:win_policies.obj
 0001:0003a3ab       ___acrt_get_process_end_policy 0043b3ab f   libucrt:win_policies.obj
 0001:0003a3dc       ___acrt_get_windowing_model_policy 0043b3dc f   libucrt:win_policies.obj
 0001:0003a438       ??$?RU__crt_lowio_handle_data@@@__crt_internal_free_policy@@QBEXQBU__crt_lowio_handle_data@@@Z 0043b438 f i libucrt:osfinfo.obj
 0001:0003a44a       ??0?$__crt_unique_heap_ptr@U__crt_lowio_handle_data@@U__crt_internal_free_policy@@@@QAE@QAU__crt_lowio_handle_data@@@Z 0043b44a f i libucrt:osfinfo.obj
 0001:0003a45a       ??1?$__crt_unique_heap_ptr@U__crt_lowio_handle_data@@U__crt_internal_free_policy@@@@QAE@XZ 0043b45a f i libucrt:osfinfo.obj
 0001:0003a46c       ??B?$__crt_unique_heap_ptr@U__crt_lowio_handle_data@@U__crt_internal_free_policy@@@@QBE_NXZ 0043b46c f i libucrt:osfinfo.obj
 0001:0003a473       ?detach@?$__crt_unique_heap_ptr@U__crt_lowio_handle_data@@U__crt_internal_free_policy@@@@QAEPAU__crt_lowio_handle_data@@XZ 0043b473 f i libucrt:osfinfo.obj
 0001:0003a479       ?get@?$__crt_unique_heap_ptr@U__crt_lowio_handle_data@@U__crt_internal_free_policy@@@@QBEPAU__crt_lowio_handle_data@@XZ 0043b479 f i libucrt:osfinfo.obj
 0001:0003a47c       ?is_valid@?$__crt_unique_heap_ptr@U__crt_lowio_handle_data@@U__crt_internal_free_policy@@@@QBE_NXZ 0043b47c f i libucrt:osfinfo.obj
 0001:0003a483       ?release@?$__crt_unique_heap_ptr@U__crt_lowio_handle_data@@U__crt_internal_free_policy@@@@QAEXXZ 0043b483 f i libucrt:osfinfo.obj
 0001:0003a495       ___acrt_lowio_create_handle_array 0043b495 f   libucrt:osfinfo.obj
 0001:0003a510       ___acrt_lowio_destroy_handle_array 0043b510 f   libucrt:osfinfo.obj
 0001:0003a545       ___acrt_lowio_ensure_fh_exists 0043b545 f   libucrt:osfinfo.obj
 0001:0003a5e3       ___acrt_lowio_lock_fh      0043b5e3 f   libucrt:osfinfo.obj
 0001:0003a606       ___acrt_lowio_set_os_handle 0043b606 f   libucrt:osfinfo.obj
 0001:0003a698       ___acrt_lowio_unlock_fh    0043b698 f   libucrt:osfinfo.obj
 0001:0003a6bb       __alloc_osfhnd             0043b6bb f   libucrt:osfinfo.obj
 0001:0003a7ce       __free_osfhnd              0043b7ce f   libucrt:osfinfo.obj
 0001:0003a85f       __get_osfhandle            0043b85f f   libucrt:osfinfo.obj
 0001:0003a8c9       __open_osfhandle           0043b8c9 f   libucrt:osfinfo.obj
 0001:0003a9df       ?dangerous_get_state_array@?$dual_state_global@H@__crt_state_management@@QAEPAHXZ 0043b9df f i libucrt:txtmode.obj
 0001:0003a9e2       ___acrt_initialize_fmode   0043b9e2 f   libucrt:txtmode.obj
 0001:0003a9f8       ___p__fmode                0043b9f8 f   libucrt:txtmode.obj
 0001:0003a9fe       ??$?RG@__crt_internal_free_policy@@QBEXQBG@Z 0043b9fe f i libucrt:initctype.obj
 0001:0003aa10       ??$?RJ@__crt_internal_free_policy@@QBEXQBJ@Z 0043ba10 f i libucrt:initctype.obj
 0001:0003aa22       ??0?$__crt_unique_heap_ptr@GU__crt_internal_free_policy@@@@QAE@QAG@Z 0043ba22 f i libucrt:initctype.obj
 0001:0003aa32       ??0?$__crt_unique_heap_ptr@JU__crt_internal_free_policy@@@@QAE@QAJ@Z 0043ba32 f i libucrt:initctype.obj
 0001:0003aa42       ??1?$__crt_unique_heap_ptr@GU__crt_internal_free_policy@@@@QAE@XZ 0043ba42 f i libucrt:initctype.obj
 0001:0003aa54       ??1?$__crt_unique_heap_ptr@JU__crt_internal_free_policy@@@@QAE@XZ 0043ba54 f i libucrt:initctype.obj
 0001:0003aa66       ?detach@?$__crt_unique_heap_ptr@GU__crt_internal_free_policy@@@@QAEPAGXZ 0043ba66 f i libucrt:initctype.obj
 0001:0003aa6c       ?detach@?$__crt_unique_heap_ptr@JU__crt_internal_free_policy@@@@QAEPAJXZ 0043ba6c f i libucrt:initctype.obj
 0001:0003aa72       ?release@?$__crt_unique_heap_ptr@GU__crt_internal_free_policy@@@@QAEXXZ 0043ba72 f i libucrt:initctype.obj
 0001:0003aa84       ?release@?$__crt_unique_heap_ptr@JU__crt_internal_free_policy@@@@QAEXXZ 0043ba84 f i libucrt:initctype.obj
 0001:0003aa96       ____lc_codepage_func       0043ba96 f   libucrt:initctype.obj
 0001:0003aabb       ____lc_collate_cp_func     0043babb f   libucrt:initctype.obj
 0001:0003aae0       ____lc_locale_name_func    0043bae0 f   libucrt:initctype.obj
 0001:0003ab07       ____mb_cur_max_func        0043bb07 f   libucrt:initctype.obj
 0001:0003ab2c       ____mb_cur_max_l_func      0043bb2c f   libucrt:initctype.obj
 0001:0003ab45       ___acrt_locale_initialize_ctype 0043bb45 f   libucrt:initctype.obj
 0001:0003afa2       ??$?RUlconv@@@__crt_internal_free_policy@@QBEXQBUlconv@@@Z 0043bfa2 f i libucrt:initmon.obj
 0001:0003afb4       ??0?$__crt_unique_heap_ptr@Ulconv@@U__crt_internal_free_policy@@@@QAE@QAUlconv@@@Z 0043bfb4 f i libucrt:initmon.obj
 0001:0003afc4       ??1?$__crt_unique_heap_ptr@Ulconv@@U__crt_internal_free_policy@@@@QAE@XZ 0043bfc4 f i libucrt:initmon.obj
 0001:0003afd6       ?detach@?$__crt_unique_heap_ptr@Ulconv@@U__crt_internal_free_policy@@@@QAEPAUlconv@@XZ 0043bfd6 f i libucrt:initmon.obj
 0001:0003afdc       ?release@?$__crt_unique_heap_ptr@Ulconv@@U__crt_internal_free_policy@@@@QAEXXZ 0043bfdc f i libucrt:initmon.obj
 0001:0003afee       ___acrt_locale_free_monetary 0043bfee f   libucrt:initmon.obj
 0001:0003b0ec       ___acrt_locale_initialize_monetary 0043c0ec f   libucrt:initmon.obj
 0001:0003b4d9       ___acrt_locale_free_numeric 0043c4d9 f   libucrt:initnum.obj
 0001:0003b542       ___acrt_locale_initialize_numeric 0043c542 f   libucrt:initnum.obj
 0001:0003b78a       ??$?RU__crt_lc_time_data@@@__crt_internal_free_policy@@QBEXQBU__crt_lc_time_data@@@Z 0043c78a f i libucrt:inittime.obj
 0001:0003b80e       ??0?$__crt_unique_heap_ptr@U__crt_lc_time_data@@U__crt_internal_free_policy@@@@QAE@QAU__crt_lc_time_data@@@Z 0043c80e f i libucrt:inittime.obj
 0001:0003b81e       ??1?$__crt_unique_heap_ptr@U__crt_lc_time_data@@U__crt_internal_free_policy@@@@QAE@XZ 0043c81e f i libucrt:inittime.obj
 0001:0003b830       ??B?$__crt_unique_heap_ptr@U__crt_lc_time_data@@U__crt_internal_free_policy@@@@QBE_NXZ 0043c830 f i libucrt:inittime.obj
 0001:0003b837       ?detach@?$__crt_unique_heap_ptr@U__crt_lc_time_data@@U__crt_internal_free_policy@@@@QAEPAU__crt_lc_time_data@@XZ 0043c837 f i libucrt:inittime.obj
 0001:0003b862       ?get@?$__crt_unique_heap_ptr@U__crt_lc_time_data@@U__crt_internal_free_policy@@@@QBEPAU__crt_lc_time_data@@XZ 0043c862 f i libucrt:inittime.obj
 0001:0003bb4d       ?is_valid@?$__crt_unique_heap_ptr@U__crt_lc_time_data@@U__crt_internal_free_policy@@@@QBE_NXZ 0043cb4d f i libucrt:inittime.obj
 0001:0003bb54       ?release@?$__crt_unique_heap_ptr@U__crt_lc_time_data@@U__crt_internal_free_policy@@@@QAEXXZ 0043cb54 f i libucrt:inittime.obj
 0001:0003bb66       ___acrt_locale_free_time   0043cb66 f   libucrt:inittime.obj
 0001:0003bc4a       ___acrt_locale_initialize_time 0043cc4a f   libucrt:inittime.obj
 0001:0003bcc5       ___pctype_func             0043ccc5 f   libucrt:ctype.obj
 0001:0003bce9       ___pwctype_func            0043cce9 f   libucrt:ctype.obj
 0001:0003bddc       _wcsncat_s                 0043cddc f   libucrt:wcsncat_s.obj
 0001:0003bde7       _wcscspn                   0043cde7 f   libucrt:wcscspn.obj
 0001:0003be40       _wcspbrk                   0043ce40 f   libucrt:wcspbrk.obj
 0001:0003be8e       ___acrt_GetStringTypeA     0043ce8e f   libucrt:getstringtypea.obj
 0001:0003bf97       ___acrt_add_locale_ref     0043cf97 f   libucrt:locale_refcounting.obj
 0001:0003c014       ___acrt_free_locale        0043d014 f   libucrt:locale_refcounting.obj
 0001:0003c15c       ___acrt_locale_add_lc_time_reference 0043d15c f   libucrt:locale_refcounting.obj
 0001:0003c185       ___acrt_locale_free_lc_time_if_unreferenced 0043d185 f   libucrt:locale_refcounting.obj
 0001:0003c1b6       ___acrt_locale_release_lc_time_reference 0043d1b6 f   libucrt:locale_refcounting.obj
 0001:0003c1df       ___acrt_release_locale_ref 0043d1df f   libucrt:locale_refcounting.obj
 0001:0003c260       ___acrt_update_thread_locale_data 0043d260 f   libucrt:locale_refcounting.obj
 0001:0003c2e1       __updatetlocinfoEx_nolock  0043d2e1 f   libucrt:locale_refcounting.obj
 0001:0003ca73       ___acrt_get_qualified_locale 0043da73 f   libucrt:get_qualified_locale.obj
 0001:0003d3f5       ___acrt_get_qualified_locale_downlevel 0043e3f5 f   libucrt:getqloc_downlevel.obj
 0001:0003d5ea       _localeconv                0043e5ea f   libucrt:localeconv.obj
 0001:0003d612       __recalloc                 0043e612 f   libucrt:recalloc.obj
 0001:0003d61d       __recalloc_base            0043e61d f   libucrt:recalloc.obj
 0001:0003d68a       ___acrt_getheap            0043e68a f   libucrt:heap_handle.obj
 0001:0003d690       ___acrt_initialize_heap    0043e690 f   libucrt:heap_handle.obj
 0001:0003d6a1       ___acrt_uninitialize_heap  0043e6a1 f   libucrt:heap_handle.obj
 0001:0003d6ab       __get_heap_handle          0043e6ab f   libucrt:heap_handle.obj
 0001:0003d6b1       ___acrt_execute_initializers 0043e6b1 f   libucrt:shared_initialization.obj
 0001:0003d719       ___acrt_execute_uninitializers 0043e719 f   libucrt:shared_initialization.obj
 0001:0003d74a       ??$?B$$A6AXH@Z@__crt_fast_encoded_nullptr_t@@QBEP6AXH@ZXZ 0043e74a f i libucrt:signal.obj
 0001:0003d7da       ??$__crt_fast_decode_pointer@P6AXH@Z@@YAP6AXH@ZQ6AXH@Z@Z 0043e7da f i libucrt:signal.obj
 0001:0003d7f0       ??$__crt_fast_encode_pointer@P6AXH@Z@@YAP6AXH@ZQ6AXH@Z@Z 0043e7f0 f i libucrt:signal.obj
 0001:0003d944       ?initialize@?$dual_state_global@P6AXH@Z@__crt_state_management@@QAEXQ6AXH@Z@Z 0043e944 f i libucrt:signal.obj
 0001:0003d9ed       ?value@?$dual_state_global@P6AXH@Z@__crt_state_management@@QAEAAP6AXH@ZXZ 0043e9ed f i libucrt:signal.obj
 0001:0003d9f0       ___acrt_get_sigabrt_handler 0043e9f0 f   libucrt:signal.obj
 0001:0003da17       ___acrt_initialize_signal_handlers 0043ea17 f   libucrt:signal.obj
 0001:0003da35       ___fpecode                 0043ea35 f   libucrt:signal.obj
 0001:0003da3e       ___pxcptinfoptrs           0043ea3e f   libucrt:signal.obj
 0001:0003da47       _raise                     0043ea47 f   libucrt:signal.obj
 0001:0003dc3a       _signal                    0043ec3a f   libucrt:signal.obj
 0001:0003df3c       ___control87_2             0043ef3c f   libucrt:ieee87.obj
 0001:0003e3d4       ___fpreset_sse2            0043f3d4 f   libucrt:ieee87.obj
 0001:0003e5aa       __clearfp                  0043f5aa f   libucrt:ieee87.obj
 0001:0003e688       __control87                0043f688 f   libucrt:ieee87.obj
 0001:0003e989       __controlfp                0043f989 f   libucrt:ieee87.obj
 0001:0003e9a3       __fpreset                  0043f9a3 f   libucrt:ieee87.obj
 0001:0003ea79       __set_controlfp            0043fa79 f   libucrt:ieee87.obj
 0001:0003eaec       __statusfp                 0043faec f   libucrt:ieee87.obj
 0001:0003eb87       __statusfp2                0043fb87 f   libucrt:ieee87.obj
 0001:0003ebea       __iswctype_l               0043fbea f   libucrt:iswctype.obj
 0001:0003ebfe       _iswctype                  0043fbfe f   libucrt:iswctype.obj
 0001:0003ec67       __isctype                  0043fc67 f   libucrt:isctype.obj
 0001:0003ec9a       __isctype_l                0043fc9a f   libucrt:isctype.obj
 0001:0003edec       ___acrt_DownlevelLCIDToLocaleName 0043fdec f   libucrt:lcidtoname_downlevel.obj
 0001:0003ee8f       ___acrt_DownlevelLocaleNameToLCID 0043fe8f f   libucrt:lcidtoname_downlevel.obj
 0001:0003f01e       __commit                   0044001e f   libucrt:commit.obj
 0001:0003f898       __utf8_no_of_trailbytes    00440898 f i libucrt:write.obj
 0001:0003f8a9       __write                    004408a9 f   libucrt:write.obj
 0001:0003f8e0       __write_internal           004408e0 f   libucrt:write.obj
 0001:0003f9e8       __write_nolock             004409e8 f   libucrt:write.obj
 0001:0003fbe8       __ungetc_nolock            00440be8 f   libucrt:ungetc.obj
 0001:0003fce1       _ungetc                    00440ce1 f   libucrt:ungetc.obj
 0001:0004016d       ___acrt_stdio_refill_and_read_narrow_nolock 0044116d f   libucrt:_filbuf.obj
 0001:00040178       ___acrt_stdio_refill_and_read_wide_nolock 00441178 f   libucrt:_filbuf.obj
 0001:00040183       ___ascii_wcsnicmp          00441183 f   libucrt:wcsnicmp.obj
 0001:000401d2       __towlower_fast_internal   004411d2 f i libucrt:wcsnicmp.obj
 0001:000401fd       __towlower_internal        004411fd f i libucrt:wcsnicmp.obj
 0001:0004023c       __wcsnicmp                 0044123c f   libucrt:wcsnicmp.obj
 0001:00040288       __wcsnicmp_l               00441288 f   libucrt:wcsnicmp.obj
 0001:0004035b       __strnicmp                 0044135b f   libucrt:strnicmp.obj
 0001:000403c8       __strnicmp_l               004413c8 f   libucrt:strnicmp.obj
 0001:0004077d       ??$tsopen_nolock@PAHABQAHABQBDABHABHABHABH@?$__crt_char_traits@D@@SAH$$QAPAHABQAHABQBDABH333@Z 0044177d f i libucrt:open.obj
 0001:000407af       ??$tsopen_nolock@PAHABQAHABQB_WABHABHABHABH@?$__crt_char_traits@_W@@SAH$$QAPAHABQAHABQB_WABH333@Z 004417af f i libucrt:open.obj
 0001:000407e1       ??$tsopen_nolock@PAHPAHABQBDABHHABHH@?$__crt_char_traits@D@@SAH$$QAPAH0ABQBDABH$$QAH23@Z 004417e1 f i libucrt:open.obj
 0001:00040813       ??$tsopen_nolock@PAHPAHABQB_WABHHABHH@?$__crt_char_traits@_W@@SAH$$QAPAH0ABQB_WABH$$QAH23@Z 00441813 f i libucrt:open.obj
 0001:00040e38       __open                     00441e38 f   libucrt:open.obj
 0001:00040e50       __sopen                    00441e50 f   libucrt:open.obj
 0001:00040e83       __sopen_dispatch           00441e83 f   libucrt:open.obj
 0001:00040e8e       __sopen_nolock             00441e8e f   libucrt:open.obj
 0001:00040efc       __sopen_s                  00441efc f   libucrt:open.obj
 0001:00040f1c       __wopen                    00441f1c f   libucrt:open.obj
 0001:00040f34       __wsopen                   00441f34 f   libucrt:open.obj
 0001:00040f67       __wsopen_dispatch          00441f67 f   libucrt:open.obj
 0001:00040f72       __wsopen_nolock            00441f72 f   libucrt:open.obj
 0001:0004129c       __wsopen_s                 0044229c f   libucrt:open.obj
 0001:0004135b       ___acrt_fp_strflt_to_string 0044235b f   libucrt:_fptostr.obj
 0001:00042670       ??0big_integer@__crt_strtox@@QAE@ABU01@@Z 00443670 f i libucrt:cfout.obj
 0001:000426b0       ??0big_integer@__crt_strtox@@QAE@XZ 004436b0 f i libucrt:cfout.obj
 0001:000426f0       ??4big_integer@__crt_strtox@@QAEAAU01@ABU01@@Z 004436f0 f i libucrt:cfout.obj
 0001:00042730       ??8__crt_strtox@@YA_NABUbig_integer@0@0@Z 00443730 f i libucrt:cfout.obj
 0001:00042770       ??9__crt_strtox@@YA_NABUbig_integer@0@0@Z 00443770 f i libucrt:cfout.obj
 0001:000427b0       ?add_carry@__crt_strtox@@YAIAAIII@Z 004437b0 f i libucrt:cfout.obj
 0001:000427d0       ?add_multiply_carry@__crt_strtox@@YAIAAIIII@Z 004437d0 f i libucrt:cfout.obj
 0001:00042800       ?bit_scan_reverse@__crt_strtox@@YAII@Z 00443800 f i libucrt:cfout.obj
 0001:00042820       ?count_sequential_high_zeroes@__crt_strtox@@YAII@Z 00443820 f i libucrt:cfout.obj
 0001:00042840       ?divide@__crt_strtox@@YA_KAAUbig_integer@1@ABU21@@Z 00443840 f i libucrt:cfout.obj
 0001:00042cd0       ?is_zero@__crt_strtox@@YA_NABUbig_integer@1@@Z 00443cd0 f i libucrt:cfout.obj
 0001:00042ce0       ?make_big_integer@__crt_strtox@@YA?AUbig_integer@1@_K@Z 00443ce0 f i libucrt:cfout.obj
 0001:00042d00       ?make_big_integer_power_of_two@__crt_strtox@@YA?AUbig_integer@1@I@Z 00443d00 f i libucrt:cfout.obj
 0001:00042d50       ?multiply@__crt_strtox@@YA_NAAUbig_integer@1@ABU21@@Z 00443d50 f i libucrt:cfout.obj
 0001:000430a0       ?multiply@__crt_strtox@@YA_NAAUbig_integer@1@I@Z 004440a0 f i libucrt:cfout.obj
 0001:00043170       ?multiply_64_32@__crt_strtox@@YA_K_KI@Z 00444170 f i libucrt:cfout.obj
 0001:00043190       ?multiply_by_power_of_ten@__crt_strtox@@YA_NAAUbig_integer@1@I@Z 00444190 f i libucrt:cfout.obj
 0001:000436d0       ?multiply_core@__crt_strtox@@YAIQAIII@Z 004446d0 f i libucrt:cfout.obj
 0001:00043710       ?shift_left@__crt_strtox@@YA_NAAUbig_integer@1@I@Z 00444710 f i libucrt:cfout.obj
 0001:0004383f       ___acrt_fltout             0044483f f   libucrt:cfout.obj
 0001:00044df9       ___fpe_flt_rounds          00445df9 f   libucrt:fegetround.obj
 0001:00044e2d       _fegetround                00445e2d f   libucrt:fegetround.obj
 0001:00044e3a       ?__c32rtomb_utf8@__crt_mbstring@@YAIPAD_UPAU_Mbstatet@@AAV__crt_cached_ptd_host@@@Z 00445e3a f   libucrt:c32rtomb.obj
 0001:00044eea       _c32rtomb                  00445eea f   libucrt:c32rtomb.obj
 0001:00044f4d       ?__mbrtowc_utf8@__crt_mbstring@@YAIPA_WPBDIPAU_Mbstatet@@AAV__crt_cached_ptd_host@@@Z 00445f4d f   libucrt:mbrtowc.obj
 0001:00044f90       ?__mbsrtowcs_utf8@__crt_mbstring@@YAIPA_WPAPBDIPAU_Mbstatet@@AAV__crt_cached_ptd_host@@@Z 00445f90 f   libucrt:mbrtowc.obj
 0001:000454ce       _btowc                     004464ce f   libucrt:mbrtowc.obj
 0001:0004553f       _mbrlen                    0044653f f   libucrt:mbrtowc.obj
 0001:00045587       _mbrtowc                   00446587 f   libucrt:mbrtowc.obj
 0001:000455ee       _mbsrtowcs                 004465ee f   libucrt:mbrtowc.obj
 0001:00045628       _mbsrtowcs_s               00446628 f   libucrt:mbrtowc.obj
 0001:000459fe       ?has_big_buffer@__crt_stdio_stream@@QBE_NXZ 004469fe f i libucrt:_flsbuf.obj
 0001:00045a8f       ___acrt_stdio_flush_and_write_narrow_nolock 00446a8f f   libucrt:_flsbuf.obj
 0001:00045a9a       ___acrt_stdio_flush_and_write_wide_nolock 00446a9a f   libucrt:_flsbuf.obj
 0001:00045aa5       __isatty                   00446aa5 f   libucrt:isatty.obj
 0001:00045afb       ___strncnt                 00446afb f   libucrt:strncnt.obj
 0001:00045b17       ___acrt_OutputDebugStringA@4 00446b17 f   libucrt:outputdebugstringa.obj
 0001:00045c50       _qsort                     00446c50 f   libucrt:qsort.obj
 0001:000461f5       _strncpy_s                 004471f5 f   libucrt:strncpy_s.obj
 0001:00046200       _strpbrk                   00447200 f   libucrt:strpbrk.obj
 0001:00046240       __mbsdec                   00447240 f   libucrt:mbsdec.obj
 0001:00046257       __mbsdec_l                 00447257 f   libucrt:mbsdec.obj
 0001:000462f3       __wcsnicoll                004472f3 f   libucrt:wcsnicol.obj
 0001:00046360       __wcsnicoll_l              00447360 f   libucrt:wcsnicol.obj
 0001:00046420       __strnicoll                00447420 f   libucrt:strnicol.obj
 0001:00046449       __strnicoll_l              00447449 f   libucrt:strnicol.obj
 0001:00046511       ___acrt_SetEnvironmentVariableA 00447511 f   libucrt:setenvironmentvariablea.obj
 0001:0004668d       ___acrt_GetLocaleInfoA     0044768d f   libucrt:getlocaleinfoa.obj
 0001:00046cfd       __i64toa                   00447cfd f   libucrt:xtoa.obj
 0001:00046d3e       __i64toa_s                 00447d3e f   libucrt:xtoa.obj
 0001:00046d7d       __i64tow                   00447d7d f   libucrt:xtoa.obj
 0001:00046dbe       __i64tow_s                 00447dbe f   libucrt:xtoa.obj
 0001:00046dfd       __itoa                     00447dfd f   libucrt:xtoa.obj
 0001:00046e32       __itoa_s                   00447e32 f   libucrt:xtoa.obj
 0001:00046e65       __itow                     00447e65 f   libucrt:xtoa.obj
 0001:00046e9a       __itow_s                   00447e9a f   libucrt:xtoa.obj
 0001:00046ecd       __ltoa                     00447ecd f   libucrt:xtoa.obj
 0001:00046f02       __ltoa_s                   00447f02 f   libucrt:xtoa.obj
 0001:00046f35       __ltow                     00447f35 f   libucrt:xtoa.obj
 0001:00046f6a       __ltow_s                   00447f6a f   libucrt:xtoa.obj
 0001:00046f9d       __ui64toa                  00447f9d f   libucrt:xtoa.obj
 0001:00046fbf       __ui64toa_s                00447fbf f   libucrt:xtoa.obj
 0001:00046fdf       __ui64tow                  00447fdf f   libucrt:xtoa.obj
 0001:00047001       __ui64tow_s                00448001 f   libucrt:xtoa.obj
 0001:00047021       __ultoa                    00448021 f   libucrt:xtoa.obj
 0001:00047040       __ultoa_s                  00448040 f   libucrt:xtoa.obj
 0001:0004705d       __ultow                    0044805d f   libucrt:xtoa.obj
 0001:0004707c       __ultow_s                  0044807c f   libucrt:xtoa.obj
 0001:00047099       ___ascii_wcsicmp           00448099 f   libucrt:wcsicmp.obj
 0001:000470d6       __wcsicmp                  004480d6 f   libucrt:wcsicmp.obj
 0001:0004711f       __wcsicmp_l                0044811f f   libucrt:wcsicmp.obj
 0001:000471d7       __msize                    004481d7 f   libucrt:msize.obj
 0001:000471e2       __msize_base               004481e2 f   libucrt:msize.obj
 0001:00047215       __realloc_base             00448215 f   libucrt:realloc_base.obj
 0001:0004727e       ___clrfp_sse2              0044827e f   libucrt:fpctrl.obj
 0001:000472b0       ___ctrlfp_sse2             004482b0 f   libucrt:fpctrl.obj
 0001:000472eb       ___fclrf_sse2              004482eb f   libucrt:fpctrl.obj
 0001:00047308       ___get_fpsr_sse2           00448308 f   libucrt:fpctrl.obj
 0001:00047324       ___set_fpsr_sse2           00448324 f   libucrt:fpctrl.obj
 0001:000473a4       ___set_statfp_sse2         004483a4 f   libucrt:fpctrl.obj
 0001:000473bf       ___statfp_sse2             004483bf f   libucrt:fpctrl.obj
 0001:000473d4       __clrfp                    004483d4 f   libucrt:fpctrl.obj
 0001:000473e5       __ctrlfp                   004483e5 f   libucrt:fpctrl.obj
 0001:0004740f       __set_statfp               0044840f f   libucrt:fpctrl.obj
 0001:00047468       __statfp                   00448468 f   libucrt:fpctrl.obj
 0001:00047478       ___acrt_GetStringTypeW     00448478 f   libucrt:getstringtypew.obj
 0001:00047869       __lseek                    00448869 f   libucrt:lseek.obj
 0001:000478a0       __lseek_internal           004488a0 f   libucrt:lseek.obj
 0001:000478ab       __lseek_nolock             004488ab f   libucrt:lseek.obj
 0001:000478e2       __lseek_nolock_internal    004488e2 f   libucrt:lseek.obj
 0001:000478ed       __lseeki64                 004488ed f   libucrt:lseek.obj
 0001:0004792d       __lseeki64_internal        0044892d f   libucrt:lseek.obj
 0001:0004794b       __lseeki64_nolock          0044894b f   libucrt:lseek.obj
 0001:0004798b       __lseeki64_nolock_internal 0044898b f   libucrt:lseek.obj
 0001:00047a8a       __putwch                   00448a8a f   libucrt:putwch.obj
 0001:00047ab7       __putwch_nolock            00448ab7 f   libucrt:putwch.obj
 0001:00047ae9       __putwch_nolock_internal   00448ae9 f   libucrt:putwch.obj
 0001:00048021       __read                     00449021 f   libucrt:read.obj
 0001:00048135       __read_nolock              00449135 f   libucrt:read.obj
 0001:000484d4       ___acrt_stdio_allocate_buffer_nolock 004494d4 f   libucrt:_getbuf.obj
 0001:00048530       __towlower_l               00449530 f   libucrt:towlower.obj
 0001:00048609       _towlower                  00449609 f   libucrt:towlower.obj
 0001:00048620       ___ascii_strnicmp          00449620 f   libucrt:_strnicm.obj
 0001:0004877d       ??0__crt_seek_guard@@QAE@H_J@Z 0044977d f i libucrt:chsize.obj
 0001:000487ca       ??1__crt_seek_guard@@QAE@XZ 004497ca f i libucrt:chsize.obj
 0001:000488ee       ?check@?$cached@K@__crt_cached_ptd_host@@QBE_NK@Z 004498ee f i libucrt:chsize.obj
 0001:0004890a       __chsize                   0044990a f   libucrt:chsize.obj
 0001:00048926       __chsize_nolock            00449926 f   libucrt:chsize.obj
 0001:0004895d       __chsize_nolock_internal   0044995d f   libucrt:chsize.obj
 0001:00048b00       __chsize_s                 00449b00 f   libucrt:chsize.obj
 0001:00048b37       __umask                    00449b37 f   libucrt:umask.obj
 0001:00048b5a       __umask_s                  00449b5a f   libucrt:umask.obj
 0001:00048b95       _fegetenv                  00449b95 f   libucrt:fegetenv.obj
 0001:00048bb2       _fesetenv                  00449bb2 f   libucrt:fesetenv.obj
 0001:00048bfd       _feholdexcept              00449bfd f   libucrt:feholdexcept.obj
 0001:00048c50       __CIlog10                  00449c50 f   libucrt:log10_impl.obj
 0001:00048c8b       __CIlog10_default          00449c8b f   libucrt:log10_impl.obj
 0001:00048c9f       __log10_default            00449c9f     libucrt:log10_impl.obj
 0001:00048d60       _ceil                      00449d60 f   libucrt:ceil_pentium4.obj
 0001:00048da0       __ceil_pentium4            00449da0 f   libucrt:ceil_pentium4.obj
 0001:00048e7d       ??$__acrt_fenv_shift_bits@W4__acrt_fenv_abstract_control@@@@YA?AW4__acrt_fenv_abstract_control@@W40@0I@Z 00449e7d f i libucrt:_fenvutils.obj
 0001:00048e8f       ??$__acrt_fenv_shift_bits@W4__acrt_fenv_abstract_status@@@@YA?AW4__acrt_fenv_abstract_status@@W40@0I@Z 00449e8f f i libucrt:_fenvutils.obj
 0001:00048ea1       ??$__acrt_fenv_translate_bit@W4__acrt_fenv_abstract_control@@W4__acrt_fenv_machine_sse_control@@@@YA?AW4__acrt_fenv_abstract_control@@W4__acrt_fenv_machine_sse_control@@0W40@1@Z 00449ea1 f i libucrt:_fenvutils.obj
 0001:00048eb9       ??$__acrt_fenv_translate_bit@W4__acrt_fenv_abstract_control@@W4__acrt_fenv_machine_x87_control@@@@YA?AW4__acrt_fenv_abstract_control@@W4__acrt_fenv_machine_x87_control@@0W40@1@Z 00449eb9 f i libucrt:_fenvutils.obj
 0001:00048ed1       ??$__acrt_fenv_translate_bit@W4__acrt_fenv_abstract_status@@W4__acrt_fenv_machine_sse_status@@@@YA?AW4__acrt_fenv_abstract_status@@W4__acrt_fenv_machine_sse_status@@0W40@1@Z 00449ed1 f i libucrt:_fenvutils.obj
 0001:00048ee6       ??$__acrt_fenv_translate_bit@W4__acrt_fenv_abstract_status@@W4__acrt_fenv_machine_x87_status@@@@YA?AW4__acrt_fenv_abstract_status@@W4__acrt_fenv_machine_x87_status@@0W40@1@Z 00449ee6 f i libucrt:_fenvutils.obj
 0001:00048efb       ??$__acrt_fenv_translate_bit@W4__acrt_fenv_machine_sse_control@@W4__acrt_fenv_abstract_control@@@@YA?AW4__acrt_fenv_machine_sse_control@@W4__acrt_fenv_abstract_control@@0W40@1@Z 00449efb f i libucrt:_fenvutils.obj
 0001:00048f12       ??$__acrt_fenv_translate_bit@W4__acrt_fenv_machine_sse_status@@W4__acrt_fenv_abstract_status@@@@YA?AW4__acrt_fenv_machine_sse_status@@W4__acrt_fenv_abstract_status@@0W40@1@Z 00449f12 f i libucrt:_fenvutils.obj
 0001:00048f27       ??$__acrt_fenv_translate_bit@W4__acrt_fenv_machine_x87_control@@W4__acrt_fenv_abstract_control@@@@YA?AW4__acrt_fenv_machine_x87_control@@W4__acrt_fenv_abstract_control@@0W40@1@Z 00449f27 f i libucrt:_fenvutils.obj
 0001:00048f3e       ??$__acrt_fenv_translate_bit@W4__acrt_fenv_machine_x87_status@@W4__acrt_fenv_abstract_status@@@@YA?AW4__acrt_fenv_machine_x87_status@@W4__acrt_fenv_abstract_status@@0W40@1@Z 00449f3e f i libucrt:_fenvutils.obj
 0001:00048f53       ??$__acrt_fenv_unshift_bits@W4__acrt_fenv_abstract_control@@@@YA?AW4__acrt_fenv_abstract_control@@W40@0I@Z 00449f53 f i libucrt:_fenvutils.obj
 0001:00048f65       ??$__acrt_fenv_unshift_bits@W4__acrt_fenv_abstract_status@@@@YA?AW4__acrt_fenv_abstract_status@@W40@0I@Z 00449f65 f i libucrt:_fenvutils.obj
 0001:00049362       ??I@YA?AW4__acrt_fenv_abstract_control@@W40@0@Z 0044a362 f i libucrt:_fenvutils.obj
 0001:0004936f       ??I@YA?AW4__acrt_fenv_abstract_status@@W40@0@Z 0044a36f f i libucrt:_fenvutils.obj
 0001:0004937c       ??I@YA?AW4__acrt_fenv_machine_sse_control@@W40@0@Z 0044a37c f i libucrt:_fenvutils.obj
 0001:00049389       ??I@YA?AW4__acrt_fenv_machine_sse_status@@W40@0@Z 0044a389 f i libucrt:_fenvutils.obj
 0001:00049396       ??I@YA?AW4__acrt_fenv_machine_x87_control@@W40@0@Z 0044a396 f i libucrt:_fenvutils.obj
 0001:000493a3       ??I@YA?AW4__acrt_fenv_machine_x87_status@@W40@0@Z 0044a3a3 f i libucrt:_fenvutils.obj
 0001:000493b0       ??U@YA?AW4__acrt_fenv_abstract_control@@W40@0@Z 0044a3b0 f i libucrt:_fenvutils.obj
 0001:000493bd       ??U@YA?AW4__acrt_fenv_abstract_status@@W40@0@Z 0044a3bd f i libucrt:_fenvutils.obj
 0001:000493ca       ??U@YA?AW4__acrt_fenv_machine_sse_control@@W40@0@Z 0044a3ca f i libucrt:_fenvutils.obj
 0001:000493d7       ??U@YA?AW4__acrt_fenv_machine_x87_control@@W40@0@Z 0044a3d7 f i libucrt:_fenvutils.obj
 0001:000493e4       ??_5@YAAAW4__acrt_fenv_abstract_control@@AAW40@W40@@Z 0044a3e4 f i libucrt:_fenvutils.obj
 0001:000493f3       ??_5@YAAAW4__acrt_fenv_abstract_status@@AAW40@W40@@Z 0044a3f3 f i libucrt:_fenvutils.obj
 0001:00049402       ??_5@YAAAW4__acrt_fenv_machine_sse_control@@AAW40@W40@@Z 0044a402 f i libucrt:_fenvutils.obj
 0001:00049413       ??_5@YAAAW4__acrt_fenv_machine_sse_status@@AAW40@W40@@Z 0044a413 f i libucrt:_fenvutils.obj
 0001:00049422       ??_5@YAAAW4__acrt_fenv_machine_x87_control@@AAW40@W40@@Z 0044a422 f i libucrt:_fenvutils.obj
 0001:00049433       ??_5@YAAAW4__acrt_fenv_machine_x87_status@@AAW40@W40@@Z 0044a433 f i libucrt:_fenvutils.obj
 0001:00049442       ?__acrt_fenv_shift_abstract_sse_control@@YA?AW4__acrt_fenv_abstract_control@@W41@@Z 0044a442 f i libucrt:_fenvutils.obj
 0001:0004945f       ?__acrt_fenv_shift_abstract_sse_status@@YA?AW4__acrt_fenv_abstract_status@@W41@@Z 0044a45f f i libucrt:_fenvutils.obj
 0001:0004946f       ?__acrt_fenv_shift_abstract_x87_control@@YA?AW4__acrt_fenv_abstract_control@@W41@@Z 0044a46f f i libucrt:_fenvutils.obj
 0001:0004948c       ?__acrt_fenv_shift_abstract_x87_status@@YA?AW4__acrt_fenv_abstract_status@@W41@@Z 0044a48c f i libucrt:_fenvutils.obj
 0001:0004949c       ?__acrt_fenv_unshift_abstract_sse_control@@YA?AW4__acrt_fenv_abstract_control@@W41@@Z 0044a49c f i libucrt:_fenvutils.obj
 0001:000494bb       ?__acrt_fenv_unshift_abstract_sse_status@@YA?AW4__acrt_fenv_abstract_status@@W41@@Z 0044a4bb f i libucrt:_fenvutils.obj
 0001:000494cb       ?__acrt_fenv_unshift_abstract_x87_control@@YA?AW4__acrt_fenv_abstract_control@@W41@@Z 0044a4cb f i libucrt:_fenvutils.obj
 0001:000494ea       ?__acrt_fenv_unshift_abstract_x87_status@@YA?AW4__acrt_fenv_abstract_status@@W41@@Z 0044a4ea f i libucrt:_fenvutils.obj
 0001:000499fd       ___acrt_fenv_expand_round_control 0044a9fd f   libucrt:_fenvutils.obj
 0001:00049a33       ___acrt_fenv_get_common_round_control 0044aa33 f   libucrt:_fenvutils.obj
 0001:00049a55       ___acrt_fenv_get_control   0044aa55 f   libucrt:_fenvutils.obj
 0001:00049ad5       ___acrt_fenv_get_fp_status_word_from_exception_mask 0044aad5 f   libucrt:_fenvutils.obj
 0001:00049aef       ___acrt_fenv_get_status    0044aaef f   libucrt:_fenvutils.obj
 0001:00049b99       ___acrt_fenv_set_control   0044ab99 f   libucrt:_fenvutils.obj
 0001:00049c14       ___acrt_fenv_set_status    0044ac14 f   libucrt:_fenvutils.obj
 0001:00049d0e       ?reset_and_return@__crt_mbstring@@YAIIPAU_Mbstatet@@@Z 0044ad0e f   libucrt:common_utf8.obj
 0001:00049d22       ?return_illegal_sequence@__crt_mbstring@@YAIPAU_Mbstatet@@AAV__crt_cached_ptd_host@@@Z 0044ad22 f   libucrt:common_utf8.obj
 0001:00049d44       ?__mbrtoc32_utf8@__crt_mbstring@@YAIPA_UPBDIPAU_Mbstatet@@AAV__crt_cached_ptd_host@@@Z 0044ad44 f   libucrt:mbrtoc32.obj
 0001:00049f02       _mbrtoc32                  0044af02 f   libucrt:mbrtoc32.obj
 0001:0004a1e7       __mbstowcs_l               0044b1e7 f   libucrt:mbstowcs.obj
 0001:0004a21f       __mbstowcs_s_l             0044b21f f   libucrt:mbstowcs.obj
 0001:0004a25d       _mbstowcs                  0044b25d f   libucrt:mbstowcs.obj
 0001:0004a294       _mbstowcs_s                0044b294 f   libucrt:mbstowcs.obj
 0001:0004a2d1       ___acrt_CompareStringW     0044b2d1 f   libucrt:comparestringw.obj
 0001:0004a5d5       ___acrt_CompareStringA     0044b5d5 f   libucrt:comparestringa.obj
 0001:0004a6cb       ___dcrt_lowio_ensure_console_output_initialized 0044b6cb f   libucrt:initcon.obj
 0001:0004a6ea       ___dcrt_terminate_console_output 0044b6ea f   libucrt:initcon.obj
 0001:0004a701       ___dcrt_write_console      0044b701 f   libucrt:initcon.obj
 0001:0004a756       ___acrt_LCMapStringW       0044b756 f   libucrt:lcmapstringw.obj
 0001:0004a794       ___acrt_initialize_sse2    0044b794 f   libucrt:mathfcns.obj
 0001:0004a7a4       __set_SSE2_enable          0044b7a4 f   libucrt:mathfcns.obj
 0001:0004a7d0       __CIlog10_pentium4         0044b7d0 f   libucrt:log10_pentium4.obj
 0001:0004a7e8       __log10_pentium4           0044b7e8     libucrt:log10_pentium4.obj
 0001:0004aa80       __fFEXP                    0044ba80 f   libucrt:87tran.obj
 0001:0004aad7       __rtinfpopse               0044bad7     libucrt:87tran.obj
 0001:0004aad9       __rtinfnpopse              0044bad9     libucrt:87tran.obj
 0001:0004aae9       __fFLN                     0044bae9     libucrt:87tran.obj
 0001:0004ab9e       __rtinfpop                 0044bb9e     libucrt:87tran.obj
 0001:0004aba0       __rtinfnpop                0044bba0     libucrt:87tran.obj
 0001:0004abb0       __rtforexpinf              0044bbb0 f   libucrt:87tran.obj
 0001:0004abbd       __ffexpm1                  0044bbbd     libucrt:87tran.obj
 0001:0004ac70       __trandisp1                0044bc70 f   libucrt:87disp.obj
 0001:0004ace5       __trandisp2                0044bce5 f   libucrt:87disp.obj
 0001:0004ad7f       __rttospopde               0044bd7f     libucrt:87disp.obj
 0001:0004ad84       __rttospop                 0044bd84     libucrt:87disp.obj
 0001:0004ad90       __rtnospop                 0044bd90 f   libucrt:87disp.obj
 0001:0004ada0       __rttosnpop                0044bda0 f   libucrt:87disp.obj
 0001:0004ada1       __rtnospopde               0044bda1     libucrt:87disp.obj
 0001:0004ada8       __rtzeropop                0044bda8     libucrt:87disp.obj
 0001:0004adaa       __rtzeronpop               0044bdaa     libucrt:87disp.obj
 0001:0004adb0       __rtzerospop               0044bdb0 f   libucrt:87disp.obj
 0001:0004adbd       __rtonepop                 0044bdbd     libucrt:87disp.obj
 0001:0004adc0       __rtonenpop                0044bdc0 f   libucrt:87disp.obj
 0001:0004add0       __tosnan1                  0044bdd0 f   libucrt:87disp.obj
 0001:0004ae00       __nosnan2                  0044be00 f   libucrt:87disp.obj
 0001:0004ae10       __tosnan2                  0044be10 f   libucrt:87disp.obj
 0001:0004ae40       __nan2                     0044be40 f   libucrt:87disp.obj
 0001:0004ae80       __rtindfpop                0044be80 f   libucrt:87disp.obj
 0001:0004ae82       __rtindfnpop               0044be82     libucrt:87disp.obj
 0001:0004ae93       __rttosnpopde              0044be93     libucrt:87disp.obj
 0001:0004aea0       __rtatan2inf               0044bea0 f   libucrt:87disp.obj
 0001:0004aebd       __rtchsifneg               0044bebd     libucrt:87disp.obj
 0001:0004aec4       ___setfflag                0044bec4 f   libucrt:fp_flags.obj
 0001:0004aee0       __twoToTOS                 0044bee0 f   libucrt:common.obj
 0001:0004aef5       __load_CW                  0044bef5 f   libucrt:common.obj
 0001:0004af0c       __convertTOStoQNaN         0044bf0c f   libucrt:common.obj
 0001:0004af25       __fload_withFB             0044bf25 f   libucrt:common.obj
 0001:0004af68       __checkTOS_withFB          0044bf68 f   libucrt:common.obj
 0001:0004af7e       __fast_exit                0044bf7e f   libucrt:common.obj
 0001:0004af8b       __math_exit                0044bf8b f   libucrt:common.obj
 0001:0004afb5       __check_overflow_exit      0044bfb5 f   libucrt:common.obj
 0001:0004afc9       __check_range_exit         0044bfc9 f   libucrt:common.obj
 0001:0004b070       __startTwoArgErrorHandling 0044c070 f   libucrt:genexcep.obj
 0001:0004b087       __startOneArgErrorHandling 0044c087 f   libucrt:genexcep.obj
 0001:0004b0c3       ___libm_error_support      0044c0c3 f   libucrt:libm_error.obj
 0001:0004b2b7       ___libm_setusermatherr     0044c2b7 f   libucrt:libm_error.obj
 0001:0004b2de       __ceil_default             0044c2de f   libucrt:ceil.obj
 0001:0004b393       __d_inttype                0044c393 f   libucrt:powhlp.obj
 0001:0004b3fb       __powhlp                   0044c3fb f   libucrt:powhlp.obj
 0001:0004b526       __87except                 0044c526 f   libucrt:87except.obj
 0001:0004b630       __frnd                     0044c630 f   libucrt:frnd.obj
 0001:0004b644       ?should_round_up@__crt_strtox@@YA_N_N000@Z 0044c644 f i libucrt:fpexcept.obj
 0001:0004b691       __errcode                  0044c691 f   libucrt:fpexcept.obj
 0001:0004b6c5       __except1                  0044c6c5 f   libucrt:fpexcept.obj
 0001:0004b793       __except2                  0044c793 f   libucrt:fpexcept.obj
 0001:0004b89b       __handle_exc               0044c89b f   libucrt:fpexcept.obj
 0001:0004bb14       __handle_qnan2             0044cb14 f   libucrt:fpexcept.obj
 0001:0004bb21       __raise_exc                0044cb21 f   libucrt:fpexcept.obj
 0001:0004bb44       __raise_exc_ex             0044cb44 f   libucrt:fpexcept.obj
 0001:0004be3a       __raise_excf               0044ce3a f   libucrt:fpexcept.obj
 0001:0004be5d       __set_errno_from_matherr   0044ce5d f   libucrt:fpexcept.obj
 0001:0004be8c       __umatherr                 0044ce8c f   libucrt:fpexcept.obj
 0001:0004bf2c       __add_exp                  0044cf2c f   libucrt:util.obj
 0001:0004bf5b       __decomp                   0044cf5b f   libucrt:util.obj
 0001:0004c02d       __get_exp                  0044d02d f   libucrt:util.obj
 0001:0004c045       __set_bexp                 0044d045 f   libucrt:util.obj
 0001:0004c06c       __set_exp                  0044d06c f   libucrt:util.obj
 0001:0004c099       __sptype                   0044d099 f   libucrt:util.obj
 0001:0004c0f7       __chgsign                  0044d0f7 f   libucrt:ieeemisc.obj
 0001:0004c11f       __chgsignf                 0044d11f f   libucrt:ieeemisc.obj
 0001:0004c140       __copysign                 0044d140 f   libucrt:ieeemisc.obj
 0001:0004c163       __copysignf                0044d163 f   libucrt:ieeemisc.obj
 0001:0004c17f       __finite                   0044d17f f   libucrt:ieeemisc.obj
 0001:0004c199       __fpclass                  0044d199 f   libucrt:ieeemisc.obj
 0001:0004c23d       __isnan                    0044d23d f   libucrt:ieeemisc.obj
 0001:0004c273       __logb                     0044d273 f   libucrt:ieeemisc.obj
 0001:0004c342       __nextafter                0044d342 f   libucrt:ieeemisc.obj
 0001:0004c361       __scalb                    0044d361 f   libucrt:ieeemisc.obj
 0001:0004c37b       _ldexp                     0044d37b f   libucrt:ldexp.obj
 0001:0004c56d       _nextafter                 0044d56d f   libucrt:nextafter.obj
 0001:0004c58c       _nexttoward                0044d58c f   libucrt:nexttoward.obj
 0001:0004c777       __d_int                    0044d777 f   libucrt:_test.obj
 0001:0004c87d       __dtest                    0044d87d f   libucrt:_test.obj
 0001:0004c8e1       __fd_int                   0044d8e1 f   libucrt:_test.obj
 0001:0004c9ae       __fdtest                   0044d9ae f   libucrt:_test.obj
 0001:0004c9fc       __fperrraise               0044d9fc f   libucrt:_test.obj
 0001:0004ca1d       __ld_int                   0044da1d f   libucrt:_test.obj
 0001:0004ca28       __ldtest                   0044da28 f   libucrt:_test.obj
 0001:0004ca33       __dclass                   0044da33 f   libucrt:nan.obj
 0001:0004ca44       __dpcomp                   0044da44 f   libucrt:nan.obj
 0001:0004ca9a       __dsign                    0044da9a f   libucrt:nan.obj
 0001:0004caaa       _nan                       0044daaa f   libucrt:nan.obj
 0001:0004cab1       __ldclass                  0044dab1 f   libucrt:nanl.obj
 0001:0004cac2       __ldpcomp                  0044dac2 f   libucrt:nanl.obj
 0001:0004cb18       __ldsign                   0044db18 f   libucrt:nanl.obj
 0001:0004cb28       _nanl                      0044db28 f   libucrt:nanl.obj
 0001:0004cb2f       ??_4@YAAAW4__acrt_fenv_abstract_status@@AAW40@W40@@Z 0044db2f f i libucrt:fegetexceptflag.obj
 0001:0004cb3e       _fegetexceptflag           0044db3e f   libucrt:fegetexceptflag.obj
 0001:0004cb6f       ??S@YA?AW4__acrt_fenv_abstract_status@@W40@@Z 0044db6f f i libucrt:fesetexceptflag.obj
 0001:0004cb7b       _fesetexceptflag           0044db7b f   libucrt:fesetexceptflag.obj
 0001:0004cbdb       _fetestexcept              0044dbdb f   libucrt:fetestexcept.obj
 0001:0004cbfb       _FreeLibrary@4             0044dbfb f   kernel32:KERNEL32.dll
 0001:0004cc01       _GetModuleHandleA@4        0044dc01 f   kernel32:KERNEL32.dll
 0001:0004cc07       _GetProcAddress@8          0044dc07 f   kernel32:KERNEL32.dll
 0001:0004cc0d       _LoadLibraryA@4            0044dc0d f   kernel32:KERNEL32.dll
 0001:0004cc13       _MultiByteToWideChar@24    0044dc13 f   kernel32:KERNEL32.dll
 0001:0004cc19       _WideCharToMultiByte@32    0044dc19 f   kernel32:KERNEL32.dll
 0001:0004cc1f       _UnhandledExceptionFilter@4 0044dc1f f   kernel32:KERNEL32.dll
 0001:0004cc25       _SetUnhandledExceptionFilter@4 0044dc25 f   kernel32:KERNEL32.dll
 0001:0004cc2b       _GetCurrentProcess@0       0044dc2b f   kernel32:KERNEL32.dll
 0001:0004cc31       _TerminateProcess@8        0044dc31 f   kernel32:KERNEL32.dll
 0001:0004cc37       _IsProcessorFeaturePresent@4 0044dc37 f   kernel32:KERNEL32.dll
 0001:0004cc3d       _QueryPerformanceCounter@4 0044dc3d f   kernel32:KERNEL32.dll
 0001:0004cc43       _GetCurrentProcessId@0     0044dc43 f   kernel32:KERNEL32.dll
 0001:0004cc49       _GetCurrentThreadId@0      0044dc49 f   kernel32:KERNEL32.dll
 0001:0004cc4f       _GetSystemTimeAsFileTime@4 0044dc4f f   kernel32:KERNEL32.dll
 0001:0004cc55       _InitializeSListHead@4     0044dc55 f   kernel32:KERNEL32.dll
 0001:0004cc5b       _IsDebuggerPresent@0       0044dc5b f   kernel32:KERNEL32.dll
 0001:0004cc61       _GetStartupInfoW@4         0044dc61 f   kernel32:KERNEL32.dll
 0001:0004cc67       _GetModuleHandleW@4        0044dc67 f   kernel32:KERNEL32.dll
 0001:0004cc6d       _InterlockedPushEntrySList@8 0044dc6d f   kernel32:KERNEL32.dll
 0001:0004cc73       _InterlockedFlushSList@4   0044dc73 f   kernel32:KERNEL32.dll
 0001:0004cc79       _RaiseException@16         0044dc79 f   kernel32:KERNEL32.dll
 0001:0004cc7f       _RtlUnwind@16              0044dc7f f   kernel32:KERNEL32.dll
 0001:0004cc85       _SetLastError@4            0044dc85 f   kernel32:KERNEL32.dll
 0001:0004cc8b       _EnterCriticalSection@4    0044dc8b f   kernel32:KERNEL32.dll
 0001:0004cc91       _LeaveCriticalSection@4    0044dc91 f   kernel32:KERNEL32.dll
 0001:0004cc97       _DeleteCriticalSection@4   0044dc97 f   kernel32:KERNEL32.dll
 0001:0004cc9d       _InitializeCriticalSectionAndSpinCount@8 0044dc9d f   kernel32:KERNEL32.dll
 0001:0004cca3       _TlsAlloc@0                0044dca3 f   kernel32:KERNEL32.dll
 0001:0004cca9       _TlsGetValue@4             0044dca9 f   kernel32:KERNEL32.dll
 0001:0004ccaf       _TlsSetValue@8             0044dcaf f   kernel32:KERNEL32.dll
 0001:0004ccb5       _TlsFree@4                 0044dcb5 f   kernel32:KERNEL32.dll
 0001:0004ccbb       _LoadLibraryExW@12         0044dcbb f   kernel32:KERNEL32.dll
 0001:0004ccc1       _EncodePointer@4           0044dcc1 f   kernel32:KERNEL32.dll
 0001:0004ccc7       _GetDriveTypeW@4           0044dcc7 f   kernel32:KERNEL32.dll
 0001:0004cccd       _GetFullPathNameW@16       0044dccd f   kernel32:KERNEL32.dll
 0001:0004ccd3       _GetStdHandle@4            0044dcd3 f   kernel32:KERNEL32.dll
 0001:0004ccd9       _WriteFile@20              0044dcd9 f   kernel32:KERNEL32.dll
 0001:0004ccdf       _GetModuleFileNameW@12     0044dcdf f   kernel32:KERNEL32.dll
 0001:0004cce5       _ExitProcess@4             0044dce5 f   kernel32:KERNEL32.dll
 0001:0004cceb       _GetModuleHandleExW@12     0044dceb f   kernel32:KERNEL32.dll
 0001:0004ccf1       _GetCommandLineA@0         0044dcf1 f   kernel32:KERNEL32.dll
 0001:0004ccf7       _GetCommandLineW@0         0044dcf7 f   kernel32:KERNEL32.dll
 0001:0004ccfd       _HeapAlloc@12              0044dcfd f   kernel32:KERNEL32.dll
 0001:0004cd03       _HeapFree@12               0044dd03 f   kernel32:KERNEL32.dll
 0001:0004cd09       _GetDateFormatW@24         0044dd09 f   kernel32:KERNEL32.dll
 0001:0004cd0f       _GetTimeFormatW@24         0044dd0f f   kernel32:KERNEL32.dll
 0001:0004cd15       _CompareStringW@24         0044dd15 f   kernel32:KERNEL32.dll
 0001:0004cd1b       _LCMapStringW@24           0044dd1b f   kernel32:KERNEL32.dll
 0001:0004cd21       _GetLocaleInfoW@16         0044dd21 f   kernel32:KERNEL32.dll
 0001:0004cd27       _IsValidLocale@8           0044dd27 f   kernel32:KERNEL32.dll
 0001:0004cd2d       _GetUserDefaultLCID@0      0044dd2d f   kernel32:KERNEL32.dll
 0001:0004cd33       _EnumSystemLocalesW@8      0044dd33 f   kernel32:KERNEL32.dll
 0001:0004cd39       _GetFileType@4             0044dd39 f   kernel32:KERNEL32.dll
 0001:0004cd3f       _CloseHandle@4             0044dd3f f   kernel32:KERNEL32.dll
 0001:0004cd45       _GetCurrentThread@0        0044dd45 f   kernel32:KERNEL32.dll
 0001:0004cd4b       _SetCurrentDirectoryW@4    0044dd4b f   kernel32:KERNEL32.dll
 0001:0004cd51       _GetCurrentDirectoryW@8    0044dd51 f   kernel32:KERNEL32.dll
 0001:0004cd57       _OutputDebugStringW@4      0044dd57 f   kernel32:KERNEL32.dll
 0001:0004cd5d       _FindClose@4               0044dd5d f   kernel32:KERNEL32.dll
 0001:0004cd63       _FindFirstFileExW@24       0044dd63 f   kernel32:KERNEL32.dll
 0001:0004cd69       _FindNextFileW@8           0044dd69 f   kernel32:KERNEL32.dll
 0001:0004cd6f       _IsValidCodePage@4         0044dd6f f   kernel32:KERNEL32.dll
 0001:0004cd75       _GetACP@0                  0044dd75 f   kernel32:KERNEL32.dll
 0001:0004cd7b       _GetOEMCP@0                0044dd7b f   kernel32:KERNEL32.dll
 0001:0004cd81       _GetCPInfo@8               0044dd81 f   kernel32:KERNEL32.dll
 0001:0004cd87       _GetEnvironmentStringsW@0  0044dd87 f   kernel32:KERNEL32.dll
 0001:0004cd8d       _FreeEnvironmentStringsW@4 0044dd8d f   kernel32:KERNEL32.dll
 0001:0004cd93       _SetEnvironmentVariableW@8 0044dd93 f   kernel32:KERNEL32.dll
 0001:0004cd99       _SetStdHandle@8            0044dd99 f   kernel32:KERNEL32.dll
 0001:0004cd9f       _GetStringTypeW@16         0044dd9f f   kernel32:KERNEL32.dll
 0001:0004cda5       _GetProcessHeap@0          0044dda5 f   kernel32:KERNEL32.dll
 0001:0004cdab       _SetConsoleCtrlHandler@8   0044ddab f   kernel32:KERNEL32.dll
 0001:0004cdb1       _FlushFileBuffers@4        0044ddb1 f   kernel32:KERNEL32.dll
 0001:0004cdb7       _GetConsoleOutputCP@0      0044ddb7 f   kernel32:KERNEL32.dll
 0001:0004cdbd       _GetConsoleMode@8          0044ddbd f   kernel32:KERNEL32.dll
 0001:0004cdc3       _CreateFileW@28            0044ddc3 f   kernel32:KERNEL32.dll
 0001:0004cdc9       _GetFileSizeEx@8           0044ddc9 f   kernel32:KERNEL32.dll
 0001:0004cdcf       _SetFilePointerEx@20       0044ddcf f   kernel32:KERNEL32.dll
 0001:0004cdd5       _HeapSize@12               0044ddd5 f   kernel32:KERNEL32.dll
 0001:0004cddb       _HeapReAlloc@16            0044dddb f   kernel32:KERNEL32.dll
 0001:0004cde1       _ReadFile@20               0044dde1 f   kernel32:KERNEL32.dll
 0001:0004cde7       _ReadConsoleW@20           0044dde7 f   kernel32:KERNEL32.dll
 0001:0004cded       _SetEndOfFile@4            0044dded f   kernel32:KERNEL32.dll
 0001:0004cdf3       _WriteConsoleW@20          0044ddf3 f   kernel32:KERNEL32.dll
 0001:0004cdf9       _DecodePointer@4           0044ddf9 f   kernel32:KERNEL32.dll
 0001:0004cdff       _Error                     0044ddff f   tier0:tier0.dll
 0001:0004ce05       __AssertValidReadPtr       0044de05 f   tier0:tier0.dll
 0001:0004ce0b       __AssertValidWritePtr      0044de0b f   tier0:tier0.dll
 0001:0004ce11       _AssertValidStringPtr      0044de11 f   tier0:tier0.dll
 0001:0004ce20       __FindPESection            0044de20 f   LIBCMT:pesect.obj
 0001:0004ce70       __IsNonwritableInCurrentImage 0044de70 f   LIBCMT:pesect.obj
 0001:0004cf30       __ValidateImageBase        0044df30 f   LIBCMT:pesect.obj
 0001:0004cf61       __EH_epilog3               0044df61 f   LIBCMT:ehprolg3.obj
 0001:0004cf75       __EH_epilog3_GS            0044df75 f   LIBCMT:ehprolg3.obj
 0001:0004cf84       __EH_epilog3_catch_GS      0044df84 f   LIBCMT:ehprolg3.obj
 0001:0004cf93       __EH_prolog3               0044df93 f   LIBCMT:ehprolg3.obj
 0001:0004cfc6       __EH_prolog3_GS            0044dfc6 f   LIBCMT:ehprolg3.obj
 0001:0004cffc       __EH_prolog3_catch         0044dffc f   LIBCMT:ehprolg3.obj
 0001:0004d032       __EH_prolog3_catch_GS      0044e032 f   LIBCMT:ehprolg3.obj
 0001:0004d070       __aulldvrm                 0044e070 f   LIBCMT:ulldvrm.obj
 0001:0004d105       __except_handler4_noexcept 0044e105 f   LIBCMT:chandler4_noexcept.obj
 0001:0004d150       __alloca_probe_16          0044e150 f   LIBCMT:alloca16.obj
 0001:0004d166       __alloca_probe_8           0044e166     LIBCMT:alloca16.obj
 0001:0004d180       __aulldiv                  0044e180 f   LIBCMT:ulldiv.obj
 0001:0004d1f0       __alldvrm                  0044e1f0 f   LIBCMT:lldvrm.obj
 0001:0004d2d0       __allshl                   0044e2d0 f   LIBCMT:llshl.obj
 0001:0004d2f0       __aullshr                  0044e2f0 f   LIBCMT:ullshr.obj
 0001:0004d310       __alloca_probe             0044e310 f   LIBCMT:chkstk.obj
 0001:0004d310       __chkstk                   0044e310 f   LIBCMT:chkstk.obj
 0001:0004d340       __ftol2_sse_excpt          0044e340 f   LIBCMT:ftol2.obj
 0001:0004d350       __ftol2_sse                0044e350 f   LIBCMT:ftol2.obj
 0001:0004d360       __ftoi2                    0044e360 f   LIBCMT:ftol2.obj
 0001:0004d3e0       __ftoui2                   0044e3e0 f   LIBCMT:ftol2.obj
 0001:0004d490       __ftol2                    0044e490 f   LIBCMT:ftol2.obj
 0001:0004d540       __ftoul2                   0044e540 f   LIBCMT:ftol2.obj
 0001:0004d600       __ftoul2_legacy            0044e600 f   LIBCMT:ftol2.obj
 0001:0004d73e       _memcmp                    0044e73e f   libvcruntime:memcmp.obj
 0001:000503a2       _wcschr                    004513a2 f   libvcruntime:wcschr.obj
 0001:00050452       __filter_x86_sse2_floating_point_exception 00451452 f   LIBCMT:x86_exception_filter.obj
 0001:00050452       __filter_x86_sse2_floating_point_exception_default 00451452 f   LIBCMT:x86_exception_filter.obj
 0002:00000000       __imp__GetLastError@0      00452000     kernel32:KERNEL32.dll
 0002:00000004       __imp__LocalFree@4         00452004     kernel32:KERNEL32.dll
 0002:00000008       __imp__FormatMessageA@28   00452008     kernel32:KERNEL32.dll
 0002:0000000c       __imp__DecodePointer@4     0045200c     kernel32:KERNEL32.dll
 0002:00000010       __imp__WriteConsoleW@20    00452010     kernel32:KERNEL32.dll
 0002:00000014       __imp__SetEndOfFile@4      00452014     kernel32:KERNEL32.dll
 0002:00000018       __imp__FreeLibrary@4       00452018     kernel32:KERNEL32.dll
 0002:0000001c       __imp__GetModuleHandleA@4  0045201c     kernel32:KERNEL32.dll
 0002:00000020       __imp__GetProcAddress@8    00452020     kernel32:KERNEL32.dll
 0002:00000024       __imp__LoadLibraryA@4      00452024     kernel32:KERNEL32.dll
 0002:00000028       __imp__MultiByteToWideChar@24 00452028     kernel32:KERNEL32.dll
 0002:0000002c       __imp__WideCharToMultiByte@32 0045202c     kernel32:KERNEL32.dll
 0002:00000030       __imp__UnhandledExceptionFilter@4 00452030     kernel32:KERNEL32.dll
 0002:00000034       __imp__SetUnhandledExceptionFilter@4 00452034     kernel32:KERNEL32.dll
 0002:00000038       __imp__GetCurrentProcess@0 00452038     kernel32:KERNEL32.dll
 0002:0000003c       __imp__TerminateProcess@8  0045203c     kernel32:KERNEL32.dll
 0002:00000040       __imp__IsProcessorFeaturePresent@4 00452040     kernel32:KERNEL32.dll
 0002:00000044       __imp__QueryPerformanceCounter@4 00452044     kernel32:KERNEL32.dll
 0002:00000048       __imp__GetCurrentProcessId@0 00452048     kernel32:KERNEL32.dll
 0002:0000004c       __imp__GetCurrentThreadId@0 0045204c     kernel32:KERNEL32.dll
 0002:00000050       __imp__GetSystemTimeAsFileTime@4 00452050     kernel32:KERNEL32.dll
 0002:00000054       __imp__InitializeSListHead@4 00452054     kernel32:KERNEL32.dll
 0002:00000058       __imp__IsDebuggerPresent@0 00452058     kernel32:KERNEL32.dll
 0002:0000005c       __imp__GetStartupInfoW@4   0045205c     kernel32:KERNEL32.dll
 0002:00000060       __imp__GetModuleHandleW@4  00452060     kernel32:KERNEL32.dll
 0002:00000064       __imp__InterlockedPushEntrySList@8 00452064     kernel32:KERNEL32.dll
 0002:00000068       __imp__InterlockedFlushSList@4 00452068     kernel32:KERNEL32.dll
 0002:0000006c       __imp__RaiseException@16   0045206c     kernel32:KERNEL32.dll
 0002:00000070       __imp__RtlUnwind@16        00452070     kernel32:KERNEL32.dll
 0002:00000074       __imp__SetLastError@4      00452074     kernel32:KERNEL32.dll
 0002:00000078       __imp__EnterCriticalSection@4 00452078     kernel32:KERNEL32.dll
 0002:0000007c       __imp__LeaveCriticalSection@4 0045207c     kernel32:KERNEL32.dll
 0002:00000080       __imp__DeleteCriticalSection@4 00452080     kernel32:KERNEL32.dll
 0002:00000084       __imp__InitializeCriticalSectionAndSpinCount@8 00452084     kernel32:KERNEL32.dll
 0002:00000088       __imp__TlsAlloc@0          00452088     kernel32:KERNEL32.dll
 0002:0000008c       __imp__TlsGetValue@4       0045208c     kernel32:KERNEL32.dll
 0002:00000090       __imp__TlsSetValue@8       00452090     kernel32:KERNEL32.dll
 0002:00000094       __imp__TlsFree@4           00452094     kernel32:KERNEL32.dll
 0002:00000098       __imp__LoadLibraryExW@12   00452098     kernel32:KERNEL32.dll
 0002:0000009c       __imp__EncodePointer@4     0045209c     kernel32:KERNEL32.dll
 0002:000000a0       __imp__GetDriveTypeW@4     004520a0     kernel32:KERNEL32.dll
 0002:000000a4       __imp__GetFullPathNameW@16 004520a4     kernel32:KERNEL32.dll
 0002:000000a8       __imp__GetStdHandle@4      004520a8     kernel32:KERNEL32.dll
 0002:000000ac       __imp__WriteFile@20        004520ac     kernel32:KERNEL32.dll
 0002:000000b0       __imp__GetModuleFileNameW@12 004520b0     kernel32:KERNEL32.dll
 0002:000000b4       __imp__ExitProcess@4       004520b4     kernel32:KERNEL32.dll
 0002:000000b8       __imp__GetModuleHandleExW@12 004520b8     kernel32:KERNEL32.dll
 0002:000000bc       __imp__GetCommandLineA@0   004520bc     kernel32:KERNEL32.dll
 0002:000000c0       __imp__GetCommandLineW@0   004520c0     kernel32:KERNEL32.dll
 0002:000000c4       __imp__HeapAlloc@12        004520c4     kernel32:KERNEL32.dll
 0002:000000c8       __imp__HeapFree@12         004520c8     kernel32:KERNEL32.dll
 0002:000000cc       __imp__GetDateFormatW@24   004520cc     kernel32:KERNEL32.dll
 0002:000000d0       __imp__GetTimeFormatW@24   004520d0     kernel32:KERNEL32.dll
 0002:000000d4       __imp__CompareStringW@24   004520d4     kernel32:KERNEL32.dll
 0002:000000d8       __imp__LCMapStringW@24     004520d8     kernel32:KERNEL32.dll
 0002:000000dc       __imp__GetLocaleInfoW@16   004520dc     kernel32:KERNEL32.dll
 0002:000000e0       __imp__IsValidLocale@8     004520e0     kernel32:KERNEL32.dll
 0002:000000e4       __imp__GetUserDefaultLCID@0 004520e4     kernel32:KERNEL32.dll
 0002:000000e8       __imp__EnumSystemLocalesW@8 004520e8     kernel32:KERNEL32.dll
 0002:000000ec       __imp__GetFileType@4       004520ec     kernel32:KERNEL32.dll
 0002:000000f0       __imp__CloseHandle@4       004520f0     kernel32:KERNEL32.dll
 0002:000000f4       __imp__GetCurrentThread@0  004520f4     kernel32:KERNEL32.dll
 0002:000000f8       __imp__SetCurrentDirectoryW@4 004520f8     kernel32:KERNEL32.dll
 0002:000000fc       __imp__GetCurrentDirectoryW@8 004520fc     kernel32:KERNEL32.dll
 0002:00000100       __imp__OutputDebugStringW@4 00452100     kernel32:KERNEL32.dll
 0002:00000104       __imp__FindClose@4         00452104     kernel32:KERNEL32.dll
 0002:00000108       __imp__FindFirstFileExW@24 00452108     kernel32:KERNEL32.dll
 0002:0000010c       __imp__FindNextFileW@8     0045210c     kernel32:KERNEL32.dll
 0002:00000110       __imp__IsValidCodePage@4   00452110     kernel32:KERNEL32.dll
 0002:00000114       __imp__GetACP@0            00452114     kernel32:KERNEL32.dll
 0002:00000118       __imp__GetOEMCP@0          00452118     kernel32:KERNEL32.dll
 0002:0000011c       __imp__GetCPInfo@8         0045211c     kernel32:KERNEL32.dll
 0002:00000120       __imp__GetEnvironmentStringsW@0 00452120     kernel32:KERNEL32.dll
 0002:00000124       __imp__FreeEnvironmentStringsW@4 00452124     kernel32:KERNEL32.dll
 0002:00000128       __imp__SetEnvironmentVariableW@8 00452128     kernel32:KERNEL32.dll
 0002:0000012c       __imp__SetStdHandle@8      0045212c     kernel32:KERNEL32.dll
 0002:00000130       __imp__GetStringTypeW@16   00452130     kernel32:KERNEL32.dll
 0002:00000134       __imp__GetProcessHeap@0    00452134     kernel32:KERNEL32.dll
 0002:00000138       __imp__SetConsoleCtrlHandler@8 00452138     kernel32:KERNEL32.dll
 0002:0000013c       __imp__FlushFileBuffers@4  0045213c     kernel32:KERNEL32.dll
 0002:00000140       __imp__GetConsoleOutputCP@0 00452140     kernel32:KERNEL32.dll
 0002:00000144       __imp__GetConsoleMode@8    00452144     kernel32:KERNEL32.dll
 0002:00000148       __imp__CreateFileW@28      00452148     kernel32:KERNEL32.dll
 0002:0000014c       __imp__GetFileSizeEx@8     0045214c     kernel32:KERNEL32.dll
 0002:00000150       __imp__SetFilePointerEx@20 00452150     kernel32:KERNEL32.dll
 0002:00000154       __imp__HeapSize@12         00452154     kernel32:KERNEL32.dll
 0002:00000158       __imp__HeapReAlloc@16      00452158     kernel32:KERNEL32.dll
 0002:0000015c       __imp__ReadFile@20         0045215c     kernel32:KERNEL32.dll
 0002:00000160       __imp__ReadConsoleW@20     00452160     kernel32:KERNEL32.dll
 0002:00000164       \177KERNEL32_NULL_THUNK_DATA 00452164     kernel32:KERNEL32.dll
 0002:00000168       __imp__CommandLine_Tier0   00452168     tier0:tier0.dll
 0002:0000016c       __imp__Error               0045216c     tier0:tier0.dll
 0002:00000170       __imp___AssertValidReadPtr 00452170     tier0:tier0.dll
 0002:00000174       __imp___AssertValidWritePtr 00452174     tier0:tier0.dll
 0002:00000178       __imp__AssertValidStringPtr 00452178     tier0:tier0.dll
 0002:0000017c       __imp__g_pMemAlloc         0045217c     tier0:tier0.dll
 0002:00000180       \177tier0_NULL_THUNK_DATA  00452180     tier0:tier0.dll
 0002:00000184       ___guard_check_icall_fptr  00452184     LIBCMT:guard_support.obj
 0002:00000188       ___guard_xfg_check_icall_fptr 00452188     LIBCMT:guard_support.obj
 0002:0000018c       ___castguard_check_failure_os_handled_fptr 0045218c     LIBCMT:guard_support.obj
 0002:00000190       ___xc_a                    00452190     LIBCMT:initializers.obj
 0002:00000198       ___xc_z                    00452198     LIBCMT:initializers.obj
 0002:0000019c       ___xi_a                    0045219c     LIBCMT:initializers.obj
 0002:000001a8       ___acrt_stdio_initializer  004521a8     libucrt:stdio_initializer.obj
 0002:000001ac       ___acrt_multibyte_initializer 004521ac     libucrt:multibyte_initializer.obj
 0002:000001b0       ___acrt_fmode_initializer  004521b0     libucrt:fmode_initializer.obj
 0002:000001b4       ___acrt_tran_sse2_initializer 004521b4     libucrt:sse2_initializer.obj
 0002:000001b8       ___xi_z                    004521b8     LIBCMT:initializers.obj
 0002:000001bc       ___xp_a                    004521bc     LIBCMT:initializers.obj
 0002:000001c0       ___acrt_locale_terminator  004521c0     libucrt:locale_initializer.obj
 0002:000001c4       ___dcrt_console_output_terminator 004521c4     libucrt:console_output_initializer.obj
 0002:000001c8       ___acrt_stdio_terminator   004521c8     libucrt:stdio_initializer.obj
 0002:000001cc       ___xp_z                    004521cc     LIBCMT:initializers.obj
 0002:000001d0       ___xt_a                    004521d0     LIBCMT:initializers.obj
 0002:000001d4       ___xt_z                    004521d4     LIBCMT:initializers.obj
 0002:000001e0       ??_C@_01KICIPPFI@?2@       004521e0     vrad_launcher.obj
 0002:000001e4       ??_C@_05ILGEKKOP@?9both@   004521e4     vrad_launcher.obj
 0002:000001ec       ??_C@_0O@HMFLEPEH@vrad?4redirect@ 004521ec     vrad_launcher.obj
 0002:000001fc       ??_C@_05BMGBEOOC@?$CFs?2?$CFs@ 004521fc     vrad_launcher.obj
 0002:00000204       ??_C@_02BMJICGCB@rt@       00452204     vrad_launcher.obj
 0002:00000208       ??_C@_01EEMJAFIK@?6@       00452208     vrad_launcher.obj
 0002:0000020c       ??_C@_0DM@NKGABNEG@Loaded?5alternate?5VRAD?5DLL?5?$CI?$CFs?$CJ?5@ 0045220c     vrad_launcher.obj
 0002:00000248       ??_C@_0CN@LEBDECAB@Can?8t?5find?5?8?$CFs?8?5specified?5in?5vr@ 00452248     vrad_launcher.obj
 0002:00000278       ??_C@_08IIKOCKCA@vrad?4dll@ 00452278     vrad_launcher.obj
 0002:00000284       ??_C@_0CG@FKLCCIOF@vrad_launcher?5error?3?5can?8t?5load@ 00452284     vrad_launcher.obj
 0002:000002ac       ??_C@_0DG@FLCBCGCJ@vrad_launcher?5error?3?5can?8t?5get?5@ 004522ac     vrad_launcher.obj
 0002:000002e4       ??_C@_09EFCFLAFC@vraddll_1@ 004522e4     vrad_launcher.obj
 0002:000002f0       ??_C@_0EB@CELALMKM@vrad_launcher?5error?3?5can?8t?5get?5@ 004522f0     vrad_launcher.obj
 0002:00000334       ??_C@_04KMMJEEDD@?9hdr@    00452334     vrad_launcher.obj
 0002:0000033c       ??_C@_04CDKLNDGE@?9ldr@    0045233c     vrad_launcher.obj
 0002:00000344       ??_C@_0BC@KNBMEBEO@IsDebuggerPresent@ 00452344     tier1:interface.obj
 0002:00000358       ??_C@_08PNLNEKOB@kernel32@ 00452358     tier1:interface.obj
 0002:00000364       ??_C@_04HLONOPDM@?4dll@    00452364     tier1:interface.obj
 0002:0000036c       ??_C@_09ILGMALND@?$CFs?1bin?1?$CFs@ 0045236c     tier1:interface.obj
 0002:00000378       ??_C@_0M@OJHILNKA@?9allowdebug@ 00452378     tier1:interface.obj
 0002:00000384       ??_C@_0L@EJCNAOMG@BuiltDebug@ 00452384     tier1:interface.obj
 0002:00000390       ??_C@_0BM@OIEJAJOK@Module?5?$CFs?5is?5a?5debug?5build?6@ 00452390     tier1:interface.obj
 0002:000003ac       ??_C@_0BA@OBHPCBFP@CreateInterface@ 004523ac     tier1:interface.obj
 0002:000003bc       ??_C@_03MEIELMMJ@?5MB@     004523bc     tier1:strtools.obj
 0002:000003c0       ??_C@_03MAAJMAHL@?5KB@     004523c0     tier1:strtools.obj
 0002:000003c4       ??_C@_06LCIDCBMH@?5bytes@  004523c4     tier1:strtools.obj
 0002:000003cc       ??_C@_04EMEGLOCB@?$CFi?$CFs@ 004523cc     tier1:strtools.obj
 0002:000003d4       ??_C@_08BIBOIFBG@?$CF?$CF?4?$CFif?$CFs@ 004523d4     tier1:strtools.obj
 0002:000003e0       ??_C@_01LFCBOECM@?4@       004523e0     tier1:strtools.obj
 0002:000003e4       ??_C@_01CLKCMJKC@?5@       004523e4     tier1:strtools.obj
 0002:000003e8       ??_C@_01JOAMLHOP@?9@       004523e8     tier1:strtools.obj
 0002:000003ec       ??_C@_03DPLIHHLN@?$CFd?0@  004523ec     tier1:strtools.obj
 0002:000003f0       ??_C@_05CMAMCNEC@?$CF03d?0@ 004523f0     tier1:strtools.obj
 0002:000003f8       ??_C@_04OHGLKFFN@?$CF03d@  004523f8     tier1:strtools.obj
 0002:00000400       ??_C@_02DPKJAMEF@?$CFd@    00452400     tier1:strtools.obj
 0002:00000404       ??_C@_04NOJCDH@?$CF02x@    00452404     tier1:strtools.obj
 0002:0000040c       ??_C@_02CAHBHFGK@?4?1@     0045240c     tier1:strtools.obj
 0002:00000410       ??_C@_02CEGDFPFP@?4?2@     00452410     tier1:strtools.obj
 0002:00000414       ??_C@_03OOAAEEIB@?4?$CFc@  00452414     tier1:strtools.obj
 0002:00000418       ??_C@_0CH@DNILKGJA@V_AppendSlash?3?5ran?5out?5of?5space@ 00452418     tier1:strtools.obj
 0002:00000440       ??_C@_0CE@INIPJBEP@V_MakeAbsolutePath?3?5_getcwd?5fai@ 00452440     tier1:strtools.obj
 0002:00000464       ??_C@_0DB@FOILCOJM@V_MakeAbsolutePath?3?5tried?5to?5?$CC?4@ 00452464     tier1:strtools.obj
 0002:00000498       __real@3ee4f8b588e368f1    00452498     tier1:strtools.obj
 0002:000004a0       __real@4024000000000000    004524a0     tier1:strtools.obj
 0002:000004a8       __real@4030000000000000    004524a8     tier1:strtools.obj
 0002:000004b0       __real@4048000000000000    004524b0     tier1:strtools.obj
 0002:000004b8       __real@4050400000000000    004524b8     tier1:strtools.obj
 0002:000004c0       __real@4058400000000000    004524c0     tier1:strtools.obj
 0002:000004c8       __real@447a0000            004524c8     tier1:strtools.obj
 0002:000004cc       __real@44800000            004524cc     tier1:strtools.obj
 0002:000004d0       __xmm@7fffffff7fffffff7fffffff7fffffff 004524d0     tier1:strtools.obj
 0002:000004ec       ??_7exception@std@@6B@     004524ec     LIBCMT:throw_bad_alloc.obj
 0002:000004f4       ??_C@_0BC@EOODALEL@Unknown?5exception@ 004524f4     LIBCMT:throw_bad_alloc.obj
 0002:0000050c       ??_7bad_alloc@std@@6B@     0045250c     LIBCMT:throw_bad_alloc.obj
 0002:00000514       ??_C@_0P@GHFPNOJB@bad?5allocation@ 00452514     LIBCMT:throw_bad_alloc.obj
 0002:00000528       ??_7bad_array_new_length@std@@6B@ 00452528     LIBCMT:throw_bad_alloc.obj
 0002:00000530       ??_C@_0BF@KINCDENJ@bad?5array?5new?5length@ 00452530     LIBCMT:throw_bad_alloc.obj
 0002:0000054c       ??_7type_info@@6B@         0045254c     LIBCMT:std_type_info_static.obj
 0002:00000550       __pDestructExceptionObject 00452550     libvcruntime:ehhelpers.obj
 0002:000008e0       ??_C@_08EHJDFFNH@__based?$CI@ 004528e0     libvcruntime:undname.obj
 0002:000008ec       ??_C@_07KOLFKCDI@__cdecl@  004528ec     libvcruntime:undname.obj
 0002:000008f4       ??_C@_08GHMPAG@__pascal@   004528f4     libvcruntime:undname.obj
 0002:00000900       ??_C@_09IFJBGAPI@__stdcall@ 00452900     libvcruntime:undname.obj
 0002:0000090c       ??_C@_0L@NPHFGOKO@__thiscall@ 0045290c     libvcruntime:undname.obj
 0002:00000918       ??_C@_0L@JMKHOMEK@__fastcall@ 00452918     libvcruntime:undname.obj
 0002:00000924       ??_C@_0N@BCKKPABJ@__vectorcall@ 00452924     libvcruntime:undname.obj
 0002:00000934       ??_C@_09HIJEGCPM@__clrcall@ 00452934     libvcruntime:undname.obj
 0002:00000940       ??_C@_06GHPCKEAG@__eabi@   00452940     libvcruntime:undname.obj
 0002:00000948       ??_C@_09IOPIDJLG@__swift_1@ 00452948     libvcruntime:undname.obj
 0002:00000954       ??_C@_09KFNFGKHF@__swift_2@ 00452954     libvcruntime:undname.obj
 0002:00000960       ??_C@_09LMMOFLDE@__swift_3@ 00452960     libvcruntime:undname.obj
 0002:0000096c       ??_C@_07JOMMBBKO@__ptr64@  0045296c     libvcruntime:undname.obj
 0002:00000974       ??_C@_0L@PILCLIHE@__restrict@ 00452974     libvcruntime:undname.obj
 0002:00000980       ??_C@_0M@GFIIJFMG@__unaligned@ 00452980     libvcruntime:undname.obj
 0002:0000098c       ??_C@_09DHDLOLLB@restrict?$CI@ 0045298c     libvcruntime:undname.obj
 0002:00000996       ??_C@_00CNPNBAHC@@         00452996     libvcruntime:undname.obj
 0002:00000998       ??_C@_04NIHEBCM@?5new@     00452998     libvcruntime:undname.obj
 0002:000009a0       ??_C@_07FPCDHGMM@?5delete@ 004529a0     libvcruntime:undname.obj
 0002:000009a8       ??_C@_01NEMOKFLO@?$DN@     004529a8     libvcruntime:undname.obj
 0002:000009ac       ??_C@_02GPIOPFAK@?$DO?$DO@ 004529ac     libvcruntime:undname.obj
 0002:000009b0       ??_C@_02FODMEDOG@?$DM?$DM@ 004529b0     libvcruntime:undname.obj
 0002:000009b4       ??_C@_01DCLJPIOD@?$CB@     004529b4     libvcruntime:undname.obj
 0002:000009b8       ??_C@_02EGOFBIJA@?$DN?$DN@ 004529b8     libvcruntime:undname.obj
 0002:000009bc       ??_C@_02FDNJECIE@?$CB?$DN@ 004529bc     libvcruntime:undname.obj
 0002:000009c0       ??_C@_02GPECMEKF@?$FL?$FN@ 004529c0     libvcruntime:undname.obj
 0002:000009c4       ??_C@_08LHJFAFGD@operator@ 004529c4     libvcruntime:undname.obj
 0002:000009d0       ??_C@_02HBOOOICD@?9?$DO@   004529d0     libvcruntime:undname.obj
 0002:000009d4       ??_C@_01NBENCBCI@?$CK@     004529d4     libvcruntime:undname.obj
 0002:000009d8       ??_C@_02ECNGHCIF@?$CL?$CL@ 004529d8     libvcruntime:undname.obj
 0002:000009dc       ??_C@_02BAABKJLB@?9?9@     004529dc     libvcruntime:undname.obj
 0002:000009e0       ??_C@_01MIFGBAGJ@?$CL@     004529e0     libvcruntime:undname.obj
 0002:000009e4       ??_C@_01HNPIGOCE@?$CG@     004529e4     libvcruntime:undname.obj
 0002:000009e8       ??_C@_03MNHNFDLC@?9?$DO?$CK@ 004529e8     libvcruntime:undname.obj
 0002:000009ec       ??_C@_01KMDKNFGN@?1@       004529ec     libvcruntime:undname.obj
 0002:000009f0       ??_C@_01FGNFDNOH@?$CF@     004529f0     libvcruntime:undname.obj
 0002:000009f4       ??_C@_01MNNFJEPP@?$DM@     004529f4     libvcruntime:undname.obj
 0002:000009f8       ??_C@_02EHCHHCKH@?$DM?$DN@ 004529f8     libvcruntime:undname.obj
 0002:000009fc       ??_C@_01PPODPGHN@?$DO@     004529fc     libvcruntime:undname.obj
 0002:00000a00       ??_C@_02EEKDKGMJ@?$DO?$DN@ 00452a00     libvcruntime:undname.obj
 0002:00000a04       ??_C@_01IHBHIGKO@?0@       00452a04     libvcruntime:undname.obj
 0002:00000a08       ??_C@_02HCKGKOFO@?$CI?$CJ@ 00452a08     libvcruntime:undname.obj
 0002:00000a0c       ??_C@_01PJKLJHI@?$HO@      00452a0c     libvcruntime:undname.obj
 0002:00000a10       ??_C@_01JKBOJNNK@?$FO@     00452a10     libvcruntime:undname.obj
 0002:00000a14       ??_C@_01DNKMNLPK@?$HM@     00452a14     libvcruntime:undname.obj
 0002:00000a18       ??_C@_02PPKAJPJL@?$CG?$CG@ 00452a18     libvcruntime:undname.obj
 0002:00000a1c       ??_C@_02NONPIBCD@?$HM?$HM@ 00452a1c     libvcruntime:undname.obj
 0002:00000a20       ??_C@_02FPIMKNGF@?$CK?$DN@ 00452a20     libvcruntime:undname.obj
 0002:00000a24       ??_C@_02FOEOMHFC@?$CL?$DN@ 00452a24     libvcruntime:undname.obj
 0002:00000a28       ??_C@_02FKMDLLOA@?9?$DN@   00452a28     libvcruntime:undname.obj
 0002:00000a2c       ??_C@_02FJEHGPIO@?1?$DN@   00452a2c     libvcruntime:undname.obj
 0002:00000a30       ??_C@_02FENAOKFI@?$CF?$DN@ 00452a30     libvcruntime:undname.obj
 0002:00000a34       ??_C@_03IKFCCPFF@?$DO?$DO?$DN@ 00452a34     libvcruntime:undname.obj
 0002:00000a38       ??_C@_03CDNPDDLA@?$DM?$DM?$DN@ 00452a38     libvcruntime:undname.obj
 0002:00000a3c       ??_C@_02FGJGFEAB@?$CG?$DN@ 00452a3c     libvcruntime:undname.obj
 0002:00000a40       ??_C@_02DHLNPPGH@?$HM?$DN@ 00452a40     libvcruntime:undname.obj
 0002:00000a44       ??_C@_02MHEGNOJ@?$FO?$DN@  00452a44     libvcruntime:undname.obj
 0002:00000a48       ??_C@_09IFPLHPGF@?$GAvftable?8@ 00452a48     libvcruntime:undname.obj
 0002:00000a54       ??_C@_09BLBHBJP@?$GAvbtable?8@ 00452a54     libvcruntime:undname.obj
 0002:00000a60       ??_C@_07FEEIOKP@?$GAvcall?8@ 00452a60     libvcruntime:undname.obj
 0002:00000a68       ??_C@_08LLFFHHDJ@?$GAtypeof?8@ 00452a68     libvcruntime:undname.obj
 0002:00000a74       ??_C@_0BF@KDPPACIK@?$GAlocal?5static?5guard?8@ 00452a74     libvcruntime:undname.obj
 0002:00000a8c       ??_C@_08OBABFOLI@?$GAstring?8@ 00452a8c     libvcruntime:undname.obj
 0002:00000a98       ??_C@_0BD@JDLKDPAB@?$GAvbase?5destructor?8@ 00452a98     libvcruntime:undname.obj
 0002:00000aac       ??_C@_0BN@DEGPLNFK@?$GAvector?5deleting?5destructor?8@ 00452aac     libvcruntime:undname.obj
 0002:00000acc       ??_C@_0BO@OBMKPJIG@?$GAdefault?5constructor?5closure?8@ 00452acc     libvcruntime:undname.obj
 0002:00000aec       ??_C@_0BN@IMDCHIKM@?$GAscalar?5deleting?5destructor?8@ 00452aec     libvcruntime:undname.obj
 0002:00000b0c       ??_C@_0BO@PFGOCPJJ@?$GAvector?5constructor?5iterator?8@ 00452b0c     libvcruntime:undname.obj
 0002:00000b2c       ??_C@_0BN@LFPFMEDL@?$GAvector?5destructor?5iterator?8@ 00452b2c     libvcruntime:undname.obj
 0002:00000b4c       ??_C@_0CE@IKBNEHA@?$GAvector?5vbase?5constructor?5itera@ 00452b4c     libvcruntime:undname.obj
 0002:00000b70       ??_C@_0BL@NILFHHPC@?$GAvirtual?5displacement?5map?8@ 00452b70     libvcruntime:undname.obj
 0002:00000b8c       ??_C@_0CB@JONCMFFK@?$GAeh?5vector?5constructor?5iterator@ 00452b8c     libvcruntime:undname.obj
 0002:00000bb0       ??_C@_0CA@GCEOPDGL@?$GAeh?5vector?5destructor?5iterator?8@ 00452bb0     libvcruntime:undname.obj
 0002:00000bd0       ??_C@_0CH@OOJPLCPH@?$GAeh?5vector?5vbase?5constructor?5it@ 00452bd0     libvcruntime:undname.obj
 0002:00000bf8       ??_C@_0BL@LLKPOHJI@?$GAcopy?5constructor?5closure?8@ 00452bf8     libvcruntime:undname.obj
 0002:00000c14       ??_C@_0BA@KBCDOMBN@?$GAudt?5returning?8@ 00452c14     libvcruntime:undname.obj
 0002:00000c24       ??_C@_03KLGMFNMG@?$GAEH@   00452c24     libvcruntime:undname.obj
 0002:00000c28       ??_C@_05KHLCHHI@?$GARTTI@  00452c28     libvcruntime:undname.obj
 0002:00000c30       ??_C@_0BA@KKLDJDLB@?$GAlocal?5vftable?8@ 00452c30     libvcruntime:undname.obj
 0002:00000c40       ??_C@_0CE@IIHCMGGL@?$GAlocal?5vftable?5constructor?5clos@ 00452c40     libvcruntime:undname.obj
 0002:00000c64       ??_C@_06FHBGPFGH@?5new?$FL?$FN@ 00452c64     libvcruntime:undname.obj
 0002:00000c6c       ??_C@_09LBNFPBCA@?5delete?$FL?$FN@ 00452c6c     libvcruntime:undname.obj
 0002:00000c78       ??_C@_0P@HJKNJFNN@?$GAomni?5callsig?8@ 00452c78     libvcruntime:undname.obj
 0002:00000c88       ??_C@_0BL@CNOONJFP@?$GAplacement?5delete?5closure?8@ 00452c88     libvcruntime:undname.obj
 0002:00000ca4       ??_C@_0BN@CKNJLHMB@?$GAplacement?5delete?$FL?$FN?5closure?8@ 00452ca4     libvcruntime:undname.obj
 0002:00000cc4       ??_C@_0CG@CFDHKGGD@?$GAmanaged?5vector?5constructor?5ite@ 00452cc4     libvcruntime:undname.obj
 0002:00000cec       ??_C@_0CF@IMGKMJNO@?$GAmanaged?5vector?5destructor?5iter@ 00452cec     libvcruntime:undname.obj
 0002:00000d14       ??_C@_0CG@HLDDJMAG@?$GAeh?5vector?5copy?5constructor?5ite@ 00452d14     libvcruntime:undname.obj
 0002:00000d3c       ??_C@_0CM@FCBBDIGB@?$GAeh?5vector?5vbase?5copy?5construct@ 00452d3c     libvcruntime:undname.obj
 0002:00000d68       ??_C@_0BL@CLIPGLGB@?$GAdynamic?5initializer?5for?5?8@ 00452d68     libvcruntime:undname.obj
 0002:00000d84       ??_C@_0CB@PDBIFEP@?$GAdynamic?5atexit?5destructor?5for?5@ 00452d84     libvcruntime:undname.obj
 0002:00000da8       ??_C@_0CD@CGAJBKEJ@?$GAvector?5copy?5constructor?5iterat@ 00452da8     libvcruntime:undname.obj
 0002:00000dcc       ??_C@_0CJ@GJELGAMM@?$GAvector?5vbase?5copy?5constructor?5@ 00452dcc     libvcruntime:undname.obj
 0002:00000df8       ??_C@_0CL@FGIJHLCE@?$GAmanaged?5vector?5copy?5constructo@ 00452df8     libvcruntime:undname.obj
 0002:00000e24       ??_C@_0BM@PMGGMLDN@?$GAlocal?5static?5thread?5guard?8@ 00452e24     libvcruntime:undname.obj
 0002:00000e40       ??_C@_0N@BDNMDMOL@operator?5?$CC?$CC?5@ 00452e40     libvcruntime:undname.obj
 0002:00000e50       ??_C@_0BC@GGEBGALA@operator?5co_await@ 00452e50     libvcruntime:undname.obj
 0002:00000e64       ??_C@_0M@GAAIMMOH@operator?$DM?$DN?$DO@ 00452e64     libvcruntime:undname.obj
 0002:00000e70       ??_C@_0BC@DAFEJGAK@?5Type?5Descriptor?8@ 00452e70     libvcruntime:undname.obj
 0002:00000e84       ??_C@_0BM@LDKODKLH@?5Base?5Class?5Descriptor?5at?5?$CI@ 00452e84     libvcruntime:undname.obj
 0002:00000ea0       ??_C@_0BD@LGICGFMM@?5Base?5Class?5Array?8@ 00452ea0     libvcruntime:undname.obj
 0002:00000eb4       ??_C@_0BN@MECKDCOJ@?5Class?5Hierarchy?5Descriptor?8@ 00452eb4     libvcruntime:undname.obj
 0002:00000ed4       ??_C@_0BK@CFCOFLF@?5Complete?5Object?5Locator?8@ 00452ed4     libvcruntime:undname.obj
 0002:00000ef0       ??_C@_0BG@JNJLAMPM@?$GAanonymous?5namespace?8@ 00452ef0     libvcruntime:undname.obj
 0002:00000f08       ??_C@_04HEJADOOB@CV?3?5@   00452f08     libvcruntime:undname.obj
 0002:00000f10       ??_C@_02MOLJINC@?3?3@      00452f10     libvcruntime:undname.obj
 0002:00000f14       ??_C@_0BE@JAEOCHPE@template?9parameter?9@ 00452f14     libvcruntime:undname.obj
 0002:00000f28       ??_C@_0BF@LNLGBBNL@?$GAtemplate?9parameter?9@ 00452f28     libvcruntime:undname.obj
 0002:00000f40       ??_C@_0O@KHGCOMHP@generic?9type?9@ 00452f40     libvcruntime:undname.obj
 0002:00000f50       ??_C@_0P@ODDENDLM@?$GAgeneric?9type?9@ 00452f50     libvcruntime:undname.obj
 0002:00000f60       ??_C@_02OHHJMEON@?8?8@     00452f60     libvcruntime:undname.obj
 0002:00000f64       ??_C@_0BN@IBLMMFAP@?$GAnon?9type?9template?9parameter@ 00452f64     libvcruntime:undname.obj
 0002:00000f84       ??_C@_03DLDNIBIK@?$CFlf@   00452f84     libvcruntime:undname.obj
 0002:00000f88       ??_C@_04OFALKAJ@?$DP?$DP_C@ 00452f88     libvcruntime:undname.obj
 0002:00000f90       ??_C@_03KHICJKCI@?4?4?4@   00452f90     libvcruntime:undname.obj
 0002:00000f94       ??_C@_04HIBGFPH@NULL@      00452f94     libvcruntime:undname.obj
 0002:00000f9c       ??_C@_0BK@IHCCFNEL@?$GAtemplate?9type?9parameter?9@ 00452f9c     libvcruntime:undname.obj
 0002:00000fb8       ??_C@_0BK@OFCNNNKO@?$GAgeneric?9class?9parameter?9@ 00452fb8     libvcruntime:undname.obj
 0002:00000fd4       ??_C@_0BL@NGJBLFIL@?$GAgeneric?9method?9parameter?9@ 00452fd4     libvcruntime:undname.obj
 0002:00000ff0       ??_C@_07OHNGEDJK@nullptr@  00452ff0     libvcruntime:undname.obj
 0002:00000ff8       ??_C@_06COJIGPIB@lambda@   00452ff8     libvcruntime:undname.obj
 0002:00001000       ??_C@_04GKJNKENE@void@     00453000     libvcruntime:undname.obj
 0002:00001008       ??_C@_0BE@EODMJLIF@?$GAtemplate?9parameter@ 00453008     libvcruntime:undname.obj
 0002:0000101c       ??_C@_03OPGICMGF@?$HN?8?5@ 0045301c     libvcruntime:undname.obj
 0002:00001020       ??_C@_02IGFCGPIL@?$HN?8@   00453020     libvcruntime:undname.obj
 0002:00001024       ??_C@_0N@CBHHHENL@?$GAvtordispex?$HL@ 00453024     libvcruntime:undname.obj
 0002:00001034       ??_C@_0L@GHPFDFH@?$GAvtordisp?$HL@ 00453034     libvcruntime:undname.obj
 0002:00001040       ??_C@_0L@HNGCOGAE@?$GAadjustor?$HL@ 00453040     libvcruntime:undname.obj
 0002:0000104c       ??_C@_0CB@KJDOOODE@?$GAlocal?5static?5destructor?5helper@ 0045304c     libvcruntime:undname.obj
 0002:00001070       ??_C@_0DB@ILEFOCIJ@?$GAtemplate?5static?5data?5member?5co@ 00453070     libvcruntime:undname.obj
 0002:000010a4       ??_C@_0DA@HGFJFBBE@?$GAtemplate?5static?5data?5member?5de@ 004530a4     libvcruntime:undname.obj
 0002:000010d4       ??_C@_07PGOEDBHP@static?5@ 004530d4     libvcruntime:undname.obj
 0002:000010dc       ??_C@_08NIEOINHE@virtual?5@ 004530dc     libvcruntime:undname.obj
 0002:000010e8       ??_C@_09LAPHOOG@private?3?5@ 004530e8     libvcruntime:undname.obj
 0002:000010f4       ??_C@_0M@GAIFPFIP@protected?3?5@ 004530f4     libvcruntime:undname.obj
 0002:00001100       ??_C@_08GPDDCMKI@public?3?5@ 00453100     libvcruntime:undname.obj
 0002:0000110c       ??_C@_08KJLFOPNE@?$FLthunk?$FN?3@ 0045310c     libvcruntime:undname.obj
 0002:00001118       ??_C@_0M@DHNBOJMP@extern?5?$CCC?$CC?5@ 00453118     libvcruntime:undname.obj
 0002:00001124       ??_C@_02KCKGHPCA@?$CJ?5@   00453124     libvcruntime:undname.obj
 0002:00001128       ??_C@_05CIHEBHNO@char?5@   00453128     libvcruntime:undname.obj
 0002:00001130       ??_C@_06EHJMALKF@short?5@  00453130     libvcruntime:undname.obj
 0002:00001138       ??_C@_04LAHKHJMA@int?5@    00453138     libvcruntime:undname.obj
 0002:00001140       ??_C@_05CJIMAING@long?5@   00453140     libvcruntime:undname.obj
 0002:00001148       ??_C@_09EBBEKKIH@unsigned?5@ 00453148     libvcruntime:undname.obj
 0002:00001154       ??_C@_05BEFAKPML@void?5@   00453154     libvcruntime:undname.obj
 0002:0000115c       ??_C@_09GAIEOBLP@volatile?5@ 0045315c     libvcruntime:undname.obj
 0002:00001168       ??_C@_08PABEKFH@volatile@  00453168     libvcruntime:undname.obj
 0002:00001174       ??_C@_0BA@LKIJLKPP@std?3?3nullptr_t?5@ 00453174     libvcruntime:undname.obj
 0002:00001184       ??_C@_0P@GCOCNKDM@std?3?3nullptr_t@ 00453184     libvcruntime:undname.obj
 0002:00001194       ??_C@_0L@EGPHHEKN@?$DMellipsis?$DO@ 00453194     libvcruntime:undname.obj
 0002:000011a0       ??_C@_04EENFHACM@?0?4?4?4@ 004531a0     libvcruntime:undname.obj
 0002:000011a8       ??_C@_0M@ELJOJFFH@?0?$DMellipsis?$DO@ 004531a8     libvcruntime:undname.obj
 0002:000011b4       ??_C@_09DNHFEOJI@?5noexcept@ 004531b4     libvcruntime:undname.obj
 0002:000011c0       ??_C@_03PBJBJNON@cpu@      004531c0     libvcruntime:undname.obj
 0002:000011c4       ??_C@_03DCBBJBAA@amp@      004531c4     libvcruntime:undname.obj
 0002:000011c8       ??_C@_02KEGNLNML@?0?5@     004531c8     libvcruntime:undname.obj
 0002:000011cc       ??_C@_04ENMBGAPA@char@     004531cc     libvcruntime:undname.obj
 0002:000011d4       ??_C@_05BFKKPKCG@short@    004531d4     libvcruntime:undname.obj
 0002:000011dc       ??_C@_03JBIPMCLC@int@      004531dc     libvcruntime:undname.obj
 0002:000011e0       ??_C@_04GOKPGOLB@long@     004531e0     libvcruntime:undname.obj
 0002:000011e8       ??_C@_05KNFBNCOH@float@    004531e8     libvcruntime:undname.obj
 0002:000011f0       ??_C@_06BNJCAIGJ@double@   004531f0     libvcruntime:undname.obj
 0002:000011f8       ??_C@_04DDKJGDCM@bool@     004531f8     libvcruntime:undname.obj
 0002:00001200       ??_C@_06EBGKOKIG@__int8@   00453200     libvcruntime:undname.obj
 0002:00001208       ??_C@_07ICFHOGAF@__int16@  00453208     libvcruntime:undname.obj
 0002:00001210       ??_C@_07OFLPPHGP@__int32@  00453210     libvcruntime:undname.obj
 0002:00001218       ??_C@_07LFCOJCAC@__int64@  00453218     libvcruntime:undname.obj
 0002:00001220       ??_C@_08GAHOLHEO@__int128@ 00453220     libvcruntime:undname.obj
 0002:0000122c       ??_C@_09EEKGDCPH@?$DMunknown?$DO@ 0045322c     libvcruntime:undname.obj
 0002:00001238       ??_C@_07CFHGOPCN@char8_t@  00453238     libvcruntime:undname.obj
 0002:00001240       ??_C@_08HBIPOFJB@char16_t@ 00453240     libvcruntime:undname.obj
 0002:0000124c       ??_C@_08IECNCBKG@char32_t@ 0045324c     libvcruntime:undname.obj
 0002:00001258       ??_C@_07CLGGIAMF@wchar_t@  00453258     libvcruntime:undname.obj
 0002:00001260       ??_C@_04HAPDLBFF@auto@     00453260     libvcruntime:undname.obj
 0002:00001268       ??_C@_0P@LHCGKIGK@decltype?$CIauto?$CJ@ 00453268     libvcruntime:undname.obj
 0002:00001278       ??_C@_05PCNBGHCF@this?5@   00453278     libvcruntime:undname.obj
 0002:00001280       ??_C@_06GCICPBLB@__w64?5@  00453280     libvcruntime:undname.obj
 0002:00001288       ??_C@_07NFANNNEC@UNKNOWN@  00453288     libvcruntime:undname.obj
 0002:00001290       ??_C@_07EDHNAJHC@signed?5@ 00453290     libvcruntime:undname.obj
 0002:00001298       ??_C@_05BNCCCJPP@const@    00453298     libvcruntime:undname.obj
 0002:000012a0       ??_C@_09EFNPDFFP@?5volatile@ 004532a0     libvcruntime:undname.obj
 0002:000012ac       ??_C@_0P@GCIFDJCJ@?$GAunknown?5ecsu?8@ 004532ac     libvcruntime:undname.obj
 0002:000012bc       ??_C@_06MOJHIBMG@union?5@  004532bc     libvcruntime:undname.obj
 0002:000012c4       ??_C@_07DIBCDNGL@struct?5@ 004532c4     libvcruntime:undname.obj
 0002:000012cc       ??_C@_06LJBABKPM@class?5@  004532cc     libvcruntime:undname.obj
 0002:000012d4       ??_C@_08KOFANOFK@coclass?5@ 004532d4     libvcruntime:undname.obj
 0002:000012e0       ??_C@_0N@DLIEFKNA@cointerface?5@ 004532e0     libvcruntime:undname.obj
 0002:000012f0       ??_C@_05LJGMCFOG@enum?5@   004532f0     libvcruntime:undname.obj
 0002:000012f8       ??_C@_06LIJLOJAG@const?5@  004532f8     libvcruntime:undname.obj
 0002:00001300       ??_C@_02KJPKDIBN@?$CG?5@   00453300     libvcruntime:undname.obj
 0002:00001304       ??_C@_03PCKGMOPB@?$CG?$CG?5@ 00453304     libvcruntime:undname.obj
 0002:00001308       ??_C@_0M@EALIELKG@cli?3?3array?$DM@ 00453308     libvcruntime:undname.obj
 0002:00001314       ??_C@_0O@GKABPPIF@cli?3?3pin_ptr?$DM@ 00453314     libvcruntime:undname.obj
 0002:00001324       ??_C@_02GOGNNPBN@?$CJ?$FL@ 00453324     libvcruntime:undname.obj
 0002:00001328       ??_C@_06EEGAIFAK@?$HLflat?$HN@ 00453328     libvcruntime:undname.obj
 0002:00001330       ??_C@_05JIBOFOHK@?$HLfor?5@ 00453330     libvcruntime:undname.obj
 0002:00001338       ??_C@_02MDINNEEG@s?5@      00453338     libvcruntime:undname.obj
 0002:00001340       ??_7DNameNode@@6B@         00453340     libvcruntime:undname.obj
 0002:00001354       ??_7charNode@@6B@          00453354     libvcruntime:undname.obj
 0002:00001368       ??_7pcharNode@@6B@         00453368     libvcruntime:undname.obj
 0002:0000137c       ??_7pDNameNode@@6B@        0045337c     libvcruntime:undname.obj
 0002:00001390       ??_7DNameStatusNode@@6B@   00453390     libvcruntime:undname.obj
 0002:000013a4       ??_7pairNode@@6B@          004533a4     libvcruntime:undname.obj
 0002:000014b8       ??_C@_04OKOHEJBO@?5?$DP?$DP?5@ 004534b8     libvcruntime:undname.obj
 0002:000014c0       ?nodes@?1??make@DNameStatusNode@@SAPBV2@W4DNameStatus@@@Z@4QBV2@B 004534c0     libvcruntime:undname.obj
 0002:000014fc       ??_C@_1DM@KHCHBNEB@?$AAa?$AAp?$AAi?$AA?9?$AAm?$AAs?$AA?9?$AAw?$AAi?$AAn?$AA?9?$AAc?$AAo?$AAr?$AAe@ 004534fc     libvcruntime:winapi_downlevel.obj
 0002:00001538       ??_C@_1DK@LPPGFMPP@?$AAa?$AAp?$AAi?$AA?9?$AAm?$AAs?$AA?9?$AAw?$AAi?$AAn?$AA?9?$AAc?$AAo?$AAr?$AAe@ 00453538     libvcruntime:winapi_downlevel.obj
 0002:00001574       ??_C@_1BC@GDMECMAK@?$AAk?$AAe?$AAr?$AAn?$AAe?$AAl?$AA3?$AA2@ 00453574     libvcruntime:winapi_downlevel.obj
 0002:00001588       ??_C@_1BA@PFFKHIOG@?$AAa?$AAp?$AAi?$AA?9?$AAm?$AAs?$AA?9@ 00453588     libvcruntime:winapi_downlevel.obj
 0002:000015a0       ??_C@_08KNHFBNJ@FlsAlloc@  004535a0     libvcruntime:winapi_downlevel.obj
 0002:000015b4       ??_C@_07PEJMOBNF@FlsFree@  004535b4     libvcruntime:winapi_downlevel.obj
 0002:000015c4       ??_C@_0M@GDNOONDI@FlsGetValue@ 004535c4     libvcruntime:winapi_downlevel.obj
 0002:000015d8       ??_C@_0M@JCPCPOEF@FlsSetValue@ 004535d8     libvcruntime:winapi_downlevel.obj
 0002:000015ec       ??_C@_0BM@HCFOFFN@InitializeCriticalSectionEx@ 004535ec     libvcruntime:winapi_downlevel.obj
 0002:0000160c       ??_7bad_exception@std@@6B@ 0045360c     libvcruntime:frame.obj
 0002:00001614       ??_C@_0O@DPKOEFFH@bad?5exception@ 00453614     libvcruntime:frame.obj
 0002:00001624       __Fenv1                    00453624     libucrt:output.obj
 0002:00001630       ?standard_lookup_table_spectre@__crt_stdio_output@@3V?$spectre_mitigated_lookup_table@Ustate_transition_pair@__crt_stdio_output@@$0IA@@1@B 00453630     libucrt:output.obj
 0002:00001730       ?format_validation_lookup_table_spectre@__crt_stdio_output@@3V?$spectre_mitigated_lookup_table@Ustate_transition_pair@__crt_stdio_output@@$0IA@@1@B 00453730     libucrt:output.obj
 0002:00001830       ??_C@_1O@CEDCILHN@?$AA?$CI?$AAn?$AAu?$AAl?$AAl?$AA?$CJ@ 00453830     libucrt:output.obj
 0002:00001840       ??_C@_06OJHGLDPL@?$CInull?$CJ@ 00453840     libucrt:output.obj
 0002:00001848       ___acrt_exception_action_table 00453848     libucrt:exception_filter.obj
 0002:000018d8       ___acrt_signal_action_table_count 004538d8     libucrt:exception_filter.obj
 0002:000018dc       ___acrt_signal_action_table_size 004538dc     libucrt:exception_filter.obj
 0002:000018e0       ___acrt_signal_action_first_fpe_index 004538e0     libucrt:exception_filter.obj
 0002:000018e4       ___acrt_signal_action_fpe_count 004538e4     libucrt:exception_filter.obj
 0002:000018e8       ??_C@_1DE@JNGNBFGO@?$AAR?$AAu?$AAn?$AAt?$AAi?$AAm?$AAe?$AA?5?$AAE?$AAr?$AAr?$AAo?$AAr?$AA?$CB?$AA?6@ 004538e8     libucrt:report_runtime_error.obj
 0002:0000191c       ??_C@_1CO@EAEJAADC@?$AA?$DM?$AAp?$AAr?$AAo?$AAg?$AAr?$AAa?$AAm?$AA?5?$AAn?$AAa?$AAm?$AAe?$AA?5?$AAu@ 0045391c     libucrt:report_runtime_error.obj
 0002:0000194c       ??_C@_17LGKOMLJ@?$AA?4?$AA?4?$AA?4@ 0045394c     libucrt:report_runtime_error.obj
 0002:00001954       ??_C@_15IABLJNFO@?$AA?6?$AA?6@ 00453954     libucrt:report_runtime_error.obj
 0002:00001960       ??_C@_1EK@MBDPDCGA@?$AAM?$AAi?$AAc?$AAr?$AAo?$AAs?$AAo?$AAf?$AAt?$AA?5?$AAV?$AAi?$AAs?$AAu?$AAa@ 00453960     libucrt:report_runtime_error.obj
 0002:000019ac       _RtlNtPathSeperatorString  004539ac     libucrt:exit.obj
 0002:000019b4       ??_C@_13FPGAJAPJ@?$AA?2@   004539b4     libucrt:exit.obj
 0002:000019b8       _RtlDosPathSeperatorsString 004539b8     libucrt:exit.obj
 0002:000019c0       ??_C@_15MNCACJLI@?$AA?2?$AA?1@ 004539c0     libucrt:exit.obj
 0002:000019c8       _RtlAlternateDosPathSeperatorString 004539c8     libucrt:exit.obj
 0002:000019d0       ??_C@_13CGOKJPIL@?$AA?1@   004539d0     libucrt:exit.obj
 0002:000019d4       ??_C@_1BI@BGOHAHKC@?$AAm?$AAs?$AAc?$AAo?$AAr?$AAe?$AAe?$AA?4?$AAd?$AAl?$AAl@ 004539d4     libucrt:exit.obj
 0002:000019ec       ??_C@_0P@MIGLKIOC@CorExitProcess@ 004539ec     libucrt:exit.obj
 0002:00001a80       ___lc_category             00453a80     libucrt:wsetlocale.obj
 0002:00001ac8       ??_C@_1O@GIFLHMA@?$AAL?$AAC?$AA_?$AAA?$AAL?$AAL@ 00453ac8     libucrt:wsetlocale.obj
 0002:00001ad8       ??_C@_1BG@PPOMIBNJ@?$AAL?$AAC?$AA_?$AAC?$AAO?$AAL?$AAL?$AAA?$AAT?$AAE@ 00453ad8     libucrt:wsetlocale.obj
 0002:00001af0       ??_C@_1BC@FFJGAPJM@?$AAL?$AAC?$AA_?$AAC?$AAT?$AAY?$AAP?$AAE@ 00453af0     libucrt:wsetlocale.obj
 0002:00001b04       ??_C@_1BI@PCKFNJFB@?$AAL?$AAC?$AA_?$AAM?$AAO?$AAN?$AAE?$AAT?$AAA?$AAR?$AAY@ 00453b04     libucrt:wsetlocale.obj
 0002:00001b1c       ??_C@_1BG@ENIEDKID@?$AAL?$AAC?$AA_?$AAN?$AAU?$AAM?$AAE?$AAR?$AAI?$AAC@ 00453b1c     libucrt:wsetlocale.obj
 0002:00001b34       ??_C@_1BA@HAAOMIIG@?$AAL?$AAC?$AA_?$AAT?$AAI?$AAM?$AAE@ 00453b34     libucrt:wsetlocale.obj
 0002:00001b44       ??_C@_15NBPDDFIP@?$AA?$DN?$AA?$DL@ 00453b44     libucrt:wsetlocale.obj
 0002:00001b4c       ??_C@_13PJJBFPED@?$AA?$DL@ 00453b4c     libucrt:wsetlocale.obj
 0002:00001b50       ??_C@_13NMPKAAJP@?$AA?$DN@ 00453b50     libucrt:wsetlocale.obj
 0002:00001b54       ??_C@_13IMODFHAA@?$AA?9@   00453b54     libucrt:wsetlocale.obj
 0002:00001b58       ??_C@_17EFJLDFDO@?$AA?9?$AA_?$AA?4@ 00453b58     libucrt:wsetlocale.obj
 0002:00001b60       ??_C@_13FHBKNHDA@?$AAC@    00453b60     libucrt:wsetlocale.obj
 0002:00001b64       ??_C@_17MBJJLFDM@?$AA_?$AA?4?$AA?0@ 00453b64     libucrt:wsetlocale.obj
 0002:00001b6c       ??_C@_13ENNFDPBH@?$AA_@    00453b6c     libucrt:wsetlocale.obj
 0002:00001b70       ??_C@_13JOFGPIOO@?$AA?4@   00453b70     libucrt:wsetlocale.obj
 0002:00001db0       ??_C@_1EA@JGEFHKEI@?$AAa?$AAp?$AAi?$AA?9?$AAm?$AAs?$AA?9?$AAw?$AAi?$AAn?$AA?9?$AAc?$AAo?$AAr?$AAe@ 00453db0     libucrt:winapi_thunks.obj
 0002:00001df0       ??_C@_1DI@IJCEHOCB@?$AAa?$AAp?$AAi?$AA?9?$AAm?$AAs?$AA?9?$AAw?$AAi?$AAn?$AA?9?$AAc?$AAo?$AAr?$AAe@ 00453df0     libucrt:winapi_thunks.obj
 0002:00001e28       ??_C@_1EI@MPIAOHOC@?$AAa?$AAp?$AAi?$AA?9?$AAm?$AAs?$AA?9?$AAw?$AAi?$AAn?$AA?9?$AAc?$AAo?$AAr?$AAe@ 00453e28     libucrt:winapi_thunks.obj
 0002:00001e70       ??_C@_1FK@FPHCKFIE@?$AAa?$AAp?$AAi?$AA?9?$AAm?$AAs?$AA?9?$AAw?$AAi?$AAn?$AA?9?$AAc?$AAo?$AAr?$AAe@ 00453e70     libucrt:winapi_thunks.obj
 0002:00001ed0       ??_C@_1EM@DILCGIIO@?$AAa?$AAp?$AAi?$AA?9?$AAm?$AAs?$AA?9?$AAw?$AAi?$AAn?$AA?9?$AAc?$AAo?$AAr?$AAe@ 00453ed0     libucrt:winapi_thunks.obj
 0002:00001f1c       ??_C@_1DM@LNCGDDPN@?$AAa?$AAp?$AAi?$AA?9?$AAm?$AAs?$AA?9?$AAw?$AAi?$AAn?$AA?9?$AAc?$AAo?$AAr?$AAe@ 00453f1c     libucrt:winapi_thunks.obj
 0002:00001f58       ??_C@_1DO@FPAPJEMD@?$AAa?$AAp?$AAi?$AA?9?$AAm?$AAs?$AA?9?$AAw?$AAi?$AAn?$AA?9?$AAc?$AAo?$AAr?$AAe@ 00453f58     libucrt:winapi_thunks.obj
 0002:00001f98       ??_C@_1DK@NDHNAHIO@?$AAa?$AAp?$AAi?$AA?9?$AAm?$AAs?$AA?9?$AAw?$AAi?$AAn?$AA?9?$AAc?$AAo?$AAr?$AAe@ 00453f98     libucrt:winapi_thunks.obj
 0002:00001fd4       ??_C@_1DM@KGHDGBCM@?$AAa?$AAp?$AAi?$AA?9?$AAm?$AAs?$AA?9?$AAw?$AAi?$AAn?$AA?9?$AAc?$AAo?$AAr?$AAe@ 00453fd4     libucrt:winapi_thunks.obj
 0002:00002010       ??_C@_1EO@IJIOEFOH@?$AAa?$AAp?$AAi?$AA?9?$AAm?$AAs?$AA?9?$AAw?$AAi?$AAn?$AA?9?$AAr?$AAt?$AAc?$AAo@ 00454010     libucrt:winapi_thunks.obj
 0002:00002060       ??_C@_1FG@HHGEKANL@?$AAa?$AAp?$AAi?$AA?9?$AAm?$AAs?$AA?9?$AAw?$AAi?$AAn?$AA?9?$AAs?$AAe?$AAc?$AAu@ 00454060     libucrt:winapi_thunks.obj
 0002:000020b8       ??_C@_1EG@DBIOJECG@?$AAe?$AAx?$AAt?$AA?9?$AAm?$AAs?$AA?9?$AAw?$AAi?$AAn?$AA?9?$AAn?$AAt?$AAu?$AAs@ 004540b8     libucrt:winapi_thunks.obj
 0002:00002100       ??_C@_1EO@FIHMJCLF@?$AAe?$AAx?$AAt?$AA?9?$AAm?$AAs?$AA?9?$AAw?$AAi?$AAn?$AA?9?$AAn?$AAt?$AAu?$AAs@ 00454100     libucrt:winapi_thunks.obj
 0002:00002150       ??_C@_1BC@DNHGCMLG@?$AAa?$AAd?$AAv?$AAa?$AAp?$AAi?$AA3?$AA2@ 00454150     libucrt:winapi_thunks.obj
 0002:00002164       ??_C@_1M@OAIMIKLP@?$AAn?$AAt?$AAd?$AAl?$AAl@ 00454164     libucrt:winapi_thunks.obj
 0002:00002170       ??_C@_1EG@DPGNFKGC@?$AAa?$AAp?$AAi?$AA?9?$AAm?$AAs?$AA?9?$AAw?$AAi?$AAn?$AA?9?$AAa?$AAp?$AAp?$AAm@ 00454170     libucrt:winapi_thunks.obj
 0002:000021b8       ??_C@_1O@BCCLBEOE@?$AAu?$AAs?$AAe?$AAr?$AA3?$AA2@ 004541b8     libucrt:winapi_thunks.obj
 0002:000021c8       ??_C@_1DM@BPJLHKCE@?$AAa?$AAp?$AAi?$AA?9?$AAm?$AAs?$AA?9?$AAw?$AAi?$AAn?$AA?9?$AAc?$AAo?$AAr?$AAe@ 004541c8     libucrt:winapi_thunks.obj
 0002:00002204       ??_C@_1BA@IAIFMGEF@?$AAe?$AAx?$AAt?$AA?9?$AAm?$AAs?$AA?9@ 00454204     libucrt:winapi_thunks.obj
 0002:00002218       ??_C@_0BA@FHFNEAED@AreFileApisANSI@ 00454218     libucrt:winapi_thunks.obj
 0002:00002230       ??_C@_0BA@IHGNDAEB@CompareStringEx@ 00454230     libucrt:winapi_thunks.obj
 0002:00002248       ??_C@_0BE@LJANKFHF@EnumSystemLocalesEx@ 00454248     libucrt:winapi_thunks.obj
 0002:00002264       ??_C@_0BA@HNOPNCHB@GetActiveWindow@ 00454264     libucrt:winapi_thunks.obj
 0002:0000227c       ??_C@_0BA@EPCJIIPD@GetDateFormatEx@ 0045427c     libucrt:winapi_thunks.obj
 0002:00002294       ??_C@_0BJ@DIBIJBHA@GetEnabledXStateFeatures@ 00454294     libucrt:winapi_thunks.obj
 0002:000022b8       ??_C@_0BD@HHGDFDBJ@GetLastActivePopup@ 004542b8     libucrt:winapi_thunks.obj
 0002:000022d4       ??_C@_0BA@ONOKGCMP@GetLocaleInfoEx@ 004542d4     libucrt:winapi_thunks.obj
 0002:000022ec       ??_C@_0BI@DFKBFLJE@GetProcessWindowStation@ 004542ec     libucrt:winapi_thunks.obj
 0002:00002308       ??_C@_0BP@FPNJPEJC@GetSystemTimePreciseAsFileTime@ 00454308     libucrt:winapi_thunks.obj
 0002:00002330       ??_C@_0BA@CIJJKCJJ@GetTimeFormatEx@ 00454330     libucrt:winapi_thunks.obj
 0002:00002348       ??_C@_0BJ@PBCCBIPI@GetUserDefaultLocaleName@ 00454348     libucrt:winapi_thunks.obj
 0002:0000236c       ??_C@_0BK@DEKFELLI@GetUserObjectInformationW@ 0045436c     libucrt:winapi_thunks.obj
 0002:00002390       ??_C@_0BG@IKLDMBLM@GetXStateFeaturesMask@ 00454390     libucrt:winapi_thunks.obj
 0002:000023b8       ??_C@_0BC@CELBKLLA@IsValidLocaleName@ 004543b8     libucrt:winapi_thunks.obj
 0002:000023d4       ??_C@_0O@KKBNKAPF@LCMapStringEx@ 004543d4     libucrt:winapi_thunks.obj
 0002:000023ec       ??_C@_0BB@CDHDDLLP@LCIDToLocaleName@ 004543ec     libucrt:winapi_thunks.obj
 0002:00002408       ??_C@_0BB@HBDEELFH@LocaleNameToLCID@ 00454408     libucrt:winapi_thunks.obj
 0002:00002424       ??_C@_0BE@KINNKFDA@LocateXStateFeature@ 00454424     libucrt:winapi_thunks.obj
 0002:00002440       ??_C@_0M@CHKKJDAI@MessageBoxA@ 00454440     libucrt:winapi_thunks.obj
 0002:00002454       ??_C@_0M@DLDCCGNP@MessageBoxW@ 00454454     libucrt:winapi_thunks.obj
 0002:00002464       ??_C@_0N@PPOMPGGK@RoInitialize@ 00454464     libucrt:winapi_thunks.obj
 0002:00002478       ??_C@_0P@LLFHBIJD@RoUninitialize@ 00454478     libucrt:winapi_thunks.obj
 0002:0000248c       ??_C@_0CF@OJOFEIGO@AppPolicyGetProcessTerminationM@ 0045448c     libucrt:winapi_thunks.obj
 0002:000024b8       ??_C@_0CF@NNDFDCOC@AppPolicyGetThreadInitializatio@ 004544b8     libucrt:winapi_thunks.obj
 0002:000024e4       ??_C@_0CE@OICFMIKE@AppPolicyGetShowDeveloperDiagno@ 004544e4     libucrt:winapi_thunks.obj
 0002:0000250c       ??_C@_0BL@ODDJNEDA@AppPolicyGetWindowingModel@ 0045450c     libucrt:winapi_thunks.obj
 0002:00002530       ??_C@_0BI@BKLFFAPO@SetThreadStackGuarantee@ 00454530     libucrt:winapi_thunks.obj
 0002:00002550       ??_C@_0BC@JEAENNKH@SystemFunction036@ 00454550     libucrt:winapi_thunks.obj
 0002:00002588       ___lc_time_c               00454588     libucrt:nlsdata.obj
 0002:000026ec       ??_C@_03KOEHGMDN@Sun@      004546ec     libucrt:nlsdata.obj
 0002:000026f0       ??_C@_03PDAGKDH@Mon@       004546f0     libucrt:nlsdata.obj
 0002:000026f4       ??_C@_03NAGEINEP@Tue@      004546f4     libucrt:nlsdata.obj
 0002:000026f8       ??_C@_03MHOMLAJA@Wed@      004546f8     libucrt:nlsdata.obj
 0002:000026fc       ??_C@_03IOFIKPDN@Thu@      004546fc     libucrt:nlsdata.obj
 0002:00002700       ??_C@_03IDIOELNC@Fri@      00454700     libucrt:nlsdata.obj
 0002:00002704       ??_C@_03FEFJNEK@Sat@       00454704     libucrt:nlsdata.obj
 0002:00002708       ??_C@_06OOPIFAJ@Sunday@    00454708     libucrt:nlsdata.obj
 0002:00002710       ??_C@_06JLEDEDGH@Monday@   00454710     libucrt:nlsdata.obj
 0002:00002718       ??_C@_07BAAGCFCM@Tuesday@  00454718     libucrt:nlsdata.obj
 0002:00002720       ??_C@_09DLIGFAKA@Wednesday@ 00454720     libucrt:nlsdata.obj
 0002:0000272c       ??_C@_08HACCIKIA@Thursday@ 0045472c     libucrt:nlsdata.obj
 0002:00002738       ??_C@_06JECMNKMI@Friday@   00454738     libucrt:nlsdata.obj
 0002:00002740       ??_C@_08INBOOONO@Saturday@ 00454740     libucrt:nlsdata.obj
 0002:0000274c       ??_C@_03JIHJHPIE@Jan@      0045474c     libucrt:nlsdata.obj
 0002:00002750       ??_C@_03HJBDCHOM@Feb@      00454750     libucrt:nlsdata.obj
 0002:00002754       ??_C@_03ODNJBKGA@Mar@      00454754     libucrt:nlsdata.obj
 0002:00002758       ??_C@_03LEOLGMJP@Apr@      00454758     libucrt:nlsdata.obj
 0002:0000275c       ??_C@_03CNMDKL@May@        0045475c     libucrt:nlsdata.obj
 0002:00002760       ??_C@_03IDFGHECI@Jun@      00454760     libucrt:nlsdata.obj
 0002:00002764       ??_C@_03LBGABGKK@Jul@      00454764     libucrt:nlsdata.obj
 0002:00002768       ??_C@_03IFJFEIGA@Aug@      00454768     libucrt:nlsdata.obj
 0002:0000276c       ??_C@_03GGCAPAJC@Sep@      0045476c     libucrt:nlsdata.obj
 0002:00002770       ??_C@_03BMAOKBAD@Oct@      00454770     libucrt:nlsdata.obj
 0002:00002774       ??_C@_03JPJOFNIA@Nov@      00454774     libucrt:nlsdata.obj
 0002:00002778       ??_C@_03MKABNOCG@Dec@      00454778     libucrt:nlsdata.obj
 0002:0000277c       ??_C@_07CGJPFGJA@January@  0045477c     libucrt:nlsdata.obj
 0002:00002784       ??_C@_08GNJGEPFN@February@ 00454784     libucrt:nlsdata.obj
 0002:00002790       ??_C@_05HPCKOFNC@March@    00454790     libucrt:nlsdata.obj
 0002:00002798       ??_C@_05DMJDNLEJ@April@    00454798     libucrt:nlsdata.obj
 0002:000027a0       ??_C@_04CNLMGBGM@June@     004547a0     libucrt:nlsdata.obj
 0002:000027a8       ??_C@_04MIEPOIFP@July@     004547a8     libucrt:nlsdata.obj
 0002:000027b0       ??_C@_06LBBHFDDG@August@   004547b0     libucrt:nlsdata.obj
 0002:000027b8       ??_C@_09BHHEALKD@September@ 004547b8     libucrt:nlsdata.obj
 0002:000027c4       ??_C@_07JJNFCEND@October@  004547c4     libucrt:nlsdata.obj
 0002:000027cc       ??_C@_08HCHEGEOA@November@ 004547cc     libucrt:nlsdata.obj
 0002:000027d8       ??_C@_08EDHMEBNP@December@ 004547d8     libucrt:nlsdata.obj
 0002:000027e4       ??_C@_02DEDBPAFC@AM@       004547e4     libucrt:nlsdata.obj
 0002:000027e8       ??_C@_02CJNFDJBF@PM@       004547e8     libucrt:nlsdata.obj
 0002:000027ec       ??_C@_08BPBNCDIB@MM?1dd?1yy@ 004547ec     libucrt:nlsdata.obj
 0002:000027f8       ??_C@_0BE@CKGJFCPC@dddd?0?5MMMM?5dd?0?5yyyy@ 004547f8     libucrt:nlsdata.obj
 0002:0000280c       ??_C@_08JCCMCCIL@HH?3mm?3ss@ 0045480c     libucrt:nlsdata.obj
 0002:00002818       ??_C@_17MBGCMIPB@?$AAS?$AAu?$AAn@ 00454818     libucrt:nlsdata.obj
 0002:00002820       ??_C@_17KBOMKBF@?$AAM?$AAo?$AAn@ 00454820     libucrt:nlsdata.obj
 0002:00002828       ??_C@_17BMKGEGOJ@?$AAT?$AAu?$AAe@ 00454828     libucrt:nlsdata.obj
 0002:00002830       ??_C@_17CJEDCEPE@?$AAW?$AAe?$AAd@ 00454830     libucrt:nlsdata.obj
 0002:00002838       ??_C@_17PDPHAADD@?$AAT?$AAh?$AAu@ 00454838     libucrt:nlsdata.obj
 0002:00002840       ??_C@_17HFOLPPLP@?$AAF?$AAr?$AAi@ 00454840     libucrt:nlsdata.obj
 0002:00002848       ??_C@_17GGIBDPIH@?$AAS?$AAa?$AAt@ 00454848     libucrt:nlsdata.obj
 0002:00002850       ??_C@_1O@IHNHDHPB@?$AAS?$AAu?$AAn?$AAd?$AAa?$AAy@ 00454850     libucrt:nlsdata.obj
 0002:00002860       ??_C@_1O@MMNBFLIA@?$AAM?$AAo?$AAn?$AAd?$AAa?$AAy@ 00454860     libucrt:nlsdata.obj
 0002:00002870       ??_C@_1BA@ENFBFFEK@?$AAT?$AAu?$AAe?$AAs?$AAd?$AAa?$AAy@ 00454870     libucrt:nlsdata.obj
 0002:00002880       ??_C@_1BE@EBOGMDOH@?$AAW?$AAe?$AAd?$AAn?$AAe?$AAs?$AAd?$AAa?$AAy@ 00454880     libucrt:nlsdata.obj
 0002:00002894       ??_C@_1BC@HHMNLIHE@?$AAT?$AAh?$AAu?$AAr?$AAs?$AAd?$AAa?$AAy@ 00454894     libucrt:nlsdata.obj
 0002:000028a8       ??_C@_1O@PDICJHAG@?$AAF?$AAr?$AAi?$AAd?$AAa?$AAy@ 004548a8     libucrt:nlsdata.obj
 0002:000028b8       ??_C@_1BC@ENMNNPAJ@?$AAS?$AAa?$AAt?$AAu?$AAr?$AAd?$AAa?$AAy@ 004548b8     libucrt:nlsdata.obj
 0002:000028cc       ??_C@_17DKNBKCHM@?$AAJ?$AAa?$AAn@ 004548cc     libucrt:nlsdata.obj
 0002:000028d4       ??_C@_17LMDJEKJN@?$AAF?$AAe?$AAb@ 004548d4     libucrt:nlsdata.obj
 0002:000028dc       ??_C@_17CKNLEDEC@?$AAM?$AAa?$AAr@ 004548dc     libucrt:nlsdata.obj
 0002:000028e4       ??_C@_17LFPOIHDD@?$AAA?$AAp?$AAr@ 004548e4     libucrt:nlsdata.obj
 0002:000028ec       ??_C@_17PNNKMEED@?$AAM?$AAa?$AAy@ 004548ec     libucrt:nlsdata.obj
 0002:000028f4       ??_C@_17KCJGOCPB@?$AAJ?$AAu?$AAn@ 004548f4     libucrt:nlsdata.obj
 0002:000028fc       ??_C@_17IJPCKHK@?$AAJ?$AAu?$AAl@ 004548fc     libucrt:nlsdata.obj
 0002:00002904       ??_C@_17ICPELBCN@?$AAA?$AAu?$AAg@ 00454904     libucrt:nlsdata.obj
 0002:0000290c       ??_C@_17HCHCOKMG@?$AAS?$AAe?$AAp@ 0045490c     libucrt:nlsdata.obj
 0002:00002914       ??_C@_17FNLKOI@?$AAO?$AAc?$AAt@ 00454914     libucrt:nlsdata.obj
 0002:0000291c       ??_C@_17BBDMLCIG@?$AAN?$AAo?$AAv@ 0045491c     libucrt:nlsdata.obj
 0002:00002924       ??_C@_17EGKACKIF@?$AAD?$AAe?$AAc@ 00454924     libucrt:nlsdata.obj
 0002:0000292c       ??_C@_1BA@EFMEIEBA@?$AAJ?$AAa?$AAn?$AAu?$AAa?$AAr?$AAy@ 0045492c     libucrt:nlsdata.obj
 0002:0000293c       ??_C@_1BC@JGDDFFAM@?$AAF?$AAe?$AAb?$AAr?$AAu?$AAa?$AAr?$AAy@ 0045493c     libucrt:nlsdata.obj
 0002:00002950       ??_C@_1M@IKEENEDF@?$AAM?$AAa?$AAr?$AAc?$AAh@ 00454950     libucrt:nlsdata.obj
 0002:0000295c       ??_C@_1M@GJNLMHFD@?$AAA?$AAp?$AAr?$AAi?$AAl@ 0045495c     libucrt:nlsdata.obj
 0002:00002968       ??_C@_19EPFLPGAP@?$AAJ?$AAu?$AAn?$AAe@ 00454968     libucrt:nlsdata.obj
 0002:00002974       ??_C@_19BIFMLPCD@?$AAJ?$AAu?$AAl?$AAy@ 00454974     libucrt:nlsdata.obj
 0002:00002980       ??_C@_1O@PAHLKOAC@?$AAA?$AAu?$AAg?$AAu?$AAs?$AAt@ 00454980     libucrt:nlsdata.obj
 0002:00002990       ??_C@_1BE@DKAAMBJL@?$AAS?$AAe?$AAp?$AAt?$AAe?$AAm?$AAb?$AAe?$AAr@ 00454990     libucrt:nlsdata.obj
 0002:000029a4       ??_C@_1BA@EPANDLNG@?$AAO?$AAc?$AAt?$AAo?$AAb?$AAe?$AAr@ 004549a4     libucrt:nlsdata.obj
 0002:000029b4       ??_C@_1BC@BGLIFPF@?$AAN?$AAo?$AAv?$AAe?$AAm?$AAb?$AAe?$AAr@ 004549b4     libucrt:nlsdata.obj
 0002:000029c8       ??_C@_1BC@FEMKIFH@?$AAD?$AAe?$AAc?$AAe?$AAm?$AAb?$AAe?$AAr@ 004549c8     libucrt:nlsdata.obj
 0002:000029dc       ??_C@_15ODEHAHHF@?$AAA?$AAM@ 004549dc     libucrt:nlsdata.obj
 0002:000029e4       ??_C@_15CLMNNGEL@?$AAP?$AAM@ 004549e4     libucrt:nlsdata.obj
 0002:000029ec       ??_C@_1BC@IEBCMHCM@?$AAM?$AAM?$AA?1?$AAd?$AAd?$AA?1?$AAy?$AAy@ 004549ec     libucrt:nlsdata.obj
 0002:00002a00       ??_C@_1CI@KNAKOEBC@?$AAd?$AAd?$AAd?$AAd?$AA?0?$AA?5?$AAM?$AAM?$AAM?$AAM?$AA?5?$AAd?$AAd?$AA?0?$AA?5@ 00454a00     libucrt:nlsdata.obj
 0002:00002a28       ??_C@_1BC@GDGBMEMK@?$AAH?$AAH?$AA?3?$AAm?$AAm?$AA?3?$AAs?$AAs@ 00454a28     libucrt:nlsdata.obj
 0002:00002a3c       ??_C@_1M@BMHNFIME@?$AAe?$AAn?$AA?9?$AAU?$AAS@ 00454a3c     libucrt:nlsdata.obj
 0002:00002a48       ?ccs@?1???$__acrt_stdio_parse_mode@D@@YA?AU__acrt_stdio_stream_mode@@QBD@Z@4QBDB 00454a48     libucrt:openfile.obj
 0002:00002a4c       ?utf8_encoding@?1???$__acrt_stdio_parse_mode@D@@YA?AU__acrt_stdio_stream_mode@@QBD@Z@4QBDB 00454a4c     libucrt:openfile.obj
 0002:00002a54       ?utf16_encoding@?1???$__acrt_stdio_parse_mode@D@@YA?AU__acrt_stdio_stream_mode@@QBD@Z@4QBDB 00454a54     libucrt:openfile.obj
 0002:00002a5c       ?unicode_encoding@?1???$__acrt_stdio_parse_mode@D@@YA?AU__acrt_stdio_stream_mode@@QBD@Z@4QBDB 00454a5c     libucrt:openfile.obj
 0002:00002a64       ?ccs@?1???$__acrt_stdio_parse_mode@_W@@YA?AU__acrt_stdio_stream_mode@@QB_W@Z@4QB_WB 00454a64     libucrt:openfile.obj
 0002:00002a6c       ?utf8_encoding@?1???$__acrt_stdio_parse_mode@_W@@YA?AU__acrt_stdio_stream_mode@@QB_W@Z@4QB_WB 00454a6c     libucrt:openfile.obj
 0002:00002a78       ?utf16_encoding@?1???$__acrt_stdio_parse_mode@_W@@YA?AU__acrt_stdio_stream_mode@@QB_W@Z@4QB_WB 00454a78     libucrt:openfile.obj
 0002:00002a88       ?unicode_encoding@?1???$__acrt_stdio_parse_mode@_W@@YA?AU__acrt_stdio_stream_mode@@QB_W@Z@4QB_WB 00454a88     libucrt:openfile.obj
 0002:00002ad8       ??_C@_03OEIAHPBN@INF@      00454ad8     libucrt:cvt.obj
 0002:00002adc       ??_C@_03OJHLLCGB@inf@      00454adc     libucrt:cvt.obj
 0002:00002ae0       ??_C@_03LKNCIKJB@NAN@      00454ae0     libucrt:cvt.obj
 0002:00002ae4       ??_C@_03LHCJEHON@nan@      00454ae4     libucrt:cvt.obj
 0002:00002ae8       ??_C@_09OFJJIMPC@NAN?$CISNAN?$CJ@ 00454ae8     libucrt:cvt.obj
 0002:00002af4       ??_C@_09IPFBKMDL@nan?$CIsnan?$CJ@ 00454af4     libucrt:cvt.obj
 0002:00002b00       ??_C@_08IKHNHAJ@NAN?$CIIND?$CJ@ 00454b00     libucrt:cvt.obj
 0002:00002b0c       ??_C@_08OFCDMILK@nan?$CIind?$CJ@ 00454b0c     libucrt:cvt.obj
 0002:00002b18       ??_C@_05KLBDPFGC@e?$CL000@ 00454b18     libucrt:cvt.obj
 0002:00002b30       ??_C@_1M@HPNHIDJI@?$AAj?$AAa?$AA?9?$AAJ?$AAP@ 00454b30     libucrt:mbctype.obj
 0002:00002b3c       ??_C@_1M@BIBDDEMK@?$AAz?$AAh?$AA?9?$AAC?$AAN@ 00454b3c     libucrt:mbctype.obj
 0002:00002b48       ??_C@_1M@JLOOOEGK@?$AAk?$AAo?$AA?9?$AAK?$AAR@ 00454b48     libucrt:mbctype.obj
 0002:00002b54       ??_C@_1M@CLNBBOPM@?$AAz?$AAh?$AA?9?$AAT?$AAW@ 00454b54     libucrt:mbctype.obj
 0002:00002b60       ___newctype                00454b60     libucrt:ctype.obj
 0002:00002e60       ___newclmap                00454e60     libucrt:ctype.obj
 0002:00002fe0       ___newcumap                00454fe0     libucrt:ctype.obj
 0002:00003160       __wctype                   00455160     libucrt:ctype.obj
 0002:00003368       ___acrt_rg_language        00455368     libucrt:get_qualified_locale.obj
 0002:00003674       ___acrt_rg_language_count  00455674     libucrt:get_qualified_locale.obj
 0002:00003678       ___acrt_rg_country         00455678     libucrt:get_qualified_locale.obj
 0002:0000378c       ___acrt_rg_country_count   0045578c     libucrt:get_qualified_locale.obj
 0002:00003790       ??_C@_1BC@LLOKLNP@?$AAa?$AAm?$AAe?$AAr?$AAi?$AAc?$AAa?$AAn@ 00455790     libucrt:get_qualified_locale.obj
 0002:000037a4       ??_C@_1CC@HEIGCDGG@?$AAa?$AAm?$AAe?$AAr?$AAi?$AAc?$AAa?$AAn?$AA?5?$AAe?$AAn?$AAg?$AAl?$AAi?$AAs@ 004557a4     libucrt:get_qualified_locale.obj
 0002:000037c8       ??_C@_1CC@IHCNOMIN@?$AAa?$AAm?$AAe?$AAr?$AAi?$AAc?$AAa?$AAn?$AA?9?$AAe?$AAn?$AAg?$AAl?$AAi?$AAs@ 004557c8     libucrt:get_qualified_locale.obj
 0002:000037ec       ??_C@_1BG@GKAGPCGG@?$AAa?$AAu?$AAs?$AAt?$AAr?$AAa?$AAl?$AAi?$AAa?$AAn@ 004557ec     libucrt:get_qualified_locale.obj
 0002:00003804       ??_C@_1BA@GMENCENF@?$AAb?$AAe?$AAl?$AAg?$AAi?$AAa?$AAn@ 00455804     libucrt:get_qualified_locale.obj
 0002:00003814       ??_C@_1BC@PJMIIAAN@?$AAc?$AAa?$AAn?$AAa?$AAd?$AAi?$AAa?$AAn@ 00455814     libucrt:get_qualified_locale.obj
 0002:00003828       ??_C@_17NOIMNFBF@?$AAc?$AAh?$AAh@ 00455828     libucrt:get_qualified_locale.obj
 0002:00003830       ??_C@_17GGDALCHA@?$AAc?$AAh?$AAi@ 00455830     libucrt:get_qualified_locale.obj
 0002:00003838       ??_C@_1BA@NPNJKIBL@?$AAc?$AAh?$AAi?$AAn?$AAe?$AAs?$AAe@ 00455838     libucrt:get_qualified_locale.obj
 0002:00003848       ??_C@_1CC@DINBAMMJ@?$AAc?$AAh?$AAi?$AAn?$AAe?$AAs?$AAe?$AA?9?$AAh?$AAo?$AAn?$AAg?$AAk?$AAo?$AAn@ 00455848     libucrt:get_qualified_locale.obj
 0002:0000386c       ??_C@_1CG@IOBJPACO@?$AAc?$AAh?$AAi?$AAn?$AAe?$AAs?$AAe?$AA?9?$AAs?$AAi?$AAm?$AAp?$AAl?$AAi?$AAf@ 0045586c     libucrt:get_qualified_locale.obj
 0002:00003894       ??_C@_1CE@GAJNDCKG@?$AAc?$AAh?$AAi?$AAn?$AAe?$AAs?$AAe?$AA?9?$AAs?$AAi?$AAn?$AAg?$AAa?$AAp?$AAo@ 00455894     libucrt:get_qualified_locale.obj
 0002:000038b8       ??_C@_1CI@PAJPIOOD@?$AAc?$AAh?$AAi?$AAn?$AAe?$AAs?$AAe?$AA?9?$AAt?$AAr?$AAa?$AAd?$AAi?$AAt?$AAi@ 004558b8     libucrt:get_qualified_locale.obj
 0002:000038e0       ??_C@_1BM@NILJBMMD@?$AAd?$AAu?$AAt?$AAc?$AAh?$AA?9?$AAb?$AAe?$AAl?$AAg?$AAi?$AAa?$AAn@ 004558e0     libucrt:get_qualified_locale.obj
 0002:000038fc       ??_C@_1CC@OOJPJNEJ@?$AAe?$AAn?$AAg?$AAl?$AAi?$AAs?$AAh?$AA?9?$AAa?$AAm?$AAe?$AAr?$AAi?$AAc?$AAa@ 004558fc     libucrt:get_qualified_locale.obj
 0002:00003920       ??_C@_1BI@IOLFEEM@?$AAe?$AAn?$AAg?$AAl?$AAi?$AAs?$AAh?$AA?9?$AAa?$AAu?$AAs@ 00455920     libucrt:get_qualified_locale.obj
 0002:00003938       ??_C@_1BO@HFFNLENJ@?$AAe?$AAn?$AAg?$AAl?$AAi?$AAs?$AAh?$AA?9?$AAb?$AAe?$AAl?$AAi?$AAz?$AAe@ 00455938     libucrt:get_qualified_locale.obj
 0002:00003958       ??_C@_1BI@HAPKJMPO@?$AAe?$AAn?$AAg?$AAl?$AAi?$AAs?$AAh?$AA?9?$AAc?$AAa?$AAn@ 00455958     libucrt:get_qualified_locale.obj
 0002:00003970       ??_C@_1CE@HLNDMIOJ@?$AAe?$AAn?$AAg?$AAl?$AAi?$AAs?$AAh?$AA?9?$AAc?$AAa?$AAr?$AAi?$AAb?$AAb?$AAe@ 00455970     libucrt:get_qualified_locale.obj
 0002:00003994       ??_C@_1BI@LDHJHHAC@?$AAe?$AAn?$AAg?$AAl?$AAi?$AAs?$AAh?$AA?9?$AAi?$AAr?$AAe@ 00455994     libucrt:get_qualified_locale.obj
 0002:000039ac       ??_C@_1CA@NJMMCFOC@?$AAe?$AAn?$AAg?$AAl?$AAi?$AAs?$AAh?$AA?9?$AAj?$AAa?$AAm?$AAa?$AAi?$AAc?$AAa@ 004559ac     libucrt:get_qualified_locale.obj
 0002:000039cc       ??_C@_1BG@BHJEBBGG@?$AAe?$AAn?$AAg?$AAl?$AAi?$AAs?$AAh?$AA?9?$AAn?$AAz@ 004559cc     libucrt:get_qualified_locale.obj
 0002:000039e4       ??_C@_1CK@FGOEJJCO@?$AAe?$AAn?$AAg?$AAl?$AAi?$AAs?$AAh?$AA?9?$AAs?$AAo?$AAu?$AAt?$AAh?$AA?5?$AAa@ 004559e4     libucrt:get_qualified_locale.obj
 0002:00003a10       ??_C@_1DE@PDBJPCJ@?$AAe?$AAn?$AAg?$AAl?$AAi?$AAs?$AAh?$AA?9?$AAt?$AAr?$AAi?$AAn?$AAi?$AAd?$AAa@ 00455a10     libucrt:get_qualified_locale.obj
 0002:00003a44       ??_C@_1BG@JGCANDME@?$AAe?$AAn?$AAg?$AAl?$AAi?$AAs?$AAh?$AA?9?$AAu?$AAk@ 00455a44     libucrt:get_qualified_locale.obj
 0002:00003a5c       ??_C@_1BG@DINKMLE@?$AAe?$AAn?$AAg?$AAl?$AAi?$AAs?$AAh?$AA?9?$AAu?$AAs@ 00455a5c     libucrt:get_qualified_locale.obj
 0002:00003a74       ??_C@_1BI@NMFDBHJE@?$AAe?$AAn?$AAg?$AAl?$AAi?$AAs?$AAh?$AA?9?$AAu?$AAs?$AAa@ 00455a74     libucrt:get_qualified_locale.obj
 0002:00003a8c       ??_C@_1BO@OIHKJKII@?$AAf?$AAr?$AAe?$AAn?$AAc?$AAh?$AA?9?$AAb?$AAe?$AAl?$AAg?$AAi?$AAa?$AAn@ 00455a8c     libucrt:get_qualified_locale.obj
 0002:00003aac       ??_C@_1CA@NKAELJKI@?$AAf?$AAr?$AAe?$AAn?$AAc?$AAh?$AA?9?$AAc?$AAa?$AAn?$AAa?$AAd?$AAi?$AAa?$AAn@ 00455aac     libucrt:get_qualified_locale.obj
 0002:00003acc       ??_C@_1CE@MGKCNLGN@?$AAf?$AAr?$AAe?$AAn?$AAc?$AAh?$AA?9?$AAl?$AAu?$AAx?$AAe?$AAm?$AAb?$AAo?$AAu@ 00455acc     libucrt:get_qualified_locale.obj
 0002:00003af0       ??_C@_1BK@CEGEAILM@?$AAf?$AAr?$AAe?$AAn?$AAc?$AAh?$AA?9?$AAs?$AAw?$AAi?$AAs?$AAs@ 00455af0     libucrt:get_qualified_locale.obj
 0002:00003b0c       ??_C@_1CA@PAFKEOCC@?$AAg?$AAe?$AAr?$AAm?$AAa?$AAn?$AA?9?$AAa?$AAu?$AAs?$AAt?$AAr?$AAi?$AAa?$AAn@ 00455b0c     libucrt:get_qualified_locale.obj
 0002:00003b2c       ??_C@_1CI@HCFHGOFD@?$AAg?$AAe?$AAr?$AAm?$AAa?$AAn?$AA?9?$AAl?$AAi?$AAc?$AAh?$AAt?$AAe?$AAn?$AAs@ 00455b2c     libucrt:get_qualified_locale.obj
 0002:00003b54       ??_C@_1CE@FEDDNPDG@?$AAg?$AAe?$AAr?$AAm?$AAa?$AAn?$AA?9?$AAl?$AAu?$AAx?$AAe?$AAm?$AAb?$AAo?$AAu@ 00455b54     libucrt:get_qualified_locale.obj
 0002:00003b78       ??_C@_1BK@LIMINNMN@?$AAg?$AAe?$AAr?$AAm?$AAa?$AAn?$AA?9?$AAs?$AAw?$AAi?$AAs?$AAs@ 00455b78     libucrt:get_qualified_locale.obj
 0002:00003b94       ??_C@_1BM@LGMDBEPD@?$AAi?$AAr?$AAi?$AAs?$AAh?$AA?9?$AAe?$AAn?$AAg?$AAl?$AAi?$AAs?$AAh@ 00455b94     libucrt:get_qualified_locale.obj
 0002:00003bb0       ??_C@_1BM@NNCFBAEE@?$AAi?$AAt?$AAa?$AAl?$AAi?$AAa?$AAn?$AA?9?$AAs?$AAw?$AAi?$AAs?$AAs@ 00455bb0     libucrt:get_qualified_locale.obj
 0002:00003bcc       ??_C@_1BE@FEDJNPIB@?$AAn?$AAo?$AAr?$AAw?$AAe?$AAg?$AAi?$AAa?$AAn@ 00455bcc     libucrt:get_qualified_locale.obj
 0002:00003be0       ??_C@_1CC@CILKDEIE@?$AAn?$AAo?$AAr?$AAw?$AAe?$AAg?$AAi?$AAa?$AAn?$AA?9?$AAb?$AAo?$AAk?$AAm?$AAa@ 00455be0     libucrt:get_qualified_locale.obj
 0002:00003c04       ??_C@_1CE@DHMMHEPL@?$AAn?$AAo?$AAr?$AAw?$AAe?$AAg?$AAi?$AAa?$AAn?$AA?9?$AAn?$AAy?$AAn?$AAo?$AAr@ 00455c04     libucrt:get_qualified_locale.obj
 0002:00003c28       ??_C@_1CK@OPNMHECD@?$AAp?$AAo?$AAr?$AAt?$AAu?$AAg?$AAu?$AAe?$AAs?$AAe?$AA?9?$AAb?$AAr?$AAa?$AAz@ 00455c28     libucrt:get_qualified_locale.obj
 0002:00003c54       ??_C@_1CE@KEEHCDB@?$AAs?$AAp?$AAa?$AAn?$AAi?$AAs?$AAh?$AA?9?$AAa?$AAr?$AAg?$AAe?$AAn?$AAt?$AAi@ 00455c54     libucrt:get_qualified_locale.obj
 0002:00003c78       ??_C@_1CA@GIAOLHJD@?$AAs?$AAp?$AAa?$AAn?$AAi?$AAs?$AAh?$AA?9?$AAb?$AAo?$AAl?$AAi?$AAv?$AAi?$AAa@ 00455c78     libucrt:get_qualified_locale.obj
 0002:00003c98       ??_C@_1BM@OJNDFNPD@?$AAs?$AAp?$AAa?$AAn?$AAi?$AAs?$AAh?$AA?9?$AAc?$AAh?$AAi?$AAl?$AAe@ 00455c98     libucrt:get_qualified_locale.obj
 0002:00003cb4       ??_C@_1CC@OCOLPALL@?$AAs?$AAp?$AAa?$AAn?$AAi?$AAs?$AAh?$AA?9?$AAc?$AAo?$AAl?$AAo?$AAm?$AAb?$AAi@ 00455cb4     libucrt:get_qualified_locale.obj
 0002:00003cd8       ??_C@_1CG@BPOFMKBB@?$AAs?$AAp?$AAa?$AAn?$AAi?$AAs?$AAh?$AA?9?$AAc?$AAo?$AAs?$AAt?$AAa?$AA?5?$AAr@ 00455cd8     libucrt:get_qualified_locale.obj
 0002:00003d00       ??_C@_1DG@IGOBAPBB@?$AAs?$AAp?$AAa?$AAn?$AAi?$AAs?$AAh?$AA?9?$AAd?$AAo?$AAm?$AAi?$AAn?$AAi?$AAc@ 00455d00     libucrt:get_qualified_locale.obj
 0002:00003d38       ??_C@_1CA@JHAPGEGI@?$AAs?$AAp?$AAa?$AAn?$AAi?$AAs?$AAh?$AA?9?$AAe?$AAc?$AAu?$AAa?$AAd?$AAo?$AAr@ 00455d38     libucrt:get_qualified_locale.obj
 0002:00003d58       ??_C@_1CI@LAPALJPP@?$AAs?$AAp?$AAa?$AAn?$AAi?$AAs?$AAh?$AA?9?$AAe?$AAl?$AA?5?$AAs?$AAa?$AAl?$AAv@ 00455d58     libucrt:get_qualified_locale.obj
 0002:00003d80       ??_C@_1CE@PDGBOFOM@?$AAs?$AAp?$AAa?$AAn?$AAi?$AAs?$AAh?$AA?9?$AAg?$AAu?$AAa?$AAt?$AAe?$AAm?$AAa@ 00455d80     libucrt:get_qualified_locale.obj
 0002:00003da4       ??_C@_1CC@NBEBAODI@?$AAs?$AAp?$AAa?$AAn?$AAi?$AAs?$AAh?$AA?9?$AAh?$AAo?$AAn?$AAd?$AAu?$AAr?$AAa@ 00455da4     libucrt:get_qualified_locale.obj
 0002:00003dc8       ??_C@_1CA@LLKGHBMF@?$AAs?$AAp?$AAa?$AAn?$AAi?$AAs?$AAh?$AA?9?$AAm?$AAe?$AAx?$AAi?$AAc?$AAa?$AAn@ 00455dc8     libucrt:get_qualified_locale.obj
 0002:00003de8       ??_C@_1BO@LKNDOIGD@?$AAs?$AAp?$AAa?$AAn?$AAi?$AAs?$AAh?$AA?9?$AAm?$AAo?$AAd?$AAe?$AAr?$AAn@ 00455de8     libucrt:get_qualified_locale.obj
 0002:00003e08       ??_C@_1CE@NMDMOEEB@?$AAs?$AAp?$AAa?$AAn?$AAi?$AAs?$AAh?$AA?9?$AAn?$AAi?$AAc?$AAa?$AAr?$AAa?$AAg@ 00455e08     libucrt:get_qualified_locale.obj
 0002:00003e2c       ??_C@_1BO@LLCBEJGB@?$AAs?$AAp?$AAa?$AAn?$AAi?$AAs?$AAh?$AA?9?$AAp?$AAa?$AAn?$AAa?$AAm?$AAa@ 00455e2c     libucrt:get_qualified_locale.obj
 0002:00003e4c       ??_C@_1CC@FKPGGIHO@?$AAs?$AAp?$AAa?$AAn?$AAi?$AAs?$AAh?$AA?9?$AAp?$AAa?$AAr?$AAa?$AAg?$AAu?$AAa@ 00455e4c     libucrt:get_qualified_locale.obj
 0002:00003e70       ??_C@_1BK@CDEIHOOP@?$AAs?$AAp?$AAa?$AAn?$AAi?$AAs?$AAh?$AA?9?$AAp?$AAe?$AAr?$AAu@ 00455e70     libucrt:get_qualified_locale.obj
 0002:00003e8c       ??_C@_1CI@GAHAKKGP@?$AAs?$AAp?$AAa?$AAn?$AAi?$AAs?$AAh?$AA?9?$AAp?$AAu?$AAe?$AAr?$AAt?$AAo?$AA?5@ 00455e8c     libucrt:get_qualified_locale.obj
 0002:00003eb4       ??_C@_1CA@NKJBCAGP@?$AAs?$AAp?$AAa?$AAn?$AAi?$AAs?$AAh?$AA?9?$AAu?$AAr?$AAu?$AAg?$AAu?$AAa?$AAy@ 00455eb4     libucrt:get_qualified_locale.obj
 0002:00003ed4       ??_C@_1CE@ODILCONM@?$AAs?$AAp?$AAa?$AAn?$AAi?$AAs?$AAh?$AA?9?$AAv?$AAe?$AAn?$AAe?$AAz?$AAu?$AAe@ 00455ed4     libucrt:get_qualified_locale.obj
 0002:00003ef8       ??_C@_1CA@OBNMCGFO@?$AAs?$AAw?$AAe?$AAd?$AAi?$AAs?$AAh?$AA?9?$AAf?$AAi?$AAn?$AAl?$AAa?$AAn?$AAd@ 00455ef8     libucrt:get_qualified_locale.obj
 0002:00003f18       ??_C@_1M@PIPDDPPI@?$AAs?$AAw?$AAi?$AAs?$AAs@ 00455f18     libucrt:get_qualified_locale.obj
 0002:00003f24       ??_C@_15PJPFLCCM@?$AAu?$AAk@ 00455f24     libucrt:get_qualified_locale.obj
 0002:00003f2c       ??_C@_15GMFIMNFM@?$AAu?$AAs@ 00455f2c     libucrt:get_qualified_locale.obj
 0002:00003f34       ??_C@_17HAEBFAGL@?$AAu?$AAs?$AAa@ 00455f34     libucrt:get_qualified_locale.obj
 0002:00003f3c       ??_C@_1BA@DPFJEPHB@?$AAa?$AAm?$AAe?$AAr?$AAi?$AAc?$AAa@ 00455f3c     libucrt:get_qualified_locale.obj
 0002:00003f4c       ??_C@_1BA@ELOGGFK@?$AAb?$AAr?$AAi?$AAt?$AAa?$AAi?$AAn@ 00455f4c     libucrt:get_qualified_locale.obj
 0002:00003f5c       ??_C@_1M@GHBGIGDA@?$AAc?$AAh?$AAi?$AAn?$AAa@ 00455f5c     libucrt:get_qualified_locale.obj
 0002:00003f68       ??_C@_1M@NCHEJOPO@?$AAc?$AAz?$AAe?$AAc?$AAh@ 00455f68     libucrt:get_qualified_locale.obj
 0002:00003f74       ??_C@_1BA@BKPAPBLA@?$AAe?$AAn?$AAg?$AAl?$AAa?$AAn?$AAd@ 00455f74     libucrt:get_qualified_locale.obj
 0002:00003f84       ??_C@_1BM@HKBCKIPC@?$AAg?$AAr?$AAe?$AAa?$AAt?$AA?5?$AAb?$AAr?$AAi?$AAt?$AAa?$AAi?$AAn@ 00455f84     libucrt:get_qualified_locale.obj
 0002:00003fa0       ??_C@_1BA@PPCHPGJB@?$AAh?$AAo?$AAl?$AAl?$AAa?$AAn?$AAd@ 00455fa0     libucrt:get_qualified_locale.obj
 0002:00003fb0       ??_C@_1BE@JBMPEGDG@?$AAh?$AAo?$AAn?$AAg?$AA?9?$AAk?$AAo?$AAn?$AAg@ 00455fb0     libucrt:get_qualified_locale.obj
 0002:00003fc4       ??_C@_1BI@KOELBBPJ@?$AAn?$AAe?$AAw?$AA?9?$AAz?$AAe?$AAa?$AAl?$AAa?$AAn?$AAd@ 00455fc4     libucrt:get_qualified_locale.obj
 0002:00003fdc       ??_C@_15HIEBHAIO@?$AAn?$AAz@ 00455fdc     libucrt:get_qualified_locale.obj
 0002:00003fe4       ??_C@_1BC@CHBCPFPI@?$AAp?$AAr?$AA?5?$AAc?$AAh?$AAi?$AAn?$AAa@ 00455fe4     libucrt:get_qualified_locale.obj
 0002:00003ff8       ??_C@_1BC@JAOIIFKD@?$AAp?$AAr?$AA?9?$AAc?$AAh?$AAi?$AAn?$AAa@ 00455ff8     libucrt:get_qualified_locale.obj
 0002:0000400c       ??_C@_1BI@BEHPPHKC@?$AAp?$AAu?$AAe?$AAr?$AAt?$AAo?$AA?9?$AAr?$AAi?$AAc?$AAo@ 0045600c     libucrt:get_qualified_locale.obj
 0002:00004024       ??_C@_1O@PAEOFKDI@?$AAs?$AAl?$AAo?$AAv?$AAa?$AAk@ 00456024     libucrt:get_qualified_locale.obj
 0002:00004034       ??_C@_1BK@FIHMCKAM@?$AAs?$AAo?$AAu?$AAt?$AAh?$AA?5?$AAa?$AAf?$AAr?$AAi?$AAc?$AAa@ 00456034     libucrt:get_qualified_locale.obj
 0002:00004050       ??_C@_1BI@NAEOODKB@?$AAs?$AAo?$AAu?$AAt?$AAh?$AA?5?$AAk?$AAo?$AAr?$AAe?$AAa@ 00456050     libucrt:get_qualified_locale.obj
 0002:00004068       ??_C@_1BK@FBDGGIFF@?$AAs?$AAo?$AAu?$AAt?$AAh?$AA?9?$AAa?$AAf?$AAr?$AAi?$AAc?$AAa@ 00456068     libucrt:get_qualified_locale.obj
 0002:00004084       ??_C@_1BI@GHLEJDPK@?$AAs?$AAo?$AAu?$AAt?$AAh?$AA?9?$AAk?$AAo?$AAr?$AAe?$AAa@ 00456084     libucrt:get_qualified_locale.obj
 0002:0000409c       ??_C@_1CE@PLHLOMJF@?$AAt?$AAr?$AAi?$AAn?$AAi?$AAd?$AAa?$AAd?$AA?5?$AA?$CG?$AA?5?$AAt?$AAo?$AAb?$AAa@ 0045609c     libucrt:get_qualified_locale.obj
 0002:000040c0       ??_C@_1BO@MODIMHHI@?$AAu?$AAn?$AAi?$AAt?$AAe?$AAd?$AA?9?$AAk?$AAi?$AAn?$AAg?$AAd?$AAo?$AAm@ 004560c0     libucrt:get_qualified_locale.obj
 0002:000040e0       ??_C@_1BM@FFHJONBJ@?$AAu?$AAn?$AAi?$AAt?$AAe?$AAd?$AA?9?$AAs?$AAt?$AAa?$AAt?$AAe?$AAs@ 004560e0     libucrt:get_qualified_locale.obj
 0002:000040fc       ??_C@_19MPDNHKDG@?$AAu?$AAt?$AAf?$AA8@ 004560fc     libucrt:get_qualified_locale.obj
 0002:00004108       ??_C@_17DNCLJFIF@?$AAA?$AAC?$AAP@ 00456108     libucrt:get_qualified_locale.obj
 0002:00004110       ??_C@_1M@FPEIIFAM@?$AAu?$AAt?$AAf?$AA?9?$AA8@ 00456110     libucrt:get_qualified_locale.obj
 0002:0000411c       ??_C@_17CIKBIHLH@?$AAO?$AAC?$AAP@ 0045611c     libucrt:get_qualified_locale.obj
 0002:00004124       ___rglangidNotDefault      00456124     libucrt:getqloc_downlevel.obj
 0002:00004860       ??_C@_15EMKDOKLE@?$AAa?$AAr@ 00456860     libucrt:lcidtoname_downlevel.obj
 0002:00004868       ??_C@_15KNPADPLH@?$AAb?$AAg@ 00456868     libucrt:lcidtoname_downlevel.obj
 0002:00004870       ??_C@_15EDMHLDMO@?$AAc?$AAa@ 00456870     libucrt:lcidtoname_downlevel.obj
 0002:00004878       ??_C@_1O@BPEAJADD@?$AAz?$AAh?$AA?9?$AAC?$AAH?$AAS@ 00456878     libucrt:lcidtoname_downlevel.obj
 0002:00004888       ??_C@_15LJNHCMNK@?$AAc?$AAs@ 00456888     libucrt:lcidtoname_downlevel.obj
 0002:00004890       ??_C@_15FOMCIDHG@?$AAd?$AAa@ 00456890     libucrt:lcidtoname_downlevel.obj
 0002:00004898       ??_C@_15NBKABECB@?$AAd?$AAe@ 00456898     libucrt:lcidtoname_downlevel.obj
 0002:000048a0       ??_C@_15GHPEIIAO@?$AAe?$AAl@ 004568a0     libucrt:lcidtoname_downlevel.obj
 0002:000048a8       ??_C@_15MNPNEAIF@?$AAe?$AAn@ 004568a8     libucrt:lcidtoname_downlevel.obj
 0002:000048b0       ??_C@_15GPIOMPMH@?$AAe?$AAs@ 004568b0     libucrt:lcidtoname_downlevel.obj
 0002:000048b8       ??_C@_15NGLOAKJC@?$AAf?$AAi@ 004568b8     libucrt:lcidtoname_downlevel.obj
 0002:000048c0       ??_C@_15FBKGNKAM@?$AAf?$AAr@ 004568c0     libucrt:lcidtoname_downlevel.obj
 0002:000048c8       ??_C@_15KGGCNEFK@?$AAh?$AAe@ 004568c8     libucrt:lcidtoname_downlevel.obj
 0002:000048d0       ??_C@_15PGHLIDMF@?$AAh?$AAu@ 004568d0     libucrt:lcidtoname_downlevel.obj
 0002:000048d8       ??_C@_15BIEMAPLM@?$AAi?$AAs@ 004568d8     libucrt:lcidtoname_downlevel.obj
 0002:000048e0       ??_C@_15IFJLDHAF@?$AAi?$AAt@ 004568e0     libucrt:lcidtoname_downlevel.obj
 0002:000048e8       ??_C@_15GEMIOCAG@?$AAj?$AAa@ 004568e8     libucrt:lcidtoname_downlevel.obj
 0002:000048f0       ??_C@_15EPELEGJA@?$AAk?$AAo@ 004568f0     libucrt:lcidtoname_downlevel.obj
 0002:000048f8       ??_C@_15NDDHIMN@?$AAn?$AAl@ 004568f8     libucrt:lcidtoname_downlevel.obj
 0002:00004900       ??_C@_15BPIGNHCD@?$AAn?$AAo@ 00456900     libucrt:lcidtoname_downlevel.obj
 0002:00004908       ??_C@_15DEOPBLCG@?$AAp?$AAl@ 00456908     libucrt:lcidtoname_downlevel.obj
 0002:00004910       ??_C@_15KBECGEFG@?$AAp?$AAt@ 00456910     libucrt:lcidtoname_downlevel.obj
 0002:00004918       ??_C@_15GLJCBFMD@?$AAr?$AAo@ 00456918     libucrt:lcidtoname_downlevel.obj
 0002:00004920       ??_C@_15FEDGKCDI@?$AAr?$AAu@ 00456920     libucrt:lcidtoname_downlevel.obj
 0002:00004928       ??_C@_15GLKMLLHM@?$AAh?$AAr@ 00456928     libucrt:lcidtoname_downlevel.obj
 0002:00004930       ??_C@_15CPKMFBDB@?$AAs?$AAk@ 00456930     libucrt:lcidtoname_downlevel.obj
 0002:00004938       ??_C@_15BAAIOGMK@?$AAs?$AAq@ 00456938     libucrt:lcidtoname_downlevel.obj
 0002:00004940       ??_C@_15INNPNOHD@?$AAs?$AAv@ 00456940     libucrt:lcidtoname_downlevel.obj
 0002:00004948       ??_C@_15CABMMOGH@?$AAt?$AAh@ 00456948     libucrt:lcidtoname_downlevel.obj
 0002:00004950       ??_C@_15BPLIHJJM@?$AAt?$AAr@ 00456950     libucrt:lcidtoname_downlevel.obj
 0002:00004958       ??_C@_15NEOEKKDJ@?$AAu?$AAr@ 00456958     libucrt:lcidtoname_downlevel.obj
 0002:00004960       ??_C@_15NFICGAJK@?$AAi?$AAd@ 00456960     libucrt:lcidtoname_downlevel.obj
 0002:00004968       ??_C@_15HPJPHDM@?$AAb?$AAe@ 00456968     libucrt:lcidtoname_downlevel.obj
 0002:00004970       ??_C@_15LCHLGJII@?$AAs?$AAl@ 00456970     libucrt:lcidtoname_downlevel.obj
 0002:00004978       ??_C@_15PCFJPHHO@?$AAe?$AAt@ 00456978     libucrt:lcidtoname_downlevel.obj
 0002:00004980       ??_C@_15HPFPGODN@?$AAl?$AAv@ 00456980     libucrt:lcidtoname_downlevel.obj
 0002:00004988       ??_C@_15NFFGKGLG@?$AAl?$AAt@ 00456988     libucrt:lcidtoname_downlevel.obj
 0002:00004990       ??_C@_15BDAKCCHN@?$AAf?$AAa@ 00456990     libucrt:lcidtoname_downlevel.obj
 0002:00004998       ??_C@_15NFGIAIAJ@?$AAv?$AAi@ 00456998     libucrt:lcidtoname_downlevel.obj
 0002:000049a0       ??_C@_15LMKNDMHN@?$AAh?$AAy@ 004569a0     libucrt:lcidtoname_downlevel.obj
 0002:000049a8       ??_C@_15IJBHMCFL@?$AAa?$AAz@ 004569a8     libucrt:lcidtoname_downlevel.obj
 0002:000049b0       ??_C@_15EKOFJABL@?$AAe?$AAu@ 004569b0     libucrt:lcidtoname_downlevel.obj
 0002:000049b8       ??_C@_15BGHADCNK@?$AAm?$AAk@ 004569b8     libucrt:lcidtoname_downlevel.obj
 0002:000049c0       ??_C@_15JDNICKHM@?$AAa?$AAf@ 004569c0     libucrt:lcidtoname_downlevel.obj
 0002:000049c8       ??_C@_15KPJEDBKD@?$AAk?$AAa@ 004569c8     libucrt:lcidtoname_downlevel.obj
 0002:000049d0       ??_C@_15PDNFFFEO@?$AAf?$AAo@ 004569d0     libucrt:lcidtoname_downlevel.obj
 0002:000049d8       ??_C@_15OMLEGLOC@?$AAh?$AAi@ 004569d8     libucrt:lcidtoname_downlevel.obj
 0002:000049e0       ??_C@_15IDNNENKK@?$AAm?$AAs@ 004569e0     libucrt:lcidtoname_downlevel.obj
 0002:000049e8       ??_C@_15MACJNBMH@?$AAk?$AAk@ 004569e8     libucrt:lcidtoname_downlevel.obj
 0002:000049f0       ??_C@_15DKDJEOND@?$AAk?$AAy@ 004569f0     libucrt:lcidtoname_downlevel.obj
 0002:000049f8       ??_C@_15DFGDLJBG@?$AAs?$AAw@ 004569f8     libucrt:lcidtoname_downlevel.obj
 0002:00004a00       ??_C@_15BBFAICNG@?$AAu?$AAz@ 00456a00     libucrt:lcidtoname_downlevel.obj
 0002:00004a08       ??_C@_15DKNDCGEA@?$AAt?$AAt@ 00456a08     libucrt:lcidtoname_downlevel.obj
 0002:00004a10       ??_C@_15MGIFMDPL@?$AAp?$AAa@ 00456a10     libucrt:lcidtoname_downlevel.obj
 0002:00004a18       ??_C@_15HCNDBBA@?$AAg?$AAu@ 00456a18     libucrt:lcidtoname_downlevel.obj
 0002:00004a20       ??_C@_15FNBEIBON@?$AAt?$AAa@ 00456a20     libucrt:lcidtoname_downlevel.obj
 0002:00004a28       ??_C@_15NCHGBGLK@?$AAt?$AAe@ 00456a28     libucrt:lcidtoname_downlevel.obj
 0002:00004a30       ??_C@_15PHPHCBPF@?$AAk?$AAn@ 00456a30     libucrt:lcidtoname_downlevel.obj
 0002:00004a38       ??_C@_15DLGBCKMP@?$AAm?$AAr@ 00456a38     libucrt:lcidtoname_downlevel.obj
 0002:00004a40       ??_C@_15EABBLBFF@?$AAs?$AAa@ 00456a40     libucrt:lcidtoname_downlevel.obj
 0002:00004a48       ??_C@_15CBKOMCOI@?$AAm?$AAn@ 00456a48     libucrt:lcidtoname_downlevel.obj
 0002:00004a50       ??_C@_15CKDMCJAF@?$AAg?$AAl@ 00456a50     libucrt:lcidtoname_downlevel.obj
 0002:00004a58       ??_C@_17CNJFBPG@?$AAk?$AAo?$AAk@ 00456a58     libucrt:lcidtoname_downlevel.obj
 0002:00004a60       ??_C@_17FFBJICPL@?$AAs?$AAy?$AAr@ 00456a60     libucrt:lcidtoname_downlevel.obj
 0002:00004a68       ??_C@_17KPNDCPAF@?$AAd?$AAi?$AAv@ 00456a68     libucrt:lcidtoname_downlevel.obj
 0002:00004a70       ??_C@_11LOCGONAA@@         00456a70     libucrt:lcidtoname_downlevel.obj
 0002:00004a74       ??_C@_1M@OKAHONE@?$AAa?$AAr?$AA?9?$AAS?$AAA@ 00456a74     libucrt:lcidtoname_downlevel.obj
 0002:00004a80       ??_C@_1M@FFFIGIGK@?$AAb?$AAg?$AA?9?$AAB?$AAG@ 00456a80     libucrt:lcidtoname_downlevel.obj
 0002:00004a8c       ??_C@_1M@BJNKEDC@?$AAc?$AAa?$AA?9?$AAE?$AAS@ 00456a8c     libucrt:lcidtoname_downlevel.obj
 0002:00004a98       ??_C@_1M@IJJHFJHA@?$AAc?$AAs?$AA?9?$AAC?$AAZ@ 00456a98     libucrt:lcidtoname_downlevel.obj
 0002:00004aa4       ??_C@_1M@CLPEOBGI@?$AAd?$AAa?$AA?9?$AAD?$AAK@ 00456aa4     libucrt:lcidtoname_downlevel.obj
 0002:00004ab0       ??_C@_1M@MCMADGCB@?$AAd?$AAe?$AA?9?$AAD?$AAE@ 00456ab0     libucrt:lcidtoname_downlevel.obj
 0002:00004abc       ??_C@_1M@OOCKEMAM@?$AAe?$AAl?$AA?9?$AAG?$AAR@ 00456abc     libucrt:lcidtoname_downlevel.obj
 0002:00004ac8       ??_C@_1M@DDNJFGID@?$AAf?$AAi?$AA?9?$AAF?$AAI@ 00456ac8     libucrt:lcidtoname_downlevel.obj
