 vbsp

 Timestamp is 64919a7e (Tue Jun 20 05:24:30 2023)

 Preferred load address is 00400000

 Start         Length     Name                   Class
 0001:00000000 000142c0H .text                   CODE
 0001:000142c0 00000920H .text$di                CODE
 0001:00014be0 00114580H .text$mn                CODE
 0001:00129160 00003af0H .text$x                 CODE
 0001:0012cc50 000000a0H .text$yc                CODE
 0001:0012ccf0 000014ccH .text$yd                CODE
 0002:00000000 00000288H .idata$5                DATA
 0002:00000288 0000000cH .00cfg                  DATA
 0002:00000294 00000004H .CRT$XCA                DATA
 0002:00000298 00000004H .CRT$XCAA               DATA
 0002:0000029c 0000000cH .CRT$XCC                DATA
 0002:000002a8 00000008H .CRT$XCL                DATA
 0002:000002b0 00000108H .CRT$XCU                DATA
 0002:000003b8 00000004H .CRT$XCZ                DATA
 0002:000003bc 00000004H .CRT$XIA                DATA
 0002:000003c0 00000004H .CRT$XIAA               DATA
 0002:000003c4 00000004H .CRT$XIAC               DATA
 0002:000003c8 00000018H .CRT$XIC                DATA
 0002:000003e0 00000004H .CRT$XIZ                DATA
 0002:000003e4 00000004H .CRT$XLA                DATA
 0002:000003e8 00000004H .CRT$XLZ                DATA
 0002:000003ec 00000004H .CRT$XPA                DATA
 0002:000003f0 0000000cH .CRT$XPX                DATA
 0002:000003fc 00000004H .CRT$XPXA               DATA
 0002:00000400 00000004H .CRT$XPZ                DATA
 0002:00000404 00000004H .CRT$XTA                DATA
 0002:00000408 00000018H .CRT$XTZ                DATA
 0002:0000040c 00000000H .gfids$y                DATA
 0002:00000420 0001a1e0H .rdata                  DATA
 0002:0001a600 00000040H .rdata$CastGuardVftablesA DATA
 0002:0001a640 00000040H .rdata$CastGuardVftablesC DATA
 0002:0001a680 00000018H .rdata$T                DATA
 0002:0001a698 000024a0H .rdata$r                DATA
 0002:0001cb38 00000178H .rdata$voltmd           DATA
 0002:0001ccb0 00000490H .rdata$zzzdbg           DATA
 0002:0001d140 00000004H .rtc$IAA                DATA
 0002:0001d144 00000000H .rtc$IMZ                DATA
 0002:0001d144 00000004H .rtc$IZZ                DATA
 0002:0001d148 00000004H .rtc$TAA                DATA
 0002:0001d14c 00000000H .rtc$TMZ                DATA
 0002:0001d14c 00000004H .rtc$TZZ                DATA
 0002:0001d150 00000004H .tls                    DATA
 0002:0001d154 00000004H .tls$                   DATA
 0002:0001d158 00000008H .tls$ZZZ                DATA
 0002:0001d160 00004ab0H .xdata$x                DATA
 0002:00021c10 0000004cH .edata                  DATA
 0002:00021c5c 00000050H .idata$2                DATA
 0002:00021cac 00000014H .idata$3                DATA
 0002:00021cc0 00000288H .idata$4                DATA
 0002:00021f48 00000c28H .idata$6                DATA
 0003:00000000 00002280H .data                   DATA
 0003:00002280 00000210H .data$r                 DATA
 0003:00002490 00001128H .data$rs                DATA
 0003:000035b8 06d22064H .bss                    DATA
 0004:00000000 00000060H .rsrc$01                DATA
 0004:00000060 00000180H .rsrc$02                DATA

  Address         Publics by Value              Rva+Base       Lib:Object

 0000:00000000       ___AbsoluteZero            00000000     <absolute>
 0000:00000000       ___arm64x_extra_rfe_table  00000000     <absolute>
 0000:00000000       ___arm64x_extra_rfe_table_size 00000000     <absolute>
 0000:00000000       ___arm64x_native_entrypoint 00000000     <absolute>
 0000:00000000       ___arm64x_redirection_metadata 00000000     <absolute>
 0000:00000000       ___arm64x_redirection_metadata_count 00000000     <absolute>
 0000:00000000       ___dynamic_value_reloc_table 00000000     <absolute>
 0000:00000000       ___enclave_config          00000000     <absolute>
 0000:00000000       ___guard_check_icall_a64n_fptr 00000000     <absolute>
 0000:00000000       ___guard_eh_cont_count     00000000     <absolute>
 0000:00000000       ___guard_eh_cont_table     00000000     <absolute>
 0000:00000000       ___guard_fids_count        00000000     <absolute>
 0000:00000000       ___guard_fids_table        00000000     <absolute>
 0000:00000000       ___guard_iat_count         00000000     <absolute>
 0000:00000000       ___guard_iat_table         00000000     <absolute>
 0000:00000000       ___guard_longjmp_count     00000000     <absolute>
 0000:00000000       ___guard_longjmp_table     00000000     <absolute>
 0000:00000000       ___hybrid_auxiliary_iat    00000000     <absolute>
 0000:00000000       ___hybrid_auxiliary_iat_copy 00000000     <absolute>
 0000:00000000       ___hybrid_code_map         00000000     <absolute>
 0000:00000000       ___hybrid_code_map_count   00000000     <absolute>
 0000:00000000       ___safe_se_handler_count   00000000     <absolute>
 0000:00000000       ___safe_se_handler_table   00000000     <absolute>
 0000:00000000       ___x64_code_ranges_to_entry_points 00000000     <absolute>
 0000:00000000       ___x64_code_ranges_to_entry_points_count 00000000     <absolute>
 0000:00000000       __except_list              00000000     <absolute>
 0000:0000002c       __tls_array                0000002c     <absolute>
 0000:00000100       ___guard_flags             00000100     <absolute>
 0000:00000000       ___ImageBase               00400000     <linker-defined>
 0001:00000000       ??0ResampleInfo_t@ImageLoader@@QAE@XZ 00401000 f i vtf:vtf.obj
 0001:00000030       ?SizeInBytes@ImageLoader@@YAHW4ImageFormat@@@Z 00401030 f i vtf:vtf.obj
 0001:00000050       ?IsCompressed@ImageLoader@@YA_NW4ImageFormat@@@Z 00401050 f i vtf:vtf.obj
 0001:00000070       _ceilf                     00401070 f i vtf:vtf.obj
 0001:00000090       _sqrtf                     00401090 f i vtf:vtf.obj
 0001:000000a0       ?ceil@@YAMM@Z              004010a0 f i vtf:vtf.obj
 0001:000000c0       ?sqrt@@YAMM@Z              004010c0 f i vtf:vtf.obj
 0001:000000d0       ?IsPowerOfTwo@@YA_NH@Z     004010d0 f i vtf:vtf.obj
 0001:000000f0       ??0Vector2D@@QAE@MM@Z      004010f0 f i vtf:vtf.obj
 0001:00000110       ?VectorClear@@YAXAAVVector@@@Z 00401110 f i vtf:vtf.obj
 0001:00000120       ?VectorCopy@@YAXABVVector@@AAV1@@Z 00401120 f i vtf:vtf.obj
 0001:00000140       ??YVector@@QAEAAV0@ABV0@@Z 00401140 f i vtf:vtf.obj
 0001:00000170       ??XVector@@QAEAAV0@M@Z     00401170 f i vtf:vtf.obj
 0001:000001a0       ??_0Vector@@QAEAAV0@M@Z    004011a0 f i vtf:vtf.obj
 0001:000001d0       ??_H@YGXPAXIHP6EPAX0@Z@Z   004011d0 f i vtf:vtf.obj
 0001:00000210       ?DotProduct@@YAMABVVector@@0@Z 00401210 f i vtf:vtf.obj
 0001:00000230       ?VectorNormalize@@YAMAAVVector@@@Z 00401230 f i vtf:vtf.obj
 0001:00000240       ?UtlMemory_CalcNewAllocationCount@@YAHHHHH@Z 00401240 f i vtf:vtf.obj
 0001:00000280       ?IsValid@CUtlBuffer@@QBE_NXZ 00401280 f i vtf:vtf.obj
 0001:00000290       ?V_memmove@@YAXPAXPBXH@Z   00401290 f i vtf:vtf.obj
 0001:000002a0       ??0CEdgePos@@QAE@XZ        004012a0 f i vtf:vtf.obj
 0001:000002b0       ??0CEdgePos@@QAE@HH@Z      004012b0 f i vtf:vtf.obj
 0001:000002d0       ??YCEdgePos@@QAEXABV0@@Z   004012d0 f i vtf:vtf.obj
 0001:000002f0       ??_0CEdgePos@@QAEXH@Z      004012f0 f i vtf:vtf.obj
 0001:00000310       ??HCEdgePos@@QAE?AV0@ABV0@@Z 00401310 f i vtf:vtf.obj
 0001:00000330       ??8CEdgePos@@QAE_NABV0@@Z  00401330 f i vtf:vtf.obj
 0001:00000350       ?DestroyVTFTexture@@YAXPAVIVTFTexture@@@Z 00401350 f   vtf:vtf.obj
 0001:00000370       ?VTFFileHeaderSize@@YAHHH@Z 00401370 f   vtf:vtf.obj
 0001:000003b0       ??0IVTFTexture@@QAE@XZ     004013b0 f i vtf:vtf.obj
 0001:000003c0       ?ComputeMipCount@CVTFTexture@@ABEHXZ 004013c0 f   vtf:vtf.obj
 0001:000003e0       ?AllocateImageData@CVTFTexture@@AAEXH@Z 004013e0 f   vtf:vtf.obj
 0001:00000420       ?AllocateLowResImageData@CVTFTexture@@AAEXH@Z 00401420 f   vtf:vtf.obj
 0001:00000460       ?Init@CVTFTexture@@UAE_NHHHW4ImageFormat@@HHH@Z 00401460 f   vtf:vtf.obj
 0001:00000550       ?InitLowResImage@CVTFTexture@@UAEXHHW4ImageFormat@@@Z 00401550 f   vtf:vtf.obj
 0001:000005b0       ?SetBumpScale@CVTFTexture@@UAEXM@Z 004015b0 f   vtf:vtf.obj
 0001:000005c0       ?SetReflectivity@CVTFTexture@@UAEXABVVector@@@Z 004015c0 f   vtf:vtf.obj
 0001:000005e0       ?SetAlphaTestThreshholds@CVTFTexture@@UAEXMM@Z 004015e0 f   vtf:vtf.obj
 0001:00000600       ?Shutdown@CVTFTexture@@AAEXXZ 00401600 f   vtf:vtf.obj
 0001:00000640       ?LowResFileInfo@CVTFTexture@@UBEXPAH0@Z 00401640 f   vtf:vtf.obj
 0001:000006c0       ?ImageFileInfo@CVTFTexture@@UBEXHHHPAH0@Z 004016c0 f   vtf:vtf.obj
 0001:000007d0       ?FileSize@CVTFTexture@@UBEHH@Z 004017d0 f   vtf:vtf.obj
 0001:00000820       ?LoadLowResData@CVTFTexture@@AAE_NAAVCUtlBuffer@@@Z 00401820 f   vtf:vtf.obj
 0001:00000870       ?LoadImageData@CVTFTexture@@AAE_NAAVCUtlBuffer@@ABUVTFFileHeader_t@@H@Z 00401870 f   vtf:vtf.obj
 0001:000009a0       ?ReadHeader@CVTFTexture@@AAE_NAAVCUtlBuffer@@AAUVTFFileHeader_t@@@Z 004019a0 f   vtf:vtf.obj
 0001:00000a50       ?WriteImageData@CVTFTexture@@AAE_NAAVCUtlBuffer@@@Z 00401a50 f   vtf:vtf.obj
 0001:00000ad0       ?Width@CVTFTexture@@UBEHXZ 00401ad0 f   vtf:vtf.obj
 0001:00000ae0       ?Height@CVTFTexture@@UBEHXZ 00401ae0 f   vtf:vtf.obj
 0001:00000af0       ?Depth@CVTFTexture@@UBEHXZ 00401af0 f   vtf:vtf.obj
 0001:00000b00       ?MipCount@CVTFTexture@@UBEHXZ 00401b00 f   vtf:vtf.obj
 0001:00000b10       ?Format@CVTFTexture@@UBE?AW4ImageFormat@@XZ 00401b10 f   vtf:vtf.obj
 0001:00000b20       ?FaceCount@CVTFTexture@@UBEHXZ 00401b20 f   vtf:vtf.obj
 0001:00000b30       ?FrameCount@CVTFTexture@@UBEHXZ 00401b30 f   vtf:vtf.obj
 0001:00000b40       ?Flags@CVTFTexture@@UBEHXZ 00401b40 f   vtf:vtf.obj
 0001:00000b50       ?IsCubeMap@CVTFTexture@@UBE_NXZ 00401b50 f   vtf:vtf.obj
 0001:00000b60       ?IsNormalMap@CVTFTexture@@UBE_NXZ 00401b60 f   vtf:vtf.obj
 0001:00000b70       ?IsVolumeTexture@CVTFTexture@@UBE_NXZ 00401b70 f   vtf:vtf.obj
 0001:00000b80       ?BumpScale@CVTFTexture@@UBEMXZ 00401b80 f   vtf:vtf.obj
 0001:00000b90       ?Reflectivity@CVTFTexture@@UBEABVVector@@XZ 00401b90 f   vtf:vtf.obj
 0001:00000ba0       ?ImageData@CVTFTexture@@UAEPAEXZ 00401ba0 f   vtf:vtf.obj
 0001:00000bb0       ?LowResWidth@CVTFTexture@@UBEHXZ 00401bb0 f   vtf:vtf.obj
 0001:00000bc0       ?LowResHeight@CVTFTexture@@UBEHXZ 00401bc0 f   vtf:vtf.obj
 0001:00000bd0       ?LowResFormat@CVTFTexture@@UBE?AW4ImageFormat@@XZ 00401bd0 f   vtf:vtf.obj
 0001:00000be0       ?LowResImageData@CVTFTexture@@UAEPAEXZ 00401be0 f   vtf:vtf.obj
 0001:00000bf0       ?RowSizeInBytes@CVTFTexture@@UBEHH@Z 00401bf0 f   vtf:vtf.obj
 0001:00000c20       ?FaceSizeInBytes@CVTFTexture@@UBEHH@Z 00401c20 f   vtf:vtf.obj
 0001:00000c60       ?ImageData@CVTFTexture@@UAEPAEHHHHHH@Z 00401c60 f   vtf:vtf.obj
 0001:00000cc0       ?ComputeMipSize@CVTFTexture@@ABEHHW4ImageFormat@@@Z 00401cc0 f i vtf:vtf.obj
 0001:00000d00       ?ComputeMipSize@CVTFTexture@@UBEHH@Z 00401d00 f   vtf:vtf.obj
 0001:00000d50       ?ComputeFaceSize@CVTFTexture@@ABEHHW4ImageFormat@@@Z 00401d50 f i vtf:vtf.obj
 0001:00000de0       ?ComputeFaceSize@CVTFTexture@@UBEHH@Z 00401de0 f   vtf:vtf.obj
 0001:00000e00       ?ComputeTotalSize@CVTFTexture@@ABEHW4ImageFormat@@@Z 00401e00 f i vtf:vtf.obj
 0001:00000e20       ?ComputeTotalSize@CVTFTexture@@UBEHXZ 00401e20 f   vtf:vtf.obj
 0001:00000e40       ?GetImageOffset@CVTFTexture@@ABEHHHHW4ImageFormat@@@Z 00401e40 f   vtf:vtf.obj
 0001:00000ec0       ?ComputeMipLevelDimensions@CVTFTexture@@UBEXHPAH00@Z 00401ec0 f   vtf:vtf.obj
 0001:00000f10       ?ComputeMipLevelSubRect@CVTFTexture@@UBEXPAURect_t@@H0@Z 00401f10 f   vtf:vtf.obj
 0001:00001030       ?ConvertImageFormat@CVTFTexture@@UAEXW4ImageFormat@@_N@Z 00402030 f   vtf:vtf.obj
 0001:000017e0       ??0SphereCalc_t@@QAE@XZ    004027e0 f i vtf:vtf.obj
 0001:000017f0       ?ComputeHemispheremapFrame@CVTFTexture@@AAEXPAPAEPAEW4LookDir_t@@@Z 004027f0 f   vtf:vtf.obj
 0001:000019c0       ?GenerateHemisphereMap@CVTFTexture@@UAEXPAEHHW4LookDir_t@@H@Z 004029c0 f   vtf:vtf.obj
 0001:00001ab0       ?FixCubemapFaceOrientation@CVTFTexture@@UAEXXZ 00402ab0 f   vtf:vtf.obj
 0001:00001b70       ?NormalizeTopMipLevel@CVTFTexture@@UAEXXZ 00402b70 f   vtf:vtf.obj
 0001:00001bf0       ?GenerateMipmaps@CVTFTexture@@UAEXXZ 00402bf0 f   vtf:vtf.obj
 0001:00001e40       ?PutOneOverMipLevelInAlpha@CVTFTexture@@UAEXXZ 00402e40 f   vtf:vtf.obj
 0001:00001f10       ?ComputeReflectivity@CVTFTexture@@UAEXXZ 00402f10 f   vtf:vtf.obj
 0001:00002070       ?ComputeAlphaFlags@CVTFTexture@@UAEXXZ 00403070 f   vtf:vtf.obj
 0001:00002140       ?PostProcess@CVTFTexture@@UAEX_NW4LookDir_t@@0@Z 00403140 f   vtf:vtf.obj
 0001:000021c0       ?SetupFaceVert@CVTFTexture@@AAEXHHAAVCEdgePos@@@Z 004031c0 f   vtf:vtf.obj
 0001:00002220       ?SetupEdgeIncrement@CVTFTexture@@AAEXAAVCEdgePos@@00@Z 00403220 f   vtf:vtf.obj
 0001:00002280       ?SetupTextureEdgeIncrements@CVTFTexture@@AAEXHHH_NPAVCEdgeIncrements@@@Z 00403280 f   vtf:vtf.obj
 0001:000023a0       ?BlendTexels@@YAXPAPAEH@Z  004033a0 f   vtf:vtf.obj
 0001:00002450       ??0CEdgeIncrements@@QAE@XZ 00403450 f i vtf:vtf.obj
 0001:00002460       ?BlendCubeMapFaceCorners@CVTFTexture@@AAEXHHPBVCCornerMatch@@@Z 00403460 f   vtf:vtf.obj
 0001:00002630       ?BuildCubeMapMatchLists@CVTFTexture@@AAEXQAVCEdgeMatch@@QAVCCornerMatch@@_N@Z 00403630 f   vtf:vtf.obj
 0001:000028b0       ?Base@?$CUtlMemory@E@@QAEPAEXZ 004038b0 f i vtf:vtf.obj
 0001:000028c0       ?Base@?$CUtlMemory@VS3RGBA@@@@QAEPAVS3RGBA@@XZ 004038c0 f i vtf:vtf.obj
 0001:000028d0       ??$swap@E@@YAXAAE0@Z       004038d0 f i vtf:vtf.obj
 0001:000028f0       ?ValidateGrowSize@?$CUtlMemory@E@@IAEXXZ 004038f0 f i vtf:vtf.obj
 0001:00002900       ?ValidateGrowSize@?$CUtlMemory@VS3RGBA@@@@IAEXXZ 00403900 f i vtf:vtf.obj
 0001:00002910       ?IsExternallyAllocated@?$CUtlMemory@VS3RGBA@@@@QBE_NXZ 00403910 f i vtf:vtf.obj
 0001:00002920       ??$Destruct@VS3RGBA@@@@YAXPAVS3RGBA@@@Z 00403920 f i vtf:vtf.obj
 0001:00002930       ??$Construct@VS3RGBA@@@@YAXPAVS3RGBA@@@Z 00403930 f i vtf:vtf.obj
 0001:00002940       ?NumAllocated@?$CUtlMemory@VS3RGBA@@@@QBEHXZ 00403940 f i vtf:vtf.obj
 0001:00002950       ?Grow@?$CUtlMemory@VS3RGBA@@@@QAEXH@Z 00403950 f i vtf:vtf.obj
 0001:000029c0       ??0VectorAligned@@QAE@XZ   004039c0 f i vtf:vtf.obj
 0001:000029d0       ??9CEdgePos@@QAE_NABV0@@Z  004039d0 f i vtf:vtf.obj
 0001:00002a10       ??0VTFFileHeaderV7_1_t@@QAE@XZ 00403a10 f i vtf:vtf.obj
 0001:00002a20       ?ImageData@CVTFTexture@@UAEPAEHHH@Z 00403a20 f   vtf:vtf.obj
 0001:00002a50       ?ComputeSpheremapFrame@CVTFTexture@@AAEXPAPAEPAEW4LookDir_t@@@Z 00403a50 f   vtf:vtf.obj
 0001:00002c20       ?GenerateSpheremap@CVTFTexture@@UAEXW4LookDir_t@@@Z 00403c20 f   vtf:vtf.obj
 0001:00002ce0       ?BlendCubeMapFaceEdges@CVTFTexture@@AAEXHHPBVCEdgeMatch@@@Z 00403ce0 f   vtf:vtf.obj
 0001:00002eb0       ?Base@?$CUtlVector@VS3RGBA@@V?$CUtlMemory@VS3RGBA@@@@@@QAEPAVS3RGBA@@XZ 00403eb0 f i vtf:vtf.obj
 0001:00002ec0       ?EnsureCapacity@?$CUtlMemory@E@@QAEXH@Z 00403ec0 f i vtf:vtf.obj
 0001:00002f10       ??A?$CUtlVector@VS3RGBA@@V?$CUtlMemory@VS3RGBA@@@@@@QAEAAVS3RGBA@@H@Z 00403f10 f i vtf:vtf.obj
 0001:00002f20       ?ResetDbgInfo@?$CUtlVector@VS3RGBA@@V?$CUtlMemory@VS3RGBA@@@@@@IAEXXZ 00403f20 f i vtf:vtf.obj
 0001:00002f30       ??0?$CUtlMemory@VS3RGBA@@@@QAE@HH@Z 00403f30 f i vtf:vtf.obj
 0001:00002f70       ?Purge@?$CUtlMemory@VS3RGBA@@@@QAEXXZ 00403f70 f i vtf:vtf.obj
 0001:00002fa0       ?Element@?$CUtlVector@VS3RGBA@@V?$CUtlMemory@VS3RGBA@@@@@@QAEAAVS3RGBA@@H@Z 00403fa0 f i vtf:vtf.obj
 0001:00002fb0       ?GrowVector@?$CUtlVector@VS3RGBA@@V?$CUtlMemory@VS3RGBA@@@@@@IAEXH@Z 00403fb0 f i vtf:vtf.obj
 0001:00002fe0       ?ShiftElementsRight@?$CUtlVector@VS3RGBA@@V?$CUtlMemory@VS3RGBA@@@@@@IAEXHH@Z 00403fe0 f i vtf:vtf.obj
 0001:00003020       ??0VTFFileHeader_t@@QAE@XZ 00404020 f i vtf:vtf.obj
 0001:00003030       ?Serialize@CVTFTexture@@UAE_NAAVCUtlBuffer@@@Z 00404030 f   vtf:vtf.obj
 0001:00003170       ?BlendCubeMapEdgePalettes@CVTFTexture@@AAEXHHPBVCEdgeMatch@@@Z 00404170 f   vtf:vtf.obj
 0001:00003390       ?BlendCubeMapCornerPalettes@CVTFTexture@@AAEXHHPBVCCornerMatch@@@Z 00404390 f   vtf:vtf.obj
 0001:000034f0       ?MatchCubeMapS3TCPalettes@CVTFTexture@@AAEXQAVCEdgeMatch@@QAVCCornerMatch@@@Z 004044f0 f   vtf:vtf.obj
 0001:00003570       ??1?$CUtlMemory@VS3RGBA@@@@QAE@XZ 00404570 f i vtf:vtf.obj
 0001:000035a0       ?RemoveAll@?$CUtlVector@VS3RGBA@@V?$CUtlMemory@VS3RGBA@@@@@@QAEXXZ 004045a0 f i vtf:vtf.obj
 0001:000035b0       ?InsertMultipleBefore@?$CUtlVector@VS3RGBA@@V?$CUtlMemory@VS3RGBA@@@@@@QAEHHHPBVS3RGBA@@@Z 004045b0 f i vtf:vtf.obj
 0001:00003650       ?Unserialize@CVTFTexture@@UAE_NAAVCUtlBuffer@@_NH@Z 00404650 f   vtf:vtf.obj
 0001:000037e0       ?ConstructLowResImage@CVTFTexture@@UAE_NXZ 004047e0 f   vtf:vtf.obj
 0001:00003900       ??0?$CUtlVector@VS3RGBA@@V?$CUtlMemory@VS3RGBA@@@@@@QAE@HH@Z 00404900 f i vtf:vtf.obj
 0001:00003950       ?Purge@?$CUtlVector@VS3RGBA@@V?$CUtlMemory@VS3RGBA@@@@@@QAEXXZ 00404950 f i vtf:vtf.obj
 0001:00003990       ?AddMultipleToTail@?$CUtlVector@VS3RGBA@@V?$CUtlMemory@VS3RGBA@@@@@@QAEHHPBVS3RGBA@@@Z 00404990 f i vtf:vtf.obj
 0001:000039b0       ??1?$CUtlVector@VS3RGBA@@V?$CUtlMemory@VS3RGBA@@@@@@QAE@XZ 004049b0 f i vtf:vtf.obj
 0001:00003a10       ?SetCount@?$CUtlVector@VS3RGBA@@V?$CUtlMemory@VS3RGBA@@@@@@QAEXH@Z 00404a10 f i vtf:vtf.obj
 0001:00003a30       ??0CVTFTexture@@QAE@XZ     00404a30 f   vtf:vtf.obj
 0001:00003ab0       ??1CVTFTexture@@UAE@XZ     00404ab0 f   vtf:vtf.obj
 0001:00003af0       ?SetSize@?$CUtlVector@VS3RGBA@@V?$CUtlMemory@VS3RGBA@@@@@@QAEXH@Z 00404af0 f i vtf:vtf.obj
 0001:00003b10       ?CreateVTFTexture@@YAPAVIVTFTexture@@XZ 00404b10 f   vtf:vtf.obj
 0001:00003b30       ??_ECVTFTexture@@UAEPAXI@Z 00404b30 f i vtf:vtf.obj
 0001:00003b30       ??_GCVTFTexture@@UAEPAXI@Z 00404b30 f i vtf:vtf.obj
 0001:00003b90       ?MatchCubeMapBorders@CVTFTexture@@UAEXHW4ImageFormat@@_N@Z 00404b90 f   vtf:vtf.obj
 0001:00003d30       ?ReadBitInt@@YAHPBDHH@Z    00404d30 f   vtf:s3tc_decode.obj
 0001:00003d70       ?WriteBitInt@@YAXPADHHH@Z  00404d70 f   vtf:s3tc_decode.obj
 0001:00003dc0       ?S3TC_BytesPerBlock@@YAHW4ImageFormat@@@Z 00404dc0 f   vtf:s3tc_decode.obj
 0001:00003de0       ?S3TC_GetPixelPaletteIndex@@YA?AVS3PaletteIndex@@W4ImageFormat@@PBDHH@Z 00404de0 f   vtf:s3tc_decode.obj
 0001:00003e40       ?S3TC_SetPixelPaletteIndex@@YAXW4ImageFormat@@PADHHVS3PaletteIndex@@@Z 00404e40 f   vtf:s3tc_decode.obj
 0001:00003eb0       ?S3TC_GetBlock@@YAPBDPBXW4ImageFormat@@HHH@Z 00404eb0 f   vtf:s3tc_decode.obj
 0001:00003ee0       ?S3TC_GetBlock@@YAPADPAXW4ImageFormat@@HHH@Z 00404ee0 f   vtf:s3tc_decode.obj
 0001:00003f10       ?GenerateRepresentativePalette@@YAXW4ImageFormat@@PAPAVS3RGBA@@HHQAD@Z 00404f10 f   vtf:s3tc_decode.obj
 0001:000040a0       ?S3TC_MergeBlocks@@YAXPAPADPAPAVS3RGBA@@HHW4ImageFormat@@@Z 004050a0 f   vtf:s3tc_decode.obj
 0001:000043e0       ?S3TC_GetPaletteIndex@@YA?AVS3PaletteIndex@@PAEW4ImageFormat@@HHH@Z 004053e0 f   vtf:s3tc_decode.obj
 0001:00004440       ?S3TC_SetPaletteIndex@@YAXPAEW4ImageFormat@@HHHVS3PaletteIndex@@@Z 00405440 f   vtf:s3tc_decode.obj
 0001:000044a0       ?S3TCsetAlphaReference@@YAXH@Z 004054a0 f   vtf:S3_intrf.obj
 0001:000044b0       ?S3TCgetEncodeSize@@YAIPAU_DDSURFACEDESC@@I@Z 004054b0 f   vtf:S3_intrf.obj
 0001:000044e0       ?S3TCencode@@YAXPAU_DDSURFACEDESC@@PAUtagPALETTEENTRY@@0PAXIPAM@Z 004054e0 f   vtf:S3_intrf.obj
 0001:00005200       ?S3TCencodeEx@@YAHPAU_DDSURFACEDESC@@PAUtagPALETTEENTRY@@0PAXIPAMP6AHM22@Z22@Z 00406200 f   vtf:S3_intrf.obj
 0001:00005230       ?S3TCgetDecodeSize@@YAIPAU_DDSURFACEDESC@@@Z 00406230 f   vtf:S3_intrf.obj
 0001:00005240       ?S3TCdecode@@YAXPAU_DDSURFACEDESC@@0PAX@Z 00406240 f   vtf:S3_intrf.obj
 0001:000056e0       _CodeRGBBlock              004066e0 f   vtf:S3_quant.obj
 0001:00008700       _CodeAlphaBlock            00409700 f   vtf:S3_quant.obj
 0001:000094b0       ?ImageFormatInfo@ImageLoader@@YAABUImageFormatInfo_t@@W4ImageFormat@@@Z 0040a4b0 f   bitmap:imageformat.obj
 0001:000094d0       ?GetMipMapLevelDimensions@ImageLoader@@YAXPAH0H@Z 0040a4d0 f   bitmap:imageformat.obj
 0001:00009520       ?GetNumMipMapLevels@ImageLoader@@YAHHHH@Z 0040a520 f   bitmap:imageformat.obj
 0001:00009590       ?GetMemRequired@ImageLoader@@YAHHHHW4ImageFormat@@_N@Z 0040a590 f   bitmap:imageformat.obj
 0001:00009690       ?GetMipMapLevelByteOffset@ImageLoader@@YAHHHW4ImageFormat@@H@Z 0040a690 f   bitmap:imageformat.obj
 0001:00009700       ??4BGRA8888_t@@QAEAAU0@ABU0@@Z 0040a700 f i bitmap:colorconversion.obj
 0001:00009710       ??4RGBA8888_t@@QAEAAU0@ABUBGRA8888_t@@@Z 0040a710 f i bitmap:colorconversion.obj
 0001:00009740       ??4RGB888_t@@QAEAAU0@ABUBGRA8888_t@@@Z 0040a740 f i bitmap:colorconversion.obj
 0001:00009760       ??4BGR888_t@@QAEAAU0@ABUBGRA8888_t@@@Z 0040a760 f i bitmap:colorconversion.obj
 0001:00009780       ??4BGR565_t@@QAEAAU0@ABUBGRA8888_t@@@Z 0040a780 f i bitmap:colorconversion.obj
 0001:000097e0       ??4BGRA5551_t@@QAEAAU0@ABUBGRA8888_t@@@Z 0040a7e0 f i bitmap:colorconversion.obj
 0001:00009860       ??4BGRA4444_t@@QAEAAU0@ABUBGRA8888_t@@@Z 0040a860 f i bitmap:colorconversion.obj
 0001:000098e0       ?IsNaN@float16@@KA_NTfloat16bits@1@@Z 0040a8e0 f i bitmap:colorconversion.obj
 0001:00009910       ?IsInfinity@float16@@KA_NTfloat16bits@1@@Z 0040a910 f i bitmap:colorconversion.obj
 0001:00009940       ?ConvertFloatTo16bits@float16@@KAGM@Z 0040a940 f i bitmap:colorconversion.obj
 0001:00009a80       ?Convert16bitFloatTo32bits@float16@@KAMG@Z 0040aa80 f i bitmap:colorconversion.obj
 0001:00009d60       ?ConvertToDXT@ImageLoader@@YA_NPAEW4ImageFormat@@01HHHH@Z 0040ad60 f   bitmap:colorconversion.obj
 0001:00009f40       ?ConvertImageFormat_RGBA16161616_To_RGB323232F@ImageLoader@@YAXPAGPAMHH@Z 0040af40 f   bitmap:colorconversion.obj
 0001:0000a0a0       ?ConvertImageFormat_RGB323232F_To_RGBA16161616@ImageLoader@@YAXPAMPAGHH@Z 0040b0a0 f   bitmap:colorconversion.obj
 0001:0000a1b0       ?ConvertIA88ImageToNormalMapRGBA8888@ImageLoader@@YAXPAEHH0M@Z 0040b1b0 f   bitmap:colorconversion.obj
 0001:0000a3d0       ?ConvertNormalMapRGBA8888ToDUDVMapUVWQ8888@ImageLoader@@YAXPAEHH0@Z 0040b3d0 f   bitmap:colorconversion.obj
 0001:0000a430       ?ConvertNormalMapRGBA8888ToDUDVMapUVLX8888@ImageLoader@@YAXPAEHH0@Z 0040b430 f   bitmap:colorconversion.obj
 0001:0000a480       ?ConvertNormalMapRGBA8888ToDUDVMapUV88@ImageLoader@@YAXPAEHH0@Z 0040b480 f   bitmap:colorconversion.obj
 0001:0000a4c0       ?NormalizeNormalMapRGBA8888@ImageLoader@@YAXPAEH@Z 0040b4c0 f   bitmap:colorconversion.obj
 0001:0000a5f0       ?RotateImageLeft@ImageLoader@@YA_NPAE0HW4ImageFormat@@@Z 0040b5f0 f   bitmap:colorconversion.obj
 0001:0000a7c0       ?RotateImage180@ImageLoader@@YA_NPAE0HW4ImageFormat@@@Z 0040b7c0 f   bitmap:colorconversion.obj
 0001:0000a800       ?FlipImageVertically@ImageLoader@@YA_NPAX0HHW4ImageFormat@@H@Z 0040b800 f   bitmap:colorconversion.obj
 0001:0000a8f0       ?FlipImageHorizontally@ImageLoader@@YA_NPAX0HHW4ImageFormat@@H@Z 0040b8f0 f   bitmap:colorconversion.obj
 0001:0000aa60       ?SwapAxes@ImageLoader@@YA_NPAEHW4ImageFormat@@@Z 0040ba60 f   bitmap:colorconversion.obj
 0001:0000cb40       ?GetFloat@float16@@QBEMXZ  0040db40 f i bitmap:colorconversion.obj
 0001:0000cb50       ?SetFloat@float16@@QAEXM@Z 0040db50 f i bitmap:colorconversion.obj
 0001:0000cd60       ?ConvertImageFormat_RGBA16161616F_To_RGB323232F@ImageLoader@@YAXPAVfloat16@@PAMHH@Z 0040dd60 f   bitmap:colorconversion.obj
 0001:0000cdc0       ?ConvertImageFormat_RGB323232F_To_RGBA16161616F@ImageLoader@@YAXPAMPAVfloat16@@HH@Z 0040ddc0 f   bitmap:colorconversion.obj
 0001:0000ce20       ?ConvertImageFormat_RGBA16161616_To_RGBA16161616F@ImageLoader@@YAXPAGPAMHH@Z 0040de20 f   bitmap:colorconversion.obj
 0001:0000cf00       ?ConvertImageFormat_RGBA16161616F_To_RGBA16161616@ImageLoader@@YAXPAVfloat16@@PAGHH@Z 0040df00 f   bitmap:colorconversion.obj
 0001:0000e400       ?ConvertImageFormat@ImageLoader@@YA_NPAEW4ImageFormat@@01HHHH@Z 0040f400 f   bitmap:colorconversion.obj
 0001:0000eab0       _fabsf                     0040fab0 f i bitmap:resample.obj
 0001:0000eac0       _powf                      0040fac0 f i bitmap:resample.obj
 0001:0000eae0       _sinf                      0040fae0 f i bitmap:resample.obj
 0001:0000eb00       ?fabs@@YAMM@Z              0040fb00 f i bitmap:resample.obj
 0001:0000eb10       ?pow@@YAMMM@Z              0040fb10 f i bitmap:resample.obj
 0001:0000eb30       ?sin@@YAMM@Z               0040fb30 f i bitmap:resample.obj
 0001:0000ebb0       ?ConstructGammaTable@ImageLoader@@YAXPAEMM@Z 0040fbb0 f   bitmap:resample.obj
 0001:0000ec40       ?GammaCorrectRGBA8888@ImageLoader@@YAXPAE0HHH0@Z 0040fc40 f   bitmap:resample.obj
 0001:0000ed20       ?GammaCorrectRGBA8888@ImageLoader@@YAXPAE0HHHMM@Z 0040fd20 f   bitmap:resample.obj
 0001:0000f260       ?IsPowerOfTwo@ImageLoader@@YA_NH@Z 00410260 f i bitmap:resample.obj
 0001:0000f280       ?ResampleRGBA8888@ImageLoader@@YA_NABUResampleInfo_t@1@@Z 00410280 f   bitmap:resample.obj
 0001:0000f650       ?ResampleRGBA16161616@ImageLoader@@YA_NABUResampleInfo_t@1@@Z 00410650 f   bitmap:resample.obj
 0001:0000f830       ?ResampleRGB323232F@ImageLoader@@YA_NABUResampleInfo_t@1@@Z 00410830 f   bitmap:resample.obj
 0001:0000fa70       ?ActualX@?$CKernelWrapper@$0A@$0A@@ImageLoader@@SAHHABUResampleInfo_t@2@@Z 00410a70 f i bitmap:resample.obj
 0001:0000faa0       ?ActualY@?$CKernelWrapper@$0A@$0A@@ImageLoader@@SAHHABUResampleInfo_t@2@@Z 00410aa0 f i bitmap:resample.obj
 0001:0000fad0       ?ActualZ@?$CKernelWrapper@$0A@$0A@@ImageLoader@@SAHHABUResampleInfo_t@2@@Z 00410ad0 f i bitmap:resample.obj
 0001:0000fb00       ?ActualX@?$CKernelWrapper@$00$0A@@ImageLoader@@SAHHABUResampleInfo_t@2@@Z 00410b00 f i bitmap:resample.obj
 0001:0000fb30       ?ActualY@?$CKernelWrapper@$00$0A@@ImageLoader@@SAHHABUResampleInfo_t@2@@Z 00410b30 f i bitmap:resample.obj
 0001:0000fb60       ?ActualZ@?$CKernelWrapper@$00$0A@@ImageLoader@@SAHHABUResampleInfo_t@2@@Z 00410b60 f i bitmap:resample.obj
 0001:0000fb90       ?ActualX@?$CKernelWrapper@$01$0A@@ImageLoader@@SAHHABUResampleInfo_t@2@@Z 00410b90 f i bitmap:resample.obj
 0001:0000fbc0       ?ActualY@?$CKernelWrapper@$01$0A@@ImageLoader@@SAHHABUResampleInfo_t@2@@Z 00410bc0 f i bitmap:resample.obj
 0001:0000fbf0       ?ActualZ@?$CKernelWrapper@$01$0A@@ImageLoader@@SAHHABUResampleInfo_t@2@@Z 00410bf0 f i bitmap:resample.obj
 0001:0000fc20       ?ActualX@?$CKernelWrapper@$0A@$00@ImageLoader@@SAHHABUResampleInfo_t@2@@Z 00410c20 f i bitmap:resample.obj
 0001:0000fc50       ?ActualY@?$CKernelWrapper@$0A@$00@ImageLoader@@SAHHABUResampleInfo_t@2@@Z 00410c50 f i bitmap:resample.obj
 0001:0000fc80       ?ActualZ@?$CKernelWrapper@$0A@$00@ImageLoader@@SAHHABUResampleInfo_t@2@@Z 00410c80 f i bitmap:resample.obj
 0001:0000fcb0       ?ActualX@?$CKernelWrapper@$00$00@ImageLoader@@SAHHABUResampleInfo_t@2@@Z 00410cb0 f i bitmap:resample.obj
 0001:0000fce0       ?ActualY@?$CKernelWrapper@$00$00@ImageLoader@@SAHHABUResampleInfo_t@2@@Z 00410ce0 f i bitmap:resample.obj
 0001:0000fd10       ?ActualZ@?$CKernelWrapper@$00$00@ImageLoader@@SAHHABUResampleInfo_t@2@@Z 00410d10 f i bitmap:resample.obj
 0001:0000fd40       ?ActualX@?$CKernelWrapper@$01$00@ImageLoader@@SAHHABUResampleInfo_t@2@@Z 00410d40 f i bitmap:resample.obj
 0001:0000fd70       ?ActualY@?$CKernelWrapper@$01$00@ImageLoader@@SAHHABUResampleInfo_t@2@@Z 00410d70 f i bitmap:resample.obj
 0001:0000fda0       ?ActualZ@?$CKernelWrapper@$01$00@ImageLoader@@SAHHABUResampleInfo_t@2@@Z 00410da0 f i bitmap:resample.obj
 0001:0000fdd0       ?ComputeAveragedColor@?$CKernelWrapper@$0A@$0A@@ImageLoader@@SAXABUKernelInfo_t@2@ABUResampleInfo_t@2@HHHPAM2@Z 00410dd0 f i bitmap:resample.obj
 0001:0000ffb0       ?AddAlphaToAlphaResult@?$CKernelWrapper@$0A@$0A@@ImageLoader@@SAXABUKernelInfo_t@2@ABUResampleInfo_t@2@HHHMPAM@Z 00410fb0 f i bitmap:resample.obj
 0001:000100f0       ?AdjustAlphaChannel@?$CKernelWrapper@$0A@$0A@@ImageLoader@@SAXABUKernelInfo_t@2@ABUResampleInfo_t@2@HHHPAM@Z 004110f0 f i bitmap:resample.obj
 0001:000105a0       ?ComputeAveragedColor@?$CKernelWrapper@$00$0A@@ImageLoader@@SAXABUKernelInfo_t@2@ABUResampleInfo_t@2@HHHPAM2@Z 004115a0 f i bitmap:resample.obj
 0001:00010780       ?AddAlphaToAlphaResult@?$CKernelWrapper@$00$0A@@ImageLoader@@SAXABUKernelInfo_t@2@ABUResampleInfo_t@2@HHHMPAM@Z 00411780 f i bitmap:resample.obj
 0001:000108c0       ?AdjustAlphaChannel@?$CKernelWrapper@$00$0A@@ImageLoader@@SAXABUKernelInfo_t@2@ABUResampleInfo_t@2@HHHPAM@Z 004118c0 f i bitmap:resample.obj
 0001:00010d70       ?ComputeAveragedColor@?$CKernelWrapper@$01$0A@@ImageLoader@@SAXABUKernelInfo_t@2@ABUResampleInfo_t@2@HHHPAM2@Z 00411d70 f i bitmap:resample.obj
 0001:00010f30       ?AddAlphaToAlphaResult@?$CKernelWrapper@$01$0A@@ImageLoader@@SAXABUKernelInfo_t@2@ABUResampleInfo_t@2@HHHMPAM@Z 00411f30 f i bitmap:resample.obj
 0001:00011070       ?AdjustAlphaChannel@?$CKernelWrapper@$01$0A@@ImageLoader@@SAXABUKernelInfo_t@2@ABUResampleInfo_t@2@HHHPAM@Z 00412070 f i bitmap:resample.obj
 0001:00011520       ?ComputeAveragedColor@?$CKernelWrapper@$0A@$00@ImageLoader@@SAXABUKernelInfo_t@2@ABUResampleInfo_t@2@HHHPAM2@Z 00412520 f i bitmap:resample.obj
 0001:00011710       ?AddAlphaToAlphaResult@?$CKernelWrapper@$0A@$00@ImageLoader@@SAXABUKernelInfo_t@2@ABUResampleInfo_t@2@HHHMPAM@Z 00412710 f i bitmap:resample.obj
 0001:00011890       ?AdjustAlphaChannel@?$CKernelWrapper@$0A@$00@ImageLoader@@SAXABUKernelInfo_t@2@ABUResampleInfo_t@2@HHHPAM@Z 00412890 f i bitmap:resample.obj
 0001:00011d40       ?ComputeAveragedColor@?$CKernelWrapper@$00$00@ImageLoader@@SAXABUKernelInfo_t@2@ABUResampleInfo_t@2@HHHPAM2@Z 00412d40 f i bitmap:resample.obj
 0001:00011f30       ?AddAlphaToAlphaResult@?$CKernelWrapper@$00$00@ImageLoader@@SAXABUKernelInfo_t@2@ABUResampleInfo_t@2@HHHMPAM@Z 00412f30 f i bitmap:resample.obj
 0001:000120b0       ?AdjustAlphaChannel@?$CKernelWrapper@$00$00@ImageLoader@@SAXABUKernelInfo_t@2@ABUResampleInfo_t@2@HHHPAM@Z 004130b0 f i bitmap:resample.obj
 0001:00012560       ?ComputeAveragedColor@?$CKernelWrapper@$01$00@ImageLoader@@SAXABUKernelInfo_t@2@ABUResampleInfo_t@2@HHHPAM2@Z 00413560 f i bitmap:resample.obj
 0001:00012750       ?AddAlphaToAlphaResult@?$CKernelWrapper@$01$00@ImageLoader@@SAXABUKernelInfo_t@2@ABUResampleInfo_t@2@HHHMPAM@Z 00413750 f i bitmap:resample.obj
 0001:000128d0       ?AdjustAlphaChannel@?$CKernelWrapper@$01$00@ImageLoader@@SAXABUKernelInfo_t@2@ABUResampleInfo_t@2@HHHPAM@Z 004138d0 f i bitmap:resample.obj
 0001:00012d80       ?ApplyKernel@?$CKernelWrapper@$0A@$0A@@ImageLoader@@SAXABUKernelInfo_t@2@ABUResampleInfo_t@2@HHHPAM2@Z 00413d80 f i bitmap:resample.obj
 0001:00013020       ?ApplyKernel@?$CKernelWrapper@$00$0A@@ImageLoader@@SAXABUKernelInfo_t@2@ABUResampleInfo_t@2@HHHPAM2@Z 00414020 f i bitmap:resample.obj
 0001:00013200       ?ApplyKernel@?$CKernelWrapper@$01$0A@@ImageLoader@@SAXABUKernelInfo_t@2@ABUResampleInfo_t@2@HHHPAM2@Z 00414200 f i bitmap:resample.obj
 0001:00013530       ?ApplyKernel@?$CKernelWrapper@$0A@$00@ImageLoader@@SAXABUKernelInfo_t@2@ABUResampleInfo_t@2@HHHPAM2@Z 00414530 f i bitmap:resample.obj
 0001:000137d0       ?ApplyKernel@?$CKernelWrapper@$00$00@ImageLoader@@SAXABUKernelInfo_t@2@ABUResampleInfo_t@2@HHHPAM2@Z 004147d0 f i bitmap:resample.obj
 0001:000139b0       ?ApplyKernel@?$CKernelWrapper@$01$00@ImageLoader@@SAXABUKernelInfo_t@2@ABUResampleInfo_t@2@HHHPAM2@Z 004149b0 f i bitmap:resample.obj
 0001:00013ce0       ?GenerateMipmapLevels@ImageLoader@@YAXPAE0HHHW4ImageFormat@@MMH@Z 00414ce0 f   bitmap:resample.obj
 0001:00013ea0       ?ConnectTier2Libraries@@YAXPAP6APAXPBDPAH@ZH@Z 00414ea0 f   tier2:tier2.obj
 0001:00014120       ?DisconnectTier2Libraries@@YAXXZ 00415120 f   tier2:tier2.obj
 0001:000141a0       ?IsValid@Vector2D@@QBE_NXZ 004151a0 f i tier2:tier2.obj
 0001:00014230       ?IsFinite@@YA_NM@Z         00415230 f i tier2:tier2.obj
 0001:00014290       ?FloatBits@@YAAAKAAM@Z     00415290 f i tier2:tier2.obj
 0001:00014be0       ??0?$CBitVec@$0BCB@@@QAE@XZ 00415be0 f i builddisp.obj
 0001:00014c30       ??0CCoreDispInfo@@QAE@XZ   00415c30 f   builddisp.obj
 0001:00014d20       ??0CCoreDispNode@@QAE@XZ   00415d20 f i builddisp.obj
 0001:00014d90       ??0CCoreDispSurface@@QAE@XZ 00415d90 f   builddisp.obj
 0001:00014e30       ??0CoreDispBBox_t@@QAE@XZ  00415e30 f i builddisp.obj
 0001:00014e40       ??0CoreDispVert_t@@QAE@XZ  00415e40 f i builddisp.obj
 0001:00014ed0       ??0Vector2D@@QAE@XZ        00415ed0 f i builddisp.obj
 0001:00014ee0       ??0Vector@@QAE@XZ          00415ee0 f i builddisp.obj
 0001:00014ef0       ??0cplane_t@@QAE@XZ        00415ef0 f i builddisp.obj
 0001:00014f10       ??1CCoreDispInfo@@QAE@XZ   00415f10 f   builddisp.obj
 0001:00014fb0       ??4Vector@@QAEAAV0@ABV0@@Z 00415fb0 f i builddisp.obj
 0001:00014fd0       ??AVector@@QAEAAMH@Z       00415fd0 f i builddisp.obj
 0001:00014fe0       ??DVector@@QBE?AV0@M@Z     00415fe0 f i builddisp.obj
 0001:00015020       ??GVector@@QBE?AV0@ABV0@@Z 00416020 f i builddisp.obj
 0001:00015060       ??HVector@@QBE?AV0@ABV0@@Z 00416060 f i builddisp.obj
 0001:000150a0       ??_H@YGXPAXIIP6EPAX0@Z@Z   004160a0 f i builddisp.obj
 0001:000150d0       ?AdjustSurfPointData@CCoreDispSurface@@QAEXXZ 004160d0 f   builddisp.obj
 0001:00015360       ?BaseFacePlaneToDispUV@CCoreDispInfo@@QAEXABVVector@@AAVVector2D@@@Z 00416360 f   builddisp.obj
 0001:000153b0       ?BuildTriBLtoTR@CCoreDispInfo@@AAEXH@Z 004163b0 f   builddisp.obj
 0001:000154b0       ?BuildTriTLtoBR@CCoreDispInfo@@AAEXH@Z 004164b0 f   builddisp.obj
 0001:000155b0       ?CalcBarycentricCooefs@@YA_NABVVector@@000AAM11@Z 004165b0 f   builddisp.obj
 0001:000158a0       ?CalcBoundingBoxAtNode@CCoreDispInfo@@AAEXH@Z 004168a0 f   builddisp.obj
 0001:00015e20       ?CalcDispSurfCoords@CCoreDispInfo@@QAEX_NH@Z 00416e20 f   builddisp.obj
 0001:00016280       ?CalcErrorTermAtNode@CCoreDispInfo@@AAEXHH@Z 00417280 f   builddisp.obj
 0001:00016a20       ?CalcMinMaxBoundingBoxAtNode@CCoreDispInfo@@AAEXHAAVVector@@0@Z 00417a20 f   builddisp.obj
 0001:00016c30       ?CalcNeighborVertIndicesAtNode@CCoreDispInfo@@AAEXHH@Z 00417c30 f   builddisp.obj
 0001:00016dc0       ?CalcNodeInfo@CCoreDispInfo@@AAEXHH@Z 00417dc0 f   builddisp.obj
 0001:00016e70       ?CalcNormalFromEdges@CCoreDispInfo@@AAEXHHQA_NAAVVector@@@Z 00417e70 f   builddisp.obj
 0001:00017e10       ?CalcRayBoundingBoxes@CCoreDispInfo@@AAEXHQAY02H@Z 00418e10 f   builddisp.obj
 0001:00018540       ?CalcTriSurfBoundingBoxes@CCoreDispInfo@@AAEXHQAY02H@Z 00419540 f   builddisp.obj
 0001:00018880       ?CalcTriSurfIndices@CCoreDispInfo@@AAEXHQAY02H@Z 00419880 f   builddisp.obj
 0001:00018c50       ?CalcTriSurfInfoAtNode@CCoreDispInfo@@AAEXH@Z 00419c50 f   builddisp.obj
 0001:00018ca0       ?CalcTriSurfPlanes@CCoreDispInfo@@AAEXHQAY02H@Z 00419ca0 f   builddisp.obj
 0001:00018f90       ?CalcVertIndicesAtNodes@CCoreDispInfo@@AAEXH@Z 00419f90 f   builddisp.obj
 0001:00019070       ?Create@CCoreDispInfo@@QAE_NXZ 0041a070 f   builddisp.obj
 0001:00019100       ?CreateBoundingBoxes@CCoreDispInfo@@AAEXPAUCoreDispBBox_t@@H@Z 0041a100 f   builddisp.obj
 0001:000192f0       ?CreateTris@CCoreDispInfo@@AAEXXZ 0041a2f0 f   builddisp.obj
 0001:00019370       ?CreateWithoutLOD@CCoreDispInfo@@QAE_NXZ 0041a370 f   builddisp.obj
 0001:00019400       ?CrossProduct@@YAXABVVector@@0AAV1@@Z 0041a400 f i builddisp.obj
 0001:00019460       ?DispUVToSurf@CCoreDispInfo@@QAEXABVVector2D@@AAVVector@@PAV3@PAM@Z 0041a460 f   builddisp.obj
 0001:000195d0       ?DispUVToSurf_TriBLToTR@CCoreDispInfo@@AAEXAAVVector@@PAV2@PAMMMABV2@@Z 0041a5d0 f   builddisp.obj
 0001:00019660       ?DispUVToSurf_TriBLToTR_1@CCoreDispInfo@@AAEXABVVector@@HHHHAAV2@PAV2@PAM_N@Z 0041a660 f   builddisp.obj
 0001:00019c80       ?DispUVToSurf_TriBLToTR_2@CCoreDispInfo@@AAEXABVVector@@HHHHAAV2@PAV2@PAM_N@Z 0041ac80 f   builddisp.obj
 0001:0001a2c0       ?DispUVToSurf_TriTLToBR@CCoreDispInfo@@AAEXAAVVector@@PAV2@PAMMMABV2@@Z 0041b2c0 f   builddisp.obj
 0001:0001a350       ?DispUVToSurf_TriTLToBR_1@CCoreDispInfo@@AAEXABVVector@@HHHHAAV2@PAV2@PAM_N@Z 0041b350 f   builddisp.obj
 0001:0001a980       ?DispUVToSurf_TriTLToBR_2@CCoreDispInfo@@AAEXABVVector@@HHHHAAV2@PAV2@PAM_N@Z 0041b980 f   builddisp.obj
 0001:0001afe0       ?DoesEdgeExist@CCoreDispInfo@@AAE_NHHHH@Z 0041bfe0 f   builddisp.obj
 0001:0001b070       ?FindSurfPointStartIndex@CCoreDispSurface@@QAEHXZ 0041c070 f   builddisp.obj
 0001:0001b180       ?FloatMakePositive@@YAMM@Z 0041c180 f i builddisp.obj
 0001:0001b190       ?GenerateCollisionData@CCoreDispInfo@@AAEXXZ 0041c190 f   builddisp.obj
 0001:0001b1b0       ?GenerateCollisionSurface@CCoreDispInfo@@AAEXXZ 0041c1b0 f   builddisp.obj
 0001:0001b290       ?GenerateDispSurf@CCoreDispInfo@@AAEXXZ 0041c290 f   builddisp.obj
 0001:0001b8e0       ?GenerateDispSurfNormals@CCoreDispInfo@@AAEXXZ 0041c8e0 f   builddisp.obj
 0001:0001b9e0       ?GenerateDispSurfTangentSpaces@CCoreDispInfo@@AAEXXZ 0041c9e0 f   builddisp.obj
 0001:0001bc20       ?GenerateLODTree@CCoreDispInfo@@AAEXXZ 0041cc20 f   builddisp.obj
 0001:0001bc90       ?GeneratePointStartIndexFromMappingAxes@CCoreDispSurface@@QAEXABVVector@@0@Z 0041cc90 f   builddisp.obj
 0001:0001bf00       ?GenerateSurfPointStartIndex@CCoreDispSurface@@QAEHXZ 0041cf00 f   builddisp.obj
 0001:0001c070       ?GetBoundingBox@CCoreDispNode@@QAEXAAVVector@@0@Z 0041d070 f i builddisp.obj
 0001:0001c0b0       ?GetCenterVertIndex@CCoreDispNode@@QAEHXZ 0041d0b0 f i builddisp.obj
 0001:0001c0c0       ?GetComponentsFromNodeIndex@@YAXHPAH0@Z 0041d0c0 f   builddisp.obj
 0001:0001c130       ?GetCornerNeighbors@CCoreDispInfo@@UAEPAVCDispCornerNeighbors@@H@Z 0041d130 f   builddisp.obj
 0001:0001c150       ?GetCornerNeighbors@CCoreDispSurface@@QAEPAVCDispCornerNeighbors@@H@Z 0041d150 f i builddisp.obj
 0001:0001c170       ?GetDispNodeTriVerts@@YAXPAVCCoreDispInfo@@HHAAVVector@@11@Z 0041d170 f   builddisp.obj
 0001:0001c400       ?GetDispUtilsByIndex@CCoreDispInfo@@UAEPAVCDispUtilsHelper@@H@Z 0041d400 f   builddisp.obj
 0001:0001c440       ?GetEdgeNeighbor@CCoreDispInfo@@UAEPAVCDispNeighbor@@H@Z 0041d440 f   builddisp.obj
 0001:0001c460       ?GetEdgeNeighbor@CCoreDispSurface@@QAEPAVCDispNeighbor@@H@Z 0041d460 f i builddisp.obj
 0001:0001c480       ?GetErrorTerm@CCoreDispNode@@QAEMXZ 0041d480 f i builddisp.obj
 0001:0001c490       ?GetLuxelCoord@CCoreDispSurface@@QBEXHHAAVVector2D@@@Z 0041d490 f i builddisp.obj
 0001:0001c4c0       ?GetMaxErrorFromChildren@CCoreDispInfo@@AAEMHH@Z 0041d4c0 f   builddisp.obj
 0001:0001c550       ?GetNeighborVertIndex@CCoreDispNode@@QAEHH@Z 0041d550 f i builddisp.obj
 0001:0001c560       ?GetNode@CCoreDispInfo@@QAEPAVCCoreDispNode@@H@Z 0041d560 f i builddisp.obj
 0001:0001c570       ?GetNodeChild@@YAHHHH@Z    0041d570 f   builddisp.obj
 0001:0001c580       ?GetNodeCount@@YAHH@Z      0041d580 f   builddisp.obj
 0001:0001c5a0       ?GetNodeIndexFromComponents@@YAHHH@Z 0041d5a0 f   builddisp.obj
 0001:0001c620       ?GetNodeLevel@@YAHH@Z      0041d620 f   builddisp.obj
 0001:0001c660       ?GetNodeMinNodeAtLevel@@YAHH@Z 0041d660 f   builddisp.obj
 0001:0001c6c0       ?GetNodeNeighborNode@@YAHHHHH@Z 0041d6c0 f   builddisp.obj
 0001:0001c7e0       ?GetNodeNeighborNodeFromNeighborSurf@@YAHHHHHH@Z 0041d7e0 f   builddisp.obj
 0001:0001cb00       ?GetNodeParent@@YAHH@Z     0041db00 f   builddisp.obj
 0001:0001cb10       ?GetNodeVertIndexFromParentIndex@CCoreDispInfo@@AAEHHHH@Z 0041db10 f   builddisp.obj
 0001:0001cbf0       ?GetNormal@CCoreDispSurface@@QAEXAAVVector@@@Z 0041dbf0 f i builddisp.obj
 0001:0001cc80       ?GetPoint@CCoreDispSurface@@QBEXHAAVVector@@@Z 0041dc80 f i builddisp.obj
 0001:0001ccb0       ?GetPointCount@CCoreDispSurface@@QBEHXZ 0041dcb0 f i builddisp.obj
 0001:0001ccc0       ?GetPositionOnSurface@CCoreDispInfo@@QAEXMMAAVVector@@PAV2@PAM@Z 0041dcc0 f   builddisp.obj
 0001:0001cd00       ?GetPostSpacing@CCoreDispInfo@@QAEHXZ 0041dd00 f i builddisp.obj
 0001:0001cd10       ?GetPower@CCoreDispInfo@@QBEHXZ 0041dd10 f i builddisp.obj
 0001:0001cd20       ?GetPowerInfo@CCoreDispInfo@@UBEPBVCPowerInfo@@XZ 0041dd20 f   builddisp.obj
 0001:0001cd40       ?GetSAxis@CCoreDispSurface@@QAEXAAVVector@@@Z 0041dd40 f i builddisp.obj
 0001:0001cd70       ?GetSize@CCoreDispInfo@@QBEHXZ 0041dd70 f i builddisp.obj
 0001:0001cd80       ?GetSurface@CCoreDispInfo@@QAEPAVCCoreDispSurface@@XZ 0041dd80 f i builddisp.obj
 0001:0001cd90       ?GetTAxis@CCoreDispSurface@@QAEXAAVVector@@@Z 0041dd90 f i builddisp.obj
 0001:0001cdc0       ?GetTexCoord@CCoreDispSurface@@QBEXHAAVVector2D@@@Z 0041ddc0 f i builddisp.obj
 0001:0001cde0       ?GetTriBoundingBox@CCoreDispNode@@QAEXHAAVVector@@0@Z 0041dde0 f i builddisp.obj
 0001:0001ce30       ?GetTriCount@CCoreDispInfo@@QAEHXZ 0041de30 f   builddisp.obj
 0001:0001ce40       ?GetTriIndices@CCoreDispInfo@@QAEXHAAG00@Z 0041de40 f   builddisp.obj
 0001:0001ce90       ?GetTriPos@CCoreDispInfo@@QAEXHAAVVector@@00@Z 0041de90 f   builddisp.obj
 0001:0001cf50       ?GetTriangleIndicesForDispBBox@CCoreDispInfo@@AAEXHQAY02H@Z 0041df50 f   builddisp.obj
 0001:0001cfc0       ?GetVert@CCoreDispInfo@@QBEXHAAVVector@@@Z 0041dfc0 f i builddisp.obj
 0001:0001cff0       ?Init@CCoreDispNode@@QAEXXZ 0041dff0 f   builddisp.obj
 0001:0001d170       ?Init@CCoreDispSurface@@QAEXXZ 0041e170 f   builddisp.obj
 0001:0001d360       ?Init@Vector2D@@QAEXMM@Z   0041e360 f i builddisp.obj
 0001:0001d380       ?Init@Vector@@QAEXMMM@Z    0041e380 f i builddisp.obj
 0001:0001d3b0       ?InitDispInfo@CCoreDispInfo@@QAEXHHMPAMPAVVector@@0@Z 0041e3b0 f   builddisp.obj
 0001:0001d8e0       ?InitDispInfo@CCoreDispInfo@@QAEXHHMPBVCDispVert@@PBVCDispTri@@@Z 0041e8e0 f   builddisp.obj
 0001:0001da20       ?InitTris@CCoreDispInfo@@AAEXXZ 0041ea20 f   builddisp.obj
 0001:0001da60       ?IsTriBuildable@CCoreDispInfo@@QAE_NH@Z 0041ea60 f   builddisp.obj
 0001:0001da90       ?IsTriWalkable@CCoreDispInfo@@QAE_NH@Z 0041ea90 f   builddisp.obj
 0001:0001dac0       ?Position_Update@CCoreDispInfo@@QAEXHVVector@@@Z 0041eac0 f   builddisp.obj
 0001:0001dc60       ?SetBoundingBox@CCoreDispNode@@QAEXABVVector@@0@Z 0041ec60 f i builddisp.obj
 0001:0001dca0       ?SetCenterVertIndex@CCoreDispNode@@QAEXH@Z 0041eca0 f i builddisp.obj
 0001:0001dcb0       ?SetDispUtilsHelperInfo@CCoreDispInfo@@QAEXPAPAV1@H@Z 0041ecb0 f   builddisp.obj
 0001:0001dce0       ?SetErrorTerm@CCoreDispNode@@QAEXM@Z 0041ece0 f i builddisp.obj
 0001:0001dd00       ?SetFlags@CCoreDispSurface@@QAEXH@Z 0041ed00 f i builddisp.obj
 0001:0001dd10       ?SetInvalid@CDispCornerNeighbors@@QAEXXZ 0041ed10 f i builddisp.obj
 0001:0001dd20       ?SetInvalid@CDispNeighbor@@QAEXXZ 0041ed20 f i builddisp.obj
 0001:0001dd30       ?SetNeighborData@CCoreDispSurface@@QAEXQBVCDispNeighbor@@QBVCDispCornerNeighbors@@@Z 0041ed30 f   builddisp.obj
 0001:0001ddb0       ?SetNeighborVertIndex@CCoreDispNode@@QAEXHH@Z 0041edb0 f i builddisp.obj
 0001:0001ddd0       ?SetRayBoundingBox@CCoreDispNode@@QAEXHABVVector@@0@Z 0041edd0 f i builddisp.obj
 0001:0001de30       ?SetTriBoundingBox@CCoreDispNode@@QAEXHABVVector@@0@Z 0041ee30 f i builddisp.obj
 0001:0001de80       ?SetTriIndices@CCoreDispInfo@@QAEXHGGG@Z 0041ee80 f   builddisp.obj
 0001:0001ded0       ?SetTriPlane@CCoreDispNode@@QAEXHABVVector@@M@Z 0041eed0 f i builddisp.obj
 0001:0001df10       ?SurfToBaseFacePlane@CCoreDispInfo@@QAE_NABVVector@@AAV2@@Z 0041ef10 f   builddisp.obj
 0001:0001e1e0       ?Vector2DAdd@@YAXABVVector2D@@0AAV1@@Z 0041f1e0 f i builddisp.obj
 0001:0001e210       ?Vector2DClear@@YAXAAVVector2D@@@Z 0041f210 f i builddisp.obj
 0001:0001e230       ?Vector2DCopy@@YAXABVVector2D@@AAV1@@Z 0041f230 f i builddisp.obj
 0001:0001e250       ?Vector2DMultiply@@YAXABVVector2D@@MAAV1@@Z 0041f250 f i builddisp.obj
 0001:0001e280       ?Vector2DSubtract@@YAXABVVector2D@@0AAV1@@Z 0041f280 f i builddisp.obj
 0001:0001e2b0       ?VectorFill@@YAXAAVVector@@M@Z 0041f2b0 f i builddisp.obj
 0001:0001e2d0       ?VectorLength@@YAMABVVector@@@Z 0041f2d0 f i builddisp.obj
 0001:0001e310       ?VectorScale@@YAXABVVector@@MAAV1@@Z 0041f310 f i builddisp.obj
 0001:0001e350       ??$_Allocate_manually_vector_aligned@U_Default_allocate_traits@std@@@std@@YAPAXI@Z 0041f350 f i ChunkFile.obj
 0001:0001e3c0       ??$_Fgetc@D@std@@YA_NAADPAU_iobuf@@@Z 0041f3c0 f i ChunkFile.obj
 0001:0001e3f0       ??$_Fputc@D@std@@YA_NDPAU_iobuf@@@Z 0041f3f0 f i ChunkFile.obj
 0001:0001e410       ??$_Reallocate_grow_by@V<lambda_15711c68e099a15a58f4d77303cb286d>@@D@?$basic_string@DU?$char_traits@D@std@@V?$allocator@D@2@@std@@AAEAAV01@IV<lambda_15711c68e099a15a58f4d77303cb286d>@@D@Z 0041f410 f i ChunkFile.obj
 0001:0001e5c0       ??$_Ungetc@D@std@@YA_NABDPAU_iobuf@@@Z 0041f5c0 f i ChunkFile.obj
 0001:0001e5e0       ??$use_facet@V?$codecvt@DDU_Mbstatet@@@std@@@std@@YAABV?$codecvt@DDU_Mbstatet@@@0@ABVlocale@0@@Z 0041f5e0 f i ChunkFile.obj
 0001:0001e6d0       ??0?$_Yarn@D@std@@QAE@XZ   0041f6d0 f i ChunkFile.obj
 0001:0001e6f0       ??0?$_Yarn@_W@std@@QAE@XZ  0041f6f0 f i ChunkFile.obj
 0001:0001e710       ??0?$basic_string@DU?$char_traits@D@std@@V?$allocator@D@2@@std@@QAE@XZ 0041f710 f i ChunkFile.obj
 0001:0001e770       ??0CChunkFile@@QAE@XZ      0041f770 f   ChunkFile.obj
 0001:0001e7d0       ??0CChunkHandlerMap@@QAE@XZ 0041f7d0 f   ChunkFile.obj
 0001:0001e7f0       ??0_Locinfo@std@@QAE@PBD@Z 0041f7f0 f i ChunkFile.obj
 0001:0001e850       ??0bad_alloc@std@@QAE@ABV01@@Z 0041f850 f i ChunkFile.obj
 0001:0001e890       ??0bad_array_new_length@std@@QAE@ABV01@@Z 0041f890 f i ChunkFile.obj
 0001:0001e8d0       ??0bad_array_new_length@std@@QAE@XZ 0041f8d0 f i ChunkFile.obj
 0001:0001e8f0       ??0bad_cast@std@@QAE@ABV01@@Z 0041f8f0 f i ChunkFile.obj
 0001:0001e930       ??0bad_cast@std@@QAE@XZ    0041f930 f i ChunkFile.obj
 0001:0001e950       ??0codecvt_base@std@@QAE@I@Z 0041f950 f i ChunkFile.obj
 0001:0001e970       ??0exception@std@@QAE@ABV01@@Z 0041f970 f i ChunkFile.obj
 0001:0001e9a0       ??0id@locale@std@@QAE@I@Z  0041f9a0 f i ChunkFile.obj
 0001:0001e9b0       ??1?$_Yarn@D@std@@QAE@XZ   0041f9b0 f i ChunkFile.obj
 0001:0001e9e0       ??1?$_Yarn@_W@std@@QAE@XZ  0041f9e0 f i ChunkFile.obj
 0001:0001ea10       ??1?$basic_filebuf@DU?$char_traits@D@std@@@std@@UAE@XZ 0041fa10 f i ChunkFile.obj
 0001:0001ea50       ??1?$basic_ifstream@DU?$char_traits@D@std@@@std@@UAE@XZ 0041fa50 f i ChunkFile.obj
 0001:0001eab0       ??1?$basic_ios@DU?$char_traits@D@std@@@std@@UAE@XZ 0041fab0 f i ChunkFile.obj
 0001:0001ead0       ??1?$basic_istream@DU?$char_traits@D@std@@@std@@UAE@XZ 0041fad0 f i ChunkFile.obj
 0001:0001eb10       ??1?$basic_streambuf@DU?$char_traits@D@std@@@std@@UAE@XZ 0041fb10 f i ChunkFile.obj
 0001:0001eb70       ??1?$codecvt@DDU_Mbstatet@@@std@@MAE@XZ 0041fb70 f i ChunkFile.obj
 0001:0001eb90       ??1?$unique_ptr@V_Facet_base@std@@U?$default_delete@V_Facet_base@std@@@2@@std@@QAE@XZ 0041fb90 f i ChunkFile.obj
 0001:0001ebe0       ??1CChunkFile@@QAE@XZ      0041fbe0 f   ChunkFile.obj
 0001:0001ec20       ??1CChunkHandlerMap@@QAE@XZ 0041fc20 f   ChunkFile.obj
 0001:0001ec60       ??1_Facet_base@std@@UAE@XZ 0041fc60 f i ChunkFile.obj
 0001:0001ec70       ??1_Locinfo@std@@QAE@XZ    0041fc70 f i ChunkFile.obj
 0001:0001ecc0       ??1bad_array_new_length@std@@UAE@XZ 0041fcc0 f i ChunkFile.obj
 0001:0001ece0       ??1bad_cast@std@@UAE@XZ    0041fce0 f i ChunkFile.obj
 0001:0001ed00       ??1codecvt_base@std@@UAE@XZ 0041fd00 f i ChunkFile.obj
 0001:0001ed10       ??1exception@std@@UAE@XZ   0041fd10 f i ChunkFile.obj
 0001:0001ed30       ??1facet@locale@std@@MAE@XZ 0041fd30 f i ChunkFile.obj
 0001:0001ed40       ??1ios_base@std@@UAE@XZ    0041fd40 f i ChunkFile.obj
 0001:0001ed50       ??1locale@std@@QAE@XZ      0041fd50 f i ChunkFile.obj
 0001:0001ed70       ??2@YAPAXIPAX@Z            0041fd70 f i ChunkFile.obj
 0001:0001ed80       ??AVector4D@@QAEAAMH@Z     0041fd80 f i ChunkFile.obj
 0001:0001ed90       ??AVector@@QBEMH@Z         0041fd90 f i ChunkFile.obj
 0001:0001eda0       ??Bid@locale@std@@QAEIXZ   0041fda0 f i ChunkFile.obj
 0001:0001ede0       ??_DTokenReader@@QAEXXZ    0041fde0 f i ChunkFile.obj
 0001:0001edf7       ??_E?$basic_ifstream@DU?$char_traits@D@std@@@std@@$4PPPPPPPM@A@AEPAXI@Z 0041fdf7 f i ChunkFile.obj
 0001:0001edff       ??_E?$basic_istream@DU?$char_traits@D@std@@@std@@$4PPPPPPPM@A@AEPAXI@Z 0041fdff f i ChunkFile.obj
 0001:0001ee10       ??_E?$basic_filebuf@DU?$char_traits@D@std@@@std@@UAEPAXI@Z 0041fe10 f i ChunkFile.obj
 0001:0001ee10       ??_G?$basic_filebuf@DU?$char_traits@D@std@@@std@@UAEPAXI@Z 0041fe10 f i ChunkFile.obj
 0001:0001ee40       ??_E?$basic_ifstream@DU?$char_traits@D@std@@@std@@UAEPAXI@Z 0041fe40 f i ChunkFile.obj
 0001:0001ee40       ??_G?$basic_ifstream@DU?$char_traits@D@std@@@std@@UAEPAXI@Z 0041fe40 f i ChunkFile.obj
 0001:0001eea0       ??_E?$basic_ios@DU?$char_traits@D@std@@@std@@UAEPAXI@Z 0041fea0 f i ChunkFile.obj
 0001:0001eea0       ??_G?$basic_ios@DU?$char_traits@D@std@@@std@@UAEPAXI@Z 0041fea0 f i ChunkFile.obj
 0001:0001eee0       ??_E?$basic_istream@DU?$char_traits@D@std@@@std@@UAEPAXI@Z 0041fee0 f i ChunkFile.obj
 0001:0001eee0       ??_G?$basic_istream@DU?$char_traits@D@std@@@std@@UAEPAXI@Z 0041fee0 f i ChunkFile.obj
 0001:0001ef40       ??_E?$basic_streambuf@DU?$char_traits@D@std@@@std@@UAEPAXI@Z 0041ff40 f i ChunkFile.obj
 0001:0001ef40       ??_G?$basic_streambuf@DU?$char_traits@D@std@@@std@@UAEPAXI@Z 0041ff40 f i ChunkFile.obj
 0001:0001ef70       ??_E?$codecvt@DDU_Mbstatet@@@std@@MAEPAXI@Z 0041ff70 f i ChunkFile.obj
 0001:0001ef70       ??_G?$codecvt@DDU_Mbstatet@@@std@@MAEPAXI@Z 0041ff70 f i ChunkFile.obj
 0001:0001efb0       ??_E_Facet_base@std@@UAEPAXI@Z 0041ffb0 f i ChunkFile.obj
 0001:0001efb0       ??_G_Facet_base@std@@UAEPAXI@Z 0041ffb0 f i ChunkFile.obj
 0001:0001efe0       ??_Ebad_alloc@std@@UAEPAXI@Z 0041ffe0 f i ChunkFile.obj
 0001:0001efe0       ??_Gbad_alloc@std@@UAEPAXI@Z 0041ffe0 f i ChunkFile.obj
 0001:0001f010       ??_Ebad_array_new_length@std@@UAEPAXI@Z 00420010 f i ChunkFile.obj
 0001:0001f010       ??_Gbad_array_new_length@std@@UAEPAXI@Z 00420010 f i ChunkFile.obj
 0001:0001f040       ??_Ebad_cast@std@@UAEPAXI@Z 00420040 f i ChunkFile.obj
 0001:0001f040       ??_Gbad_cast@std@@UAEPAXI@Z 00420040 f i ChunkFile.obj
 0001:0001f070       ??_Ecodecvt_base@std@@UAEPAXI@Z 00420070 f i ChunkFile.obj
 0001:0001f070       ??_Gcodecvt_base@std@@UAEPAXI@Z 00420070 f i ChunkFile.obj
 0001:0001f0a0       ??_Eexception@std@@UAEPAXI@Z 004200a0 f i ChunkFile.obj
 0001:0001f0a0       ??_Gexception@std@@UAEPAXI@Z 004200a0 f i ChunkFile.obj
 0001:0001f0d0       ??_Efacet@locale@std@@MAEPAXI@Z 004200d0 f i ChunkFile.obj
 0001:0001f0d0       ??_Gfacet@locale@std@@MAEPAXI@Z 004200d0 f i ChunkFile.obj
 0001:0001f100       ??_Eios_base@std@@UAEPAXI@Z 00420100 f i ChunkFile.obj
 0001:0001f100       ??_Gios_base@std@@UAEPAXI@Z 00420100 f i ChunkFile.obj
 0001:0001f130       ?AddHandler@CChunkHandlerMap@@QAEXPBDP6A?AW4ChunkFileResult_t@@PAVCChunkFile@@PAX@Z2@Z 00420130 f   ChunkFile.obj
 0001:0001f1c0       ?BeginChunk@CChunkFile@@QAE?AW4ChunkFileResult_t@@PBD@Z 004201c0 f   ChunkFile.obj
 0001:0001f250       ?BuildIndentString@CChunkFile@@IAEXPADH@Z 00420250 f   ChunkFile.obj
 0001:0001f2a0       ?Close@CChunkFile@@QAE?AW4ChunkFileResult_t@@XZ 004202a0 f   ChunkFile.obj
 0001:0001f2e0       ?EndChunk@CChunkFile@@QAE?AW4ChunkFileResult_t@@XZ 004202e0 f   ChunkFile.obj
 0001:0001f340       ?GetErrorHandler@CChunkHandlerMap@@QAEP6A_NPAVCChunkFile@@PBDPAX@ZPAPAX@Z 00420340 f   ChunkFile.obj
 0001:0001f360       ?GetErrorText@CChunkFile@@QAEPBDW4ChunkFileResult_t@@@Z 00420360 f   ChunkFile.obj
 0001:0001f460       ?GetHandler@CChunkHandlerMap@@QAEP6A?AW4ChunkFileResult_t@@PAVCChunkFile@@PAX@ZPBDPAPAX@Z 00420460 f   ChunkFile.obj
 0001:0001f4c0       ?HandleChunk@CChunkFile@@QAE?AW4ChunkFileResult_t@@PBD@Z 004204c0 f   ChunkFile.obj
 0001:0001f5e0       ?HandleError@CChunkFile@@QAEXPBDW4ChunkFileResult_t@@@Z 004205e0 f   ChunkFile.obj
 0001:0001f5f0       ?Open@CChunkFile@@QAE?AW4ChunkFileResult_t@@PBDW4ChunkFileOpenMode_t@@@Z 004205f0 f   ChunkFile.obj
 0001:0001f670       ?PopHandlers@CChunkFile@@QAEXXZ 00420670 f   ChunkFile.obj
 0001:0001f6a0       ?PushHandlers@CChunkFile@@QAEXPAVCChunkHandlerMap@@@Z 004206a0 f   ChunkFile.obj
 0001:0001f6f0       ?ReadChunk@CChunkFile@@QAE?AW4ChunkFileResult_t@@P6A?AW42@PBD0PAX@Z1@Z 004206f0 f   ChunkFile.obj
 0001:0001f790       ?ReadKeyValueBool@CChunkFile@@SA_NPBDAA_N@Z 00420790 f   ChunkFile.obj
 0001:0001f7c0       ?ReadKeyValueColor@CChunkFile@@SA_NPBDAAE11@Z 004207c0 f   ChunkFile.obj
 0001:0001f810       ?ReadKeyValueFloat@CChunkFile@@SA_NPBDAAM@Z 00420810 f   ChunkFile.obj
 0001:0001f830       ?ReadKeyValueInt@CChunkFile@@SA_NPBDAAH@Z 00420830 f   ChunkFile.obj
 0001:0001f850       ?ReadKeyValuePoint@CChunkFile@@SA_NPBDAAVVector@@@Z 00420850 f   ChunkFile.obj
 0001:0001f8a0       ?ReadKeyValueVector2@CChunkFile@@SA_NPBDAAVVector2D@@@Z 004208a0 f   ChunkFile.obj
 0001:0001f8f0       ?ReadKeyValueVector3@CChunkFile@@SA_NPBDAAVVector@@@Z 004208f0 f   ChunkFile.obj
 0001:0001f940       ?ReadKeyValueVector4@CChunkFile@@SA_NPBDAAVVector4D@@@Z 00420940 f   ChunkFile.obj
 0001:0001f9b0       ?ReadNext@CChunkFile@@QAE?AW4ChunkFileResult_t@@PAD0HAAW4ChunkType_t@@@Z 004209b0 f   ChunkFile.obj
 0001:0001fba0       ?SetDefaultChunkHandler@CChunkFile@@QAEXP6A?AW4ChunkFileResult_t@@PAV1@PAXPBD@Z1@Z 00420ba0 f   ChunkFile.obj
 0001:0001fbd0       ?SetErrorHandler@CChunkHandlerMap@@QAEXP6A_NPAVCChunkFile@@PBDPAX@Z2@Z 00420bd0 f   ChunkFile.obj
 0001:0001fbf0       ?WriteKeyValue@CChunkFile@@QAE?AW4ChunkFileResult_t@@PBD0@Z 00420bf0 f   ChunkFile.obj
 0001:0001fc50       ?WriteKeyValueBool@CChunkFile@@QAE?AW4ChunkFileResult_t@@PBD_N@Z 00420c50 f   ChunkFile.obj
 0001:0001fca0       ?WriteKeyValueColor@CChunkFile@@QAE?AW4ChunkFileResult_t@@PBDEEE@Z 00420ca0 f   ChunkFile.obj
 0001:0001fd00       ?WriteKeyValueFloat@CChunkFile@@QAE?AW4ChunkFileResult_t@@PBDM@Z 00420d00 f   ChunkFile.obj
 0001:0001fd60       ?WriteKeyValueInt@CChunkFile@@QAE?AW4ChunkFileResult_t@@PBDH@Z 00420d60 f   ChunkFile.obj
 0001:0001fdb0       ?WriteKeyValuePoint@CChunkFile@@QAE?AW4ChunkFileResult_t@@PBDABVVector@@@Z 00420db0 f   ChunkFile.obj
 0001:0001fe30       ?WriteKeyValueVector2@CChunkFile@@QAE?AW4ChunkFileResult_t@@PBDABVVector2D@@@Z 00420e30 f   ChunkFile.obj
 0001:0001fea0       ?WriteKeyValueVector3@CChunkFile@@QAE?AW4ChunkFileResult_t@@PBDABVVector@@@Z 00420ea0 f   ChunkFile.obj
 0001:0001ff20       ?WriteKeyValueVector4@CChunkFile@@QAE?AW4ChunkFileResult_t@@PBDABVVector4D@@@Z 00420f20 f   ChunkFile.obj
 0001:0001ffb0       ?WriteLine@CChunkFile@@QAE?AW4ChunkFileResult_t@@PBD@Z 00420fb0 f   ChunkFile.obj
 0001:000200a0       ?_Adjust_manually_vector_aligned@std@@YAXAAPAXAAI@Z 004210a0 f i ChunkFile.obj
 0001:000200d0       ?_Alloc_proxy@_Container_base0@std@@QAEXABU_Fake_allocator@2@@Z 004210d0 f i ChunkFile.obj
 0001:000200e0       ?_Allocate@_Default_allocate_traits@std@@SAPAXI@Z 004210e0 f i ChunkFile.obj
 0001:000200f0       ?_C_str@locale@std@@QBEPBDXZ 004210f0 f i ChunkFile.obj
 0001:00020110       ?_Calculate_growth@?$basic_string@DU?$char_traits@D@std@@V?$allocator@D@2@@std@@CAIIII@Z 00421110 f i ChunkFile.obj
 0001:00020170       ?_Decref@facet@locale@std@@UAEPAV_Facet_base@3@XZ 00421170 f i ChunkFile.obj
 0001:00020190       ?_Endwrite@?$basic_filebuf@DU?$char_traits@D@std@@@std@@IAE_NXZ 00421190 f i ChunkFile.obj
 0001:000202b0       ?_Erase_noexcept@?$basic_string@DU?$char_traits@D@std@@V?$allocator@D@2@@std@@AAEAAV12@II@Z 004212b0 f i ChunkFile.obj
 0001:00020380       ?_Getcat@?$codecvt@DDU_Mbstatet@@@std@@SAIPAPBVfacet@locale@2@PBV42@@Z 00421380 f i ChunkFile.obj
 0001:00020410       ?_Getfacet@locale@std@@QBEPBVfacet@12@I@Z 00421410 f i ChunkFile.obj
 0001:00020460       ?_Gninc@?$basic_streambuf@DU?$char_traits@D@std@@@std@@IAEPADXZ 00421460 f i ChunkFile.obj
 0001:000204b0       ?_Incref@facet@locale@std@@UAEXXZ 004214b0 f i ChunkFile.obj
 0001:000204c0       ?_Init@?$basic_filebuf@DU?$char_traits@D@std@@@std@@IAEXPAU_iobuf@@W4_Initfl@12@@Z 004214c0 f i ChunkFile.obj
 0001:000205d0       ?_Init@?$basic_streambuf@DU?$char_traits@D@std@@@std@@IAEXXZ 004215d0 f i ChunkFile.obj
 0001:00020670       ?_Lock@?$basic_filebuf@DU?$char_traits@D@std@@@std@@UAEXXZ 00421670 f i ChunkFile.obj
 0001:000206a0       ?_Lock@?$basic_streambuf@DU?$char_traits@D@std@@@std@@UAEXXZ 004216a0 f i ChunkFile.obj
 0001:000206b0       ?_Orphan_all@_Container_base0@std@@QAEXXZ 004216b0 f i ChunkFile.obj
 0001:000206c0       ?_Pninc@?$basic_streambuf@DU?$char_traits@D@std@@@std@@IAEPADXZ 004216c0 f i ChunkFile.obj
 0001:00020710       ?_Reset_back@?$basic_filebuf@DU?$char_traits@D@std@@@std@@AAEXXZ 00421710 f i ChunkFile.obj
 0001:00020780       ?_Set_back@?$basic_filebuf@DU?$char_traits@D@std@@@std@@AAEXXZ 00421780 f i ChunkFile.obj
 0001:00020800       ?_Throw_bad_array_new_length@std@@YAXXZ 00421800 f i ChunkFile.obj
 0001:00020820       ?_Throw_bad_cast@std@@YAXXZ 00421820 f i ChunkFile.obj
 0001:00020840       ?_Tidy_deallocate@?$basic_string@DU?$char_traits@D@std@@V?$allocator@D@2@@std@@AAEXXZ 00421840 f i ChunkFile.obj
 0001:00020900       ?_Tidy_init@?$basic_string@DU?$char_traits@D@std@@V?$allocator@D@2@@std@@AAEXXZ 00421900 f i ChunkFile.obj
 0001:00020940       ?_Unlock@?$basic_filebuf@DU?$char_traits@D@std@@@std@@UAEXXZ 00421940 f i ChunkFile.obj
 0001:00020970       ?_Unlock@?$basic_streambuf@DU?$char_traits@D@std@@@std@@UAEXXZ 00421970 f i ChunkFile.obj
 0001:00020980       ?_Xlen_string@std@@YAXXZ   00421980 f i ChunkFile.obj
 0001:00020990       ?_Xran@?$_String_val@U?$_Simple_types@D@std@@@std@@SAXXZ 00421990 f i ChunkFile.obj
 0001:000209a0       ?always_noconv@codecvt_base@std@@QBE_NXZ 004219a0 f i ChunkFile.obj
 0001:000209b0       ?c_str@?$_Yarn@D@std@@QBEPBDXZ 004219b0 f i ChunkFile.obj
 0001:000209e0       ?close@?$basic_filebuf@DU?$char_traits@D@std@@@std@@QAEPAV12@XZ 004219e0 f i ChunkFile.obj
 0001:00020a50       ?data@?$basic_string@DU?$char_traits@D@std@@V?$allocator@D@2@@std@@QBEPBDXZ 00421a50 f i ChunkFile.obj
 0001:00020aa0       ?do_always_noconv@?$codecvt@DDU_Mbstatet@@@std@@MBE_NXZ 00421aa0 f i ChunkFile.obj
 0001:00020ab0       ?do_always_noconv@codecvt_base@std@@MBE_NXZ 00421ab0 f i ChunkFile.obj
 0001:00020ac0       ?do_encoding@codecvt_base@std@@MBEHXZ 00421ac0 f i ChunkFile.obj
 0001:00020ad0       ?do_in@?$codecvt@DDU_Mbstatet@@@std@@MBEHAAU_Mbstatet@@PBD1AAPBDPAD3AAPAD@Z 00421ad0 f i ChunkFile.obj
 0001:00020b00       ?do_length@?$codecvt@DDU_Mbstatet@@@std@@MBEHAAU_Mbstatet@@PBD1I@Z 00421b00 f i ChunkFile.obj
 0001:00020b70       ?do_max_length@codecvt_base@std@@MBEHXZ 00421b70 f i ChunkFile.obj
 0001:00020b80       ?do_out@?$codecvt@DDU_Mbstatet@@@std@@MBEHAAU_Mbstatet@@PBD1AAPBDPAD3AAPAD@Z 00421b80 f i ChunkFile.obj
 0001:00020bb0       ?do_unshift@?$codecvt@DDU_Mbstatet@@@std@@MBEHAAU_Mbstatet@@PAD1AAPAD@Z 00421bb0 f i ChunkFile.obj
 0001:00020bd0       ?front@?$basic_string@DU?$char_traits@D@std@@V?$allocator@D@2@@std@@QAEAADXZ 00421bd0 f i ChunkFile.obj
 0001:00020c20       ?imbue@?$basic_filebuf@DU?$char_traits@D@std@@@std@@MAEXABVlocale@2@@Z 00421c20 f i ChunkFile.obj
 0001:00020c70       ?imbue@?$basic_streambuf@DU?$char_traits@D@std@@@std@@MAEXABVlocale@2@@Z 00421c70 f i ChunkFile.obj
 0001:00020c80       ?max@?$numeric_limits@H@std@@SAHXZ 00421c80 f i ChunkFile.obj
 0001:00020c90       ?max_size@?$basic_string@DU?$char_traits@D@std@@V?$allocator@D@2@@std@@QBEIXZ 00421c90 f i ChunkFile.obj
 0001:00020d10       ?overflow@?$basic_filebuf@DU?$char_traits@D@std@@@std@@MAEHH@Z 00421d10 f i ChunkFile.obj
 0001:00020f00       ?overflow@?$basic_streambuf@DU?$char_traits@D@std@@@std@@MAEHH@Z 00421f00 f i ChunkFile.obj
 0001:00020f10       ?pbackfail@?$basic_filebuf@DU?$char_traits@D@std@@@std@@MAEHH@Z 00421f10 f i ChunkFile.obj
 0001:000210c0       ?pbackfail@?$basic_streambuf@DU?$char_traits@D@std@@@std@@MAEHH@Z 004220c0 f i ChunkFile.obj
 0001:000210d0       ?push_back@?$basic_string@DU?$char_traits@D@std@@V?$allocator@D@2@@std@@QAEXD@Z 004220d0 f i ChunkFile.obj
 0001:00021170       ?seekoff@?$basic_filebuf@DU?$char_traits@D@std@@@std@@MAE?AV?$fpos@U_Mbstatet@@@2@_JHH@Z 00422170 f i ChunkFile.obj
 0001:00021290       ?seekoff@?$basic_streambuf@DU?$char_traits@D@std@@@std@@MAE?AV?$fpos@U_Mbstatet@@@2@_JHH@Z 00422290 f i ChunkFile.obj
 0001:000212d0       ?seekpos@?$basic_filebuf@DU?$char_traits@D@std@@@std@@MAE?AV?$fpos@U_Mbstatet@@@2@V32@H@Z 004222d0 f i ChunkFile.obj
 0001:000213c0       ?seekpos@?$basic_streambuf@DU?$char_traits@D@std@@@std@@MAE?AV?$fpos@U_Mbstatet@@@2@V32@H@Z 004223c0 f i ChunkFile.obj
 0001:00021400       ?setbuf@?$basic_filebuf@DU?$char_traits@D@std@@@std@@MAEPAV?$basic_streambuf@DU?$char_traits@D@std@@@2@PAD_J@Z 00422400 f i ChunkFile.obj
 0001:00021480       ?setbuf@?$basic_streambuf@DU?$char_traits@D@std@@@std@@MAEPAV12@PAD_J@Z 00422480 f i ChunkFile.obj
 0001:00021490       ?showmanyc@?$basic_streambuf@DU?$char_traits@D@std@@@std@@MAE_JXZ 00422490 f i ChunkFile.obj
 0001:000214a0       ?sync@?$basic_filebuf@DU?$char_traits@D@std@@@std@@MAEHXZ 004224a0 f i ChunkFile.obj
 0001:00021510       ?sync@?$basic_streambuf@DU?$char_traits@D@std@@@std@@MAEHXZ 00422510 f i ChunkFile.obj
 0001:00021520       ?uflow@?$basic_filebuf@DU?$char_traits@D@std@@@std@@MAEHXZ 00422520 f i ChunkFile.obj
 0001:00021750       ?uflow@?$basic_streambuf@DU?$char_traits@D@std@@@std@@MAEHXZ 00422750 f i ChunkFile.obj
 0001:000217c0       ?underflow@?$basic_filebuf@DU?$char_traits@D@std@@@std@@MAEHXZ 004227c0 f i ChunkFile.obj
 0001:00021870       ?underflow@?$basic_streambuf@DU?$char_traits@D@std@@@std@@MAEHXZ 00422870 f i ChunkFile.obj
 0001:00021880       ?what@exception@std@@UBEPBDXZ 00422880 f i ChunkFile.obj
 0001:00021890       ?xsgetn@?$basic_filebuf@DU?$char_traits@D@std@@@std@@MAE_JPAD_J@Z 00422890 f i ChunkFile.obj
 0001:00021a40       ?xsgetn@?$basic_streambuf@DU?$char_traits@D@std@@@std@@MAE_JPAD_J@Z 00422a40 f i ChunkFile.obj
 0001:00021bb0       ?xsputn@?$basic_filebuf@DU?$char_traits@D@std@@@std@@MAE_JPBD_J@Z 00422bb0 f i ChunkFile.obj
 0001:00021d20       ?xsputn@?$basic_streambuf@DU?$char_traits@D@std@@@std@@MAE_JPBD_J@Z 00422d20 f i ChunkFile.obj
 0001:00021e90       ___local_stdio_scanf_options 00422e90 f i ChunkFile.obj
 0001:00021ea0       _sscanf                    00422ea0 f i ChunkFile.obj
 0001:00021ed0       ?AxisTestEdgeCrossX2@@YA_NMMMMABVVector@@00M@Z 00422ed0 f i CollisionUtils.obj
 0001:00021f60       ?AxisTestEdgeCrossY2@@YA_NMMMMABVVector@@00M@Z 00422f60 f i CollisionUtils.obj
 0001:00021ff0       ?AxisTestEdgeCrossZ1@@YA_NMMMMABVVector@@00M@Z 00422ff0 f i CollisionUtils.obj
 0001:000221e0       ?ComputeIntersectionBarycentricCoordinates@@YA_NABURay_t@@ABVVector@@11AAM2PAM@Z 004231e0 f   CollisionUtils.obj
 0001:00022420       ?ComputePointFromBarycentric@@YAXABVVector2D@@00MMAAV1@@Z 00423420 f   CollisionUtils.obj
 0001:000224a0       ?ComputePointFromBarycentric@@YAXABVVector@@00MMAAV1@@Z 004234a0 f   CollisionUtils.obj
 0001:00022df0       ?ComputeSeparatingPlane@@YA_NABVVector@@ABVQAngle@@000100MPAUcplane_t@@@Z 00423df0 f   CollisionUtils.obj
 0001:00022fe0       ?DotProductAbs@@YAMABVVector@@0@Z 00423fe0 f i CollisionUtils.obj
 0001:00023040       ?GetNonMajorAxes@@YAXABVVector@@AAVVector2D@@@Z 00424040 f   CollisionUtils.obj
 0001:00023100       ?IntersectInfiniteRayWithSphere@@YA_NABVVector@@00MPAM1@Z 00424100 f   CollisionUtils.obj
 0001:00023270       ?IntersectRayWithAAPlane@@YAMABVVector@@0HMM@Z 00424270 f   CollisionUtils.obj
 0001:000232d0       ?IntersectRayWithBox@@YA_NABURay_t@@ABVVector@@1MPAVCBaseTrace@@@Z 004242d0 f   CollisionUtils.obj
 0001:000233f0       ?IntersectRayWithBox@@YA_NABVVector@@000MPAUBoxTraceInfo_t@@@Z 004243f0 f   CollisionUtils.obj
 0001:00023520       ?IntersectRayWithBox@@YA_NABVVector@@000MPAVCBaseTrace@@@Z 00424520 f   CollisionUtils.obj
 0001:00023700       ?IntersectRayWithOBB@@YA_NABURay_t@@ABUmatrix3x4_t@@ABVVector@@2MPAVCBaseTrace@@@Z 00424700 f   CollisionUtils.obj
 0001:00024200       ?IntersectRayWithOBB@@YA_NABURay_t@@ABVVector@@ABVQAngle@@11MPAVCBaseTrace@@@Z 00425200 f   CollisionUtils.obj
 0001:000244b0       ?IntersectRayWithOBB@@YA_NABVVector@@00ABVQAngle@@00MPAVCBaseTrace@@@Z 004254b0 f   CollisionUtils.obj
 0001:000245c0       ?IntersectRayWithOBB@@YA_NABVVector@@0ABUmatrix3x4_t@@00MPAUBoxTraceInfo_t@@@Z 004255c0 f   CollisionUtils.obj
 0001:00024610       ?IntersectRayWithOBB@@YA_NABVVector@@0ABUmatrix3x4_t@@00MPAVCBaseTrace@@@Z 00425610 f   CollisionUtils.obj
 0001:000249c0       ?IntersectRayWithPlane@@YAMABURay_t@@ABUcplane_t@@@Z 004259c0 f   CollisionUtils.obj
 0001:00024a50       ?IntersectRayWithPlane@@YAMABVVector@@00M@Z 00425a50 f   CollisionUtils.obj
 0001:00024ae0       ?IntersectRayWithPlane@@YAMABVVector@@0ABUcplane_t@@@Z 00425ae0 f   CollisionUtils.obj
 0001:00024b70       ?IntersectRayWithRay@@YA_NABURay_t@@0AAM1@Z 00425b70 f   CollisionUtils.obj
 0001:00024db0       ?IntersectRayWithSphere@@YA_NABVVector@@00MPAM1@Z 00425db0 f   CollisionUtils.obj
 0001:00024f60       ?IntersectRayWithTriangle@@YAMABURay_t@@ABVVector@@11_N@Z 00425f60 f   CollisionUtils.obj
 0001:00025220       ?IntersectTriangleWithPlaneBarycentric@@YAHABVVector@@00ABVVector4D@@PAVVector2D@@@Z 00426220 f   CollisionUtils.obj
 0001:00025360       ?IsBoxIntersectingBox@@YA_NABVVector@@000@Z 00426360 f   CollisionUtils.obj
 0001:000253c0       ?IsBoxIntersectingBoxExtents@@YA_NABVVector@@000@Z 004263c0 f   CollisionUtils.obj
 0001:00025460       ?IsBoxIntersectingRay@@YI_NABVVector@@0000M@Z 00426460 f   CollisionUtils.obj
 0001:00025560       ?IsBoxIntersectingRay@@YI_NABVVector@@000M@Z 00426560 f   CollisionUtils.obj
 0001:00025670       ?IsBoxIntersectingRay@@YI_NABVVector@@0ABURay_t@@M@Z 00426670 f   CollisionUtils.obj
 0001:00025880       ?IsBoxIntersectingSphere@@YA_NABVVector@@00M@Z 00426880 f   CollisionUtils.obj
 0001:00025950       ?IsBoxIntersectingSphereExtents@@YA_NABVVector@@00M@Z 00426950 f   CollisionUtils.obj
 0001:00025a10       ?IsBoxIntersectingTriangle@@YA_NABVVector@@0000ABUcplane_t@@M@Z 00426a10 f   CollisionUtils.obj
 0001:00026070       ?IsCircleIntersectingRectangle@@YA_NABVVector2D@@00M@Z 00427070 f   CollisionUtils.obj
 0001:00026110       ?IsOBBIntersectingOBB@@YA_NABVVector@@ABVQAngle@@000100M@Z 00427110 f   CollisionUtils.obj
 0001:00026150       ?IsPointInBox@@YA_NABVVector@@00@Z 00427150 f   CollisionUtils.obj
 0001:000261a0       ?IsPointInCone@@YA_NABVVector@@00MM@Z 004271a0 f   CollisionUtils.obj
 0001:00026230       ?IsRayIntersectingOBB@@YA_NABURay_t@@ABVVector@@ABVQAngle@@11@Z 00427230 f   CollisionUtils.obj
 0001:00026890       ?IsRayIntersectingSphere@@YA_NABVVector@@00MM@Z 00427890 f   CollisionUtils.obj
 0001:00026980       ?IsSphereIntersectingSphere@@YA_NABVVector@@M0M@Z 00427980 f   CollisionUtils.obj
 0001:000269d0       ?PointInQuadFromBarycentric@@YAXABVVector@@000ABVVector2D@@AAV1@@Z 004279d0 f   CollisionUtils.obj
 0001:00026ab0       ?PointInQuadToBarycentric@@YA?AW4QuadBarycentricRetval_t@@ABVVector@@0000AAVVector2D@@@Z 00427ab0 f   CollisionUtils.obj
 0001:00027450       ?QuadWithParallelEdges@@YA?AW4QuadBarycentricRetval_t@@ABVVector@@0M0M0AAVVector2D@@@Z 00428450 f   CollisionUtils.obj
 0001:000275d0       ?ResolveQuadratic@@YAXNNVVector@@00000HAAN1@Z 004285d0 f   CollisionUtils.obj
 0001:00027800       ?TexCoordInQuadFromBarycentric@@YAXABVVector2D@@0000AAV1@@Z 00428800 f   CollisionUtils.obj
 0001:00027890       ??0?$CUtlMemory@VCDispBox@@@@QAE@HH@Z 00428890 f i disp_common.obj
 0001:000278d0       ??0CDispCircumferenceIterator@@QAE@H@Z 004288d0 f   disp_common.obj
 0001:000278f0       ??0CDispEdgeIterator@@QAE@PAVCDispUtilsHelper@@H@Z 004288f0 f   disp_common.obj
 0001:00027930       ??0CDispSubEdgeIterator@@QAE@XZ 00428930 f   disp_common.obj
 0001:00027950       ??0CNodeVert@@QAE@XZ       00428950 f i disp_common.obj
 0001:00027960       ??1?$CUtlMemory@VCDispBox@@@@QAE@XZ 00428960 f i disp_common.obj
 0001:00027990       ??9CVertIndex@@QBE_NABV0@@Z 00428990 f i disp_common.obj
 0001:000279c0       ?AddNeighbor@@YAXPAVCCoreDispInfo@@HHW4NeighborSpan@@0H1@Z 004289c0 f   disp_common.obj
 0001:00027ab0       ?ClearNeighborData@@YAXPAVCCoreDispInfo@@@Z 00428ab0 f   disp_common.obj
 0001:00027af0       ?DisableUnallowedVerts_R@@YAXPAVCDispUtilsHelper@@ABVCVertIndex@@HAAH@Z 00428af0 f   disp_common.obj
 0001:00027ba0       ?DispCommon_GenerateTriIndices@@YAXHPAG@Z 00428ba0 f   disp_common.obj
 0001:00027dd0       ?DispCommon_GetNumTriIndices@@YAHH@Z 00428dd0 f   disp_common.obj
 0001:00027df0       ?DoesPointHaveAnyNeighbors@@YA_NPAVCDispUtilsHelper@@ABVCVertIndex@@@Z 00428df0 f   disp_common.obj
 0001:00027f20       ?FindEdge@@YA_NPAVCCoreDispInfo@@ABVVector@@1AAH@Z 00428f20 f   disp_common.obj
 0001:00028040       ?FindNeighboringDispSurfs@@YAXPAPAVCCoreDispInfo@@H@Z 00429040 f   disp_common.obj
 0001:000281d0       ?GetCornerIndexFromPoint@@YAHABVCVertIndex@@H@Z 004291d0 f   disp_common.obj
 0001:00028250       ?GetCornerPointIndex@CDispUtilsHelper@@QBEABVCVertIndex@@H@Z 00429250 f   disp_common.obj
 0001:00028270       ?GetDispBox@@YAXPAVCCoreDispInfo@@AAVCDispBox@@@Z 00429270 f   disp_common.obj
 0001:000283e0       ?GetEdgeIndexFromPoint@@YAHABVCVertIndex@@H@Z 004293e0 f   disp_common.obj
 0001:00028430       ?GetEdgeMidPoint@CDispUtilsHelper@@QBE?AVCVertIndex@@H@Z 00429430 f   disp_common.obj
 0001:000284a0       ?GetNeighborEdgePower@@YAHPAVCDispUtilsHelper@@HH@Z 004294a0 f   disp_common.obj
 0001:00028510       ?GetPower@CDispUtilsHelper@@QBEHXZ 00429510 f   disp_common.obj
 0001:00028520       ?GetSideLength@CDispUtilsHelper@@QBEHXZ 00429520 f   disp_common.obj
 0001:00028530       ?GetSubNeighborIndex@@YAHPAVCDispUtilsHelper@@HABVCVertIndex@@@Z 00429530 f   disp_common.obj
 0001:000285b0       ?Grow@?$CUtlMemory@VCDispBox@@@@QAEXH@Z 004295b0 f i disp_common.obj
 0001:00028620       ?GrowVector@?$CUtlVector@VCDispBox@@V?$CUtlMemory@VCDispBox@@@@@@IAEXH@Z 00429620 f i disp_common.obj
 0001:000286b0       ?HasEdgeNeighbor@@YA_NPBVCCoreDispInfo@@H@Z 004296b0 f   disp_common.obj
 0001:00028720       ?InsertMultipleBefore@?$CUtlVector@VCDispBox@@V?$CUtlMemory@VCDispBox@@@@@@QAEHHHPBVCDispBox@@@Z 00429720 f i disp_common.obj
 0001:00028840       ?IsCorner@@YAHABVCVertIndex@@H@Z 00429840 f   disp_common.obj
 0001:000288a0       ?IsExternallyAllocated@?$CUtlMemory@VCDispBox@@@@QBE_NXZ 004298a0 f i disp_common.obj
 0001:000288b0       ?IsLastVert@CDispSubEdgeIterator@@QBE_NXZ 004298b0 f   disp_common.obj
 0001:000288d0       ?IsVertAllowed@@YA_NPAVCDispUtilsHelper@@ABVCVertIndex@@H@Z 004298d0 f   disp_common.obj
 0001:000289f0       ?NeighborSpanFlip@@YA?AW4NeighborSpan@@HW41@@Z 004299f0 f   disp_common.obj
 0001:00028a10       ?Next@CDispCircumferenceIterator@@QAE_NXZ 00429a10 f   disp_common.obj
 0001:00028a90       ?Next@CDispEdgeIterator@@QAE_NXZ 00429a90 f   disp_common.obj
 0001:00028b70       ?Next@CDispSubEdgeIterator@@QAE_NXZ 00429b70 f   disp_common.obj
 0001:00028ba0       ?Purge@?$CUtlMemory@VCDispBox@@@@QAEXXZ 00429ba0 f i disp_common.obj
 0001:00028bd0       ?RemoveAll@?$CUtlVector@VCDispBox@@V?$CUtlMemory@VCDispBox@@@@@@QAEXXZ 00429bd0 f i disp_common.obj
 0001:00028be0       ?SetCount@?$CUtlVector@VCDispBox@@V?$CUtlMemory@VCDispBox@@@@@@QAEXH@Z 00429be0 f i disp_common.obj
 0001:00028c00       ?SetupAllowedVerts@@YAXPAPAVCCoreDispInfo@@H@Z 00429c00 f   disp_common.obj
 0001:00028c90       ?SetupCornerNeighbors@@YAXPAVCCoreDispInfo@@0PAH@Z 00429c90 f   disp_common.obj
 0001:00028eb0       ?SetupDispBoxes@@YAXPAPAVCCoreDispInfo@@HAAV?$CUtlVector@VCDispBox@@V?$CUtlMemory@VCDispBox@@@@@@@Z 00429eb0 f   disp_common.obj
 0001:00029060       ?SetupEdgeIncrements@@YAPAVCDispUtilsHelper@@PAV1@HHAAVCVertIndex@@111AAH2@Z 0042a060 f   disp_common.obj
 0001:00029210       ?SetupEdgeNeighbors@@YAXPAVCCoreDispInfo@@0@Z 0042a210 f   disp_common.obj
 0001:00029460       ?SetupSpan@@YAXHHW4NeighborSpan@@AAVCVertIndex@@1@Z 0042a460 f   disp_common.obj
 0001:000294f0       ?ShiftElementsRight@?$CUtlVector@VCDispBox@@V?$CUtlMemory@VCDispBox@@@@@@IAEXHH@Z 0042a4f0 f i disp_common.obj
 0001:00029530       ?Start@CDispSubEdgeIterator@@QAEXPAVCDispUtilsHelper@@HH_N@Z 0042a530 f   disp_common.obj
 0001:000295c0       ?TransformIntoNeighbor@@YAPAVCDispUtilsHelper@@PAV1@HABVCVertIndex@@AAV2@@Z 0042a5c0 f   disp_common.obj
 0001:00029620       ?TransformIntoSubNeighbor@@YAPAVCDispUtilsHelper@@PAV1@HHABVCVertIndex@@AAV2@@Z 0042a620 f   disp_common.obj
 0001:00029720       ?UnallowVerts_R@@YAXPAVCDispUtilsHelper@@ABVCVertIndex@@AAH@Z 0042a720 f   disp_common.obj
 0001:000297c0       ?VerifyNeighborConnections@@YAXPAPAVCCoreDispInfo@@H@Z 0042a7c0 f   disp_common.obj
 0001:00029b30       ?VerifyNeighborVertConnection@@YA_NPAVCDispUtilsHelper@@ABVCVertIndex@@PBV1@1H@Z 0042ab30 f   disp_common.obj
 0001:00029c10       ?VertIndexToInt@CDispUtilsHelper@@QBEHABVCVertIndex@@@Z 0042ac10 f   disp_common.obj
 0001:00029c30       ??0CFourVerts@@QAE@XZ      0042ac30 f i disp_powerinfo.obj
 0001:00029c40       ??0CPowerInfo@@QAE@PAVCVertInfo@@PAVCFourVerts@@11PAVCTwoUShorts@@PAVCTriInfo@@@Z 0042ac40 f   disp_powerinfo.obj
 0001:00029c70       ??0CTesselateVert@@QAE@ABVCVertIndex@@H@Z 0042ac70 f   disp_powerinfo.obj
 0001:00029c90       ??0CVertDependency@@QAE@XZ 0042ac90 f i disp_powerinfo.obj
 0001:00029ca0       ??0CVertIndex@@QAE@XZ      0042aca0 f i disp_powerinfo.obj
 0001:00029cb0       ??0CVertInfo@@QAE@XZ       0042acb0 f   disp_powerinfo.obj
 0001:00029e50       ?GetCornerPointIndex@CPowerInfo@@QBEABVCVertIndex@@H@Z 0042ae50 f   disp_powerinfo.obj
 0001:00029e60       ?GetPowerInfo@@YAPBVCPowerInfo@@H@Z 0042ae60 f   disp_powerinfo.obj
 0001:00029e70       ?InitPowerInfo@@YAXPAVCPowerInfo@@H@Z 0042ae70 f   disp_powerinfo.obj
 0001:0002a740       ?ParseFile@@YAPADPAD0PA_N@Z 0042b740 f   filesystem_helpers.obj
 0001:0002a760       ?ParseFile@@YAPBDPBDPADPA_NPAUcharacterset_s@@@Z 0042b760 f   filesystem_helpers.obj
 0001:0002a8b0       ??0?$CUtlMemory@D@@QAE@HH@Z 0042b8b0 f i filesystem_init.obj
 0001:0002a8f0       ??0CFSLoadModuleInfo@@QAE@XZ 0042b8f0 f   filesystem_init.obj
 0001:0002a930       ??0CFSMountContentInfo@@QAE@XZ 0042b930 f   filesystem_init.obj
 0001:0002a950       ??0CFSSearchPathsInit@@QAE@XZ 0042b950 f   filesystem_init.obj
 0001:0002a970       ??0CFSSteamSetupInfo@@QAE@XZ 0042b970 f   filesystem_init.obj
 0001:0002a990       ??0CTempEnvVar@@QAE@PBD@Z  0042b990 f i filesystem_init.obj
 0001:0002aaf0       ??1?$CUtlMemory@D@@QAE@XZ  0042baf0 f i filesystem_init.obj
 0001:0002ab20       ??1?$CUtlVector@DV?$CUtlMemory@D@@@@QAE@XZ 0042bb20 f i filesystem_init.obj
 0001:0002ab80       ??1CSteamEnvVars@@QAE@XZ   0042bb80 f i filesystem_init.obj
 0001:0002abb0       ??1CTempEnvVar@@QAE@XZ     0042bbb0 f i filesystem_init.obj
 0001:0002ac20       ?AddGameBinDir@@YAXPAVIFileSystem@@PBD@Z 0042bc20 f   filesystem_init.obj
 0001:0002ac70       ?AddLanguageGameDir@@YAXPAVIFileSystem@@PBD1@Z 0042bc70 f   filesystem_init.obj
 0001:0002ad40       ?DoesFileExistIn@@YA_NPBD0@Z 0042bd40 f   filesystem_init.obj
 0001:0002adb0       ?DoesPathExistAlready@@YA_NPBD0@Z 0042bdb0 f   filesystem_init.obj
 0001:0002aeb0       ?FileSystem_AddSearchPath_Platform@@YAXPAVIFileSystem@@PBD@Z 0042beb0 f   filesystem_init.obj
 0001:0002af40       ?FileSystem_ClearSteamEnvVars@@YAXXZ 0042bf40 f   filesystem_init.obj
 0001:0002b0d0       ?FileSystem_GetExecutableDir@@YA_NPADH@Z 0042c0d0 f   filesystem_init.obj
 0001:0002b170       ?FileSystem_GetFileSystemDLLName@@YA?AW4FSReturnCode_t@@PADHAA_N@Z 0042c170 f   filesystem_init.obj
 0001:0002b230       ?FileSystem_GetLastErrorString@@YAPBDXZ 0042c230 f   filesystem_init.obj
 0001:0002b240       ?FileSystem_LoadFileSystemModule@@YA?AW4FSReturnCode_t@@AAVCFSLoadModuleInfo@@@Z 0042c240 f   filesystem_init.obj
 0001:0002b400       ?FileSystem_LoadSearchPaths@@YA?AW4FSReturnCode_t@@AAVCFSSearchPathsInit@@@Z 0042c400 f   filesystem_init.obj
 0001:0002b810       ?FileSystem_MountContent@@YA?AW4FSReturnCode_t@@AAVCFSMountContentInfo@@@Z 0042c810 f   filesystem_init.obj
 0001:0002b990       ?FileSystem_SetBasePaths@@YA?AW4FSReturnCode_t@@PAVIFileSystem@@@Z 0042c990 f   filesystem_init.obj
 0001:0002ba00       ?FileSystem_SetErrorMode@@YAXW4FSErrorMode_t@@@Z 0042ca00 f   filesystem_init.obj
 0001:0002ba10       ?FileSystem_SetupSteamEnvironment@@YA?AW4FSReturnCode_t@@AAVCFSSteamSetupInfo@@@Z 0042ca10 f   filesystem_init.obj
 0001:0002bb20       ?FileSystem_SetupSteamInstallPath@@YA?AW4FSReturnCode_t@@XZ 0042cb20 f   filesystem_init.obj
 0001:0002bbb0       ?GetSteamCfgPath@@YA?AW4FSReturnCode_t@@PADH@Z 0042cbb0 f   filesystem_init.obj
 0001:0002bcf0       ?GetSteamExtraAppId@@YA?AW4FSReturnCode_t@@PBDPAH@Z 0042ccf0 f   filesystem_init.obj
 0001:0002bd40       ?GetVProjectCmdLineValue@@YAPBDXZ 0042cd40 f   filesystem_init.obj
 0001:0002bd70       ?Grow@?$CUtlMemory@D@@QAEXH@Z 0042cd70 f i filesystem_init.obj
 0001:0002bde0       ?GrowVector@?$CUtlVector@DV?$CUtlMemory@D@@@@IAEXH@Z 0042cde0 f i filesystem_init.obj
 0001:0002be70       ?IsExternallyAllocated@?$CUtlMemory@D@@QBE_NXZ 0042ce70 f i filesystem_init.obj
 0001:0002be80       ?IsLowViolenceBuild@@YA_NXZ 0042ce80 f   filesystem_init.obj
 0001:0002bf50       ?LaunchVConfig@@YAXXZ      0042cf50 f   filesystem_init.obj
 0001:0002bfd0       ?LoadGameInfoFile@@YA?AW4FSReturnCode_t@@PBDAAPAVKeyValues@@11@Z 0042cfd0 f   filesystem_init.obj
 0001:0002c0c0       ?LocateGameInfoFile@@YA?AW4FSReturnCode_t@@ABVCFSSteamSetupInfo@@PADH@Z 0042d0c0 f   filesystem_init.obj
 0001:0002c270       ?Purge@?$CUtlMemory@D@@QAEXXZ 0042d270 f i filesystem_init.obj
 0001:0002c2a0       ?Q_getwd@@YAXPADH@Z        0042d2a0 f   filesystem_init.obj
 0001:0002c2d0       ?ReadKeyValuesFile@@YAPAVKeyValues@@PBD@Z 0042d2d0 f   filesystem_init.obj
 0001:0002c3c0       ?RemoveAll@?$CUtlVector@DV?$CUtlMemory@D@@@@QAEXXZ 0042d3c0 f i filesystem_init.obj
 0001:0002c3d0       ?SetCount@?$CUtlVector@DV?$CUtlMemory@D@@@@QAEXH@Z 0042d3d0 f i filesystem_init.obj
 0001:0002c470       ?SetSteamAppId@@YAXPAVKeyValues@@PBDAAVCSteamEnvVars@@@Z 0042d470 f   filesystem_init.obj
 0001:0002c4c0       ?SetSteamAppUser@@YAXPAVKeyValues@@PBDAAVCSteamEnvVars@@@Z 0042d4c0 f   filesystem_init.obj
 0001:0002c5e0       ?SetSteamInstallPath@@YA?AW4FSReturnCode_t@@PADHAAVCSteamEnvVars@@_N@Z 0042d5e0 f   filesystem_init.obj
 0001:0002c7b0       ?SetSteamUserPassphrase@@YAXPAVKeyValues@@AAVCSteamEnvVars@@@Z 0042d7b0 f   filesystem_init.obj
 0001:0002c810       ?SetValue@CTempEnvVar@@QAAXPBDZZ 0042d810 f i filesystem_init.obj
 0001:0002c870       ?SetupFileSystemError@@YA?AW4FSReturnCode_t@@_NW41@PBDZZ 0042d870 f   filesystem_init.obj
 0001:0002c9a0       ?SetupSteamStartupEnvironment@@YA?AW4FSReturnCode_t@@PAVKeyValues@@PBDAAVCSteamEnvVars@@@Z 0042d9a0 f   filesystem_init.obj
 0001:0002cbc0       ?ShiftElementsRight@?$CUtlVector@DV?$CUtlMemory@D@@@@IAEXHH@Z 0042dbc0 f i filesystem_init.obj
 0001:0002cde0       ?DeleteCmdLine@@YAXHPAPAD@Z 0042dde0 f   loadcmdline.obj
 0001:0002ce20       ?LoadCmdLineFromFile@@YAXAAHAAPAPADPBD2@Z 0042de20 f   loadcmdline.obj
 0001:0002cee0       ?GenerateLumpFileName@@YAXPBDPADHH@Z 0042dee0 f   lumpfiles.obj
 0001:0002cf20       ??0?$CUtlMemory@PAVCBaseCommand@CScratchPad3D@@@@QAE@HH@Z 0042df20 f i ScratchPad3D.obj
 0001:0002cf60       ??0?$CUtlMemory@VCSPVert@@@@QAE@HH@Z 0042df60 f i ScratchPad3D.obj
 0001:0002cfa0       ??0CCommand_Text@CScratchPad3D@@QAE@XZ 0042dfa0 f i ScratchPad3D.obj
 0001:0002d040       ??0CSPVert@@QAE@XZ         0042e040 f i ScratchPad3D.obj
 0001:0002d050       ??0CSPVertList@@QAE@PBVVector@@HVCSPColor@@@Z 0042e050 f i ScratchPad3D.obj
 0001:0002d0f0       ??0CScratchPad3D@@QAE@PBDPAVIFileSystem@@_N@Z 0042e0f0 f   ScratchPad3D.obj
 0001:0002d190       ??1?$CUtlMemory@PAVCBaseCommand@CScratchPad3D@@@@QAE@XZ 0042e190 f i ScratchPad3D.obj
 0001:0002d1c0       ??1?$CUtlMemory@VCSPVert@@@@QAE@XZ 0042e1c0 f i ScratchPad3D.obj
 0001:0002d1f0       ??1?$CUtlVector@PAVCBaseCommand@CScratchPad3D@@V?$CUtlMemory@PAVCBaseCommand@CScratchPad3D@@@@@@QAE@XZ 0042e1f0 f i ScratchPad3D.obj
 0001:0002d250       ??1?$CUtlVector@VCSPVert@@V?$CUtlMemory@VCSPVert@@@@@@QAE@XZ 0042e250 f i ScratchPad3D.obj
 0001:0002d2b0       ??1IScratchPad3D@@MAE@XZ   0042e2b0 f i ScratchPad3D.obj
 0001:0002d2c0       ??_ECScratchPad3D@@UAEPAXI@Z 0042e2c0 f i ScratchPad3D.obj
 0001:0002d2c0       ??_GCScratchPad3D@@UAEPAXI@Z 0042e2c0 f i ScratchPad3D.obj
 0001:0002d2f0       ??_EIScratchPad3D@@MAEPAXI@Z 0042e2f0 f i ScratchPad3D.obj
 0001:0002d2f0       ??_GIScratchPad3D@@MAEPAXI@Z 0042e2f0 f i ScratchPad3D.obj
 0001:0002d320       ?AddToTail@?$CUtlVector@PAVCBaseCommand@CScratchPad3D@@V?$CUtlMemory@PAVCBaseCommand@CScratchPad3D@@@@@@QAEHABQAVCBaseCommand@CScratchPad3D@@@Z 0042e320 f i ScratchPad3D.obj
 0001:0002d3d0       ?AddVectorToTail@?$CUtlVector@VCSPVert@@V?$CUtlMemory@VCSPVert@@@@@@QAEHABV1@@Z 0042e3d0 f i ScratchPad3D.obj
 0001:0002d470       ?AutoFlush@CScratchPad3D@@QAEXXZ 0042e470 f   ScratchPad3D.obj
 0001:0002d480       ?Clear@CScratchPad3D@@UAEXXZ 0042e480 f   ScratchPad3D.obj
 0001:0002d4e0       ?CopyArray@?$CUtlVector@DV?$CUtlMemory@D@@@@QAEXPBDH@Z 0042e4e0 f i ScratchPad3D.obj
 0001:0002d520       ?DeleteCommands@CScratchPad3D@@QAEXXZ 0042e520 f   ScratchPad3D.obj
 0001:0002d580       ?DrawImageBW@CScratchPad3D@@UAEXPBEHHH_N1PAVVector@@@Z 0042e580 f   ScratchPad3D.obj
 0001:0002d640       ?DrawImageRGBA@CScratchPad3D@@UAEXPAVSPRGBA@@HHH_N1PAVVector@@@Z 0042e640 f   ScratchPad3D.obj
 0001:0002d720       ?DrawLine@CScratchPad3D@@UAEXABVCSPVert@@0@Z 0042e720 f   ScratchPad3D.obj
 0001:0002d7e0       ?DrawPoint@CScratchPad3D@@UAEXABVCSPVert@@M@Z 0042e7e0 f   ScratchPad3D.obj
 0001:0002d870       ?DrawPolygon@CScratchPad3D@@UAEXABVCSPVertList@@@Z 0042e870 f   ScratchPad3D.obj
 0001:0002d970       ?DrawPolygonsForPixels@CScratchPad3D@@QAEXPAVSPRGBA@@HHHPAVVector@@@Z 0042e970 f   ScratchPad3D.obj
 0001:0002e1c0       ?DrawRectGeneric@CScratchPad3D@@QAEXHHHMABVVector2D@@0ABVCSPColor@@@Z 0042f1c0 f   ScratchPad3D.obj
 0001:0002e270       ?DrawRectXY@CScratchPad3D@@UAEXMABVVector2D@@0ABVCSPColor@@@Z 0042f270 f   ScratchPad3D.obj
 0001:0002e310       ?DrawRectXZ@CScratchPad3D@@UAEXMABVVector2D@@0ABVCSPColor@@@Z 0042f310 f   ScratchPad3D.obj
 0001:0002e3b0       ?DrawRectYZ@CScratchPad3D@@UAEXMABVVector2D@@0ABVCSPColor@@@Z 0042f3b0 f   ScratchPad3D.obj
 0001:0002e450       ?DrawText@CScratchPad3D@@UAEXPBDABVCTextParams@@@Z 0042f450 f   ScratchPad3D.obj
 0001:0002e540       ?DrawWireframeBox@CScratchPad3D@@UAEXABVVector@@00@Z 0042f540 f   ScratchPad3D.obj
 0001:0002eb20       ?Flush@CScratchPad3D@@UAEXXZ 0042fb20 f   ScratchPad3D.obj
 0001:0002ec00       ?GetAutoFlush@CScratchPad3D@@UAE_NXZ 0042fc00 f   ScratchPad3D.obj
 0001:0002ec10       ?Grow@?$CUtlMemory@PAVCBaseCommand@CScratchPad3D@@@@QAEXH@Z 0042fc10 f i ScratchPad3D.obj
 0001:0002ec80       ?Grow@?$CUtlMemory@VCSPVert@@@@QAEXH@Z 0042fc80 f i ScratchPad3D.obj
 0001:0002ed00       ?GrowVector@?$CUtlVector@PAVCBaseCommand@CScratchPad3D@@V?$CUtlMemory@PAVCBaseCommand@CScratchPad3D@@@@@@IAEXH@Z 0042fd00 f i ScratchPad3D.obj
 0001:0002ed90       ?GrowVector@?$CUtlVector@VCSPVert@@V?$CUtlMemory@VCSPVert@@@@@@IAEXH@Z 0042fd90 f i ScratchPad3D.obj
 0001:0002ee20       ?InsertBefore@?$CUtlVector@PAVCBaseCommand@CScratchPad3D@@V?$CUtlMemory@PAVCBaseCommand@CScratchPad3D@@@@@@QAEHHABQAVCBaseCommand@CScratchPad3D@@@Z 0042fe20 f i ScratchPad3D.obj
 0001:0002eed0       ?InsertMultipleBefore@?$CUtlVector@VCSPVert@@V?$CUtlMemory@VCSPVert@@@@@@QAEHHHPBVCSPVert@@@Z 0042fed0 f i ScratchPad3D.obj
 0001:0002f090       ?IsExternallyAllocated@?$CUtlMemory@PAVCBaseCommand@CScratchPad3D@@@@QBE_NXZ 00430090 f i ScratchPad3D.obj
 0001:0002f0a0       ?IsExternallyAllocated@?$CUtlMemory@VCSPVert@@@@QBE_NXZ 004300a0 f i ScratchPad3D.obj
 0001:0002f0b0       ?LoadCommandsFromFile@CScratchPad3D@@QAE_NXZ 004300b0 f   ScratchPad3D.obj
 0001:0002f350       ?Purge@?$CUtlMemory@PAVCBaseCommand@CScratchPad3D@@@@QAEXXZ 00430350 f i ScratchPad3D.obj
 0001:0002f380       ?Purge@?$CUtlMemory@VCSPVert@@@@QAEXXZ 00430380 f i ScratchPad3D.obj
 0001:0002f3b0       ?Read@CCommand_Line@CScratchPad3D@@UAEXPAVCFileRead@@@Z 004303b0 f   ScratchPad3D.obj
 0001:0002f3e0       ?Read@CCommand_Matrix@CScratchPad3D@@UAEXPAVCFileRead@@@Z 004303e0 f   ScratchPad3D.obj
 0001:0002f410       ?Read@CCommand_Point@CScratchPad3D@@UAEXPAVCFileRead@@@Z 00430410 f   ScratchPad3D.obj
 0001:0002f450       ?Read@CCommand_Polygon@CScratchPad3D@@UAEXPAVCFileRead@@@Z 00430450 f   ScratchPad3D.obj
 0001:0002f4c0       ?Read@CCommand_RenderState@CScratchPad3D@@UAEXPAVCFileRead@@@Z 004304c0 f   ScratchPad3D.obj
 0001:0002f500       ?Read@CCommand_Text@CScratchPad3D@@UAEXPAVCFileRead@@@Z 00430500 f   ScratchPad3D.obj
 0001:0002f560       ?Release@CScratchPad3D@@UAEXXZ 00430560 f   ScratchPad3D.obj
 0001:0002f580       ?RemoveAll@?$CUtlVector@PAVCBaseCommand@CScratchPad3D@@V?$CUtlMemory@PAVCBaseCommand@CScratchPad3D@@@@@@QAEXXZ 00430580 f i ScratchPad3D.obj
 0001:0002f590       ?RemoveAll@?$CUtlVector@VCSPVert@@V?$CUtlMemory@VCSPVert@@@@@@QAEXXZ 00430590 f i ScratchPad3D.obj
 0001:0002f5a0       ?ScratchPad3D_Create@@YAPAVIScratchPad3D@@PBD@Z 004305a0 f   ScratchPad3D.obj
 0001:0002f6a0       ?ScratchPad3D_SetupFileSystem@@YAPAVIFileSystem@@XZ 004306a0 f   ScratchPad3D.obj
 0001:0002f6e0       ?SetAutoFlush@CScratchPad3D@@UAEX_N@Z 004306e0 f   ScratchPad3D.obj
 0001:0002f700       ?SetMapping@CScratchPad3D@@UAEXABVVector@@000@Z 00430700 f   ScratchPad3D.obj
 0001:0002f8c0       ?SetRenderState@CScratchPad3D@@UAEXW4RenderState@IScratchPad3D@@K@Z 004308c0 f   ScratchPad3D.obj
 0001:0002f910       ?SetSize@?$CUtlVector@DV?$CUtlMemory@D@@@@QAEXH@Z 00430910 f i ScratchPad3D.obj
 0001:0002f9b0       ?ShiftElementsRight@?$CUtlVector@PAVCBaseCommand@CScratchPad3D@@V?$CUtlMemory@PAVCBaseCommand@CScratchPad3D@@@@@@IAEXHH@Z 004309b0 f i ScratchPad3D.obj
 0001:0002f9f0       ?ShiftElementsRight@?$CUtlVector@VCSPVert@@V?$CUtlMemory@VCSPVert@@@@@@IAEXHH@Z 004309f0 f i ScratchPad3D.obj
 0001:0002fa50       ?Write@CCommand_Line@CScratchPad3D@@UAEXPAVIFileSystem@@PAX@Z 00430a50 f   ScratchPad3D.obj
 0001:0002fa70       ?Write@CCommand_Matrix@CScratchPad3D@@UAEXPAVIFileSystem@@PAX@Z 00430a70 f   ScratchPad3D.obj
 0001:0002fa90       ?Write@CCommand_Point@CScratchPad3D@@UAEXPAVIFileSystem@@PAX@Z 00430a90 f   ScratchPad3D.obj
 0001:0002fad0       ?Write@CCommand_Polygon@CScratchPad3D@@UAEXPAVIFileSystem@@PAX@Z 00430ad0 f   ScratchPad3D.obj
 0001:0002fb20       ?Write@CCommand_RenderState@CScratchPad3D@@UAEXPAVIFileSystem@@PAX@Z 00430b20 f   ScratchPad3D.obj
 0001:0002fb60       ?Write@CCommand_Text@CScratchPad3D@@UAEXPAVIFileSystem@@PAX@Z 00430b60 f   ScratchPad3D.obj
 0001:0002fbb0       ??0ErrorHandlerRegistrar@@QAE@XZ 00430bb0 f   memoverride.obj
 0001:0002fbd0       ??2@YAPAXI@Z               00430bd0 f   memoverride.obj
 0001:0002fc00       ??2@YAPAXIHPBDH@Z          00430c00 f   memoverride.obj
 0001:0002fc20       ??3@YAXPAX@Z               00430c20 f   memoverride.obj
 0001:0002fc40       ??3@YAXPAXI@Z              00430c40 f   memoverride.obj
 0001:0002fc60       ??_U@YAPAXI@Z              00430c60 f   memoverride.obj
 0001:0002fc90       ??_U@YAPAXIHPBDH@Z         00430c90 f   memoverride.obj
 0001:0002fcb0       ??_V@YAXPAX@Z              00430cb0 f   memoverride.obj
 0001:0002fcd0       ?GetModuleFileNameA@@YAPBDXZ 00430cd0 f   memoverride.obj
 0001:0002fdc0       ?MakeModuleFileName@@YAPBDXZ 00430dc0 f   memoverride.obj
 0001:0002fe50       _VInvalidParameterHandler  00430e50 f   memoverride.obj
 0001:0002fe70       _VPureCall                 00430e70 f   memoverride.obj
 0001:0002fe90       _WriteMiniDumpOrBreak      00430e90 f   memoverride.obj
 0001:0002fed0       __CrtCheckMemory           00430ed0 f   memoverride.obj
 0001:0002fee0       __CrtDbgReport             00430ee0 f   memoverride.obj
 0001:0002ff40       __CrtDoForAllClientObjects 00430f40 f   memoverride.obj
 0001:0002ff50       __CrtDumpMemoryLeaks       00430f50 f   memoverride.obj
 0001:0002ff60       __CrtGetAllocHook          00430f60 f   memoverride.obj
 0001:0002ff70       __CrtGetCheckCount         00430f70 f   memoverride.obj
 0001:0002ff80       __CrtGetDumpClient         00430f80 f   memoverride.obj
 0001:0002ff90       __CrtGetReportHook         00430f90 f   memoverride.obj
 0001:0002ffa0       __CrtIsMemoryBlock         00430fa0 f   memoverride.obj
 0001:0002ffb0       __CrtIsValidHeapPointer    00430fb0 f   memoverride.obj
 0001:0002ffd0       __CrtIsValidPointer        00430fd0 f   memoverride.obj
 0001:0002fff0       __CrtMemCheckpoint         00430ff0 f   memoverride.obj
 0001:00030010       __CrtMemDifference         00431010 f   memoverride.obj
 0001:00030020       __CrtMemDumpAllObjectsSince 00431020 f   memoverride.obj
 0001:00030030       __CrtMemDumpStatistics     00431030 f   memoverride.obj
 0001:00030040       __CrtReportBlockType       00431040 f   memoverride.obj
 0001:00030050       __CrtSetAllocHook          00431050 f   memoverride.obj
 0001:00030060       __CrtSetBreakAlloc         00431060 f   memoverride.obj
 0001:00030080       __CrtSetCheckCount         00431080 f   memoverride.obj
 0001:00030090       __CrtSetDbgBlockType       00431090 f   memoverride.obj
 0001:000300a0       __CrtSetDbgFlag            004310a0 f   memoverride.obj
 0001:000300c0       __CrtSetDumpClient         004310c0 f   memoverride.obj
 0001:000300d0       __CrtSetReportFile         004310d0 f   memoverride.obj
 0001:000300f0       __CrtSetReportHook         004310f0 f   memoverride.obj
 0001:00030110       __CrtSetReportMode         00431110 f   memoverride.obj
 0001:00030130       ___local_stdio_printf_options 00431130 f i memoverride.obj
 0001:00030140       ___p__crtBreakAlloc        00431140 f   memoverride.obj
 0001:00030150       ___p__crtDbgFlag           00431150 f   memoverride.obj
 0001:00030160       __aligned_free_dbg         00431160 f   memoverride.obj
 0001:00030170       __aligned_malloc_dbg       00431170 f   memoverride.obj
 0001:00030190       __aligned_offset_malloc_dbg 00431190 f   memoverride.obj
 0001:000301b0       __aligned_offset_realloc_dbg 004311b0 f   memoverride.obj
 0001:000301d0       __aligned_offset_recalloc_dbg 004311d0 f   memoverride.obj
 0001:00030220       __aligned_realloc_dbg      00431220 f   memoverride.obj
 0001:00030240       __aligned_recalloc_dbg     00431240 f   memoverride.obj
 0001:00030290       __calloc_base              00431290 f   memoverride.obj
 0001:000302f0       __calloc_crt               004312f0 f   memoverride.obj
 0001:00030350       __calloc_dbg               00431350 f   memoverride.obj
 0001:000303b0       __calloc_dbg_impl          004313b0 f   memoverride.obj
 0001:00030410       __expand                   00431410 f   memoverride.obj
 0001:00030420       __expand_base              00431420 f   memoverride.obj
 0001:00030430       __expand_dbg               00431430 f   memoverride.obj
 0001:00030440       __free_base                00431440 f   memoverride.obj
 0001:00030460       __free_dbg                 00431460 f   memoverride.obj
 0001:000304a0       __free_dbg_nolock          004314a0 f   memoverride.obj
 0001:000304c0       __free_nolock              004314c0 f   memoverride.obj
 0001:000304e0       __get_sbh_threshold        004314e0 f   memoverride.obj
 0001:000304f0       __heap_alloc               004314f0 f   memoverride.obj
 0001:00030520       __heap_alloc_base          00431520 f   memoverride.obj
 0001:00030530       __heap_alloc_dbg           00431530 f   memoverride.obj
 0001:00030560       __heap_init                00431560 f   memoverride.obj
 0001:00030570       __heap_term                00431570 f   memoverride.obj
 0001:00030580       __heapadd                  00431580 f   memoverride.obj
 0001:00030590       __heapchk                  00431590 f   memoverride.obj
 0001:000305a0       __heapmin                  004315a0 f   memoverride.obj
 0001:000305b0       __heapset                  004315b0 f   memoverride.obj
 0001:000305c0       __heapused                 004315c0 f   memoverride.obj
 0001:000305d0       __heapwalk                 004315d0 f   memoverride.obj
 0001:000305e0       __malloc_base              004315e0 f   memoverride.obj
 0001:00030610       __malloc_crt               00431610 f   memoverride.obj
 0001:00030640       __malloc_dbg               00431640 f   memoverride.obj
 0001:000306a0       __msize                    004316a0 f   memoverride.obj
 0001:000306c0       __msize_base               004316c0 f   memoverride.obj
 0001:000306e0       __msize_dbg                004316e0 f   memoverride.obj
 0001:00030700       __nh_malloc                00431700 f   memoverride.obj
 0001:00030730       __nh_malloc_dbg            00431730 f   memoverride.obj
 0001:00030790       __realloc_base             00431790 f   memoverride.obj
 0001:000307c0       __realloc_crt              004317c0 f   memoverride.obj
 0001:000307f0       __realloc_dbg              004317f0 f   memoverride.obj
 0001:00030840       __recalloc                 00431840 f   memoverride.obj
 0001:00030890       __recalloc_base            00431890 f   memoverride.obj
 0001:000308e0       __recalloc_crt             004318e0 f   memoverride.obj
 0001:00030930       __recalloc_dbg             00431930 f   memoverride.obj
 0001:00030980       __set_sbh_threshold        00431980 f   memoverride.obj
 0001:00030990       _calloc                    00431990 f   memoverride.obj
 0001:000309f0       _free                      004319f0 f   memoverride.obj
 0001:00030a10       _free_db                   00431a10 f   memoverride.obj
 0001:00030a30       _malloc                    00431a30 f   memoverride.obj
 0001:00030a60       _malloc_db                 00431a60 f   memoverride.obj
 0001:00030a80       _msize                     00431a80 f   memoverride.obj
 0001:00030aa0       _realloc                   00431aa0 f   memoverride.obj
 0001:00030ad0       _realloc_db                00431ad0 f   memoverride.obj
 0001:00030af0       ??4VMatrix@@QAEAAV0@ABV0@@Z 00431af0 f   vmatrix.obj
 0001:00030b60       ??8VMatrix@@QBE_NABV0@@Z   00431b60 f   vmatrix.obj
 0001:00030b90       ??DVMatrix@@QBE?AV0@ABV0@@Z 00431b90 f   vmatrix.obj
 0001:00030bb0       ??DVMatrix@@QBE?AVVPlane@@ABV1@@Z 00431bb0 f   vmatrix.obj
 0001:00030cb0       ?CalculateAABBFromProjectionMatrix@@YAXABVVMatrix@@PAVVector@@1@Z 00431cb0 f   vmatrix.obj
 0001:00030e70       ?CalculateAABBFromProjectionMatrixInverse@@YAXABVVMatrix@@PAVVector@@1@Z 00431e70 f   vmatrix.obj
 0001:00031010       ?CalculateSphereFromProjectionMatrix@@YAXABVVMatrix@@PAVVector@@PAM@Z 00432010 f   vmatrix.obj
 0001:00031240       ?CalculateSphereFromProjectionMatrixInverse@@YAXABVVMatrix@@PAVVector@@PAM@Z 00432240 f   vmatrix.obj
 0001:00031460       ?FrustumPlanesFromMatrix@@YAXABVVMatrix@@AAVFrustum_t@@@Z 00432460 f   vmatrix.obj
 0001:00031d50       ?GetScale@VMatrix@@QBE?AVVector@@XZ 00432d50 f   vmatrix.obj
 0001:00031e50       ?InverseGeneral@VMatrix@@QBE_NAAV1@@Z 00432e50 f   vmatrix.obj
 0001:00031e70       ?InverseTR@VMatrix@@QBE?AV1@XZ 00432e70 f   vmatrix.obj
 0001:00031fa0       ?InverseTR@VMatrix@@QBEXAAV1@@Z 00432fa0 f   vmatrix.obj
 0001:000320f0       ?IsRotationMatrix@VMatrix@@QBE_NXZ 004330f0 f   vmatrix.obj
 0001:000322c0       ?MatrixBuildPerspective@@YAXAAVVMatrix@@MMMM@Z 004332c0 f   vmatrix.obj
 0001:00032440       ?MatrixBuildRotateZ@@YAXAAVVMatrix@@M@Z 00433440 f   vmatrix.obj
 0001:00032500       ?MatrixBuildRotation@@YAXAAVVMatrix@@ABVVector@@1@Z 00433500 f   vmatrix.obj
 0001:00032820       ?MatrixBuildRotationAboutAxis@@YAXAAVVMatrix@@ABVVector@@M@Z 00433820 f   vmatrix.obj
 0001:000329c0       ?MatrixBuildScale@@YAXAAVVMatrix@@ABVVector@@@Z 004339c0 f   vmatrix.obj
 0001:00032a40       ?MatrixBuildScale@@YAXAAVVMatrix@@MMM@Z 00433a40 f   vmatrix.obj
 0001:00032ac0       ?MatrixBuildTranslation@@YAXAAVVMatrix@@ABVVector@@@Z 00433ac0 f   vmatrix.obj
 0001:00032af0       ?MatrixBuildTranslation@@YAXAAVVMatrix@@MMM@Z 00433af0 f   vmatrix.obj
 0001:00032b30       ?MatrixCopy@@YAXABVVMatrix@@AAV1@@Z 00433b30 f   vmatrix.obj
 0001:00032b60       ?MatrixFromAngles@@YAXABVQAngle@@AAVVMatrix@@@Z 00433b60 f   vmatrix.obj
 0001:00032b80       ?MatrixInverseGeneral@@YA_NABVVMatrix@@AAV1@@Z 00433b80 f   vmatrix.obj
 0001:00032db0       ?MatrixInverseTR@@YAXABVVMatrix@@AAV1@@Z 00433db0 f   vmatrix.obj
 0001:00032f00       ?MatrixInverseTranspose@@YAXABVVMatrix@@AAV1@@Z 00433f00 f   vmatrix.obj
 0001:00032f80       ?MatrixMul@VMatrix@@QBEXABV1@AAV1@@Z 00433f80 f   vmatrix.obj
 0001:00033410       ?MatrixMultiply@@YAXABVVMatrix@@0AAV1@@Z 00434410 f   vmatrix.obj
 0001:00033820       ?MatrixSetIdentity@@YAXAAVVMatrix@@@Z 00434820 f   vmatrix.obj
 0001:000338a0       ?MatrixToAngles@@YAXABVVMatrix@@AAVQAngle@@@Z 004348a0 f   vmatrix.obj
 0001:00033a80       ?MatrixTransformPlane@@YAXABVVMatrix@@ABUcplane_t@@AAU2@@Z 00434a80 f   vmatrix.obj
 0001:00033b80       ?MatrixTranspose@@YAXABVVMatrix@@AAV1@@Z 00434b80 f   vmatrix.obj
 0001:00033c50       ?NormalizeBasisVectors@VMatrix@@QBE?AV1@XZ 00434c50 f   vmatrix.obj
 0001:00033d50       ?PlaneIntersection@@YA_NABVVPlane@@00AAVVector@@@Z 00434d50 f   vmatrix.obj
 0001:00033e40       ?Scale@VMatrix@@QAE?AV1@ABVVector@@@Z 00434e40 f   vmatrix.obj
 0001:00033f10       ?SetupMatrixAngles@@YA?AVVMatrix@@ABVQAngle@@@Z 00434f10 f   vmatrix.obj
 0001:00033f30       ?SetupMatrixAxisRot@@YA?AVVMatrix@@ABVVector@@M@Z 00434f30 f   vmatrix.obj
 0001:00034090       ?SetupMatrixIdentity@@YA?AVVMatrix@@XZ 00435090 f   vmatrix.obj
 0001:00034110       ?SetupMatrixOrgAngles@@YA?AVVMatrix@@ABVVector@@ABVQAngle@@@Z 00435110 f   vmatrix.obj
 0001:00034130       ?SetupMatrixOrgAngles@VMatrix@@QAEXABVVector@@ABVQAngle@@@Z 00435130 f   vmatrix.obj
 0001:000342d0       ?SetupMatrixProjection@@YA?AVVMatrix@@ABVVector@@ABVVPlane@@@Z 004352d0 f   vmatrix.obj
 0001:00034400       ?SetupMatrixReflection@@YA?AVVMatrix@@ABVVPlane@@@Z 00435400 f   vmatrix.obj
 0001:000345a0       ?SetupMatrixScale@@YA?AVVMatrix@@ABVVector@@@Z 004355a0 f   vmatrix.obj
 0001:00034620       ?SetupMatrixTranslation@@YA?AVVMatrix@@ABVVector@@@Z 00435620 f   vmatrix.obj
 0001:000346a0       ?Transpose3x3@VMatrix@@QBE?AV1@XZ 004356a0 f   vmatrix.obj
 0001:00034710       ?Transpose@VMatrix@@QBE?AV1@XZ 00435710 f   vmatrix.obj
 0001:00034780       ?Vector3DMultiply@@YAXABVVMatrix@@ABVVector@@AAV2@@Z 00435780 f   vmatrix.obj
 0001:00034840       ?Vector3DMultiplyPositionProjective@@YAXABVVMatrix@@ABVVector@@AAV2@@Z 00435840 f   vmatrix.obj
 0001:00034970       ?Vector3DMultiplyProjective@@YAXABVVMatrix@@ABVVector@@AAV2@@Z 00435970 f   vmatrix.obj
 0001:00034ab0       ?Vector3DMultiplyTranspose@@YAXABVVMatrix@@ABVVector@@AAV2@@Z 00435ab0 f   vmatrix.obj
 0001:00034b70       ?Vector4DMultiply@@YAXABVVMatrix@@ABVVector4D@@AAV2@@Z 00435b70 f   vmatrix.obj
 0001:00034c80       ?Vector4DMultiplyPosition@@YAXABVVMatrix@@ABVVector@@AAVVector4D@@@Z 00435c80 f   vmatrix.obj
 0001:00034d70       ?Vector4DMultiplyTranspose@@YAXABVVMatrix@@ABVVector4D@@AAV2@@Z 00435d70 f   vmatrix.obj
 0001:00034e80       ??$PutTypeBin@D@CUtlBuffer@@IAEXD@Z 00435e80 f i zip_utils.obj
 0001:00034eb0       ??0?$CUtlMemory@UNode_t@?$CUtlRBTree@VCZipEntry@CZipFile@@HP6A_NABV12@0@Z@@@@QAE@HH@Z 00435eb0 f i zip_utils.obj
 0001:00034ef0       ??0CZip@@QAE@XZ            00435ef0 f   zip_utils.obj
 0001:00034f70       ??0CZipEntry@CZipFile@@QAE@ABV01@@Z 00435f70 f   zip_utils.obj
 0001:00034fd0       ??0CZipEntry@CZipFile@@QAE@XZ 00435fd0 f   zip_utils.obj
 0001:00035010       ??0CZipFile@@QAE@XZ        00436010 f   zip_utils.obj
 0001:00035070       ??0TmpFileInfo_t@CZipFile@@QAE@XZ 00436070 f i zip_utils.obj
 0001:00035080       ??1?$CUtlMemory@E@@QAE@XZ  00436080 f i zip_utils.obj
 0001:000350b0       ??1?$CUtlMemory@UNode_t@?$CUtlRBTree@VCZipEntry@CZipFile@@HP6A_NABV12@0@Z@@@@QAE@XZ 004360b0 f i zip_utils.obj
 0001:000350e0       ??1?$CUtlRBTree@VCZipEntry@CZipFile@@HP6A_NABV12@0@Z@@QAE@XZ 004360e0 f i zip_utils.obj
 0001:00035190       ??1CZip@@UAE@XZ            00436190 f   zip_utils.obj
 0001:000351c0       ??1CZipEntry@CZipFile@@QAE@XZ 004361c0 f   zip_utils.obj
 0001:000351d0       ??1CZipFile@@QAE@XZ        004361d0 f   zip_utils.obj
 0001:000351f0       ??_ECZip@@UAEPAXI@Z        004361f0 f i zip_utils.obj
 0001:000351f0       ??_GCZip@@UAEPAXI@Z        004361f0 f i zip_utils.obj
 0001:00035230       ?AddBufferToZip@CZip@@UAEXPBDPAXH_N@Z 00436230 f   zip_utils.obj
 0001:00035240       ?AddBufferToZip@CZipFile@@QAEXPBDPAXH_N@Z 00436240 f   zip_utils.obj
 0001:00035400       ?AddFileToZip@CZip@@UAEXPBD0@Z 00436400 f   zip_utils.obj
 0001:00035480       ?AddFileToZip@CZipFile@@QAEXPBD0@Z 00436480 f   zip_utils.obj
 0001:00035500       ?CalculatePadding@CZipFile@@AAEGIH@Z 00436500 f   zip_utils.obj
 0001:00035530       ?CalculateSize@CZipFile@@QAEHXZ 00436530 f   zip_utils.obj
 0001:00035670       ?EstimateSize@CZip@@UAEHXZ 00436670 f   zip_utils.obj
 0001:00035780       ?FileExistsInZip@CZip@@UAE_NPBD@Z 00436780 f   zip_utils.obj
 0001:00035810       ?FileExistsInZip@CZipFile@@QAE_NPBD@Z 00436810 f   zip_utils.obj
 0001:000358a0       ?Find@?$CUtlRBTree@VCZipEntry@CZipFile@@HP6A_NABV12@0@Z@@QBEHABVCZipEntry@CZipFile@@@Z 004368a0 f i zip_utils.obj
 0001:00035910       ?FindInsertionPosition@?$CUtlRBTree@VCZipEntry@CZipFile@@HP6A_NABV12@0@Z@@IAEXABVCZipEntry@CZipFile@@AAHAA_N@Z 00436910 f i zip_utils.obj
 0001:00035980       ?FirstInorder@?$CUtlRBTree@VCZipEntry@CZipFile@@HP6A_NABV12@0@Z@@QBEHXZ 00436980 f i zip_utils.obj
 0001:000359b0       ?ForceAlignment@CZip@@UAEX_NI@Z 004369b0 f   zip_utils.obj
 0001:000359d0       ?ForceAlignment@CZipFile@@QAEX_NI@Z 004369d0 f   zip_utils.obj
 0001:000359f0       ?FreeNode@?$CUtlRBTree@VCZipEntry@CZipFile@@HP6A_NABV12@0@Z@@QAEXH@Z 004369f0 f i zip_utils.obj
 0001:00035a30       ?GetAlignment@CZip@@UAEIXZ 00436a30 f   zip_utils.obj
 0001:00035a40       ?GetAlignment@CZipFile@@QAEIXZ 00436a40 f   zip_utils.obj
 0001:00035a50       ?GetNextFilename@CZip@@UAEHHPADHAAH@Z 00436a50 f   zip_utils.obj
 0001:00035ae0       ?GetNextFilename@CZipFile@@QAEHHPADHAAH@Z 00436ae0 f   zip_utils.obj
 0001:00035b70       ?Grow@?$CUtlMemory@UNode_t@?$CUtlRBTree@VCZipEntry@CZipFile@@HP6A_NABV12@0@Z@@@@QAEXH@Z 00436b70 f i zip_utils.obj
 0001:00035be0       ?Insert@?$CUtlRBTree@VCZipEntry@CZipFile@@HP6A_NABV12@0@Z@@QAEHABVCZipEntry@CZipFile@@@Z 00436be0 f i zip_utils.obj
 0001:00035cb0       ?InsertAt@?$CUtlRBTree@VCZipEntry@CZipFile@@HP6A_NABV12@0@Z@@IAEHH_N@Z 00436cb0 f i zip_utils.obj
 0001:00035de0       ?InsertRebalance@?$CUtlRBTree@VCZipEntry@CZipFile@@HP6A_NABV12@0@Z@@IAEXH@Z 00436de0 f i zip_utils.obj
 0001:00035fe0       ?IsExternallyAllocated@?$CUtlMemory@E@@QBE_NXZ 00436fe0 f i zip_utils.obj
 0001:00035ff0       ?IsExternallyAllocated@?$CUtlMemory@UNode_t@?$CUtlRBTree@VCZipEntry@CZipFile@@HP6A_NABV12@0@Z@@@@QBE_NXZ 00436ff0 f i zip_utils.obj
 0001:00036000       ?LinkToParent@?$CUtlRBTree@VCZipEntry@CZipFile@@HP6A_NABV12@0@Z@@IAEXHH_N@Z 00437000 f i zip_utils.obj
 0001:00036070       ?Links@?$CUtlRBTree@VCZipEntry@CZipFile@@HP6A_NABV12@0@Z@@IBEABULinks_t@1@H@Z 00437070 f i zip_utils.obj
 0001:000360f0       ?NewNode@?$CUtlRBTree@VCZipEntry@CZipFile@@HP6A_NABV12@0@Z@@QAEHXZ 004370f0 f i zip_utils.obj
 0001:000361d0       ?NextInorder@?$CUtlRBTree@VCZipEntry@CZipFile@@HP6A_NABV12@0@Z@@QBEHH@Z 004371d0 f i zip_utils.obj
 0001:00036280       ?ParseFromBuffer@CZip@@UAEXPAEH@Z 00437280 f   zip_utils.obj
 0001:000362a0       ?ParseFromBuffer@CZipFile@@QAEXPAEH@Z 004372a0 f   zip_utils.obj
 0001:00036550       ?PrintDirectory@CZip@@UAEXXZ 00437550 f   zip_utils.obj
 0001:000365c0       ?PrintDirectory@CZipFile@@QAEXXZ 004375c0 f   zip_utils.obj
 0001:00036640       ?Purge@?$CUtlMemory@E@@QAEXXZ 00437640 f i zip_utils.obj
 0001:00036670       ?Purge@?$CUtlMemory@UNode_t@?$CUtlRBTree@VCZipEntry@CZipFile@@HP6A_NABV12@0@Z@@@@QAEXXZ 00437670 f i zip_utils.obj
 0001:000366a0       ?Purge@?$CUtlRBTree@VCZipEntry@CZipFile@@HP6A_NABV12@0@Z@@QAEXXZ 004376a0 f i zip_utils.obj
 0001:00036730       ?Put@CBufferStream@@UAEXPBXH@Z 00437730 f i zip_utils.obj
 0001:00036740       ?Put@CFileStream@@UAEXPBXH@Z 00437740 f i zip_utils.obj
 0001:00036760       ?ReadFileFromZip@CZip@@UAE_NPBD_NAAVCUtlBuffer@@@Z 00437760 f   zip_utils.obj
 0001:00036850       ?ReadFileFromZip@CZipFile@@QAE_NPBD_NAAVCUtlBuffer@@@Z 00437850 f   zip_utils.obj
 0001:00036b70       ?Remove@?$CUtlRBTree@VCZipEntry@CZipFile@@HP6A_NABV12@0@Z@@QAE_NABVCZipEntry@CZipFile@@@Z 00437b70 f i zip_utils.obj
 0001:00036bd0       ?RemoveAll@?$CUtlRBTree@VCZipEntry@CZipFile@@HP6A_NABV12@0@Z@@QAEXXZ 00437bd0 f i zip_utils.obj
 0001:00036c50       ?RemoveAt@?$CUtlRBTree@VCZipEntry@CZipFile@@HP6A_NABV12@0@Z@@QAEXH@Z 00437c50 f i zip_utils.obj
 0001:00036ca0       ?RemoveFileFromZip@CZip@@UAEXPBD@Z 00437ca0 f   zip_utils.obj
 0001:00036d70       ?RemoveFileFromZip@CZipFile@@QAEXPBD@Z 00437d70 f   zip_utils.obj
 0001:00036e40       ?RemoveRebalance@?$CUtlRBTree@VCZipEntry@CZipFile@@HP6A_NABV12@0@Z@@IAEXH@Z 00437e40 f i zip_utils.obj
 0001:00037140       ?Reset@CZip@@UAEXXZ        00438140 f   zip_utils.obj
 0001:00037150       ?Reset@CZipFile@@QAEXXZ    00438150 f   zip_utils.obj
 0001:000371d0       ?RotateLeft@?$CUtlRBTree@VCZipEntry@CZipFile@@HP6A_NABV12@0@Z@@IAEXH@Z 004381d0 f i zip_utils.obj
 0001:000372c0       ?RotateRight@?$CUtlRBTree@VCZipEntry@CZipFile@@HP6A_NABV12@0@Z@@IAEXH@Z 004382c0 f i zip_utils.obj
 0001:000373b0       ?SaveDirectory@CZipFile@@AAEXAAVIWriteStream@@@Z 004383b0 f   zip_utils.obj
 0001:00037720       ?SaveToBuffer@CZip@@UAEXAAVCUtlBuffer@@@Z 00438720 f   zip_utils.obj
 0001:00037750       ?SaveToBuffer@CZipFile@@QAEXAAVCUtlBuffer@@@Z 00438750 f   zip_utils.obj
 0001:00037780       ?SaveToDisk@CZip@@UAEXPAU_iobuf@@@Z 00438780 f   zip_utils.obj
 0001:000377b0       ?SaveToDisk@CZipFile@@QAEXPAU_iobuf@@@Z 004387b0 f   zip_utils.obj
 0001:000377e0       ?SetAlignment@@YAXAAPAXAAI@Z 004387e0 f   zip_utils.obj
 0001:00037820       ?Tell@CBufferStream@@UAEHXZ 00438820 f i zip_utils.obj
 0001:00037830       ?Tell@CFileStream@@UAEHXZ  00438830 f i zip_utils.obj
 0001:00037840       ?Unlink@?$CUtlRBTree@VCZipEntry@CZipFile@@HP6A_NABV12@0@Z@@IAEXH@Z 00438840 f i zip_utils.obj
 0001:00037a60       ?ZipFileLessFunc@CZipEntry@CZipFile@@SA_NABV12@0@Z 00438a60 f   zip_utils.obj
 0001:00037af0       ??$CopyLump@D@@YAXHAAV?$CUtlVector@DV?$CUtlMemory@D@@@@H@Z 00438af0 f i bsplib.obj
 0001:00037b60       ??$CopyLump@E@@YAXHAAV?$CUtlVector@EV?$CUtlMemory@E@@@@H@Z 00438b60 f i bsplib.obj
 0001:00037bd0       ??$CopyLump@H@@YAXHAAV?$CUtlVector@HV?$CUtlMemory@H@@@@H@Z 00438bd0 f i bsplib.obj
 0001:00037c90       ??$CopyLump@Utexinfo_s@@@@YAXHAAV?$CUtlVector@Utexinfo_s@@V?$CUtlMemory@Utexinfo_s@@@@@@H@Z 00438c90 f i bsplib.obj
 0001:00037d50       ??$CopyLump@VCDispTri@@@@YAXHAAV?$CUtlVector@VCDispTri@@V?$CUtlMemory@VCDispTri@@@@@@H@Z 00438d50 f i bsplib.obj
 0001:00037e60       ??$CopyLump@VCDispVert@@@@YAXHAAV?$CUtlVector@VCDispVert@@V?$CUtlMemory@VCDispVert@@@@@@H@Z 00438e60 f i bsplib.obj
 0001:00037f20       ??$CopyLump@VCFaceMacroTextureInfo@@@@YAXHAAV?$CUtlVector@VCFaceMacroTextureInfo@@V?$CUtlMemory@VCFaceMacroTextureInfo@@@@@@H@Z 00438f20 f i bsplib.obj
 0001:00038030       ??$CopyLump@Vddispinfo_t@@@@YAXHAAV?$CUtlVector@Vddispinfo_t@@V?$CUtlMemory@Vddispinfo_t@@@@@@H@Z 00439030 f i bsplib.obj
 0001:000380f0       ??$CopyOptionalLump@E@@YAXHAAV?$CUtlVector@EV?$CUtlMemory@E@@@@H@Z 004390f0 f i bsplib.obj
 0001:00038160       ??$CopyOptionalLump@UCompressedLightCube@@@@YAXHAAV?$CUtlVector@UCompressedLightCube@@V?$CUtlMemory@UCompressedLightCube@@@@@@H@Z 00439160 f i bsplib.obj
 0001:00038220       ??$CopyOptionalLump@Udlightmappage_t@@@@YAXHAAV?$CUtlVector@Udlightmappage_t@@V?$CUtlMemory@Udlightmappage_t@@@@@@H@Z 00439220 f i bsplib.obj
 0001:00038360       ??$CopyOptionalLump@Udlightmappageinfo_t@@@@YAXHAAV?$CUtlVector@Udlightmappageinfo_t@@V?$CUtlMemory@Udlightmappageinfo_t@@@@@@H@Z 00439360 f i bsplib.obj
 0001:00038490       ??$GetType@H@CUtlBuffer@@IAEXAAHPBD@Z 00439490 f i bsplib.obj
 0001:000384f0       ??0?$CUtlLinkedList@UGameLump_t@@G@@QAE@HH@Z 004394f0 f i bsplib.obj
 0001:00038550       ??0?$CUtlMemory@E@@QAE@HH@Z 00439550 f i bsplib.obj
 0001:00038590       ??0?$CUtlMemory@H@@QAE@HH@Z 00439590 f i bsplib.obj
 0001:000385d0       ??0?$CUtlMemory@UCompressedLightCube@@@@QAE@HH@Z 004395d0 f i bsplib.obj
 0001:00038610       ??0?$CUtlMemory@UListElem_t@?$CUtlLinkedList@UGameLump_t@@G@@@@QAE@HH@Z 00439610 f i bsplib.obj
 0001:00038650       ??0?$CUtlMemory@Uclusterlist_t@@@@QAE@HH@Z 00439650 f i bsplib.obj
 0001:00038690       ??0?$CUtlMemory@Udlightmappage_t@@@@QAE@HH@Z 00439690 f i bsplib.obj
 0001:000386d0       ??0?$CUtlMemory@Udlightmappageinfo_t@@@@QAE@HH@Z 004396d0 f i bsplib.obj
 0001:00038710       ??0?$CUtlMemory@Udoccluderdata_t@@@@QAE@HH@Z 00439710 f i bsplib.obj
 0001:00038750       ??0?$CUtlMemory@Udoccluderpolydata_t@@@@QAE@HH@Z 00439750 f i bsplib.obj
 0001:00038790       ??0?$CUtlMemory@Utexinfo_s@@@@QAE@HH@Z 00439790 f i bsplib.obj
 0001:000387d0       ??0?$CUtlMemory@VCDispTri@@@@QAE@HH@Z 004397d0 f i bsplib.obj
 0001:00038810       ??0?$CUtlMemory@VCDispVert@@@@QAE@HH@Z 00439810 f i bsplib.obj
 0001:00038850       ??0?$CUtlMemory@VCFaceMacroTextureInfo@@@@QAE@HH@Z 00439850 f i bsplib.obj
 0001:00038890       ??0?$CUtlMemory@Vddispinfo_t@@@@QAE@HH@Z 00439890 f i bsplib.obj
 0001:000388d0       ??0dmodel_t@@QAE@XZ        004398d0 f i bsplib.obj
 0001:000388e0       ??0doverlay_t@@QAE@XZ      004398e0 f i bsplib.obj
 0001:000388f0       ??0dplane_t@@QAE@XZ        004398f0 f i bsplib.obj
 0001:00038900       ??0dprimvert_t@@QAE@XZ     00439900 f i bsplib.obj
 0001:00038910       ??0dtexdata_t@@QAE@XZ      00439910 f i bsplib.obj
 0001:00038920       ??0dvertex_t@@QAE@XZ       00439920 f i bsplib.obj
 0001:00038930       ??0dwateroverlay_t@@QAE@XZ 00439930 f i bsplib.obj
 0001:00038940       ??0dworldlight_t@@QAE@XZ   00439940 f i bsplib.obj
 0001:00038950       ??0entity_t@@QAE@XZ        00439950 f i bsplib.obj
 0001:00038960       ??1?$CUtlLinkedList@UGameLump_t@@G@@QAE@XZ 00439960 f i bsplib.obj
 0001:00038990       ??1?$CUtlMemory@H@@QAE@XZ  00439990 f i bsplib.obj
 0001:000389c0       ??1?$CUtlMemory@UCompressedLightCube@@@@QAE@XZ 004399c0 f i bsplib.obj
 0001:000389f0       ??1?$CUtlMemory@UListElem_t@?$CUtlLinkedList@UGameLump_t@@G@@@@QAE@XZ 004399f0 f i bsplib.obj
 0001:00038a20       ??1?$CUtlMemory@Uclusterlist_t@@@@QAE@XZ 00439a20 f i bsplib.obj
 0001:00038a50       ??1?$CUtlMemory@Udlightmappage_t@@@@QAE@XZ 00439a50 f i bsplib.obj
 0001:00038a80       ??1?$CUtlMemory@Udlightmappageinfo_t@@@@QAE@XZ 00439a80 f i bsplib.obj
 0001:00038ab0       ??1?$CUtlMemory@Udoccluderdata_t@@@@QAE@XZ 00439ab0 f i bsplib.obj
 0001:00038ae0       ??1?$CUtlMemory@Udoccluderpolydata_t@@@@QAE@XZ 00439ae0 f i bsplib.obj
 0001:00038b10       ??1?$CUtlMemory@Utexinfo_s@@@@QAE@XZ 00439b10 f i bsplib.obj
 0001:00038b40       ??1?$CUtlMemory@VCDispTri@@@@QAE@XZ 00439b40 f i bsplib.obj
 0001:00038b70       ??1?$CUtlMemory@VCDispVert@@@@QAE@XZ 00439b70 f i bsplib.obj
 0001:00038ba0       ??1?$CUtlMemory@VCFaceMacroTextureInfo@@@@QAE@XZ 00439ba0 f i bsplib.obj
 0001:00038bd0       ??1?$CUtlMemory@Vddispinfo_t@@@@QAE@XZ 00439bd0 f i bsplib.obj
 0001:00038c00       ??1?$CUtlVector@EV?$CUtlMemory@E@@@@QAE@XZ 00439c00 f i bsplib.obj
 0001:00038c60       ??1?$CUtlVector@HV?$CUtlMemory@H@@@@QAE@XZ 00439c60 f i bsplib.obj
 0001:00038cc0       ??1?$CUtlVector@UCompressedLightCube@@V?$CUtlMemory@UCompressedLightCube@@@@@@QAE@XZ 00439cc0 f i bsplib.obj
 0001:00038d20       ?AddBufferToPack@@YAXPBDPAXH_N@Z 00439d20 f   bsplib.obj
 0001:00038d40       ?AddFileToPack@@YAXPBD0@Z  00439d40 f   bsplib.obj
 0001:00038f60       ?AddMultipleToTail@?$CUtlVector@DV?$CUtlMemory@D@@@@QAEHHPBD@Z 00439f60 f i bsplib.obj
 0001:00039030       ?AllocInternal@?$CUtlLinkedList@UGameLump_t@@G@@IAEG_N@Z 0043a030 f i bsplib.obj
 0001:00039120       ?ArrayUsage@@YAHPADHHH@Z   0043a120 f   bsplib.obj
 0001:00039200       ?BuildClusterTable@@YAXXZ  0043a200 f   bsplib.obj
 0001:00039330       ?BuildFaceCalcWindingData@@YAXPAUdface_t@@PAH@Z 0043a330 f   bsplib.obj
 0001:00039390       ?CalcFaceExtents@@YAXPAUdface_t@@QAH1@Z 0043a390 f   bsplib.obj
 0001:00039720       ?CalcTextureCoordsAtPoints@@YAXQAY03$$CBMQBHPBVVector@@HPAVVector2D@@@Z 0043a720 f   bsplib.obj
 0001:00039820       ?ClearPackFile@@YAXXZ      0043a820 f   bsplib.obj
 0001:00039830       ?CloseBSPFile@@YAXXZ       0043a830 f   bsplib.obj
 0001:00039840       ?CompressVis@@YAHPAE0@Z    0043a840 f   bsplib.obj
 0001:000398a0       ?ConstructList@?$CUtlLinkedList@UGameLump_t@@G@@IAEXXZ 0043a8a0 f i bsplib.obj
 0001:000398c0       ?CopyArray@?$CUtlVector@HV?$CUtlMemory@H@@@@QAEXPBHH@Z 0043a8c0 f i bsplib.obj
 0001:00039920       ?CopyLump@@YAHHPAXHH@Z     0043a920 f   bsplib.obj
 0001:000399b0       ?CopyVariableLump@@YAHHPAPAXHH@Z 0043a9b0 f   bsplib.obj
 0001:00039a40       ?CreateGameLump@@YAGHHHH@Z 0043aa40 f   bsplib.obj
 0001:00039b50       ?DecompressVis@@YAXPAE0@Z  0043ab50 f   bsplib.obj
 0001:00039bf0       ?DestroyAllGameLumps@@YAXXZ 0043abf0 f   bsplib.obj
 0001:00039c00       ?DestroyGameLump@@YAXG@Z   0043ac00 f   bsplib.obj
 0001:00039c60       ?EnumerateLeavesAlongRay@CToolBSPTree@@UAE_NABURay_t@@PAVISpatialLeafEnumerator@@H@Z 0043ac60 f   bsplib.obj
 0001:00039f20       ?EnumerateLeavesAtPoint@CToolBSPTree@@UAE_NABVVector@@PAVISpatialLeafEnumerator@@H@Z 0043af20 f   bsplib.obj
 0001:00039fb0       ?EnumerateLeavesInBox@CToolBSPTree@@UAE_NABVVector@@0PAVISpatialLeafEnumerator@@H@Z 0043afb0 f   bsplib.obj
 0001:0003a120       ?EnumerateLeavesInSphere@CToolBSPTree@@UAE_NABVVector@@MPAVISpatialLeafEnumerator@@H@Z 0043b120 f   bsplib.obj
 0001:0003a240       ?EnumerateNodesAlongRay@@YA_NABURay_t@@PAVIBSPNodeEnumerator@@H@Z 0043b240 f   bsplib.obj
 0001:0003a470       ?ExtractZipFileFromBSP@@YAXPAD0@Z 0043b470 f   bsplib.obj
 0001:0003a670       ?FileExistsInPack@@YA_NPBD@Z 0043b670 f   bsplib.obj
 0001:0003a690       ?FirstGameLump@@YAGXZ      0043b690 f   bsplib.obj
 0001:0003a6b0       ?FloatForKey@@YAMPAUentity_t@@PAD@Z 0043b6b0 f   bsplib.obj
 0001:0003a6e0       ?ForceAlignment@@YAX_NI@Z  0043b6e0 f   bsplib.obj
 0001:0003a700       ?Free@?$CUtlLinkedList@UGameLump_t@@G@@QAEXG@Z 0043b700 f i bsplib.obj
 0001:0003a760       ?GameLumpSize@@YAHG@Z      0043b760 f   bsplib.obj
 0001:0003a780       ?GenerateNextLumpFileName@@YA_NPBDPADH@Z 0043b780 f   bsplib.obj
 0001:0003a7d0       ?GetAnglesForKey@@YAXPAUentity_t@@PADAAVQAngle@@@Z 0043b7d0 f   bsplib.obj
 0001:0003a840       ?GetGameLump@@YAPAXG@Z     0043b840 f   bsplib.obj
 0001:0003a860       ?GetGameLumpFlags@@YAHG@Z  0043b860 f   bsplib.obj
 0001:0003a880       ?GetGameLumpHandle@@YAGH@Z 0043b880 f   bsplib.obj
 0001:0003a8d0       ?GetGameLumpId@@YAHG@Z     0043b8d0 f   bsplib.obj
 0001:0003a8f0       ?GetGameLumpVersion@@YAHG@Z 0043b8f0 f   bsplib.obj
 0001:0003a910       ?GetNextFilename@@YAHHPADHAAH@Z 0043b910 f   bsplib.obj
 0001:0003a930       ?GetPakFile@@YAPAVIZip@@XZ 0043b930 f   bsplib.obj
 0001:0003a940       ?GetPlatformMapPath@@YAXPBDPADHH@Z 0043b940 f   bsplib.obj
 0001:0003a970       ?GetVector2DForKey@@YAXPAUentity_t@@PADAAVVector2D@@@Z 0043b970 f   bsplib.obj
 0001:0003a9d0       ?GetVectorForKey@@YAXPAUentity_t@@PADAAVVector@@@Z 0043b9d0 f   bsplib.obj
 0001:0003aa40       ?GlobUsage@@YAHPADHH@Z     0043ba40 f   bsplib.obj
 0001:0003ab10       ?Grow@?$CUtlMemory@E@@QAEXH@Z 0043bb10 f i bsplib.obj
 0001:0003ab80       ?Grow@?$CUtlMemory@H@@QAEXH@Z 0043bb80 f i bsplib.obj
 0001:0003abf0       ?Grow@?$CUtlMemory@UCompressedLightCube@@@@QAEXH@Z 0043bbf0 f i bsplib.obj
 0001:0003ac60       ?Grow@?$CUtlMemory@UListElem_t@?$CUtlLinkedList@UGameLump_t@@G@@@@QAEXH@Z 0043bc60 f i bsplib.obj
 0001:0003acd0       ?Grow@?$CUtlMemory@Uclusterlist_t@@@@QAEXH@Z 0043bcd0 f i bsplib.obj
 0001:0003ad40       ?Grow@?$CUtlMemory@Udlightmappage_t@@@@QAEXH@Z 0043bd40 f i bsplib.obj
 0001:0003adb0       ?Grow@?$CUtlMemory@Udlightmappageinfo_t@@@@QAEXH@Z 0043bdb0 f i bsplib.obj
 0001:0003ae20       ?Grow@?$CUtlMemory@Udoccluderdata_t@@@@QAEXH@Z 0043be20 f i bsplib.obj
 0001:0003ae90       ?Grow@?$CUtlMemory@Udoccluderpolydata_t@@@@QAEXH@Z 0043be90 f i bsplib.obj
 0001:0003af00       ?Grow@?$CUtlMemory@Utexinfo_s@@@@QAEXH@Z 0043bf00 f i bsplib.obj
 0001:0003af70       ?Grow@?$CUtlMemory@VCDispTri@@@@QAEXH@Z 0043bf70 f i bsplib.obj
 0001:0003afe0       ?Grow@?$CUtlMemory@VCDispVert@@@@QAEXH@Z 0043bfe0 f i bsplib.obj
 0001:0003b050       ?Grow@?$CUtlMemory@VCFaceMacroTextureInfo@@@@QAEXH@Z 0043c050 f i bsplib.obj
 0001:0003b0c0       ?Grow@?$CUtlMemory@Vddispinfo_t@@@@QAEXH@Z 0043c0c0 f i bsplib.obj
 0001:0003b130       ?GrowVector@?$CUtlVector@EV?$CUtlMemory@E@@@@IAEXH@Z 0043c130 f i bsplib.obj
 0001:0003b1c0       ?GrowVector@?$CUtlVector@HV?$CUtlMemory@H@@@@IAEXH@Z 0043c1c0 f i bsplib.obj
 0001:0003b250       ?GrowVector@?$CUtlVector@UCompressedLightCube@@V?$CUtlMemory@UCompressedLightCube@@@@@@IAEXH@Z 0043c250 f i bsplib.obj
 0001:0003b2e0       ?GrowVector@?$CUtlVector@Uclusterlist_t@@V?$CUtlMemory@Uclusterlist_t@@@@@@IAEXH@Z 0043c2e0 f i bsplib.obj
 0001:0003b370       ?GrowVector@?$CUtlVector@Udlightmappage_t@@V?$CUtlMemory@Udlightmappage_t@@@@@@IAEXH@Z 0043c370 f i bsplib.obj
 0001:0003b400       ?GrowVector@?$CUtlVector@Udlightmappageinfo_t@@V?$CUtlMemory@Udlightmappageinfo_t@@@@@@IAEXH@Z 0043c400 f i bsplib.obj
 0001:0003b490       ?GrowVector@?$CUtlVector@Udoccluderdata_t@@V?$CUtlMemory@Udoccluderdata_t@@@@@@IAEXH@Z 0043c490 f i bsplib.obj
 0001:0003b520       ?GrowVector@?$CUtlVector@Udoccluderpolydata_t@@V?$CUtlMemory@Udoccluderpolydata_t@@@@@@IAEXH@Z 0043c520 f i bsplib.obj
 0001:0003b5b0       ?GrowVector@?$CUtlVector@Utexinfo_s@@V?$CUtlMemory@Utexinfo_s@@@@@@IAEXH@Z 0043c5b0 f i bsplib.obj
 0001:0003b640       ?GrowVector@?$CUtlVector@VCDispTri@@V?$CUtlMemory@VCDispTri@@@@@@IAEXH@Z 0043c640 f i bsplib.obj
 0001:0003b6d0       ?GrowVector@?$CUtlVector@VCDispVert@@V?$CUtlMemory@VCDispVert@@@@@@IAEXH@Z 0043c6d0 f i bsplib.obj
 0001:0003b760       ?GrowVector@?$CUtlVector@VCFaceMacroTextureInfo@@V?$CUtlMemory@VCFaceMacroTextureInfo@@@@@@IAEXH@Z 0043c760 f i bsplib.obj
 0001:0003b7f0       ?GrowVector@?$CUtlVector@Vddispinfo_t@@V?$CUtlMemory@Vddispinfo_t@@@@@@IAEXH@Z 0043c7f0 f i bsplib.obj
 0001:0003b880       ?HasLump@@YA_NH@Z          0043c880 f   bsplib.obj
 0001:0003b8a0       ?InsertBefore@?$CUtlLinkedList@UGameLump_t@@G@@QAEGG@Z 0043c8a0 f i bsplib.obj
 0001:0003b950       ?InsertBefore@?$CUtlVector@HV?$CUtlMemory@H@@@@QAEHHABH@Z 0043c950 f i bsplib.obj
 0001:0003b9a0       ?InsertMultipleBefore@?$CUtlVector@UCompressedLightCube@@V?$CUtlMemory@UCompressedLightCube@@@@@@QAEHHHPBUCompressedLightCube@@@Z 0043c9a0 f i bsplib.obj
 0001:0003baa0       ?InsertMultipleBefore@?$CUtlVector@Uclusterlist_t@@V?$CUtlMemory@Uclusterlist_t@@@@@@QAEHHHPBUclusterlist_t@@@Z 0043caa0 f i bsplib.obj
 0001:0003bca0       ?InsertMultipleBefore@?$CUtlVector@Udoccluderdata_t@@V?$CUtlMemory@Udoccluderdata_t@@@@@@QAEHHHPBUdoccluderdata_t@@@Z 0043cca0 f i bsplib.obj
 0001:0003bdd0       ?InsertMultipleBefore@?$CUtlVector@Udoccluderpolydata_t@@V?$CUtlMemory@Udoccluderpolydata_t@@@@@@QAEHHHPBUdoccluderpolydata_t@@@Z 0043cdd0 f i bsplib.obj
 0001:0003bed0       ?InsertMultipleBefore@?$CUtlVector@Utexinfo_s@@V?$CUtlMemory@Utexinfo_s@@@@@@QAEHHHPBUtexinfo_s@@@Z 0043ced0 f i bsplib.obj
 0001:0003bff0       ?InsertMultipleBefore@?$CUtlVector@VCDispVert@@V?$CUtlMemory@VCDispVert@@@@@@QAEHHHPBVCDispVert@@@Z 0043cff0 f i bsplib.obj
 0001:0003c110       ?InsertMultipleBefore@?$CUtlVector@Vddispinfo_t@@V?$CUtlMemory@Vddispinfo_t@@@@@@QAEHHHPBVddispinfo_t@@@Z 0043d110 f i bsplib.obj
 0001:0003c3a0       ?IntForKey@@YAHPAUentity_t@@PAD@Z 0043d3a0 f   bsplib.obj
 0001:0003c3c0       ?InvalidGameLump@@YAGXZ    0043d3c0 f   bsplib.obj
 0001:0003c3d0       ?IsExternallyAllocated@?$CUtlMemory@H@@QBE_NXZ 0043d3d0 f i bsplib.obj
 0001:0003c3e0       ?IsExternallyAllocated@?$CUtlMemory@UCompressedLightCube@@@@QBE_NXZ 0043d3e0 f i bsplib.obj
 0001:0003c3f0       ?IsExternallyAllocated@?$CUtlMemory@UListElem_t@?$CUtlLinkedList@UGameLump_t@@G@@@@QBE_NXZ 0043d3f0 f i bsplib.obj
 0001:0003c400       ?IsExternallyAllocated@?$CUtlMemory@Uclusterlist_t@@@@QBE_NXZ 0043d400 f i bsplib.obj
 0001:0003c410       ?IsExternallyAllocated@?$CUtlMemory@Udlightmappage_t@@@@QBE_NXZ 0043d410 f i bsplib.obj
 0001:0003c420       ?IsExternallyAllocated@?$CUtlMemory@Udlightmappageinfo_t@@@@QBE_NXZ 0043d420 f i bsplib.obj
 0001:0003c430       ?IsExternallyAllocated@?$CUtlMemory@Udoccluderdata_t@@@@QBE_NXZ 0043d430 f i bsplib.obj
 0001:0003c440       ?IsExternallyAllocated@?$CUtlMemory@Udoccluderpolydata_t@@@@QBE_NXZ 0043d440 f i bsplib.obj
 0001:0003c450       ?IsExternallyAllocated@?$CUtlMemory@Utexinfo_s@@@@QBE_NXZ 0043d450 f i bsplib.obj
 0001:0003c460       ?IsExternallyAllocated@?$CUtlMemory@VCDispTri@@@@QBE_NXZ 0043d460 f i bsplib.obj
 0001:0003c470       ?IsExternallyAllocated@?$CUtlMemory@VCDispVert@@@@QBE_NXZ 0043d470 f i bsplib.obj
 0001:0003c480       ?IsExternallyAllocated@?$CUtlMemory@VCFaceMacroTextureInfo@@@@QBE_NXZ 0043d480 f i bsplib.obj
 0001:0003c490       ?IsExternallyAllocated@?$CUtlMemory@Vddispinfo_t@@@@QBE_NXZ 0043d490 f i bsplib.obj
 0001:0003c4a0       ?LeafCount@CToolBSPTree@@UBEHXZ 0043d4a0 f   bsplib.obj
 0001:0003c4b0       ?LinkBefore@?$CUtlLinkedList@UGameLump_t@@G@@QAEXGG@Z 0043d4b0 f i bsplib.obj
 0001:0003c530       ?LoadBSPFile@@YAXPAD@Z     0043d530 f   bsplib.obj
 0001:0003dd20       ?LoadBSPFileTexinfo@@YAXPAD@Z 0043ed20 f   bsplib.obj
 0001:0003de60       ?LoadBSPFile_FileSystemOnly@@YAXPAD@Z 0043ee60 f   bsplib.obj
 0001:0003df40       ?LoadLeafs@@YAHXZ          0043ef40 f   bsplib.obj
 0001:0003e2a0       ?LumpVersion@@YAHH@Z       0043f2a0 f   bsplib.obj
 0001:0003e2c0       ?Lumps_Init@@YAXXZ         0043f2c0 f   bsplib.obj
 0001:0003e2e0       ?Lumps_Parse@@YAXXZ        0043f2e0 f   bsplib.obj
 0001:0003e370       ?Lumps_Write@@YAXXZ        0043f370 f   bsplib.obj
 0001:0003e440       ?NextGameLump@@YAGG@Z      0043f440 f   bsplib.obj
 0001:0003e460       ?OpenBSPFile@@YAXPAD@Z     0043f460 f   bsplib.obj
 0001:0003e500       ?ParseEntities@@YAXXZ      0043f500 f   bsplib.obj
 0001:0003e700       ?ParseEntity@@YAHXZ        0043f700 f   bsplib.obj
 0001:0003e8e0       ?ParseEpair@@YAPAUepair_t@@XZ 0043f8e0 f   bsplib.obj
 0001:0003e9e0       ?PrintBSPFileSizes@@YAXXZ  0043f9e0 f   bsplib.obj
 0001:0003f080       ?PrintBSPPackDirectory@@YAXXZ 00440080 f   bsplib.obj
 0001:0003f090       ?PrintEntity@@YAXPAUentity_t@@@Z 00440090 f   bsplib.obj
 0001:0003f0d0       ?Purge@?$CUtlMemory@H@@QAEXXZ 004400d0 f i bsplib.obj
 0001:0003f100       ?Purge@?$CUtlMemory@UCompressedLightCube@@@@QAEXXZ 00440100 f i bsplib.obj
 0001:0003f130       ?Purge@?$CUtlMemory@UListElem_t@?$CUtlLinkedList@UGameLump_t@@G@@@@QAEXXZ 00440130 f i bsplib.obj
 0001:0003f160       ?Purge@?$CUtlMemory@Uclusterlist_t@@@@QAEXXZ 00440160 f i bsplib.obj
 0001:0003f190       ?Purge@?$CUtlMemory@Udlightmappage_t@@@@QAEXXZ 00440190 f i bsplib.obj
 0001:0003f1c0       ?Purge@?$CUtlMemory@Udlightmappageinfo_t@@@@QAEXXZ 004401c0 f i bsplib.obj
 0001:0003f1f0       ?Purge@?$CUtlMemory@Udoccluderdata_t@@@@QAEXXZ 004401f0 f i bsplib.obj
 0001:0003f220       ?Purge@?$CUtlMemory@Udoccluderpolydata_t@@@@QAEXXZ 00440220 f i bsplib.obj
 0001:0003f250       ?Purge@?$CUtlMemory@Utexinfo_s@@@@QAEXXZ 00440250 f i bsplib.obj
 0001:0003f280       ?Purge@?$CUtlMemory@VCDispTri@@@@QAEXXZ 00440280 f i bsplib.obj
 0001:0003f2b0       ?Purge@?$CUtlMemory@VCDispVert@@@@QAEXXZ 004402b0 f i bsplib.obj
 0001:0003f2e0       ?Purge@?$CUtlMemory@VCFaceMacroTextureInfo@@@@QAEXXZ 004402e0 f i bsplib.obj
 0001:0003f310       ?Purge@?$CUtlMemory@Vddispinfo_t@@@@QAEXXZ 00440310 f i bsplib.obj
 0001:0003f340       ?ReadFileFromPack@@YA_NPBD_NAAVCUtlBuffer@@@Z 00440340 f   bsplib.obj
 0001:0003f360       ?Remove@?$CUtlLinkedList@UGameLump_t@@G@@QAEXG@Z 00440360 f i bsplib.obj
 0001:0003f3c0       ?RemoveAll@?$CUtlLinkedList@UGameLump_t@@G@@QAEXXZ 004403c0 f i bsplib.obj
 0001:0003f490       ?RemoveAll@?$CUtlVector@EV?$CUtlMemory@E@@@@QAEXXZ 00440490 f i bsplib.obj
 0001:0003f4a0       ?RemoveAll@?$CUtlVector@HV?$CUtlMemory@H@@@@QAEXXZ 004404a0 f i bsplib.obj
 0001:0003f4b0       ?RemoveAll@?$CUtlVector@UCompressedLightCube@@V?$CUtlMemory@UCompressedLightCube@@@@@@QAEXXZ 004404b0 f i bsplib.obj
 0001:0003f4c0       ?RemoveAll@?$CUtlVector@Uclusterlist_t@@V?$CUtlMemory@Uclusterlist_t@@@@@@QAEXXZ 004404c0 f i bsplib.obj
 0001:0003f500       ?RemoveAll@?$CUtlVector@Udlightmappage_t@@V?$CUtlMemory@Udlightmappage_t@@@@@@QAEXXZ 00440500 f i bsplib.obj
 0001:0003f510       ?RemoveAll@?$CUtlVector@Udlightmappageinfo_t@@V?$CUtlMemory@Udlightmappageinfo_t@@@@@@QAEXXZ 00440510 f i bsplib.obj
 0001:0003f520       ?RemoveAll@?$CUtlVector@Udoccluderdata_t@@V?$CUtlMemory@Udoccluderdata_t@@@@@@QAEXXZ 00440520 f i bsplib.obj
 0001:0003f530       ?RemoveAll@?$CUtlVector@Udoccluderpolydata_t@@V?$CUtlMemory@Udoccluderpolydata_t@@@@@@QAEXXZ 00440530 f i bsplib.obj
 0001:0003f540       ?RemoveAll@?$CUtlVector@Utexinfo_s@@V?$CUtlMemory@Utexinfo_s@@@@@@QAEXXZ 00440540 f i bsplib.obj
 0001:0003f550       ?RemoveAll@?$CUtlVector@VCDispTri@@V?$CUtlMemory@VCDispTri@@@@@@QAEXXZ 00440550 f i bsplib.obj
 0001:0003f560       ?RemoveAll@?$CUtlVector@VCDispVert@@V?$CUtlMemory@VCDispVert@@@@@@QAEXXZ 00440560 f i bsplib.obj
 0001:0003f570       ?RemoveAll@?$CUtlVector@VCFaceMacroTextureInfo@@V?$CUtlMemory@VCFaceMacroTextureInfo@@@@@@QAEXXZ 00440570 f i bsplib.obj
 0001:0003f580       ?RemoveAll@?$CUtlVector@Vddispinfo_t@@V?$CUtlMemory@Vddispinfo_t@@@@@@QAEXXZ 00440580 f i bsplib.obj
 0001:0003f590       ?RemoveFileFromPack@@YAXPBD@Z 00440590 f   bsplib.obj
 0001:0003f5b0       ?SetCount@?$CUtlVector@EV?$CUtlMemory@E@@@@QAEXH@Z 004405b0 f i bsplib.obj
 0001:0003f650       ?SetCount@?$CUtlVector@HV?$CUtlMemory@H@@@@QAEXH@Z 00440650 f i bsplib.obj
 0001:0003f6a0       ?SetCount@?$CUtlVector@UCompressedLightCube@@V?$CUtlMemory@UCompressedLightCube@@@@@@QAEXH@Z 004406a0 f i bsplib.obj
 0001:0003f6c0       ?SetCount@?$CUtlVector@Uclusterlist_t@@V?$CUtlMemory@Uclusterlist_t@@@@@@QAEXH@Z 004406c0 f i bsplib.obj
 0001:0003f710       ?SetCount@?$CUtlVector@Udlightmappage_t@@V?$CUtlMemory@Udlightmappage_t@@@@@@QAEXH@Z 00440710 f i bsplib.obj
 0001:0003f7c0       ?SetCount@?$CUtlVector@Udlightmappageinfo_t@@V?$CUtlMemory@Udlightmappageinfo_t@@@@@@QAEXH@Z 004407c0 f i bsplib.obj
 0001:0003f870       ?SetCount@?$CUtlVector@Udoccluderdata_t@@V?$CUtlMemory@Udoccluderdata_t@@@@@@QAEXH@Z 00440870 f i bsplib.obj
 0001:0003f890       ?SetCount@?$CUtlVector@Udoccluderpolydata_t@@V?$CUtlMemory@Udoccluderpolydata_t@@@@@@QAEXH@Z 00440890 f i bsplib.obj
 0001:0003f8b0       ?SetCount@?$CUtlVector@Utexinfo_s@@V?$CUtlMemory@Utexinfo_s@@@@@@QAEXH@Z 004408b0 f i bsplib.obj
 0001:0003f8d0       ?SetCount@?$CUtlVector@VCDispTri@@V?$CUtlMemory@VCDispTri@@@@@@QAEXH@Z 004408d0 f i bsplib.obj
 0001:0003f970       ?SetCount@?$CUtlVector@VCDispVert@@V?$CUtlMemory@VCDispVert@@@@@@QAEXH@Z 00440970 f i bsplib.obj
 0001:0003f990       ?SetCount@?$CUtlVector@VCFaceMacroTextureInfo@@V?$CUtlMemory@VCFaceMacroTextureInfo@@@@@@QAEXH@Z 00440990 f i bsplib.obj
 0001:0003fa30       ?SetCount@?$CUtlVector@Vddispinfo_t@@V?$CUtlMemory@Vddispinfo_t@@@@@@QAEXH@Z 00440a30 f i bsplib.obj
 0001:0003fa50       ?SetHDRMode@@YAX_N@Z       00440a50 f   bsplib.obj
 0001:0003fab0       ?SetKeyValue@@YAXPAUentity_t@@PBD1@Z 00440ab0 f   bsplib.obj
 0001:0003fb40       ?SetSize@?$CUtlVector@EV?$CUtlMemory@E@@@@QAEXH@Z 00440b40 f i bsplib.obj
 0001:0003fbe0       ?ShiftElementsRight@?$CUtlVector@EV?$CUtlMemory@E@@@@IAEXHH@Z 00440be0 f i bsplib.obj
 0001:0003fc20       ?ShiftElementsRight@?$CUtlVector@HV?$CUtlMemory@H@@@@IAEXHH@Z 00440c20 f i bsplib.obj
 0001:0003fc60       ?ShiftElementsRight@?$CUtlVector@UCompressedLightCube@@V?$CUtlMemory@UCompressedLightCube@@@@@@IAEXHH@Z 00440c60 f i bsplib.obj
 0001:0003fca0       ?ShiftElementsRight@?$CUtlVector@Uclusterlist_t@@V?$CUtlMemory@Uclusterlist_t@@@@@@IAEXHH@Z 00440ca0 f i bsplib.obj
 0001:0003fce0       ?ShiftElementsRight@?$CUtlVector@Udlightmappage_t@@V?$CUtlMemory@Udlightmappage_t@@@@@@IAEXHH@Z 00440ce0 f i bsplib.obj
 0001:0003fd30       ?ShiftElementsRight@?$CUtlVector@Udlightmappageinfo_t@@V?$CUtlMemory@Udlightmappageinfo_t@@@@@@IAEXHH@Z 00440d30 f i bsplib.obj
 0001:0003fd70       ?ShiftElementsRight@?$CUtlVector@Udoccluderdata_t@@V?$CUtlMemory@Udoccluderdata_t@@@@@@IAEXHH@Z 00440d70 f i bsplib.obj
 0001:0003fdb0       ?ShiftElementsRight@?$CUtlVector@Udoccluderpolydata_t@@V?$CUtlMemory@Udoccluderpolydata_t@@@@@@IAEXHH@Z 00440db0 f i bsplib.obj
 0001:0003fdf0       ?ShiftElementsRight@?$CUtlVector@Utexinfo_s@@V?$CUtlMemory@Utexinfo_s@@@@@@IAEXHH@Z 00440df0 f i bsplib.obj
 0001:0003fe30       ?ShiftElementsRight@?$CUtlVector@VCDispTri@@V?$CUtlMemory@VCDispTri@@@@@@IAEXHH@Z 00440e30 f i bsplib.obj
 0001:0003fe70       ?ShiftElementsRight@?$CUtlVector@VCDispVert@@V?$CUtlMemory@VCDispVert@@@@@@IAEXHH@Z 00440e70 f i bsplib.obj
 0001:0003feb0       ?ShiftElementsRight@?$CUtlVector@VCFaceMacroTextureInfo@@V?$CUtlMemory@VCFaceMacroTextureInfo@@@@@@IAEXHH@Z 00440eb0 f i bsplib.obj
 0001:0003fef0       ?ShiftElementsRight@?$CUtlVector@Vddispinfo_t@@V?$CUtlMemory@Vddispinfo_t@@@@@@IAEXHH@Z 00440ef0 f i bsplib.obj
 0001:0003ff40       ?StripTrailing@@YAXPAD@Z   00440f40 f   bsplib.obj
 0001:0003ff80       ?TexDataStringTable_AddOrFindString@@YAHPBD@Z 00440f80 f   bsplib.obj
 0001:00040040       ?TexDataStringTable_GetString@@YAPBDH@Z 00441040 f   bsplib.obj
 0001:00040060       ?ToolBSPTree@@YAPAVISpatialQuery@@XZ 00441060 f   bsplib.obj
 0001:00040070       ?TriStripToTriList@@YAXPBGHPAPAGPAH@Z 00441070 f   bsplib.obj
 0001:00040150       ?Unlink@?$CUtlLinkedList@UGameLump_t@@G@@QAEXG@Z 00441150 f i bsplib.obj
 0001:000401d0       ?UnparseEntities@@YAXXZ    004411d0 f   bsplib.obj
 0001:00040390       ?UpdateAllFaceLightmapExtents@@YAXXZ 00441390 f   bsplib.obj
 0001:000403e0       ?ValueForKey@@YAPADPAUentity_t@@PAD@Z 004413e0 f   bsplib.obj
 0001:00040440       ?WriteBSPFile@@YAXPAD0@Z   00441440 f   bsplib.obj
 0001:00041a20       ?WriteLumpToFile@@YAXPADH@Z 00442a20 f   bsplib.obj
 0001:00041b30       _fprintf                   00442b30 f i bsplib.obj
 0001:00041b60       _sprintf                   00442b60 f i bsplib.obj
 0001:00041ba0       ??0?$CUtlLinkedList@P6AXPBD@ZG@@QAE@HH@Z 00442ba0 f i cmdlib.obj
 0001:00041c00       ??0?$CUtlLinkedList@P6AXXZG@@QAE@HH@Z 00442c00 f i cmdlib.obj
 0001:00041c60       ??0?$CUtlMemory@UListElem_t@?$CUtlLinkedList@P6AXPBD@ZG@@@@QAE@HH@Z 00442c60 f i cmdlib.obj
 0001:00041ca0       ??0?$CUtlMemory@UListElem_t@?$CUtlLinkedList@P6AXXZG@@@@QAE@HH@Z 00442ca0 f i cmdlib.obj
 0001:00041ce0       ??1?$CUtlLinkedList@P6AXPBD@ZG@@QAE@XZ 00442ce0 f i cmdlib.obj
 0001:00041d60       ??1?$CUtlLinkedList@P6AXXZG@@QAE@XZ 00442d60 f i cmdlib.obj
 0001:00041de0       ??1?$CUtlMemory@UListElem_t@?$CUtlLinkedList@P6AXPBD@ZG@@@@QAE@XZ 00442de0 f i cmdlib.obj
 0001:00041e10       ??1?$CUtlMemory@UListElem_t@?$CUtlLinkedList@P6AXXZG@@@@QAE@XZ 00442e10 f i cmdlib.obj
 0001:00041e40       ?AllocInternal@?$CUtlLinkedList@P6AXPBD@ZG@@IAEG_N@Z 00442e40 f i cmdlib.obj
 0001:00041f30       ?AllocInternal@?$CUtlLinkedList@P6AXXZG@@IAEG_N@Z 00442f30 f i cmdlib.obj
 0001:00042020       ?COM_Parse@@YAPADPAD@Z     00443020 f   cmdlib.obj
 0001:00042040       ?CheckParm@@YAHPAD@Z       00443040 f   cmdlib.obj
 0001:00042080       ?CloseSpewFunctionLogFile@@YAXXZ 00443080 f   cmdlib.obj
 0001:000420b0       ?CmdLib_AddBasePath@@YAXPBD@Z 004430b0 f   cmdlib.obj
 0001:00042100       ?CmdLib_AllocError@@YAXK@Z 00443100 f   cmdlib.obj
 0001:00042120       ?CmdLib_AtCleanup@@YAXP6AXXZ@Z 00443120 f   cmdlib.obj
 0001:00042140       ?CmdLib_Cleanup@@YAXXZ     00443140 f   cmdlib.obj
 0001:000421a0       ?CmdLib_Exit@@YAXH@Z       004431a0 f   cmdlib.obj
 0001:000421b0       ?CmdLib_FGets@@YAPADPADHPAX@Z 004431b0 f   cmdlib.obj
 0001:00042210       ?CmdLib_FPrintf@@YAXPAXPBDZZ 00443210 f   cmdlib.obj
 0001:000423d0       ?CmdLib_GetBasePath@@YAPBDH@Z 004433d0 f   cmdlib.obj
 0001:000423f0       ?CmdLib_GetFileSystemFactory@@YAP6APAXPBDPAH@ZXZ 004433f0 f   cmdlib.obj
 0001:00042400       ?CmdLib_GetNumBasePaths@@YAHXZ 00443400 f   cmdlib.obj
 0001:00042410       ?CmdLib_HasBasePath@@YA_NPBDAAH@Z 00443410 f   cmdlib.obj
 0001:000424d0       ?CmdLib_InitFileSystem@@YAXPBDH@Z 004434d0 f   cmdlib.obj
 0001:00042500       ?CmdLib_NewHandler@@YAHI@Z 00443500 f   cmdlib.obj
 0001:00042520       ?CmdLib_SpewOutputFunc@@YA?AW4SpewRetval_t@@W4SpewType_t@@PBD@Z 00443520 f   cmdlib.obj
 0001:00042770       ?CmdLib_TermFileSystem@@YAXXZ 00443770 f   cmdlib.obj
 0001:00042780       ?ConstructList@?$CUtlLinkedList@P6AXPBD@ZG@@IAEXXZ 00443780 f i cmdlib.obj
 0001:000427a0       ?ConstructList@?$CUtlLinkedList@P6AXXZG@@IAEXXZ 004437a0 f i cmdlib.obj
 0001:000427c0       ?CreatePath@@YAXPAD@Z      004437c0 f   cmdlib.obj
 0001:00042820       ?ExpandArg@@YAPADPAD@Z     00443820 f   cmdlib.obj
 0001:000428a0       ?ExpandPath@@YAPADPAD@Z    004438a0 f   cmdlib.obj
 0001:000428e0       ?ExpandWildcards@@YAXPAHPAPAPAD@Z 004438e0 f   cmdlib.obj
 0001:00042a40       ?FileExists@@YAHPAD@Z      00443a40 f   cmdlib.obj
 0001:00042a80       ?FileTime@@YAHPAD@Z        00443a80 f   cmdlib.obj
 0001:00042ab0       ?GetHourMinuteSeconds@@YAXHAAH00@Z 00443ab0 f   cmdlib.obj
 0001:00042ac0       ?GetHourMinuteSecondsString@@YAXHPADH@Z 00443ac0 f   cmdlib.obj
 0001:00042bd0       ?Grow@?$CUtlMemory@UListElem_t@?$CUtlLinkedList@P6AXPBD@ZG@@@@QAEXH@Z 00443bd0 f i cmdlib.obj
 0001:00042c40       ?Grow@?$CUtlMemory@UListElem_t@?$CUtlLinkedList@P6AXXZG@@@@QAEXH@Z 00443c40 f i cmdlib.obj
 0001:00042cb0       ?InsertBefore@?$CUtlLinkedList@P6AXPBD@ZG@@QAEGGABQ6AXPBD@Z@Z 00443cb0 f i cmdlib.obj
 0001:00042e40       ?InsertBefore@?$CUtlLinkedList@P6AXXZG@@QAEGGABQ6AXXZ@Z 00443e40 f i cmdlib.obj
 0001:00042fd0       ?InstallAllocationFunctions@@YAXXZ 00443fd0 f   cmdlib.obj
 0001:00042ff0       ?InstallExtraSpewHook@@YAXP6AXPBD@Z@Z 00443ff0 f   cmdlib.obj
 0001:00043010       ?InstallSpewFunction@@YAXXZ 00444010 f   cmdlib.obj
 0001:000430f0       ?IsExternallyAllocated@?$CUtlMemory@UListElem_t@?$CUtlLinkedList@P6AXPBD@ZG@@@@QBE_NXZ 004440f0 f i cmdlib.obj
 0001:00043100       ?IsExternallyAllocated@?$CUtlMemory@UListElem_t@?$CUtlLinkedList@P6AXXZG@@@@QBE_NXZ 00444100 f i cmdlib.obj
 0001:00043110       ?LinkBefore@?$CUtlLinkedList@P6AXPBD@ZG@@QAEXGG@Z 00444110 f i cmdlib.obj
 0001:00043200       ?LinkBefore@?$CUtlLinkedList@P6AXXZG@@QAEXGG@Z 00444200 f i cmdlib.obj
 0001:000432f0       ?LoadFile@@YAHPADPAPAX@Z   004442f0 f   cmdlib.obj
 0001:00043460       ?ParseHex@@YAHPAD@Z        00444460 f   cmdlib.obj
 0001:000434d0       ?ParseNum@@YAHPAD@Z        004444d0 f   cmdlib.obj
 0001:00043510       ?Purge@?$CUtlMemory@UListElem_t@?$CUtlLinkedList@P6AXPBD@ZG@@@@QAEXXZ 00444510 f i cmdlib.obj
 0001:00043540       ?Purge@?$CUtlMemory@UListElem_t@?$CUtlLinkedList@P6AXXZG@@@@QAEXXZ 00444540 f i cmdlib.obj
 0001:00043570       ?QCopyFile@@YAXPAD0@Z      00444570 f   cmdlib.obj
 0001:000437b0       ?Q_filelength@@YAHPAX@Z    004447b0 f   cmdlib.obj
 0001:000437d0       ?Q_mkdir@@YAXPAD@Z         004447d0 f   cmdlib.obj
 0001:00043800       ?RemoveAll@?$CUtlLinkedList@P6AXPBD@ZG@@QAEXXZ 00444800 f i cmdlib.obj
 0001:00043860       ?RemoveAll@?$CUtlLinkedList@P6AXXZG@@QAEXXZ 00444860 f i cmdlib.obj
 0001:000438c0       ?SafeCreatePath@@YAXPAD@Z  004448c0 f   cmdlib.obj
 0001:00043910       ?SafeOpenRead@@YAPAXPAD@Z  00444910 f   cmdlib.obj
 0001:00043a20       ?SafeOpenWrite@@YAPAXPAD@Z 00444a20 f   cmdlib.obj
 0001:00043a60       ?SafeRead@@YAXPAX0H@Z      00444a60 f   cmdlib.obj
 0001:00043a90       ?SafeWrite@@YAXPAX0H@Z     00444a90 f   cmdlib.obj
 0001:00043ac0       ?SaveFile@@YAXPADPAXH@Z    00444ac0 f   cmdlib.obj
 0001:00043b30       ?SetSpewFunctionLogFile@@YAXPBD@Z 00444b30 f   cmdlib.obj
 0001:00043b80       ?Unlink@?$CUtlLinkedList@P6AXPBD@ZG@@QAEXG@Z 00444b80 f i cmdlib.obj
 0001:00043c00       ?Unlink@?$CUtlLinkedList@P6AXXZG@@QAEXG@Z 00444c00 f i cmdlib.obj
 0001:00043c80       ?copystring@@YAPADPBD@Z    00444c80 f   cmdlib.obj
 0001:00043cc0       ?qprintf@@YAXPADZZ         00444cc0 f   cmdlib.obj
 0001:00043d10       _printf                    00444d10 f i cmdlib.obj
 0001:00043d40       ?FileSystem_GetFactory@@YAP6APAXPBDPAH@ZXZ 00444d40 f   filesystem_tools.obj
 0001:00043d50       ?FileSystem_Init@@YA_NPBDHW4FSInitType_t@@_N@Z 00444d50 f   filesystem_tools.obj
 0001:00043d70       ?FileSystem_Init_Normal@@YA_NPBDW4FSInitType_t@@_N@Z 00444d70 f   filesystem_tools.obj
 0001:00043fb0       ?FileSystem_SetGame@@YA_NPBD@Z 00444fb0 f   filesystem_tools.obj
 0001:00044020       ?FileSystem_Term@@YAXXZ    00445020 f   filesystem_tools.obj
 0001:00044120       ?LoadEntityKeyCallback@@YA?AW4ChunkFileResult_t@@PBD0PAULoadEntity_t@@@Z 00445120 f   map_shared.obj
 0001:00044210       ?LoadEntsFromMapFile@@YA_NPBD@Z 00445210 f   map_shared.obj
 0001:000442e0       ??$_Copy_backward_memmove@PAUSortEntry@@PAU1@@std@@YAPAUSortEntry@@PAU1@00@Z 004452e0 f i mstristrip.obj
 0001:00044300       ??$_Med3_unchecked@PAUSortEntry@@U?$less@X@std@@@std@@YAXPAUSortEntry@@00U?$less@X@0@@Z 00445300 f i mstristrip.obj
 0001:00044370       ??$_Partition_by_median_guess_unchecked@PAUSortEntry@@U?$less@X@std@@@std@@YA?AU?$pair@PAUSortEntry@@PAU1@@0@PAUSortEntry@@0U?$less@X@0@@Z 00445370 f i mstristrip.obj
 0001:000445f0       ??$_Pop_heap_hole_by_index@PAUSortEntry@@U1@U?$less@X@std@@@std@@YAXPAUSortEntry@@HH$$QAU1@U?$less@X@0@@Z 004455f0 f i mstristrip.obj
 0001:00044690       ??$_Sort_unchecked@PAUSortEntry@@U?$less@X@std@@@std@@YAXPAUSortEntry@@0HU?$less@X@0@@Z 00445690 f i mstristrip.obj
 0001:000448e0       ??$_Zero_range@PAG@std@@YAPAGQAG0@Z 004458e0 f i mstristrip.obj
 0001:00044900       ??0CStripper@@QAE@HPAY02G@Z 00445900 f   mstristrip.obj
 0001:00044b10       ??1CStripper@@QAE@XZ       00445b10 f   mstristrip.obj
 0001:00044b40       ?Add@CVertCache@@QAE_NHH@Z 00445b40 f   mstristrip.obj
 0001:00044bb0       ?BuildStrips@CStripper@@QAEXPAV?$list@PAV?$vector@GV?$allocator@G@std@@@std@@V?$allocator@PAV?$vector@GV?$allocator@G@std@@@std@@@2@@std@@H_N@Z 00445bb0 f   mstristrip.obj
 0001:00044ea0       ?ComputeVertexPermutation@@YAXHPAGPAHPAPAG@Z 00445ea0 f   mstristrip.obj
 0001:00044fe0       ?CreateLongStrip@CStripper@@QAEHPAV?$list@PAV?$vector@GV?$allocator@G@std@@@std@@V?$allocator@PAV?$vector@GV?$allocator@G@std@@@std@@@2@@std@@PAPAG@Z 00445fe0 f   mstristrip.obj
 0001:00045330       ?CreateManyStrips@CStripper@@QAEHPAV?$list@PAV?$vector@GV?$allocator@G@std@@@std@@V?$allocator@PAV?$vector@GV?$allocator@G@std@@@std@@@2@@std@@PAPAG@Z 00446330 f   mstristrip.obj
 0001:00045540       ?CreateStrip@CStripper@@QAEHHHHPAH_N100@Z 00446540 f   mstristrip.obj
 0001:00045900       ?EstimateStripCost@@YAHPAV?$list@PAV?$vector@GV?$allocator@G@std@@@std@@V?$allocator@PAV?$vector@GV?$allocator@G@std@@@std@@@2@@std@@@Z 00446900 f   mstristrip.obj
 0001:00045940       ?FindBestCachedStrip@@YA?AV?$_List_iterator@V?$_List_val@U?$_List_simple_types@PAV?$vector@GV?$allocator@G@std@@@std@@@std@@@std@@@std@@PAV?$list@PAV?$vector@GV?$allocator@G@std@@@std@@V?$allocator@PAV?$vector@GV?$allocator@G@std@@@std@@@2@@2@ABVCVertCache@@@Z 00446940 f   mstristrip.obj
 0001:00045ba0       ?FreeStripListVerts@@YAXPAV?$list@PAV?$vector@GV?$allocator@G@std@@@std@@V?$allocator@PAV?$vector@GV?$allocator@G@std@@@std@@@2@@std@@@Z 00446ba0 f i mstristrip.obj
 0001:00045c40       ?GetNeighborCount@CStripper@@QAEHH@Z 00446c40 f i mstristrip.obj
 0001:00045c90       ?InitTriangleInfo@CStripper@@QAEXHH@Z 00446c90 f   mstristrip.obj
 0001:00045d90       ?Stripify@@YAHHPAGPAHPAPAG@Z 00446d90 f   mstristrip.obj
 0001:000460a0       ?_Xlength@?$vector@GV?$allocator@G@std@@@std@@CAXXZ 004470a0 f i mstristrip.obj
 0001:000460b0       ?EndPacifier@@YAX_N@Z      004470b0 f   pacifier.obj
 0001:000460e0       ?StartPacifier@@YAXPBD@Z   004470e0 f   pacifier.obj
 0001:00046110       ?UpdatePacifier@@YAXM@Z    00447110 f   pacifier.obj
 0001:00046190       ?GetPhysicsFactory@@YAP6APAXPBDPAH@ZXZ 00447190 f   physdll.obj
 0001:000461d0       _PhysicsDLLPath            004471d0 f   physdll.obj
 0001:00046200       ?AllocWinding@@YAPAUwinding_t@@H@Z 00447200 f   polylib.obj
 0001:00046290       ?BaseWindingForPlane@@YAPAUwinding_t@@ABVVector@@M@Z 00447290 f   polylib.obj
 0001:00046630       ?CheckWinding@@YAXPAUwinding_t@@@Z 00447630 f   polylib.obj
 0001:00046aa0       ?ChopWinding@@YAPAUwinding_t@@PAU1@ABVVector@@M@Z 00447aa0 f   polylib.obj
 0001:00046b60       ?ChopWindingInPlace@@YAXPAPAUwinding_t@@ABVVector@@MM@Z 00447b60 f   polylib.obj
 0001:00046f30       ?ClassifyWindingEpsilon@@YAXPAUwinding_t@@ABVVector@@MMPAPAU1@22@Z 00447f30 f   polylib.obj
 0001:000473f0       ?ClassifyWindingEpsilon_Offset@@YAXPAUwinding_t@@ABVVector@@MMPAPAU1@221@Z 004483f0 f   polylib.obj
 0001:00047610       ?ClipWindingEpsilon@@YAXPAUwinding_t@@ABVVector@@MMPAPAU1@2@Z 00448610 f   polylib.obj
 0001:00047bb0       ?ClipWindingEpsilon_Offset@@YAXPAUwinding_t@@ABVVector@@MMPAPAU1@21@Z 00448bb0 f   polylib.obj
 0001:00047d70       ?CopyWinding@@YAPAUwinding_t@@PAU1@@Z 00448d70 f   polylib.obj
 0001:00047db0       ?FreeWinding@@YAXPAUwinding_t@@@Z 00448db0 f   polylib.obj
 0001:00047e00       ?PointInWinding@@YA_NABVVector@@PAUwinding_t@@@Z 00448e00 f   polylib.obj
 0001:00047fa0       ?RemoveColinearPoints@@YAXPAUwinding_t@@@Z 00448fa0 f   polylib.obj
 0001:00048110       ?ReverseWinding@@YAPAUwinding_t@@PAU1@@Z 00449110 f   polylib.obj
 0001:00048180       ?TranslateWinding@@YAXPAUwinding_t@@ABVVector@@@Z 00449180 f   polylib.obj
 0001:000481d0       ?WindingArea@@YAMPAUwinding_t@@@Z 004491d0 f   polylib.obj
 0001:000482c0       ?WindingAreaAndBalancePoint@@YAMPAUwinding_t@@AAVVector@@@Z 004492c0 f   polylib.obj
 0001:000484b0       ?WindingBounds@@YAXPAUwinding_t@@AAVVector@@1@Z 004494b0 f   polylib.obj
 0001:00048570       ?WindingCenter@@YAXPAUwinding_t@@AAVVector@@@Z 00449570 f   polylib.obj
 0001:00048630       ?WindingOnPlaneSide@@YAHPAUwinding_t@@ABVVector@@M@Z 00449630 f   polylib.obj
 0001:00048700       ?WindingPlane@@YAXPAUwinding_t@@AAVVector@@PAM@Z 00449700 f   polylib.obj
 0001:000487f0       ?pw@@YAXPAUwinding_t@@@Z   004497f0 f   polylib.obj
 0001:00048850       ??0?$CUtlMemory@VVector@@@@QAE@HH@Z 00449850 f i scratchpad_helpers.obj
 0001:00048890       ??1?$CUtlMemory@VVector@@@@QAE@XZ 00449890 f i scratchpad_helpers.obj
 0001:000488c0       ?Grow@?$CUtlMemory@VVector@@@@QAEXH@Z 004498c0 f i scratchpad_helpers.obj
 0001:00048930       ?GrowVector@?$CUtlVector@VVector@@V?$CUtlMemory@VVector@@@@@@IAEXH@Z 00449930 f i scratchpad_helpers.obj
 0001:000489c0       ?InsertBefore@?$CUtlVector@VVector@@V?$CUtlMemory@VVector@@@@@@QAEHHABVVector@@@Z 004499c0 f i scratchpad_helpers.obj
 0001:00048a80       ?IsExternallyAllocated@?$CUtlMemory@VVector@@@@QBE_NXZ 00449a80 f i scratchpad_helpers.obj
 0001:00048a90       ?Purge@?$CUtlMemory@VVector@@@@QAEXXZ 00449a90 f i scratchpad_helpers.obj
 0001:00048ac0       ?RemoveAll@?$CUtlVector@VVector@@V?$CUtlMemory@VVector@@@@@@QAEXXZ 00449ac0 f i scratchpad_helpers.obj
 0001:00048ad0       ?ScratchPad_DrawFace@@YAXPAVIScratchPad3D@@PAUdface_t@@HABVCSPColor@@ABVVector@@@Z 00449ad0 f   scratchpad_helpers.obj
 0001:00048de0       ?ScratchPad_DrawWinding@@YAXPAVIScratchPad3D@@HPAVVector@@V2@2@Z 00449de0 f   scratchpad_helpers.obj
 0001:00048ec0       ?ScratchPad_DrawWorld@@YAXPAVIScratchPad3D@@_NABVCSPColor@@@Z 00449ec0 f   scratchpad_helpers.obj
 0001:00048fa0       ?ScratchPad_DrawWorld@@YAX_NABVCSPColor@@@Z 00449fa0 f   scratchpad_helpers.obj
 0001:00049090       ?ShiftElementsRight@?$CUtlVector@VVector@@V?$CUtlMemory@VVector@@@@@@IAEXHH@Z 0044a090 f i scratchpad_helpers.obj
 0001:000490d0       ?AddMacroToStack@@YA_NPAD@Z 0044a0d0 f   scriplib.obj
 0001:00049290       ?AddScriptToStack@@YAXPADW4ScriptPathMode_t@@@Z 0044a290 f   scriplib.obj
 0001:00049340       ?DefineMacro@@YAXPAD@Z     0044a340 f   scriplib.obj
 0001:00049500       ?EndOfScript@@YAHH@Z       0044a500 f   scriplib.obj
 0001:000495b0       ?ExpandMacroToken@@YA_NAAPAD@Z 0044a5b0 f   scriplib.obj
 0001:000496e0       _GetExprToken              0044a6e0 f   scriplib.obj
 0001:00049a40       _GetToken                  0044aa40 f   scriplib.obj
 0001:0004a080       _GetTokenizerStatus        0044b080 f   scriplib.obj
 0001:0004a0d0       _LoadScriptFile            0044b0d0 f   scriplib.obj
 0001:0004a110       _ParseFromMemory           0044b110 f   scriplib.obj
 0001:0004a180       _TokenAvailable            0044b180 f   scriplib.obj
 0001:0004a1e0       _UnGetToken                0044b1e0 f   scriplib.obj
 0001:0004a1f0       ?GetThreadWork@@YAHXZ      0044b1f0 f   threads.obj
 0001:0004a2e0       ?InternalRunThreadsFn@@YGKPAX@Z 0044b2e0 f   threads.obj
 0001:0004a300       ?RunThreadsOn@@YAXHHP6AXHPAX@Z0@Z 0044b300 f   threads.obj
 0001:0004a440       ?RunThreadsOnIndividual@@YAXHHP6AXHH@Z@Z 0044b440 f   threads.obj
 0001:0004a5c0       ?RunThreads_End@@YAXXZ     0044b5c0 f   threads.obj
 0001:0004a610       ?RunThreads_Start@@YAXP6AXHPAX@Z0@Z 0044b610 f   threads.obj
 0001:0004a6a0       ?SetLowPriority@@YAXXZ     0044b6a0 f   threads.obj
 0001:0004a6b0       ?ThreadLock@@YAXXZ         0044b6b0 f   threads.obj
 0001:0004a6f0       ?ThreadSetDefault@@YAXXZ   0044b6f0 f   threads.obj
 0001:0004a740       ?ThreadUnlock@@YAXXZ       0044b740 f   threads.obj
 0001:0004a780       ?ThreadWorkerFunction@@YAXHPAX@Z 0044b780 f   threads.obj
 0001:0004a880       ?EnableFullMinidumps@@YAX_N@Z 0044b880 f   tools_minidump.obj
 0001:0004a890       ?SetupDefaultToolsMinidumpHandler@@YAXXZ 0044b890 f   tools_minidump.obj
 0001:0004a8a0       ?SetupToolsMinidumpHandler@@YAXP6AXKPAX@Z@Z 0044b8a0 f   tools_minidump.obj
 0001:0004a910       ?FindMaterial@@YAPAXPBDPA_N_N@Z 0044b910 f   utilmatlib.obj
 0001:0004a960       ?GetMaterialDimensions@@YAXPAXPAH1@Z 0044b960 f   utilmatlib.obj
 0001:0004a9a0       ?GetMaterialReflectivity@@YAXPAXPAM@Z 0044b9a0 f   utilmatlib.obj
 0001:0004aa10       ?GetMaterialShaderName@@YAPBDPAX@Z 0044ba10 f   utilmatlib.obj
 0001:0004aa20       ?GetMaterialShaderPropertyBool@@YAHPAXH@Z 0044ba20 f   utilmatlib.obj
 0001:0004aa60       ?GetMaterialShaderPropertyInt@@YAHPAXH@Z 0044ba60 f   utilmatlib.obj
 0001:0004aaa0       ?GetMaterialVar@@YAPBDPAXPBD@Z 0044baa0 f   utilmatlib.obj
 0001:0004aad0       ?InitMaterialSystem@@YAXPBDP6APAX0PAH@Z@Z 0044bad0 f   utilmatlib.obj
 0001:0004ac00       ?LoadMaterialSystemInterface@@YAXP6APAXPBDPAH@Z@Z 0044bc00 f   utilmatlib.obj
 0001:0004aca0       ?ShutdownMaterialSystem@@YAXXZ 0044bca0 f   utilmatlib.obj
 0001:0004acc0       ??4?$CUtlVector@HV?$CUtlMemory@H@@@@QAEAAV0@ABV0@@Z 0044bcc0 f i brushbsp.obj
 0001:0004ad90       ?AllocBrush@@YAPAUbspbrush_t@@H@Z 0044bd90 f   brushbsp.obj
 0001:0004ade0       ?AllocNode@@YAPAUnode_t@@XZ 0044bde0 f   brushbsp.obj
 0001:0004ae20       ?AllocTree@@YAPAUtree_t@@XZ 0044be20 f   brushbsp.obj
 0001:0004ae50       ?BoundBrush@@YAXPAUbspbrush_t@@@Z 0044be50 f   brushbsp.obj
 0001:0004aed0       ?BrushBSP@@YAPAUtree_t@@PAUbspbrush_t@@AAVVector@@1@Z 0044bed0 f   brushbsp.obj
 0001:0004b160       ?BrushBspBoxOnPlaneSide@@YAHABVVector@@0PAUdplane_t@@@Z 0044c160 f   brushbsp.obj
 0001:0004b290       ?BrushFromBounds@@YAPAUbspbrush_t@@AAVVector@@0@Z 0044c290 f   brushbsp.obj
 0001:0004b380       ?BrushMostlyOnSide@@YAHPAUbspbrush_t@@PAUplane_t@@@Z 0044c380 f   brushbsp.obj
 0001:0004b430       ?BrushVolume@@YAMPAUbspbrush_t@@@Z 0044c430 f   brushbsp.obj
 0001:0004b530       ?BuildTree_r@@YAPAUnode_t@@PAU1@PAUbspbrush_t@@@Z 0044c530 f   brushbsp.obj
 0001:0004b790       ?CheckPlaneAgainstParents@@YAXHPAUnode_t@@@Z 0044c790 f   brushbsp.obj
 0001:0004b7d0       ?CheckPlaneAgainstVolume@@YAHHPAUnode_t@@@Z 0044c7d0 f   brushbsp.obj
 0001:0004b830       ?CopyBrush@@YAPAUbspbrush_t@@PAU1@@Z 0044c830 f   brushbsp.obj
 0001:0004b8d0       ?CountBrushList@@YAHPAUbspbrush_t@@@Z 0044c8d0 f   brushbsp.obj
 0001:0004b8f0       ?CreateBrushWindings@@YAXPAUbspbrush_t@@@Z 0044c8f0 f   brushbsp.obj
 0001:0004bb40       ?DrawBrushList@@YAXPAUbspbrush_t@@PAUnode_t@@@Z 0044cb40 f   brushbsp.obj
 0001:0004bba0       ?FindBrushInTree@@YAXPAUnode_t@@H@Z 0044cba0 f   brushbsp.obj
 0001:0004bc00       ?FreeBrush@@YAXPAUbspbrush_t@@@Z 0044cc00 f   brushbsp.obj
 0001:0004bc50       ?FreeBrushList@@YAXPAUbspbrush_t@@@Z 0044cc50 f   brushbsp.obj
 0001:0004bcb0       ?LeafNode@@YAXPAUnode_t@@PAUbspbrush_t@@@Z 0044ccb0 f   brushbsp.obj
 0001:0004bd30       ?PointInLeaf@@YAPAUnode_t@@PAU1@AAVVector@@@Z 0044cd30 f   brushbsp.obj
 0001:0004bdb0       ?PointInsideBrush@@YA?AVVector@@PAUbspbrush_t@@@Z 0044cdb0 f   brushbsp.obj
 0001:0004be80       ?PrintBrush@@YAXPAUbspbrush_t@@@Z 0044ce80 f   brushbsp.obj
 0001:0004bed0       ?QuickTestBrushToPlanenum@@YAHPAUbspbrush_t@@HPAH@Z 0044ced0 f   brushbsp.obj
 0001:0004c080       ?RemoveAreaPortalBrushes_R@@YAXPAUnode_t@@@Z 0044d080 f   brushbsp.obj
 0001:0004c0d0       ?SelectSplitSide@@YAPAUside_t@@PAUbspbrush_t@@PAUnode_t@@@Z 0044d0d0 f   brushbsp.obj
 0001:0004c3c0       ?SplitBrush@@YAXPAUbspbrush_t@@HPAPAU1@1@Z 0044d3c0 f   brushbsp.obj
 0001:0004cc40       ?SplitBrushList@@YAXPAUbspbrush_t@@PAUnode_t@@PAPAU1@2@Z 0044dc40 f   brushbsp.obj
 0001:0004cd30       ?TestBrushToPlanenum@@YAHPAUbspbrush_t@@HPAH11@Z 0044dd30 f   brushbsp.obj
 0001:0004d050       ?WindingIsHuge@@YAHPAUwinding_t@@@Z 0044e050 f   brushbsp.obj
 0001:0004d0b0       ?WindingIsTiny@@YAHPAUwinding_t@@@Z 0044e0b0 f   brushbsp.obj
 0001:0004d170       ?WriteBrushList@@YAXPADPAUbspbrush_t@@H@Z 0044e170 f   brushbsp.obj
 0001:0004d200       ?AddBrushListToTail@@YAPAUbspbrush_t@@PAU1@0@Z 0044e200 f   csg.obj
 0001:0004d230       ?BrushGE@@YAHPAUbspbrush_t@@0@Z 0044e230 f   csg.obj
 0001:0004d290       ?BrushesDisjoint@@YAHPAUbspbrush_t@@0@Z 0044e290 f   csg.obj
 0001:0004d330       ?ChopBrushes@@YAPAUbspbrush_t@@PAU1@@Z 0044e330 f   csg.obj
 0001:0004d670       ?ClipBrushToBox@@YAPAUbspbrush_t@@PAU1@ABVVector@@1@Z 0044e670 f   csg.obj
 0001:0004d840       ?CopyMatchingTexinfos@@YAXPAUside_t@@HPBUbspbrush_t@@@Z 0044e840 f   csg.obj
 0001:0004db70       ?CullList@@YAPAUbspbrush_t@@PAU1@0@Z 0044eb70 f   csg.obj
 0001:0004dbb0       ?FixupAreaportalWaterBrushes@@YAXPAUbspbrush_t@@@Z 0044ebb0 f   csg.obj
 0001:0004dce0       ?IntersectBrush@@YAPAUbspbrush_t@@PAU1@0@Z 0044ece0 f   csg.obj
 0001:0004dd70       ?MakeBspBrushList@@YAPAUbspbrush_t@@HHABVVector@@0H@Z 0044ed70 f   csg.obj
 0001:0004ddf0       ?MakeBspBrushList@@YAPAUbspbrush_t@@PAPAUmapbrush_t@@HABVVector@@1@Z 0044edf0 f   csg.obj
 0001:0004de40       ?PrintBrushContents@@YAXH@Z 0044ee40 f   csg.obj
 0001:0004de80       ?PrintBrushContentsToString@@YAXHPADH@Z 0044ee80 f   csg.obj
 0001:0004e110       ?SplitBrush2@@YAXPAUbspbrush_t@@HPAPAU1@1@Z 0044f110 f   csg.obj
 0001:0004e120       ?SubtractBrush@@YAPAUbspbrush_t@@PAU1@0@Z 0044f120 f   csg.obj
 0001:0004e1c0       ?WriteBrushMap@@YAXPADPAUbspbrush_t@@@Z 0044f1c0 f   csg.obj
 0001:0004e340       ??0?$CUtlMemory@PAD@@QAE@HH@Z 0044f340 f i cubemap.obj
 0001:0004e380       ??0?$CUtlMemory@UNode_t@?$CUtlRBTree@UCubemapInfo_t@@GP6A_NABU1@0@Z@@@@QAE@HH@Z 0044f380 f i cubemap.obj
 0001:0004e3c0       ??0?$CUtlMemory@UentitySideList_t@@@@QAE@HH@Z 0044f3c0 f i cubemap.obj
 0001:0004e400       ??0?$CUtlMemory@V?$CUtlVector@HV?$CUtlMemory@H@@@@@@QAE@HH@Z 0044f400 f i cubemap.obj
 0001:0004e440       ??0MaterialPatchInfo_t@@QAE@XZ 0044f440 f i cubemap.obj
 0001:0004e460       ??1?$CUtlMemory@PAD@@QAE@XZ 0044f460 f i cubemap.obj
 0001:0004e490       ??1?$CUtlMemory@UNode_t@?$CUtlRBTree@UCubemapInfo_t@@GP6A_NABU1@0@Z@@@@QAE@XZ 0044f490 f i cubemap.obj
 0001:0004e4c0       ??1?$CUtlMemory@UentitySideList_t@@@@QAE@XZ 0044f4c0 f i cubemap.obj
 0001:0004e4f0       ??1?$CUtlMemory@V?$CUtlVector@HV?$CUtlMemory@H@@@@@@QAE@XZ 0044f4f0 f i cubemap.obj
 0001:0004e520       ?AddToTail@?$CUtlVector@PADV?$CUtlMemory@PAD@@@@QAEHXZ 0044f520 f i cubemap.obj
 0001:0004e5b0       ?CreateDefaultCubemaps@@YAX_N@Z 0044f5b0 f   cubemap.obj
 0001:0004e960       ?Cubemap_AddUnreferencedCubemaps@@YAXXZ 0044f960 f   cubemap.obj
 0001:0004eb50       ?Cubemap_AttachDefaultCubemapToSpecularSides@@YAXXZ 0044fb50 f   cubemap.obj
 0001:0004ed00       ?Cubemap_ClearUnusedTexInfos@@YAXXZ 0044fd00 f   cubemap.obj
 0001:0004ed10       ?Cubemap_CreateDefaultCubemaps@@YAXXZ 0044fd10 f   cubemap.obj
 0001:0004f0c0       ?Cubemap_FindClosestCubemap@@YAHABVVector@@PAUside_t@@@Z 004500c0 f   cubemap.obj
 0001:0004f350       ?Cubemap_FixupBrushSidesMaterials@@YAXXZ 00450350 f   cubemap.obj
 0001:0004f430       ?Cubemap_InitCubemapSideData@@YAXXZ 00450430 f   cubemap.obj
 0001:0004f740       ?Cubemap_InsertSample@@YAXABVVector@@H@Z 00450740 f   cubemap.obj
 0001:0004f780       ?Cubemap_ResetCubemapSideData@@YAXXZ 00450780 f   cubemap.obj
 0001:0004f7b0       ?Cubemap_SaveBrushSides@@YAXPBD@Z 004507b0 f   cubemap.obj
 0001:0004f9c0       ?DoesMaterialOrDependentsUseEnvmap@@YA_NPBD@Z 004509c0 f   cubemap.obj
 0001:0004fa20       ?Find@?$CUtlRBTree@UCubemapInfo_t@@GP6A_NABU1@0@Z@@QBEGABUCubemapInfo_t@@@Z 00450a20 f i cubemap.obj
 0001:0004fb30       ?FindInsertionPosition@?$CUtlRBTree@UCubemapInfo_t@@GP6A_NABU1@0@Z@@IAEXABUCubemapInfo_t@@AAGAA_N@Z 00450b30 f i cubemap.obj
 0001:0004fbb0       ?Grow@?$CUtlMemory@PAD@@QAEXH@Z 00450bb0 f i cubemap.obj
 0001:0004fc20       ?Grow@?$CUtlMemory@UNode_t@?$CUtlRBTree@UCubemapInfo_t@@GP6A_NABU1@0@Z@@@@QAEXH@Z 00450c20 f i cubemap.obj
 0001:0004fc90       ?Grow@?$CUtlMemory@UentitySideList_t@@@@QAEXH@Z 00450c90 f i cubemap.obj
 0001:0004fd00       ?Grow@?$CUtlMemory@V?$CUtlVector@HV?$CUtlMemory@H@@@@@@QAEXH@Z 00450d00 f i cubemap.obj
 0001:0004fd70       ?GrowVector@?$CUtlVector@PADV?$CUtlMemory@PAD@@@@IAEXH@Z 00450d70 f i cubemap.obj
 0001:0004fe00       ?GrowVector@?$CUtlVector@UentitySideList_t@@V?$CUtlMemory@UentitySideList_t@@@@@@IAEXH@Z 00450e00 f i cubemap.obj
 0001:0004fe90       ?GrowVector@?$CUtlVector@V?$CUtlVector@HV?$CUtlMemory@H@@@@V?$CUtlMemory@V?$CUtlVector@HV?$CUtlMemory@H@@@@@@@@IAEXH@Z 00450e90 f i cubemap.obj
 0001:0004ff20       ?Insert@?$CUtlRBTree@UCubemapInfo_t@@GP6A_NABU1@0@Z@@QAEGABUCubemapInfo_t@@@Z 00450f20 f i cubemap.obj
 0001:0004ffc0       ?InsertAt@?$CUtlRBTree@UCubemapInfo_t@@GP6A_NABU1@0@Z@@IAEGG_N@Z 00450fc0 f i cubemap.obj
 0001:000500c0       ?InsertBefore@?$CUtlVector@PADV?$CUtlMemory@PAD@@@@QAEHH@Z 004510c0 f i cubemap.obj
 0001:00050160       ?InsertBefore@?$CUtlVector@Utexinfo_s@@V?$CUtlMemory@Utexinfo_s@@@@@@QAEHHABUtexinfo_s@@@Z 00451160 f i cubemap.obj
 0001:00050230       ?InsertBefore@?$CUtlVector@V?$CUtlVector@HV?$CUtlMemory@H@@@@V?$CUtlMemory@V?$CUtlVector@HV?$CUtlMemory@H@@@@@@@@QAEHH@Z 00451230 f i cubemap.obj
 0001:00050300       ?InsertRebalance@?$CUtlRBTree@UCubemapInfo_t@@GP6A_NABU1@0@Z@@IAEXG@Z 00451300 f i cubemap.obj
 0001:00050530       ?IsExternallyAllocated@?$CUtlMemory@PAD@@QBE_NXZ 00451530 f i cubemap.obj
 0001:00050540       ?IsExternallyAllocated@?$CUtlMemory@UNode_t@?$CUtlRBTree@UCubemapInfo_t@@GP6A_NABU1@0@Z@@@@QBE_NXZ 00451540 f i cubemap.obj
 0001:00050550       ?IsExternallyAllocated@?$CUtlMemory@UentitySideList_t@@@@QBE_NXZ 00451550 f i cubemap.obj
 0001:00050560       ?IsExternallyAllocated@?$CUtlMemory@V?$CUtlVector@HV?$CUtlMemory@H@@@@@@QBE_NXZ 00451560 f i cubemap.obj
 0001:00050570       ?LinkToParent@?$CUtlRBTree@UCubemapInfo_t@@GP6A_NABU1@0@Z@@IAEXGG_N@Z 00451570 f i cubemap.obj
 0001:000505f0       ?Links@?$CUtlRBTree@UCubemapInfo_t@@GP6A_NABU1@0@Z@@IBEABULinks_t@1@G@Z 004515f0 f i cubemap.obj
 0001:000508b0       ?NewNode@?$CUtlRBTree@UCubemapInfo_t@@GP6A_NABU1@0@Z@@QAEGXZ 004518b0 f i cubemap.obj
 0001:00050b30       ?Purge@?$CUtlMemory@PAD@@QAEXXZ 00451b30 f i cubemap.obj
 0001:00050b60       ?Purge@?$CUtlMemory@UNode_t@?$CUtlRBTree@UCubemapInfo_t@@GP6A_NABU1@0@Z@@@@QAEXXZ 00451b60 f i cubemap.obj
 0001:00050b90       ?Purge@?$CUtlMemory@UentitySideList_t@@@@QAEXXZ 00451b90 f i cubemap.obj
 0001:00050bc0       ?Purge@?$CUtlMemory@V?$CUtlVector@HV?$CUtlMemory@H@@@@@@QAEXXZ 00451bc0 f i cubemap.obj
 0001:00050bf0       ?Purge@?$CUtlRBTree@UCubemapInfo_t@@GP6A_NABU1@0@Z@@QAEXXZ 00451bf0 f i cubemap.obj
 0001:00050c50       ?RemoveAll@?$CUtlVector@PADV?$CUtlMemory@PAD@@@@QAEXXZ 00451c50 f i cubemap.obj
 0001:00050c60       ?RemoveAll@?$CUtlVector@UentitySideList_t@@V?$CUtlMemory@UentitySideList_t@@@@@@QAEXXZ 00451c60 f i cubemap.obj
 0001:00050c70       ?RemoveAll@?$CUtlVector@V?$CUtlVector@HV?$CUtlMemory@H@@@@V?$CUtlMemory@V?$CUtlVector@HV?$CUtlMemory@H@@@@@@@@QAEXXZ 00451c70 f i cubemap.obj
 0001:00050d10       ?RotateLeft@?$CUtlRBTree@UCubemapInfo_t@@GP6A_NABU1@0@Z@@IAEXG@Z 00451d10 f i cubemap.obj
 0001:00050e10       ?RotateRight@?$CUtlRBTree@UCubemapInfo_t@@GP6A_NABU1@0@Z@@IAEXG@Z 00451e10 f i cubemap.obj
 0001:00050f20       ?SetCount@?$CUtlVector@UentitySideList_t@@V?$CUtlMemory@UentitySideList_t@@@@@@QAEXH@Z 00451f20 f i cubemap.obj
 0001:00050fd0       ?ShiftElementsRight@?$CUtlVector@PADV?$CUtlMemory@PAD@@@@IAEXHH@Z 00451fd0 f i cubemap.obj
 0001:00051010       ?ShiftElementsRight@?$CUtlVector@UentitySideList_t@@V?$CUtlMemory@UentitySideList_t@@@@@@IAEXHH@Z 00452010 f i cubemap.obj
 0001:00051050       ?ShiftElementsRight@?$CUtlVector@V?$CUtlVector@HV?$CUtlMemory@H@@@@V?$CUtlMemory@V?$CUtlVector@HV?$CUtlMemory@H@@@@@@@@IAEXHH@Z 00452050 f i cubemap.obj
 0001:00051090       ?VTFNameToHDRVTFName@@YAXPBDPADH_N@Z 00452090 f   cubemap.obj
 0001:000510e0       ??0?$CUtlMemory@PAUbspbrush_t@@@@QAE@HH@Z 004520e0 f i detail.obj
 0001:00051120       ??1?$CUtlMemory@PAUbspbrush_t@@@@QAE@XZ 00452120 f i detail.obj
 0001:00051150       ?AddBrushToLeaf@@YAXPAUnode_t@@PAUbspbrush_t@@@Z 00452150 f   detail.obj
 0001:00051170       ?BrushBoxOverlap@@YA_NPAUbspbrush_t@@0@Z 00452170 f   detail.obj
 0001:000511c0       ?ClipFaceToBrush@@YA_NPAUface_t@@PAUbspbrush_t@@PAPAU1@@Z 004521c0 f   detail.obj
 0001:00051430       ?ComputeVisibleBrushSides@@YAPAUface_t@@PAUbspbrush_t@@@Z 00452430 f   detail.obj
 0001:00051790       ?CopyFace@@YAPAUface_t@@PAU1@@Z 00452790 f   detail.obj
 0001:000517c0       ?FilterBrushesIntoTree@@YAXPAUtree_t@@PAUbspbrush_t@@@Z 004527c0 f   detail.obj
 0001:00051850       ?FilterFacesIntoTree@@YAPAUface_t@@PAUtree_t@@PAU1@@Z 00452850 f   detail.obj
 0001:000518e0       ?FindOriginalSide@@YAPAUside_t@@PAUmapbrush_t@@PAU1@@Z 004528e0 f   detail.obj
 0001:000519b0       ?GetListOfCutBrushes@@YAHAAV?$CUtlVector@PAUbspbrush_t@@V?$CUtlMemory@PAUbspbrush_t@@@@@@PAUbspbrush_t@@1@Z 004529b0 f   detail.obj
 0001:00051af0       ?Grow@?$CUtlMemory@PAUbspbrush_t@@@@QAEXH@Z 00452af0 f i detail.obj
 0001:00051b60       ?GrowVector@?$CUtlVector@PAUbspbrush_t@@V?$CUtlMemory@PAUbspbrush_t@@@@@@IAEXH@Z 00452b60 f i detail.obj
 0001:00051bf0       ?InsertBefore@?$CUtlVector@PAUbspbrush_t@@V?$CUtlMemory@PAUbspbrush_t@@@@@@QAEHHABQAUbspbrush_t@@@Z 00452bf0 f i detail.obj
 0001:00051ca0       ?IsExternallyAllocated@?$CUtlMemory@PAUbspbrush_t@@@@QBE_NXZ 00452ca0 f i detail.obj
 0001:00051cb0       ?MakeBrushFace@@YAPAUface_t@@PAUside_t@@PAUwinding_t@@@Z 00452cb0 f   detail.obj
 0001:00051d10       ?MergeBrush_r@@YAXPAUnode_t@@PAUbspbrush_t@@@Z 00452d10 f   detail.obj
 0001:00051d90       ?MergeDetailTree@@YAPAUface_t@@PAUtree_t@@HH@Z 00452d90 f   detail.obj
 0001:00052050       ?MergeFace_r@@YA_NPAUnode_t@@PAUface_t@@1@Z 00453050 f   detail.obj
 0001:000521f0       ?Purge@?$CUtlMemory@PAUbspbrush_t@@@@QAEXXZ 004531f0 f i detail.obj
 0001:00052220       ?RemoveAll@?$CUtlVector@PAUbspbrush_t@@V?$CUtlMemory@PAUbspbrush_t@@@@@@QAEXXZ 00453220 f i detail.obj
 0001:00052230       ?ShiftElementsRight@?$CUtlVector@PAUbspbrush_t@@V?$CUtlMemory@PAUbspbrush_t@@@@@@IAEXHH@Z 00453230 f i detail.obj
 0001:00052270       ?TryMergeFaceList@@YAXPAPAUface_t@@@Z 00453270 f   detail.obj
 0001:00052390       ??$PutType@H@CUtlBuffer@@IAEXHPBD@Z 00453390 f i detailObjects.obj
 0001:00052400       ??$PutTypeBin@H@CUtlBuffer@@IAEXH@Z 00453400 f i detailObjects.obj
 0001:00052450       ??0?$CUtlMemory@UDetailModel_t@@@@QAE@HH@Z 00453450 f i detailObjects.obj
 0001:00052490       ??0?$CUtlMemory@UDetailObjectDictLump_t@@@@QAE@HH@Z 00453490 f i detailObjects.obj
 0001:000524d0       ??0?$CUtlMemory@UDetailObjectGroup_t@@@@QAE@HH@Z 004534d0 f i detailObjects.obj
 0001:00052510       ??0?$CUtlMemory@UDetailObjectLump_t@@@@QAE@HH@Z 00453510 f i detailObjects.obj
 0001:00052550       ??0?$CUtlMemory@UDetailObject_t@@@@QAE@HH@Z 00453550 f i detailObjects.obj
 0001:00052590       ??0?$CUtlMemory@UDetailSpriteDictLump_t@@@@QAE@HH@Z 00453590 f i detailObjects.obj
 0001:000525d0       ??0?$CUtlMemory@UNode_t@?$CUtlRBTree@UStaticPropLookup_t@@GP6A_NABU1@0@Z@@@@QAE@HH@Z 004535d0 f i detailObjects.obj
 0001:00052610       ??1?$CUtlMemory@UDetailModel_t@@@@QAE@XZ 00453610 f i detailObjects.obj
 0001:00052640       ??1?$CUtlMemory@UDetailObjectDictLump_t@@@@QAE@XZ 00453640 f i detailObjects.obj
 0001:00052670       ??1?$CUtlMemory@UDetailObjectGroup_t@@@@QAE@XZ 00453670 f i detailObjects.obj
 0001:000526a0       ??1?$CUtlMemory@UDetailObjectLump_t@@@@QAE@XZ 004536a0 f i detailObjects.obj
 0001:000526d0       ??1?$CUtlMemory@UDetailObject_t@@@@QAE@XZ 004536d0 f i detailObjects.obj
 0001:00052700       ??1?$CUtlMemory@UDetailSpriteDictLump_t@@@@QAE@XZ 00453700 f i detailObjects.obj
 0001:00052730       ??1?$CUtlMemory@UNode_t@?$CUtlRBTree@UStaticPropLookup_t@@GP6A_NABU1@0@Z@@@@QAE@XZ 00453730 f i detailObjects.obj
 0001:00052760       ??1?$CUtlVector@UDetailModel_t@@V?$CUtlMemory@UDetailModel_t@@@@@@QAE@XZ 00453760 f i detailObjects.obj
 0001:000527c0       ??1?$CUtlVector@UDetailObjectGroup_t@@V?$CUtlMemory@UDetailObjectGroup_t@@@@@@QAE@XZ 004537c0 f i detailObjects.obj
 0001:00052b60       ?AddToTail@?$CUtlVector@UDetailObjectLump_t@@V?$CUtlMemory@UDetailObjectLump_t@@@@@@QAEHXZ 00453b60 f i detailObjects.obj
 0001:00052c70       ?EmitDetailModels@@YAXXZ   00453c70 f   detailObjects.obj
 0001:00053050       ?EmitDetailObjects@@YAXXZ  00454050 f   detailObjects.obj
 0001:00053820       ?Find@?$CUtlRBTree@UStaticPropLookup_t@@GP6A_NABU1@0@Z@@QBEGABUStaticPropLookup_t@@@Z 00454820 f i detailObjects.obj
 0001:000538b0       ?Find@?$CUtlVector@UDetailObject_t@@V?$CUtlMemory@UDetailObject_t@@@@@@QBEHABUDetailObject_t@@@Z 004548b0 f i detailObjects.obj
 0001:000538e0       ?FindInsertionPosition@?$CUtlRBTree@UStaticPropLookup_t@@GP6A_NABU1@0@Z@@IAEXABUStaticPropLookup_t@@AAGAA_N@Z 004548e0 f i detailObjects.obj
 0001:00053960       ?Grow@?$CUtlMemory@UDetailModel_t@@@@QAEXH@Z 00454960 f i detailObjects.obj
 0001:000539d0       ?Grow@?$CUtlMemory@UDetailObjectDictLump_t@@@@QAEXH@Z 004549d0 f i detailObjects.obj
 0001:00053a40       ?Grow@?$CUtlMemory@UDetailObjectGroup_t@@@@QAEXH@Z 00454a40 f i detailObjects.obj
 0001:00053ab0       ?Grow@?$CUtlMemory@UDetailObjectLump_t@@@@QAEXH@Z 00454ab0 f i detailObjects.obj
 0001:00053b20       ?Grow@?$CUtlMemory@UDetailObject_t@@@@QAEXH@Z 00454b20 f i detailObjects.obj
 0001:00053ba0       ?Grow@?$CUtlMemory@UDetailSpriteDictLump_t@@@@QAEXH@Z 00454ba0 f i detailObjects.obj
 0001:00053c10       ?Grow@?$CUtlMemory@UNode_t@?$CUtlRBTree@UStaticPropLookup_t@@GP6A_NABU1@0@Z@@@@QAEXH@Z 00454c10 f i detailObjects.obj
 0001:00053c80       ?GrowVector@?$CUtlVector@UDetailModel_t@@V?$CUtlMemory@UDetailModel_t@@@@@@IAEXH@Z 00454c80 f i detailObjects.obj
 0001:00053d10       ?GrowVector@?$CUtlVector@UDetailObjectDictLump_t@@V?$CUtlMemory@UDetailObjectDictLump_t@@@@@@IAEXH@Z 00454d10 f i detailObjects.obj
 0001:00053da0       ?GrowVector@?$CUtlVector@UDetailObjectGroup_t@@V?$CUtlMemory@UDetailObjectGroup_t@@@@@@IAEXH@Z 00454da0 f i detailObjects.obj
 0001:00053e30       ?GrowVector@?$CUtlVector@UDetailObjectLump_t@@V?$CUtlMemory@UDetailObjectLump_t@@@@@@IAEXH@Z 00454e30 f i detailObjects.obj
 0001:00053ec0       ?GrowVector@?$CUtlVector@UDetailObject_t@@V?$CUtlMemory@UDetailObject_t@@@@@@IAEXH@Z 00454ec0 f i detailObjects.obj
 0001:00053f50       ?GrowVector@?$CUtlVector@UDetailSpriteDictLump_t@@V?$CUtlMemory@UDetailSpriteDictLump_t@@@@@@IAEXH@Z 00454f50 f i detailObjects.obj
 0001:00053fe0       ?Insert@?$CUtlRBTree@UStaticPropLookup_t@@GP6A_NABU1@0@Z@@QAEGABUStaticPropLookup_t@@@Z 00454fe0 f i detailObjects.obj
 0001:00054080       ?InsertAt@?$CUtlRBTree@UStaticPropLookup_t@@GP6A_NABU1@0@Z@@IAEGG_N@Z 00455080 f i detailObjects.obj
 0001:00054190       ?InsertBefore@?$CUtlVector@UDetailModel_t@@V?$CUtlMemory@UDetailModel_t@@@@@@QAEHH@Z 00455190 f i detailObjects.obj
 0001:00054250       ?InsertBefore@?$CUtlVector@UDetailObjectDictLump_t@@V?$CUtlMemory@UDetailObjectDictLump_t@@@@@@QAEHHABUDetailObjectDictLump_t@@@Z 00455250 f i detailObjects.obj
 0001:00054300       ?InsertBefore@?$CUtlVector@UDetailObjectGroup_t@@V?$CUtlMemory@UDetailObjectGroup_t@@@@@@QAEHH@Z 00455300 f i detailObjects.obj
 0001:000543d0       ?InsertBefore@?$CUtlVector@UDetailObjectLump_t@@V?$CUtlMemory@UDetailObjectLump_t@@@@@@QAEHH@Z 004553d0 f i detailObjects.obj
 0001:00054470       ?InsertBefore@?$CUtlVector@UDetailObject_t@@V?$CUtlMemory@UDetailObject_t@@@@@@QAEHH@Z 00455470 f i detailObjects.obj
 0001:00054560       ?InsertBefore@?$CUtlVector@UDetailSpriteDictLump_t@@V?$CUtlMemory@UDetailSpriteDictLump_t@@@@@@QAEHHABUDetailSpriteDictLump_t@@@Z 00455560 f i detailObjects.obj
 0001:00054630       ?InsertRebalance@?$CUtlRBTree@UStaticPropLookup_t@@GP6A_NABU1@0@Z@@IAEXG@Z 00455630 f i detailObjects.obj
 0001:00054830       ?IsExternallyAllocated@?$CUtlMemory@UDetailModel_t@@@@QBE_NXZ 00455830 f i detailObjects.obj
 0001:00054840       ?IsExternallyAllocated@?$CUtlMemory@UDetailObjectDictLump_t@@@@QBE_NXZ 00455840 f i detailObjects.obj
 0001:00054850       ?IsExternallyAllocated@?$CUtlMemory@UDetailObjectGroup_t@@@@QBE_NXZ 00455850 f i detailObjects.obj
 0001:00054860       ?IsExternallyAllocated@?$CUtlMemory@UDetailObjectLump_t@@@@QBE_NXZ 00455860 f i detailObjects.obj
 0001:00054870       ?IsExternallyAllocated@?$CUtlMemory@UDetailObject_t@@@@QBE_NXZ 00455870 f i detailObjects.obj
 0001:00054880       ?IsExternallyAllocated@?$CUtlMemory@UDetailSpriteDictLump_t@@@@QBE_NXZ 00455880 f i detailObjects.obj
 0001:00054890       ?IsExternallyAllocated@?$CUtlMemory@UNode_t@?$CUtlRBTree@UStaticPropLookup_t@@GP6A_NABU1@0@Z@@@@QBE_NXZ 00455890 f i detailObjects.obj
 0001:00054a40       ?LinkToParent@?$CUtlRBTree@UStaticPropLookup_t@@GP6A_NABU1@0@Z@@IAEXGG_N@Z 00455a40 f i detailObjects.obj
 0001:00054ac0       ?Links@?$CUtlRBTree@UStaticPropLookup_t@@GP6A_NABU1@0@Z@@IBEABULinks_t@1@G@Z 00455ac0 f i detailObjects.obj
 0001:00054b50       ?LoadEmitDetailObjectDictionary@@YAXPBD@Z 00455b50 f   detailObjects.obj
 0001:00054d00       ?NewNode@?$CUtlRBTree@UStaticPropLookup_t@@GP6A_NABU1@0@Z@@QAEGXZ 00455d00 f i detailObjects.obj
 0001:00055870       ?Purge@?$CUtlMemory@UDetailModel_t@@@@QAEXXZ 00456870 f i detailObjects.obj
 0001:000558a0       ?Purge@?$CUtlMemory@UDetailObjectDictLump_t@@@@QAEXXZ 004568a0 f i detailObjects.obj
 0001:000558d0       ?Purge@?$CUtlMemory@UDetailObjectGroup_t@@@@QAEXXZ 004568d0 f i detailObjects.obj
 0001:00055900       ?Purge@?$CUtlMemory@UDetailObjectLump_t@@@@QAEXXZ 00456900 f i detailObjects.obj
 0001:00055930       ?Purge@?$CUtlMemory@UDetailObject_t@@@@QAEXXZ 00456930 f i detailObjects.obj
 0001:00055960       ?Purge@?$CUtlMemory@UDetailSpriteDictLump_t@@@@QAEXXZ 00456960 f i detailObjects.obj
 0001:00055990       ?Purge@?$CUtlMemory@UNode_t@?$CUtlRBTree@UStaticPropLookup_t@@GP6A_NABU1@0@Z@@@@QAEXXZ 00456990 f i detailObjects.obj
 0001:000559c0       ?Purge@?$CUtlRBTree@UStaticPropLookup_t@@GP6A_NABU1@0@Z@@QAEXXZ 004569c0 f i detailObjects.obj
 0001:00055a20       ?PutInt@CUtlBuffer@@QAEXH@Z 00456a20 f i detailObjects.obj
 0001:00055a90       ?PutLittleEndianData@CUtlBuffer@@IAEXHPAX@Z 00456a90 f i detailObjects.obj
 0001:00055ad0       ?RemoveAll@?$CUtlVector@UDetailModel_t@@V?$CUtlMemory@UDetailModel_t@@@@@@QAEXXZ 00456ad0 f i detailObjects.obj
 0001:00055ae0       ?RemoveAll@?$CUtlVector@UDetailObjectDictLump_t@@V?$CUtlMemory@UDetailObjectDictLump_t@@@@@@QAEXXZ 00456ae0 f i detailObjects.obj
 0001:00055af0       ?RemoveAll@?$CUtlVector@UDetailObjectGroup_t@@V?$CUtlMemory@UDetailObjectGroup_t@@@@@@QAEXXZ 00456af0 f i detailObjects.obj
 0001:00055b30       ?RemoveAll@?$CUtlVector@UDetailObjectLump_t@@V?$CUtlMemory@UDetailObjectLump_t@@@@@@QAEXXZ 00456b30 f i detailObjects.obj
 0001:00055b40       ?RemoveAll@?$CUtlVector@UDetailObject_t@@V?$CUtlMemory@UDetailObject_t@@@@@@QAEXXZ 00456b40 f i detailObjects.obj
 0001:00055b80       ?RemoveAll@?$CUtlVector@UDetailSpriteDictLump_t@@V?$CUtlMemory@UDetailSpriteDictLump_t@@@@@@QAEXXZ 00456b80 f i detailObjects.obj
 0001:00055b90       ?RotateLeft@?$CUtlRBTree@UStaticPropLookup_t@@GP6A_NABU1@0@Z@@IAEXG@Z 00456b90 f i detailObjects.obj
 0001:00055ca0       ?RotateRight@?$CUtlRBTree@UStaticPropLookup_t@@GP6A_NABU1@0@Z@@IAEXG@Z 00456ca0 f i detailObjects.obj
 0001:00055db0       ?ShiftElementsRight@?$CUtlVector@UDetailModel_t@@V?$CUtlMemory@UDetailModel_t@@@@@@IAEXHH@Z 00456db0 f i detailObjects.obj
 0001:00055e00       ?ShiftElementsRight@?$CUtlVector@UDetailObjectDictLump_t@@V?$CUtlMemory@UDetailObjectDictLump_t@@@@@@IAEXHH@Z 00456e00 f i detailObjects.obj
 0001:00055e40       ?ShiftElementsRight@?$CUtlVector@UDetailObjectGroup_t@@V?$CUtlMemory@UDetailObjectGroup_t@@@@@@IAEXHH@Z 00456e40 f i detailObjects.obj
 0001:00055e80       ?ShiftElementsRight@?$CUtlVector@UDetailObjectLump_t@@V?$CUtlMemory@UDetailObjectLump_t@@@@@@IAEXHH@Z 00456e80 f i detailObjects.obj
 0001:00055ec0       ?ShiftElementsRight@?$CUtlVector@UDetailObject_t@@V?$CUtlMemory@UDetailObject_t@@@@@@IAEXHH@Z 00456ec0 f i detailObjects.obj
 0001:00055f20       ?ShiftElementsRight@?$CUtlVector@UDetailSpriteDictLump_t@@V?$CUtlMemory@UDetailSpriteDictLump_t@@@@@@IAEXHH@Z 00456f20 f i detailObjects.obj
 0001:00055fb0       ??$TesselateDisplacementNode@VCVBSPTesselateHelper@@@@YAXPAVCVBSPTesselateHelper@@ABVCVertIndex@@HPAH@Z 00456fb0 f i disp_ivp.obj
 0001:00056150       ??$TesselateDisplacement_R@VCVBSPTesselateHelper@@@@YAXPAVCVBSPTesselateHelper@@ABVCVertIndex@@HH@Z 00457150 f i disp_ivp.obj
 0001:00056260       ??0?$CUtlMemory@G@@QAE@HH@Z 00457260 f i disp_ivp.obj
 0001:000562a0       ??0?$CUtlMemory@Udisp_grid_t@@@@QAE@HH@Z 004572a0 f i disp_ivp.obj
 0001:000562e0       ??1?$CUtlMemory@G@@QAE@XZ  004572e0 f i disp_ivp.obj
 0001:00056310       ??1?$CUtlMemory@Udisp_grid_t@@@@QAE@XZ 00457310 f i disp_ivp.obj
 0001:00056340       ?AddToGrid@@YAXHH@Z        00457340 f   disp_ivp.obj
 0001:000563f0       ?AddToTail@?$CUtlVector@GV?$CUtlMemory@G@@@@QAEHABG@Z 004573f0 f i disp_ivp.obj
 0001:000564a0       ?Disp_AddCollisionModels@@YAXAAV?$CUtlVector@PAVCPhysCollisionEntry@@V?$CUtlMemory@PAVCPhysCollisionEntry@@@@@@PAUdmodel_t@@H@Z 004574a0 f   disp_ivp.obj
 0001:00056ad0       ?Disp_GridIndex@@YAHPAVCCoreDispInfo@@@Z 00457ad0 f   disp_ivp.obj
 0001:00056b60       ?FindOrInsertGrid@@YAAAUdisp_grid_t@@H@Z 00457b60 f   disp_ivp.obj
 0001:00056c80       ?GetMatIDFromDisp@@YAPAXPAUmapdispinfo_t@@@Z 00457c80 f   disp_ivp.obj
 0001:00056cc0       ?Grow@?$CUtlMemory@G@@QAEXH@Z 00457cc0 f i disp_ivp.obj
 0001:00056d30       ?Grow@?$CUtlMemory@PAVCPhysCollisionEntry@@@@QAEXH@Z 00457d30 f i disp_ivp.obj
 0001:00056da0       ?Grow@?$CUtlMemory@Udisp_grid_t@@@@QAEXH@Z 00457da0 f i disp_ivp.obj
 0001:00056e10       ?GrowVector@?$CUtlVector@GV?$CUtlMemory@G@@@@IAEXH@Z 00457e10 f i disp_ivp.obj
 0001:00056ea0       ?GrowVector@?$CUtlVector@PAVCPhysCollisionEntry@@V?$CUtlMemory@PAVCPhysCollisionEntry@@@@@@IAEXH@Z 00457ea0 f i disp_ivp.obj
 0001:00056f30       ?GrowVector@?$CUtlVector@Udisp_grid_t@@V?$CUtlMemory@Udisp_grid_t@@@@@@IAEXH@Z 00457f30 f i disp_ivp.obj
 0001:00056fc0       ?InsertBefore@?$CUtlVector@GV?$CUtlMemory@G@@@@QAEHHABG@Z 00457fc0 f i disp_ivp.obj
 0001:00057070       ?InsertBefore@?$CUtlVector@PAVCPhysCollisionEntry@@V?$CUtlMemory@PAVCPhysCollisionEntry@@@@@@QAEHHABQAVCPhysCollisionEntry@@@Z 00458070 f i disp_ivp.obj
 0001:00057120       ?InsertBefore@?$CUtlVector@Udisp_grid_t@@V?$CUtlMemory@Udisp_grid_t@@@@@@QAEHH@Z 00458120 f i disp_ivp.obj
 0001:000571f0       ?IsExternallyAllocated@?$CUtlMemory@G@@QBE_NXZ 004581f0 f i disp_ivp.obj
 0001:00057200       ?IsExternallyAllocated@?$CUtlMemory@PAVCPhysCollisionEntry@@@@QBE_NXZ 00458200 f i disp_ivp.obj
 0001:00057210       ?IsExternallyAllocated@?$CUtlMemory@Udisp_grid_t@@@@QBE_NXZ 00458210 f i disp_ivp.obj
 0001:00057220       ?Purge@?$CUtlMemory@G@@QAEXXZ 00458220 f i disp_ivp.obj
 0001:00057250       ?Purge@?$CUtlMemory@Udisp_grid_t@@@@QAEXXZ 00458250 f i disp_ivp.obj
 0001:00057280       ?RemoveAll@?$CUtlVector@GV?$CUtlMemory@G@@@@QAEXXZ 00458280 f i disp_ivp.obj
 0001:00057290       ?RemoveAll@?$CUtlVector@Udisp_grid_t@@V?$CUtlMemory@Udisp_grid_t@@@@@@QAEXXZ 00458290 f i disp_ivp.obj
 0001:000572d0       ?ShiftElementsRight@?$CUtlVector@GV?$CUtlMemory@G@@@@IAEXHH@Z 004582d0 f i disp_ivp.obj
 0001:00057310       ?ShiftElementsRight@?$CUtlVector@PAVCPhysCollisionEntry@@V?$CUtlMemory@PAVCPhysCollisionEntry@@@@@@IAEXHH@Z 00458310 f i disp_ivp.obj
 0001:00057350       ?ShiftElementsRight@?$CUtlVector@Udisp_grid_t@@V?$CUtlMemory@Udisp_grid_t@@@@@@IAEXHH@Z 00458350 f i disp_ivp.obj
 0001:00057390       ??0?$CUtlMemory@PAUdface_t@@@@QAE@HH@Z 00458390 f i disp_vbsp.obj
 0001:000573d0       ??0?$CUtlMemory@PAVCCoreDispInfo@@@@QAE@HH@Z 004583d0 f i disp_vbsp.obj
 0001:00057410       ??0?$CUtlMemory@VVector2D@@@@QAE@HH@Z 00458410 f i disp_vbsp.obj
 0001:00057450       ??0?$CUtlMemory@_N@@QAE@HH@Z 00458450 f i disp_vbsp.obj
 0001:00057490       ??0mapdispinfo_t@@QAE@XZ   00458490 f i disp_vbsp.obj
 0001:000574a0       ??1?$CUtlMemory@PAUdface_t@@@@QAE@XZ 004584a0 f i disp_vbsp.obj
 0001:000574d0       ??1?$CUtlMemory@PAVCCoreDispInfo@@@@QAE@XZ 004584d0 f i disp_vbsp.obj
 0001:00057500       ??1?$CUtlMemory@VVector2D@@@@QAE@XZ 00458500 f i disp_vbsp.obj
 0001:00057530       ??1?$CUtlMemory@_N@@QAE@XZ 00458530 f i disp_vbsp.obj
 0001:00057560       ?CalculateLightmapSamplePositions@@YAXPAVCCoreDispInfo@@PBUdface_t@@AAV?$CUtlVector@EV?$CUtlMemory@E@@@@@Z 00458560 f   disp_vbsp.obj
 0001:00057b10       ?ComputeDispInfoBounds@@YAXHAAVVector@@0@Z 00458b10 f   disp_vbsp.obj
 0001:00057bb0       ?DispGetFaceInfo@@YAXPAUmapbrush_t@@@Z 00458bb0 f   disp_vbsp.obj
 0001:00057cb0       ?DispMapToCoreDispInfo@@YAXPAUmapdispinfo_t@@PAVCCoreDispInfo@@PAUdface_t@@@Z 00458cb0 f   disp_vbsp.obj
 0001:000581f0       ?EmitDispLMAlphaAndNeighbors@@YAXXZ 004591f0 f   disp_vbsp.obj
 0001:00058730       ?EmitInitialDispInfos@@YAXXZ 00459730 f   disp_vbsp.obj
 0001:00058ac0       ?ExportAllowedVertLists@@YAXPAPAVCCoreDispInfo@@PAVddispinfo_t@@H@Z 00459ac0 f   disp_vbsp.obj
 0001:00058b80       ?ExportCoreDispAllowedVertList@@YAXPBVCCoreDispInfo@@PAVddispinfo_t@@@Z 00459b80 f   disp_vbsp.obj
 0001:00058c10       ?ExportCoreDispNeighborData@@YAXPBVCCoreDispInfo@@PAVddispinfo_t@@@Z 00459c10 f   disp_vbsp.obj
 0001:00058ce0       ?ExportNeighborData@@YAXPAPAVCCoreDispInfo@@PAVddispinfo_t@@H@Z 00459ce0 f   disp_vbsp.obj
 0001:00058e20       ?FindEnclosingTri@@YA_NABVVector2D@@AAV?$CUtlVector@VVector2D@@V?$CUtlMemory@VVector2D@@@@@@AAV?$CUtlVector@GV?$CUtlMemory@G@@@@PAHQAM@Z 00459e20 f   disp_vbsp.obj
 0001:00058fc0       ?FindTriIndexMapByUV@@YA_NPAVCCoreDispInfo@@ABVVector2D@@AAHQAM@Z 00459fc0 f   disp_vbsp.obj
 0001:00059190       ?GetBarycentricCoordsFromLightmapCoords@@YA_NQAVVector2D@@ABV1@QAM@Z 0045a190 f   disp_vbsp.obj
 0001:000592d0       ?GetDispInfoEntityNum@@YAHPAUmapdispinfo_t@@@Z 0045a2d0 f   disp_vbsp.obj
 0001:000592e0       ?Grow@?$CUtlMemory@PAUdface_t@@@@QAEXH@Z 0045a2e0 f i disp_vbsp.obj
 0001:00059350       ?Grow@?$CUtlMemory@PAVCCoreDispInfo@@@@QAEXH@Z 0045a350 f i disp_vbsp.obj
 0001:000593c0       ?Grow@?$CUtlMemory@VVector2D@@@@QAEXH@Z 0045a3c0 f i disp_vbsp.obj
 0001:00059430       ?Grow@?$CUtlMemory@_N@@QAEXH@Z 0045a430 f i disp_vbsp.obj
 0001:000594a0       ?GrowVector@?$CUtlVector@PAUdface_t@@V?$CUtlMemory@PAUdface_t@@@@@@IAEXH@Z 0045a4a0 f i disp_vbsp.obj
 0001:00059530       ?GrowVector@?$CUtlVector@PAVCCoreDispInfo@@V?$CUtlMemory@PAVCCoreDispInfo@@@@@@IAEXH@Z 0045a530 f i disp_vbsp.obj
 0001:000595c0       ?GrowVector@?$CUtlVector@VVector2D@@V?$CUtlMemory@VVector2D@@@@@@IAEXH@Z 0045a5c0 f i disp_vbsp.obj
 0001:00059650       ?GrowVector@?$CUtlVector@_NV?$CUtlMemory@_N@@@@IAEXH@Z 0045a650 f i disp_vbsp.obj
 0001:000596e0       ?HasDispInfo@@YA_NPAUmapbrush_t@@@Z 0045a6e0 f   disp_vbsp.obj
 0001:00059710       ?InsertBefore@?$CUtlVector@EV?$CUtlMemory@E@@@@QAEHHABE@Z 0045a710 f i disp_vbsp.obj
 0001:000597b0       ?InsertBefore@?$CUtlVector@PAVCCoreDispInfo@@V?$CUtlMemory@PAVCCoreDispInfo@@@@@@QAEHH@Z 0045a7b0 f i disp_vbsp.obj
 0001:00059850       ?InsertMultipleBefore@?$CUtlVector@VVector2D@@V?$CUtlMemory@VVector2D@@@@@@QAEHHHPBVVector2D@@@Z 0045a850 f i disp_vbsp.obj
 0001:000599e0       ?IsExternallyAllocated@?$CUtlMemory@PAUdface_t@@@@QBE_NXZ 0045a9e0 f i disp_vbsp.obj
 0001:000599f0       ?IsExternallyAllocated@?$CUtlMemory@PAVCCoreDispInfo@@@@QBE_NXZ 0045a9f0 f i disp_vbsp.obj
 0001:00059a00       ?IsExternallyAllocated@?$CUtlMemory@VVector2D@@@@QBE_NXZ 0045aa00 f i disp_vbsp.obj
 0001:00059a10       ?IsExternallyAllocated@?$CUtlMemory@_N@@QBE_NXZ 0045aa10 f i disp_vbsp.obj
 0001:00059a20       ?Purge@?$CUtlMemory@PAUdface_t@@@@QAEXXZ 0045aa20 f i disp_vbsp.obj
 0001:00059a50       ?Purge@?$CUtlMemory@PAVCCoreDispInfo@@@@QAEXXZ 0045aa50 f i disp_vbsp.obj
 0001:00059a80       ?Purge@?$CUtlMemory@VVector2D@@@@QAEXXZ 0045aa80 f i disp_vbsp.obj
 0001:00059ab0       ?Purge@?$CUtlMemory@_N@@QAEXXZ 0045aab0 f i disp_vbsp.obj
 0001:00059ae0       ?RemoveAll@?$CUtlVector@PAUdface_t@@V?$CUtlMemory@PAUdface_t@@@@@@QAEXXZ 0045aae0 f i disp_vbsp.obj
 0001:00059af0       ?RemoveAll@?$CUtlVector@PAVCCoreDispInfo@@V?$CUtlMemory@PAVCCoreDispInfo@@@@@@QAEXXZ 0045aaf0 f i disp_vbsp.obj
 0001:00059b00       ?RemoveAll@?$CUtlVector@VVector2D@@V?$CUtlMemory@VVector2D@@@@@@QAEXXZ 0045ab00 f i disp_vbsp.obj
 0001:00059b10       ?RemoveAll@?$CUtlVector@_NV?$CUtlMemory@_N@@@@QAEXXZ 0045ab10 f i disp_vbsp.obj
 0001:00059b20       ?SetCount@?$CUtlVector@PAUdface_t@@V?$CUtlMemory@PAUdface_t@@@@@@QAEXH@Z 0045ab20 f i disp_vbsp.obj
 0001:00059bd0       ?SetCount@?$CUtlVector@VVector2D@@V?$CUtlMemory@VVector2D@@@@@@QAEXH@Z 0045abd0 f i disp_vbsp.obj
 0001:00059bf0       ?SetCount@?$CUtlVector@_NV?$CUtlMemory@_N@@@@QAEXH@Z 0045abf0 f i disp_vbsp.obj
 0001:00059c90       ?ShiftElementsRight@?$CUtlVector@PAUdface_t@@V?$CUtlMemory@PAUdface_t@@@@@@IAEXHH@Z 0045ac90 f i disp_vbsp.obj
 0001:00059cd0       ?ShiftElementsRight@?$CUtlVector@PAVCCoreDispInfo@@V?$CUtlMemory@PAVCCoreDispInfo@@@@@@IAEXHH@Z 0045acd0 f i disp_vbsp.obj
 0001:00059d10       ?ShiftElementsRight@?$CUtlVector@VVector2D@@V?$CUtlMemory@VVector2D@@@@@@IAEXHH@Z 0045ad10 f i disp_vbsp.obj
 0001:00059d50       ?ShiftElementsRight@?$CUtlVector@_NV?$CUtlMemory@_N@@@@IAEXHH@Z 0045ad50 f i disp_vbsp.obj
 0001:00059d90       ?SnapRemainingVertsToSurface@@YAXPAPAVCCoreDispInfo@@PAVddispinfo_t@@H@Z 0045ad90 f   disp_vbsp.obj
 0001:00059dd0       ?SnapRemainingVertsToSurface@@YAXPAVCCoreDispInfo@@PAVddispinfo_t@@@Z 0045add0 f   disp_vbsp.obj
 0001:0005a2f0       ??0?$CUtlMemory@Uface_vert_table_t@@@@QAE@HH@Z 0045b2f0 f i faces.obj
 0001:0005a330       ??0?$CUtlVector@GV?$CUtlMemory@G@@@@QAE@HH@Z 0045b330 f i faces.obj
 0001:0005a380       ??1?$CUtlMemory@Uface_vert_table_t@@@@QAE@XZ 0045b380 f i faces.obj
 0001:0005a3b0       ??1?$CUtlVector@GV?$CUtlMemory@G@@@@QAE@XZ 0045b3b0 f i faces.obj
 0001:0005a410       ??A?$CUtlVector@Utexinfo_s@@V?$CUtlMemory@Utexinfo_s@@@@@@QAEAAUtexinfo_s@@H@Z 0045b410 f i faces.obj
 0001:0005a430       ??_F?$CUtlVector@HV?$CUtlMemory@H@@@@QAEXXZ 0045b430 f i faces.obj
 0001:0005a460       ??_I@YGXPAXIIP6EX0@Z@Z     0045b460 f i faces.obj
 0001:0005a4a0       ?AddEdge@@YAHHHPAUface_t@@@Z 0045b4a0 f   faces.obj
 0001:0005a540       ?AddToTail@?$CUtlVector@HV?$CUtlMemory@H@@@@QAEHABH@Z 0045b540 f i faces.obj
 0001:0005a5f0       ?AddWindingToPrimverts@@YAHPBUwinding_t@@PAGHH@Z 0045b5f0 f   faces.obj
 0001:0005a720       ?AllocFace@@YAPAUface_t@@XZ 0045b720 f   faces.obj
 0001:0005a760       ?Base@?$CUtlVector@GV?$CUtlMemory@G@@@@QAEPAGXZ 0045b760 f i faces.obj
 0001:0005a770       ?EmitFaceVertexes@@YAXPAPAUface_t@@PAU1@@Z 0045b770 f   faces.obj
 0001:0005a870       ?EmitLeafFaceVertexes@@YAXPAPAUface_t@@@Z 0045b870 f   faces.obj
 0001:0005a9a0       ?EmitNodeFaceVertexes_r@@YAXPAUnode_t@@@Z 0045b9a0 f   faces.obj
 0001:0005aaf0       ?FaceFromPortal@@YAPAUface_t@@PAUportal_t@@H@Z 0045baf0 f   faces.obj
 0001:0005ade0       ?FaceFromSuperverts@@YAXPAPAUface_t@@PAU1@H@Z 0045bde0 f   faces.obj
 0001:0005afa0       ?FaceOnWaterBrush@@YA_NPAUface_t@@@Z 0045bfa0 f   faces.obj
 0001:0005afc0       ?Find@?$CUtlVector@HV?$CUtlMemory@H@@@@QBEHABH@Z 0045bfc0 f i faces.obj
 0001:0005aff0       ?FindEdgeVerts@@YAXAAVVector@@0@Z 0045bff0 f   faces.obj
 0001:0005b0f0       ?FixEdges_r@@YAXPAUnode_t@@@Z 0045c0f0 f   faces.obj
 0001:0005b150       ?FixFaceEdges@@YAXPAPAUface_t@@PAU1@@Z 0045c150 f   faces.obj
 0001:0005b6a0       ?FixLeafFaceEdges@@YAXPAPAUface_t@@@Z 0045c6a0 f   faces.obj
 0001:0005b6d0       ?FixTjuncs@@YAPAUface_t@@PAUnode_t@@PAU1@@Z 0045c6d0 f   faces.obj
 0001:0005b850       ?FreeFace@@YAXPAUface_t@@@Z 0045c850 f   faces.obj
 0001:0005b880       ?FreeFaceList@@YAXPAUface_t@@@Z 0045c880 f   faces.obj
 0001:0005b8c0       ?GetEdge2@@YAHHHPAUface_t@@@Z 0045c8c0 f   faces.obj
 0001:0005b9d0       ?GetEdge2_InitOptimizedList@@YAXXZ 0045c9d0 f   faces.obj
 0001:0005ba00       ?GetVertexnum@@YAHAAVVector@@@Z 0045ca00 f   faces.obj
 0001:0005bbf0       ?Grow@?$CUtlMemory@Uface_vert_table_t@@@@QAEXH@Z 0045cbf0 f i faces.obj
 0001:0005bc60       ?GrowVector@?$CUtlVector@Uface_vert_table_t@@V?$CUtlMemory@Uface_vert_table_t@@@@@@IAEXH@Z 0045cc60 f i faces.obj
 0001:0005bcf0       ?HashVec@@YAIAAVVector@@@Z 0045ccf0 f   faces.obj
 0001:0005bd60       ?IntSort@@YAXAAV?$CUtlVector@HV?$CUtlMemory@H@@@@@Z 0045cd60 f   faces.obj
 0001:0005bdb0       ?IsDiagonal@@YA_NABUface_vert_table_t@@0@Z 0045cdb0 f   faces.obj
 0001:0005bde0       ?IsExternallyAllocated@?$CUtlMemory@Uface_vert_table_t@@@@QBE_NXZ 0045cde0 f i faces.obj
 0001:0005bdf0       ?MakeFaces@@YAXPAUnode_t@@@Z 0045cdf0 f   faces.obj
 0001:0005be60       ?MakeFaces_r@@YAXPAUnode_t@@@Z 0045ce60 f   faces.obj
 0001:0005bf10       ?MergeFaceList@@YAXPAPAUface_t@@@Z 0045cf10 f   faces.obj
 0001:0005c0d0       ?NewFaceFromFace@@YAPAUface_t@@PAU1@@Z 0045d0d0 f   faces.obj
 0001:0005c140       ?OverlaysAreEqual@@YA_NPAUface_t@@0@Z 0045d140 f   faces.obj
 0001:0005c1c0       ?Purge@?$CUtlMemory@Uface_vert_table_t@@@@QAEXXZ 0045d1c0 f i faces.obj
 0001:0005c1f0       ?RemoveAll@?$CUtlVector@Uface_vert_table_t@@V?$CUtlMemory@Uface_vert_table_t@@@@@@QAEXXZ 0045d1f0 f i faces.obj
 0001:0005c200       ?ShiftElementsRight@?$CUtlVector@Uface_vert_table_t@@V?$CUtlMemory@Uface_vert_table_t@@@@@@IAEXHH@Z 0045d200 f i faces.obj
 0001:0005c240       ?Size@?$CUtlVector@GV?$CUtlMemory@G@@@@QBEHXZ 0045d240 f i faces.obj
 0001:0005c250       ?SplitSubdividedFaces@@YAXPAUface_t@@PAUnode_t@@@Z 0045d250 f   faces.obj
 0001:0005c290       ?SplitSubdividedFaces_Node_r@@YAXPAUnode_t@@@Z 0045d290 f   faces.obj
 0001:0005c300       ?SubdivideFace@@YAXPAPAUface_t@@PAU1@@Z 0045d300 f   faces.obj
 0001:0005c4c0       ?SubdivideFaceBySubdivSize@@YAXPAUface_t@@@Z 0045d4c0 f   faces.obj
 0001:0005cd50       ?SubdivideFaceList@@YAXPAPAUface_t@@@Z 0045dd50 f   faces.obj
 0001:0005cf20       ?TestEdge@@YAXMMHHH@Z      0045df20 f   faces.obj
 0001:0005d0f0       ?Triangulate_r@@YAXAAV?$CUtlVector@HV?$CUtlMemory@H@@@@ABV1@ABV?$CUtlVector@Uface_vert_table_t@@V?$CUtlMemory@Uface_vert_table_t@@@@@@@Z 0045e0f0 f   faces.obj
 0001:0005d4b0       ?TryMerge@@YAPAUface_t@@PAU1@0AAVVector@@@Z 0045e4b0 f   faces.obj
 0001:0005d5b0       ?TryMergeWinding@@YAPAUwinding_t@@PAU1@0AAVVector@@@Z 0045e5b0 f   faces.obj
 0001:0005da00       ?OutputPortal@@YAXPAUportal_t@@PAX@Z 0045ea00 f   glfile.obj
 0001:0005da60       ?OutputWinding@@YAXPAUwinding_t@@PAX@Z 0045ea60 f   glfile.obj
 0001:0005db20       ?PortalVisibleSides@@YAHPAUportal_t@@@Z 0045eb20 f   glfile.obj
 0001:0005db60       ?WriteGLView@@YAXPAUtree_t@@PAD@Z 0045eb60 f   glfile.obj
 0001:0005dc10       ?WriteGLViewFaces@@YAXPAUtree_t@@PBD@Z 0045ec10 f   glfile.obj
 0001:0005dcc0       ?WriteGLViewFaces_r@@YAXPAUnode_t@@PAX@Z 0045ecc0 f   glfile.obj
 0001:0005de00       ?WriteGLView_r@@YAXPAUnode_t@@PAX@Z 0045ee00 f   glfile.obj
 0001:0005dea0       ??0?$CUtlMemory@PAUnode_t@@@@QAE@HH@Z 0045eea0 f i ivp.obj
 0001:0005dee0       ??0?$CUtlMemory@PAVCPhysCollisionEntry@@@@QAE@HH@Z 0045eee0 f i ivp.obj
 0001:0005df20       ??0?$CUtlMemory@PAVCPhysConvex@@@@QAE@HH@Z 0045ef20 f i ivp.obj
 0001:0005df60       ??0?$CUtlMemory@UNode_t@?$CUtlRBTree@UWaterTexInfo@@HP6A_NABU1@0@Z@@@@QAE@HH@Z 0045ef60 f i ivp.obj
 0001:0005dfa0       ??0?$CUtlMemory@Ulistplane_t@@@@QAE@HH@Z 0045efa0 f i ivp.obj
 0001:0005dff0       ??0?$CUtlMemory@Uwaterleaf_t@@@@QAE@HH@Z 0045eff0 f i ivp.obj
 0001:0005e030       ??0?$CUtlMemory@Uwatermodel_t@@@@QAE@HH@Z 0045f030 f i ivp.obj
 0001:0005e070       ??0CPhysCollisionEntry@@QAE@PAVCPhysCollide@@@Z 0045f070 f   ivp.obj
 0001:0005e090       ??0CPhysCollisionEntryFluid@@QAE@PAVCPhysCollide@@PBDMABVVector@@MH@Z 0045f090 f   ivp.obj
 0001:0005e110       ??0CPhysCollisionEntrySolid@@QAE@PAVCPhysCollide@@PBDM@Z 0045f110 f   ivp.obj
 0001:0005e150       ??0CPhysCollisionEntryStaticMesh@@QAE@PAVCPhysCollide@@PBD@Z 0045f150 f   ivp.obj
 0001:0005e170       ??0CPhysCollisionEntryStaticSolid@@QAE@PAVCPhysCollide@@H@Z 0045f170 f   ivp.obj
 0001:0005e190       ??0CPlaneList@@QAE@MM@Z    0045f190 f   ivp.obj
 0001:0005e260       ??0CTextBuffer@@QAE@XZ     0045f260 f   ivp.obj
 0001:0005e290       ??1?$CUtlMemory@PAUnode_t@@@@QAE@XZ 0045f290 f i ivp.obj
 0001:0005e2c0       ??1?$CUtlMemory@PAVCPhysCollisionEntry@@@@QAE@XZ 0045f2c0 f i ivp.obj
 0001:0005e2f0       ??1?$CUtlMemory@PAVCPhysConvex@@@@QAE@XZ 0045f2f0 f i ivp.obj
 0001:0005e320       ??1?$CUtlMemory@UNode_t@?$CUtlRBTree@UWaterTexInfo@@HP6A_NABU1@0@Z@@@@QAE@XZ 0045f320 f i ivp.obj
 0001:0005e350       ??1?$CUtlMemory@Ulistplane_t@@@@QAE@XZ 0045f350 f i ivp.obj
 0001:0005e380       ??1?$CUtlMemory@Uwaterleaf_t@@@@QAE@XZ 0045f380 f i ivp.obj
 0001:0005e3b0       ??1?$CUtlMemory@Uwatermodel_t@@@@QAE@XZ 0045f3b0 f i ivp.obj
 0001:0005e3e0       ??1?$CUtlVector@PAUnode_t@@V?$CUtlMemory@PAUnode_t@@@@@@QAE@XZ 0045f3e0 f i ivp.obj
 0001:0005e440       ??1?$CUtlVector@PAVCPhysCollisionEntry@@V?$CUtlMemory@PAVCPhysCollisionEntry@@@@@@QAE@XZ 0045f440 f i ivp.obj
 0001:0005e4a0       ??1?$CUtlVector@PAVCPhysConvex@@V?$CUtlMemory@PAVCPhysConvex@@@@@@QAE@XZ 0045f4a0 f i ivp.obj
 0001:0005e500       ??1CPhysCollisionEntryFluid@@QAE@XZ 0045f500 f   ivp.obj
 0001:0005e510       ??1CPlaneList@@QAE@XZ      0045f510 f   ivp.obj
 0001:0005e530       ??1CTextBuffer@@QAE@XZ     0045f530 f   ivp.obj
 0001:0005e540       ??_F?$CUtlVector@PAVCPhysCollisionEntry@@V?$CUtlMemory@PAVCPhysCollisionEntry@@@@@@QAEXXZ 0045f540 f i ivp.obj
 0001:0005e570       ?AddBrushes@CPlaneList@@QAEHXZ 0045f570 f   ivp.obj
 0001:0005e720       ?AddConvex@CPlaneList@@QAEXPAVCPhysConvex@@@Z 0045f720 f   ivp.obj
 0001:0005e7f0       ?AddToTail@?$CUtlVector@PAUnode_t@@V?$CUtlMemory@PAUnode_t@@@@@@QAEHABQAUnode_t@@@Z 0045f7f0 f i ivp.obj
 0001:0005e8a0       ?AddToTail@?$CUtlVector@PAVCPhysCollisionEntry@@V?$CUtlMemory@PAVCPhysCollisionEntry@@@@@@QAEHABQAVCPhysCollisionEntry@@@Z 0045f8a0 f i ivp.obj
 0001:0005e950       ?BuildConvexForBrush@CPlaneList@@AAEPAVCPhysConvex@@HMPAVCPhysCollide@@M@Z 0045f950 f   ivp.obj
 0001:0005f4a0       ?CopyData@CTextBuffer@@AAEXPBDH@Z 004604a0 f   ivp.obj
 0001:0005f560       ?CopyStringQuotes@CTextBuffer@@QAEXPBD@Z 00460560 f   ivp.obj
 0001:0005f5b0       ?DumpCollide@CPhysCollisionEntryFluid@@UAEXPAVCTextBuffer@@HH@Z 004605b0 f   ivp.obj
 0001:0005f5f0       ?DumpCollide@CPhysCollisionEntrySolid@@UAEXPAVCTextBuffer@@HH@Z 004605f0 f   ivp.obj
 0001:0005f610       ?DumpCollide@CPhysCollisionEntryStaticMesh@@UAEXPAVCTextBuffer@@HH@Z 00460610 f   ivp.obj
 0001:0005f650       ?DumpCollide@CPhysCollisionEntryStaticSolid@@UAEXPAVCTextBuffer@@HH@Z 00460650 f   ivp.obj
 0001:0005f690       ?DumpCollideFileName@CPhysCollisionEntry@@IAEXPBDHPAVCTextBuffer@@@Z 00460690 f   ivp.obj
 0001:0005f8f0       ?DumpCollideToGlView@@YAXPAVCPhysCollide@@PBD@Z 004608f0 f   ivp.obj
 0001:0005fa50       ?DumpCollideToPHY@@YAXPAVCPhysCollide@@PAVCTextBuffer@@PBD@Z 00460a50 f   ivp.obj
 0001:0005fb10       ?EmitPhysCollision@@YAXXZ  00460b10 f   ivp.obj
 0001:000601d0       ?EmitWaterMaterialFile@@YAXPAUWaterTexInfo@@@Z 004611d0 f   ivp.obj
 0001:00060240       ?EmitWaterVolumesForBSP@@YAXPAUdmodel_t@@PAUnode_t@@@Z 00461240 f   ivp.obj
 0001:00060920       ?EnumLeaves_r@@YAXAAV?$CUtlVector@PAUnode_t@@V?$CUtlMemory@PAUnode_t@@@@@@PAUnode_t@@H@Z 00461920 f   ivp.obj
 0001:00060970       ?Find@?$CUtlRBTree@UWaterTexInfo@@HP6A_NABU1@0@Z@@QBEHABUWaterTexInfo@@@Z 00461970 f i ivp.obj
 0001:000609f0       ?FindInsertionPosition@?$CUtlRBTree@UWaterTexInfo@@HP6A_NABU1@0@Z@@IAEXABUWaterTexInfo@@AAHAA_N@Z 004619f0 f i ivp.obj
 0001:00060a60       ?FindOrCreateWaterTexInfo@@YAHPAUtexinfo_s@@M@Z 00461a60 f   ivp.obj
 0001:00060d00       ?FirstWaterTexinfo@@YAHPAUbspbrush_t@@H@Z 00461d00 f   ivp.obj
 0001:00060e70       ?GetCollisionBinarySize@CPhysCollisionEntry@@QAEIXZ 00461e70 f   ivp.obj
 0001:00060e80       ?GetFirstBrushSide@CPlaneList@@QAEHXZ 00461e80 f   ivp.obj
 0001:00060f00       ?GetWaterTextureName@@YAXPBD0HPAD@Z 00461f00 f   ivp.obj
 0001:00060f60       ?Grow@?$CUtlMemory@PAUnode_t@@@@QAEXH@Z 00461f60 f i ivp.obj
 0001:00060fd0       ?Grow@?$CUtlMemory@PAVCPhysConvex@@@@QAEXH@Z 00461fd0 f i ivp.obj
 0001:00061040       ?Grow@?$CUtlMemory@UNode_t@?$CUtlRBTree@UWaterTexInfo@@HP6A_NABU1@0@Z@@@@QAEXH@Z 00462040 f i ivp.obj
 0001:000610c0       ?Grow@?$CUtlMemory@Ulistplane_t@@@@QAEXH@Z 004620c0 f i ivp.obj
 0001:00061130       ?Grow@?$CUtlMemory@Uwaterleaf_t@@@@QAEXH@Z 00462130 f i ivp.obj
 0001:000611a0       ?Grow@?$CUtlMemory@Uwatermodel_t@@@@QAEXH@Z 004621a0 f i ivp.obj
 0001:00061210       ?GrowVector@?$CUtlVector@PAUnode_t@@V?$CUtlMemory@PAUnode_t@@@@@@IAEXH@Z 00462210 f i ivp.obj
 0001:000612a0       ?GrowVector@?$CUtlVector@PAVCPhysConvex@@V?$CUtlMemory@PAVCPhysConvex@@@@@@IAEXH@Z 004622a0 f i ivp.obj
 0001:00061330       ?GrowVector@?$CUtlVector@Ulistplane_t@@V?$CUtlMemory@Ulistplane_t@@@@@@IAEXH@Z 00462330 f i ivp.obj
 0001:000613c0       ?GrowVector@?$CUtlVector@Uwaterleaf_t@@V?$CUtlMemory@Uwaterleaf_t@@@@@@IAEXH@Z 004623c0 f i ivp.obj
 0001:00061450       ?GrowVector@?$CUtlVector@Uwatermodel_t@@V?$CUtlMemory@Uwatermodel_t@@@@@@IAEXH@Z 00462450 f i ivp.obj
 0001:000614e0       ?Insert@?$CUtlRBTree@UWaterTexInfo@@HP6A_NABU1@0@Z@@QAEHABUWaterTexInfo@@@Z 004624e0 f i ivp.obj
 0001:00061590       ?InsertAt@?$CUtlRBTree@UWaterTexInfo@@HP6A_NABU1@0@Z@@IAEHH_N@Z 00462590 f i ivp.obj
 0001:000616c0       ?InsertBefore@?$CUtlVector@PAUnode_t@@V?$CUtlMemory@PAUnode_t@@@@@@QAEHHABQAUnode_t@@@Z 004626c0 f i ivp.obj
 0001:00061770       ?InsertBefore@?$CUtlVector@PAVCPhysConvex@@V?$CUtlMemory@PAVCPhysConvex@@@@@@QAEHHABQAVCPhysConvex@@@Z 00462770 f i ivp.obj
 0001:00061820       ?InsertBefore@?$CUtlVector@Ulistplane_t@@V?$CUtlMemory@Ulistplane_t@@@@@@QAEHHABUlistplane_t@@@Z 00462820 f i ivp.obj
 0001:000618d0       ?InsertBefore@?$CUtlVector@Uwaterleaf_t@@V?$CUtlMemory@Uwaterleaf_t@@@@@@QAEHHABUwaterleaf_t@@@Z 004628d0 f i ivp.obj
 0001:00061990       ?InsertBefore@?$CUtlVector@Uwatermodel_t@@V?$CUtlMemory@Uwatermodel_t@@@@@@QAEHHABUwatermodel_t@@@Z 00462990 f i ivp.obj
 0001:00061a70       ?InsertRebalance@?$CUtlRBTree@UWaterTexInfo@@HP6A_NABU1@0@Z@@IAEXH@Z 00462a70 f i ivp.obj
 0001:00061ca0       ?IsBrushReferenced@CPlaneList@@QAE_NH@Z 00462ca0 f   ivp.obj
 0001:00061cb0       ?IsExternallyAllocated@?$CUtlMemory@PAUnode_t@@@@QBE_NXZ 00462cb0 f i ivp.obj
 0001:00061cc0       ?IsExternallyAllocated@?$CUtlMemory@PAVCPhysConvex@@@@QBE_NXZ 00462cc0 f i ivp.obj
 0001:00061cd0       ?IsExternallyAllocated@?$CUtlMemory@UNode_t@?$CUtlRBTree@UWaterTexInfo@@HP6A_NABU1@0@Z@@@@QBE_NXZ 00462cd0 f i ivp.obj
 0001:00061ce0       ?IsExternallyAllocated@?$CUtlMemory@Ulistplane_t@@@@QBE_NXZ 00462ce0 f i ivp.obj
 0001:00061cf0       ?IsExternallyAllocated@?$CUtlMemory@Uwaterleaf_t@@@@QBE_NXZ 00462cf0 f i ivp.obj
 0001:00061d00       ?IsExternallyAllocated@?$CUtlMemory@Uwatermodel_t@@@@QBE_NXZ 00462d00 f i ivp.obj
 0001:00061d10       ?IsLeafReferenced@CPlaneList@@QAE_NH@Z 00462d10 f   ivp.obj
 0001:00061d50       ?LinkToParent@?$CUtlRBTree@UWaterTexInfo@@HP6A_NABU1@0@Z@@IAEXHH_N@Z 00462d50 f i ivp.obj
 0001:00061de0       ?Links@?$CUtlRBTree@UWaterTexInfo@@HP6A_NABU1@0@Z@@IBEABULinks_t@1@H@Z 00462de0 f i ivp.obj
 0001:00061e60       ?NewNode@?$CUtlRBTree@UWaterTexInfo@@HP6A_NABU1@0@Z@@QAEHXZ 00462e60 f i ivp.obj
 0001:00061f20       ?Purge@?$CUtlMemory@PAUnode_t@@@@QAEXXZ 00462f20 f i ivp.obj
 0001:00061f50       ?Purge@?$CUtlMemory@PAVCPhysCollisionEntry@@@@QAEXXZ 00462f50 f i ivp.obj
 0001:00061f80       ?Purge@?$CUtlMemory@PAVCPhysConvex@@@@QAEXXZ 00462f80 f i ivp.obj
 0001:00061fb0       ?Purge@?$CUtlMemory@UNode_t@?$CUtlRBTree@UWaterTexInfo@@HP6A_NABU1@0@Z@@@@QAEXXZ 00462fb0 f i ivp.obj
 0001:00061fe0       ?Purge@?$CUtlMemory@Ulistplane_t@@@@QAEXXZ 00462fe0 f i ivp.obj
 0001:00062010       ?Purge@?$CUtlMemory@Uwaterleaf_t@@@@QAEXXZ 00463010 f i ivp.obj
 0001:00062040       ?Purge@?$CUtlMemory@Uwatermodel_t@@@@QAEXXZ 00463040 f i ivp.obj
 0001:00062070       ?Purge@?$CUtlRBTree@UWaterTexInfo@@HP6A_NABU1@0@Z@@QAEXXZ 00463070 f i ivp.obj
 0001:000620e0       ?ReferenceBrush@CPlaneList@@QAEXH@Z 004630e0 f   ivp.obj
 0001:00062100       ?ReferenceLeaf@CPlaneList@@QAEXH@Z 00463100 f   ivp.obj
 0001:00062120       ?RemapWorldMaterial@@YAHH@Z 00463120 f   ivp.obj
 0001:00062170       ?RemoveAll@?$CUtlVector@PAUnode_t@@V?$CUtlMemory@PAUnode_t@@@@@@QAEXXZ 00463170 f i ivp.obj
 0001:00062180       ?RemoveAll@?$CUtlVector@PAVCPhysCollisionEntry@@V?$CUtlMemory@PAVCPhysCollisionEntry@@@@@@QAEXXZ 00463180 f i ivp.obj
 0001:00062190       ?RemoveAll@?$CUtlVector@PAVCPhysConvex@@V?$CUtlMemory@PAVCPhysConvex@@@@@@QAEXXZ 00463190 f i ivp.obj
 0001:000621a0       ?RemoveAll@?$CUtlVector@Ulistplane_t@@V?$CUtlMemory@Ulistplane_t@@@@@@QAEXXZ 004631a0 f i ivp.obj
 0001:000621b0       ?RemoveAll@?$CUtlVector@Uwaterleaf_t@@V?$CUtlMemory@Uwaterleaf_t@@@@@@QAEXXZ 004631b0 f i ivp.obj
 0001:000621c0       ?RemoveAll@?$CUtlVector@Uwatermodel_t@@V?$CUtlMemory@Uwatermodel_t@@@@@@QAEXXZ 004631c0 f i ivp.obj
 0001:000621d0       ?RotateLeft@?$CUtlRBTree@UWaterTexInfo@@HP6A_NABU1@0@Z@@IAEXH@Z 004631d0 f i ivp.obj
 0001:000622e0       ?RotateRight@?$CUtlRBTree@UWaterTexInfo@@HP6A_NABU1@0@Z@@IAEXH@Z 004632e0 f i ivp.obj
 0001:000623f0       ?ShiftElementsRight@?$CUtlVector@PAUnode_t@@V?$CUtlMemory@PAUnode_t@@@@@@IAEXHH@Z 004633f0 f i ivp.obj
 0001:00062430       ?ShiftElementsRight@?$CUtlVector@PAVCPhysConvex@@V?$CUtlMemory@PAVCPhysConvex@@@@@@IAEXHH@Z 00463430 f i ivp.obj
 0001:00062470       ?ShiftElementsRight@?$CUtlVector@Ulistplane_t@@V?$CUtlMemory@Ulistplane_t@@@@@@IAEXHH@Z 00463470 f i ivp.obj
 0001:000624b0       ?ShiftElementsRight@?$CUtlVector@Uwaterleaf_t@@V?$CUtlMemory@Uwaterleaf_t@@@@@@IAEXHH@Z 004634b0 f i ivp.obj
 0001:000624f0       ?ShiftElementsRight@?$CUtlVector@Uwatermodel_t@@V?$CUtlMemory@Uwatermodel_t@@@@@@IAEXHH@Z 004634f0 f i ivp.obj
 0001:00062540       ?Terminate@CTextBuffer@@QAEXXZ 00463540 f   ivp.obj
 0001:000625f0       ?WaterLessFunc@@YA_NABUWaterTexInfo@@0@Z 004635f0 f   ivp.obj
 0001:00062610       ?WriteCollisionBinary@CPhysCollisionEntry@@QAEIPAD@Z 00463610 f   ivp.obj
 0001:00062630       ?WriteFloatArrayKey@CTextBuffer@@QAEXPBDPBMH@Z 00463630 f   ivp.obj
 0001:000627e0       ?WriteFloatKey@CTextBuffer@@QAEXPBDM@Z 004637e0 f   ivp.obj
 0001:00062880       ?WriteIntKey@CTextBuffer@@QAEXPBDH@Z 00463880 f   ivp.obj
 0001:00062910       ?WriteStringKey@CTextBuffer@@QAEXPBD0@Z 00463910 f   ivp.obj
 0001:000629b0       ?WriteText@CTextBuffer@@QAEXPBD@Z 004639b0 f   ivp.obj
 0001:000629e0       ?WriteToTextBuffer@CPhysCollisionEntryFluid@@UAEXPAVCTextBuffer@@HH@Z 004639e0 f   ivp.obj
 0001:00062b20       ?WriteToTextBuffer@CPhysCollisionEntrySolid@@UAEXPAVCTextBuffer@@HH@Z 00463b20 f   ivp.obj
 0001:00062c50       ?WriteToTextBuffer@CPhysCollisionEntryStaticMesh@@UAEXPAVCTextBuffer@@HH@Z 00463c50 f   ivp.obj
 0001:00062cc0       ?WriteToTextBuffer@CPhysCollisionEntryStaticSolid@@UAEXPAVCTextBuffer@@HH@Z 00463cc0 f   ivp.obj
 0001:00062d70       ?AreaportalLeakFile@@YAXPAUtree_t@@PAUportal_t@@1PAUnode_t@@@Z 00463d70 f   leakfile.obj
 0001:00063050       ?LeakFile@@YAXPAUtree_t@@@Z 00464050 f   leakfile.obj
 0001:00063230       ??0brush_texture_t@@QAE@XZ 00464230 f i map.obj
 0001:00063260       ??0mapbrush_t@@QAE@XZ      00464260 f i map.obj
 0001:00063270       ??0plane_t@@QAE@XZ         00464270 f i map.obj
 0001:00063290       ??0side_t@@QAE@XZ          00464290 f i map.obj
 0001:000632e0       ??1side_t@@QAE@XZ          004642e0 f i map.obj
 0001:00063300       ??4brush_texture_t@@QAEAAU0@ABU0@@Z 00464300 f i map.obj
 0001:00063390       ?AddBrushBevels@@YAXPAUmapbrush_t@@@Z 00464390 f   map.obj
 0001:00063c20       ?AddLadderKeys@@YAXPAUentity_t@@@Z 00464c20 f   map.obj
 0001:00063db0       ?AddPlaneToHash@@YAXPAUplane_t@@@Z 00464db0 f   map.obj
 0001:00063df0       ?BrushContents@@YAHPAUmapbrush_t@@@Z 00464df0 f   map.obj
 0001:00063f10       ?ConvertSideList@@YAXPAUentity_t@@PAD@Z 00464f10 f   map.obj
 0001:00064060       ?CreateNewFloatPlane@@YAHAAVVector@@M@Z 00465060 f   map.obj
 0001:00064350       ?EntityByName@@YAPAUentity_t@@PBD@Z 00465350 f   map.obj
 0001:000643b0       ?FindFloatPlane@@YAHAAVVector@@M@Z 004653b0 f   map.obj
 0001:000644e0       ?ForceFuncAreaPortalWindowContents@@YAXXZ 004654e0 f   map.obj
 0001:00064620       ?Grow@?$CUtlMemory@Umapoverlay_t@@@@QAEXH@Z 00465620 f i map.obj
 0001:00064690       ?GrowVector@?$CUtlVector@Umapoverlay_t@@V?$CUtlMemory@Umapoverlay_t@@@@@@IAEXH@Z 00465690 f i map.obj
 0001:00064720       ?HandleNoDynamicShadowsEnt@@YA?AW4ChunkFileResult_t@@PAUentity_t@@@Z 00465720 f   map.obj
 0001:00064800       ?InsertBefore@?$CUtlVector@Umapoverlay_t@@V?$CUtlMemory@Umapoverlay_t@@@@@@QAEHH@Z 00465800 f i map.obj
 0001:00064920       ?IsAreaPortal@@YA_NPBD@Z   00465920 f   map.obj
 0001:00064950       ?IsExternallyAllocated@?$CUtlMemory@Umapoverlay_t@@@@QBE_NXZ 00465950 f i map.obj
 0001:00064960       ?LoadConnectionsCallback@@YA?AW4ChunkFileResult_t@@PAVCChunkFile@@PAULoadEntity_t@@@Z 00465960 f   map.obj
 0001:00064980       ?LoadConnectionsKeyCallback@@YA?AW4ChunkFileResult_t@@PBD0PAULoadEntity_t@@@Z 00465980 f   map.obj
 0001:00064a40       ?LoadDispAlphasCallback@@YA?AW4ChunkFileResult_t@@PAVCChunkFile@@PAUmapdispinfo_t@@@Z 00465a40 f   map.obj
 0001:00064a60       ?LoadDispAlphasKeyCallback@@YA?AW4ChunkFileResult_t@@PBD0PAUmapdispinfo_t@@@Z 00465a60 f   map.obj
 0001:00064b20       ?LoadDispDistancesCallback@@YA?AW4ChunkFileResult_t@@PAVCChunkFile@@PAUmapdispinfo_t@@@Z 00465b20 f   map.obj
 0001:00064b40       ?LoadDispDistancesKeyCallback@@YA?AW4ChunkFileResult_t@@PBD0PAUmapdispinfo_t@@@Z 00465b40 f   map.obj
 0001:00064c00       ?LoadDispInfoCallback@@YA?AW4ChunkFileResult_t@@PAVCChunkFile@@PAPAUmapdispinfo_t@@@Z 00465c00 f   map.obj
 0001:00064d00       ?LoadDispInfoKeyCallback@@YA?AW4ChunkFileResult_t@@PBD0PAUmapdispinfo_t@@@Z 00465d00 f   map.obj
 0001:00064e40       ?LoadDispNormalsCallback@@YA?AW4ChunkFileResult_t@@PAVCChunkFile@@PAUmapdispinfo_t@@@Z 00465e40 f   map.obj
 0001:00064e60       ?LoadDispNormalsKeyCallback@@YA?AW4ChunkFileResult_t@@PBD0PAUmapdispinfo_t@@@Z 00465e60 f   map.obj
 0001:00064f80       ?LoadDispOffsetsCallback@@YA?AW4ChunkFileResult_t@@PAVCChunkFile@@PAUmapdispinfo_t@@@Z 00465f80 f   map.obj
 0001:00064fb0       ?LoadDispOffsetsKeyCallback@@YA?AW4ChunkFileResult_t@@PBD0PAUmapdispinfo_t@@@Z 00465fb0 f   map.obj
 0001:000650d0       ?LoadDispTriangleTagsCallback@@YA?AW4ChunkFileResult_t@@PAVCChunkFile@@PAUmapdispinfo_t@@@Z 004660d0 f   map.obj
 0001:000650f0       ?LoadDispTriangleTagsKeyCallback@@YA?AW4ChunkFileResult_t@@PBD0PAUmapdispinfo_t@@@Z 004660f0 f   map.obj
 0001:000651f0       ?LoadEntityCallback@@YA?AW4ChunkFileResult_t@@PAVCChunkFile@@H@Z 004661f0 f   map.obj
 0001:00065a30       ?LoadMapFile@@YAXPBD@Z     00466a30 f   map.obj
 0001:000663f0       ?LoadSideCallback@@YA?AW4ChunkFileResult_t@@PAVCChunkFile@@PAULoadSide_t@@@Z 004673f0 f   map.obj
 0001:00066820       ?LoadSideKeyCallback@@YA?AW4ChunkFileResult_t@@PBD0PAULoadSide_t@@@Z 00467820 f   map.obj
 0001:00066b50       ?LoadSolidCallback@@YA?AW4ChunkFileResult_t@@PAVCChunkFile@@PAULoadEntity_t@@@Z 00467b50 f   map.obj
 0001:00066eb0       ?LoadSolidKeyCallback@@YA?AW4ChunkFileResult_t@@PBD0PAUmapbrush_t@@@Z 00467eb0 f   map.obj
 0001:00066ef0       ?MakeBrushWindings@@YAHPAUmapbrush_t@@@Z 00467ef0 f   map.obj
 0001:000670b0       ?MoveBrushesToWorld@@YAXPAUentity_t@@@Z 004680b0 f   map.obj
 0001:00067180       ?ParseDispInfoChunk@@YAPAUmapdispinfo_t@@XZ 00468180 f   map.obj
 0001:00067540       ?PlaneEqual@@YAHPAUplane_t@@AAVVector@@MMM@Z 00468540 f   map.obj
 0001:000675b0       ?PlaneFromPoints@@YAHABVVector@@00@Z 004685b0 f   map.obj
 0001:00067780       ?PlaneTypeForNormal@@YAHAAVVector@@@Z 00468780 f   map.obj
 0001:00067830       ?Purge@?$CUtlVector@HV?$CUtlMemory@H@@@@QAEXXZ 00468830 f i map.obj
 0001:00067870       ?RemoveContentsDetailFromBrush@@YAXPAUmapbrush_t@@@Z 00468870 f   map.obj
 0001:000678a0       ?RemoveContentsDetailFromEntity@@YAXPAUentity_t@@@Z 004688a0 f   map.obj
 0001:00067900       ?ReportError@CMapError@@QAEXPBD@Z 00468900 f i map.obj
 0001:00067930       ?ShiftElementsRight@?$CUtlVector@Umapoverlay_t@@V?$CUtlMemory@Umapoverlay_t@@@@@@IAEXHH@Z 00468930 f i map.obj
 0001:00067980       ?SideIDToIndex@@YAHH@Z     00468980 f   map.obj
 0001:000679b0       ?SnapPlane@@YAXAAVVector@@AAM@Z 004689b0 f   map.obj
 0001:00067a10       ?SnapPlane@@YAXAAVVector@@AAMABV1@22@Z 00468a10 f   map.obj
 0001:00067b10       ?SnapVector@@YA_NAAVVector@@@Z 00468b10 f   map.obj
 0001:00067bc0       ?TestExpandBrushes@@YAXXZ  00468bc0 f   map.obj
 0001:00067de0       ??0?$CUtlMemory@UNode_t@?$CUtlRBTree@UNameTranslationLookup_t@@HP6A_NABU1@0@Z@@@@QAE@HH@Z 00468de0 f i materialpatch.obj
 0001:00067e20       ??1?$CUtlMemory@UNode_t@?$CUtlRBTree@UNameTranslationLookup_t@@HP6A_NABU1@0@Z@@@@QAE@XZ 00468e20 f i materialpatch.obj
 0001:00067e50       ?AddNewTranslation@@YAXPBD0@Z 00468e50 f   materialpatch.obj
 0001:00067f20       ?CreateMaterialPatch@@YAXPBD000W4MaterialPatchType_t@@@Z 00468f20 f   materialpatch.obj
 0001:00067f60       ?CreateMaterialPatch@@YAXPBD0HPBUMaterialPatchInfo_t@@W4MaterialPatchType_t@@@Z 00468f60 f   materialpatch.obj
 0001:000681d0       ?CreateMaterialPatchRecursive@@YAXPAVKeyValues@@0HPBUMaterialPatchInfo_t@@@Z 004691d0 f   materialpatch.obj
 0001:000682c0       ?DoesMaterialHaveKey@@YA_NPBD0@Z 004692c0 f   materialpatch.obj
 0001:000683c0       ?DoesMaterialHaveKeyValuePair@@YA_NPBD00@Z 004693c0 f   materialpatch.obj
 0001:00068600       ?Find@?$CUtlRBTree@UNameTranslationLookup_t@@HP6A_NABU1@0@Z@@QBEHABUNameTranslationLookup_t@@@Z 00469600 f i materialpatch.obj
 0001:00068680       ?FindInsertionPosition@?$CUtlRBTree@UNameTranslationLookup_t@@HP6A_NABU1@0@Z@@IAEXABUNameTranslationLookup_t@@AAHAA_N@Z 00469680 f i materialpatch.obj
 0001:000686f0       ?FindOriginalMaterial@@YAPAXPBDPA_N_N@Z 004696f0 f   materialpatch.obj
 0001:00068710       ?GetOriginalMaterialNameForPatchedMaterial@@YAPBDPBD@Z 00469710 f   materialpatch.obj
 0001:00068800       ?GetValueFromMaterial@@YA_NPBD0PADH@Z 00469800 f   materialpatch.obj
 0001:000688b0       ?GetValueFromPatchedMaterial@@YA_NPBD0PADH@Z 004698b0 f   materialpatch.obj
 0001:00068960       ?Grow@?$CUtlMemory@UNode_t@?$CUtlRBTree@UNameTranslationLookup_t@@HP6A_NABU1@0@Z@@@@QAEXH@Z 00469960 f i materialpatch.obj
 0001:000689d0       ?Insert@?$CUtlRBTree@UNameTranslationLookup_t@@HP6A_NABU1@0@Z@@QAEHABUNameTranslationLookup_t@@@Z 004699d0 f i materialpatch.obj
 0001:00068a60       ?InsertAt@?$CUtlRBTree@UNameTranslationLookup_t@@HP6A_NABU1@0@Z@@IAEHH_N@Z 00469a60 f i materialpatch.obj
 0001:00068c80       ?InsertRebalance@?$CUtlRBTree@UNameTranslationLookup_t@@HP6A_NABU1@0@Z@@IAEXH@Z 00469c80 f i materialpatch.obj
 0001:00068e70       ?IsExternallyAllocated@?$CUtlMemory@UNode_t@?$CUtlRBTree@UNameTranslationLookup_t@@HP6A_NABU1@0@Z@@@@QBE_NXZ 00469e70 f i materialpatch.obj
 0001:00068e80       ?LinkToParent@?$CUtlRBTree@UNameTranslationLookup_t@@HP6A_NABU1@0@Z@@IAEXHH_N@Z 00469e80 f i materialpatch.obj
 0001:00068f00       ?Links@?$CUtlRBTree@UNameTranslationLookup_t@@HP6A_NABU1@0@Z@@IBEABULinks_t@1@H@Z 00469f00 f i materialpatch.obj
 0001:00068f80       ?LoadKeyValuesFromPackOrFile@@YA_NPBDPAVKeyValues@@@Z 00469f80 f   materialpatch.obj
 0001:00069010       ?NewNode@?$CUtlRBTree@UNameTranslationLookup_t@@HP6A_NABU1@0@Z@@QAEHXZ 0046a010 f i materialpatch.obj
 0001:000690c0       ?Purge@?$CUtlMemory@UNode_t@?$CUtlRBTree@UNameTranslationLookup_t@@HP6A_NABU1@0@Z@@@@QAEXXZ 0046a0c0 f i materialpatch.obj
 0001:000690f0       ?Purge@?$CUtlRBTree@UNameTranslationLookup_t@@HP6A_NABU1@0@Z@@QAEXXZ 0046a0f0 f i materialpatch.obj
 0001:00069160       ?RotateLeft@?$CUtlRBTree@UNameTranslationLookup_t@@HP6A_NABU1@0@Z@@IAEXH@Z 0046a160 f i materialpatch.obj
 0001:00069250       ?RotateRight@?$CUtlRBTree@UNameTranslationLookup_t@@HP6A_NABU1@0@Z@@IAEXH@Z 0046a250 f i materialpatch.obj
 0001:00069340       ?DeleteMaterialReplacementKeys@@YAXXZ 0046a340 f   materialsub.obj
 0001:00069360       ?LoadMaterialReplacementKeys@@YAXPBD0@Z 0046a360 f   materialsub.obj
 0001:00069480       ?ReplaceMaterialName@@YAPBDPBD@Z 0046a480 f   materialsub.obj
 0001:000694d0       ?Draw_ClearWindow@@YAXXZ   0046a4d0 f   nodraw.obj
 0001:000694e0       ?GLS_BeginScene@@YAXXZ     0046a4e0 f   nodraw.obj
 0001:000694f0       ?GLS_EndScene@@YAXXZ       0046a4f0 f   nodraw.obj
 0001:00069500       ?GLS_Winding@@YAXPAUwinding_t@@H@Z 0046a500 f   nodraw.obj
 0001:00069510       ?SaveVertexNormals@@YAXXZ  0046a510 f   normals.obj
 0001:00069620       ??0?$CUtlMemory@Umapoverlay_t@@@@QAE@HH@Z 0046a620 f i overlay.obj
 0001:00069660       ??1?$CUtlMemory@Umapoverlay_t@@@@QAE@XZ 0046a660 f i overlay.obj
 0001:00069690       ??1?$CUtlVector@Umapoverlay_t@@V?$CUtlMemory@Umapoverlay_t@@@@@@QAE@XZ 0046a690 f i overlay.obj
 0001:00069740       ?GetSide@@YAPAUside_t@@H@Z 0046a740 f   overlay.obj
 0001:00069780       ?OverlayTransition_AddFaceToLists@@YAXHPAUside_t@@@Z 0046a780 f   overlay.obj
 0001:000698c0       ?OverlayTransition_EmitOverlayFace@@YAXPAUmapoverlay_t@@@Z 0046a8c0 f   overlay.obj
 0001:00069bd0       ?OverlayTransition_EmitOverlayFaces@@YAXXZ 0046abd0 f   overlay.obj
 0001:00069f30       ?OverlayTransition_UpdateSideLists@@YAXXZ 0046af30 f   overlay.obj
 0001:0006a0c0       ?Overlay_AddFaceToLists@@YAXHPAUside_t@@@Z 0046b0c0 f   overlay.obj
 0001:0006a1f0       ?Overlay_EmitOverlayFace@@YAXPAUmapoverlay_t@@@Z 0046b1f0 f   overlay.obj
 0001:0006a4f0       ?Overlay_EmitOverlayFaces@@YAXXZ 0046b4f0 f   overlay.obj
 0001:0006a850       ?Overlay_GetFromEntity@@YAXPAUentity_t@@@Z 0046b850 f   overlay.obj
 0001:0006acd0       ?Overlay_UpdateSideLists@@YAXXZ 0046bcd0 f   overlay.obj
 0001:0006ae60       ?Purge@?$CUtlMemory@Umapoverlay_t@@@@QAEXXZ 0046be60 f i overlay.obj
 0001:0006ae90       ?RemoveAll@?$CUtlVector@Umapoverlay_t@@V?$CUtlMemory@Umapoverlay_t@@@@@@QAEXXZ 0046be90 f i overlay.obj
 0001:0006aef0       ??0?$CUtlMemory@PAUportal_t@@@@QAE@HH@Z 0046bef0 f i portals.obj
 0001:0006af30       ??1?$CUtlMemory@PAUportal_t@@@@QAE@XZ 0046bf30 f i portals.obj
 0001:0006af60       ?AddPortalToNodes@@YAXPAUportal_t@@PAUnode_t@@1@Z 0046bf60 f   portals.obj
 0001:0006afb0       ?AllocPortal@@YAPAUportal_t@@XZ 0046bfb0 f   portals.obj
 0001:0006b060       ?AngleOffset@@YAMMM@Z      0046c060 f   portals.obj
 0001:0006b0c0       ?AreaportalBrushForNode@@YAPAUbspbrush_t@@PAUnode_t@@@Z 0046c0c0 f   portals.obj
 0001:0006b0f0       ?BaseWindingForNode@@YAPAUwinding_t@@PAUnode_t@@@Z 0046c0f0 f   portals.obj
 0001:0006b1d0       ?CalcNodeBounds@@YAXPAUnode_t@@@Z 0046c1d0 f   portals.obj
 0001:0006b250       ?ClearOccupied_r@@YAXPAUnode_t@@@Z 0046c250 f   portals.obj
 0001:0006b280       ?ClusterContents@@YAHPAUnode_t@@@Z 0046c280 f   portals.obj
 0001:0006b2d0       ?Convex2D@@YAHPBVVector2D@@HPAHH@Z 0046c2d0 f   portals.obj
 0001:0006b8a0       ?EmitAreaPortals@@YAXPAUnode_t@@@Z 0046c8a0 f   portals.obj
 0001:0006ba60       ?EmitClipPortalGeometry@@YAXPAUnode_t@@PAUportal_t@@HPAUdareaportal_t@@@Z 0046ca60 f   portals.obj
 0001:0006be50       ?FillOutside@@YAXPAUnode_t@@@Z 0046ce50 f   portals.obj
 0001:0006bec0       ?FillOutside_r@@YAXPAUnode_t@@@Z 0046cec0 f   portals.obj
 0001:0006bf20       ?FindAreas_r@@YAXPAUnode_t@@@Z 0046cf20 f   portals.obj
 0001:0006bf80       ?FindPortalSide@@YAXPAUportal_t@@@Z 0046cf80 f   portals.obj
 0001:0006c1b0       ?FindPortalsLeadingToArea_R@@YAXPAUnode_t@@HHPAUplane_t@@AAV?$CUtlVector@PAUportal_t@@V?$CUtlMemory@PAUportal_t@@@@@@@Z 0046d1b0 f   portals.obj
 0001:0006c3f0       ?FindUniquePoints@@YAHPBVVector2D@@HPAHHM@Z 0046d3f0 f   portals.obj
 0001:0006c4a0       ?FloodAreaLeak@@YAXPAUnode_t@@0@Z 0046d4a0 f   portals.obj
 0001:0006c4e0       ?FloodAreaLeak_r@@YAXPAUnode_t@@H@Z 0046d4e0 f   portals.obj
 0001:0006c5a0       ?FloodAreas@@YAXPAUtree_t@@@Z 0046d5a0 f   portals.obj
 0001:0006c620       ?FloodAreas_r@@YAXPAUnode_t@@PAUportal_t@@@Z 0046d620 f   portals.obj
 0001:0006c750       ?FloodEntities@@YAHPAUtree_t@@@Z 0046d750 f   portals.obj
 0001:0006c940       ?FloodPortals_r@@YAXPAUnode_t@@H@Z 0046d940 f   portals.obj
 0001:0006c9e0       ?FreePortal@@YAXPAUportal_t@@@Z 0046d9e0 f   portals.obj
 0001:0006ca20       ?Grow@?$CUtlMemory@PAUportal_t@@@@QAEXH@Z 0046da20 f i portals.obj
 0001:0006ca90       ?GrowVector@?$CUtlVector@PAUportal_t@@V?$CUtlMemory@PAUportal_t@@@@@@IAEXH@Z 0046da90 f i portals.obj
 0001:0006cb20       ?InsertBefore@?$CUtlVector@PAUportal_t@@V?$CUtlMemory@PAUportal_t@@@@@@QAEHHABQAUportal_t@@@Z 0046db20 f i portals.obj
 0001:0006cbd0       ?InsertBefore@?$CUtlVector@VVector2D@@V?$CUtlMemory@VVector2D@@@@@@QAEHHABVVector2D@@@Z 0046dbd0 f i portals.obj
 0001:0006cc90       ?IsAreaportalNode@@YA_NPAUnode_t@@@Z 0046dc90 f   portals.obj
 0001:0006cca0       ?IsExternallyAllocated@?$CUtlMemory@PAUportal_t@@@@QBE_NXZ 0046dca0 f i portals.obj
 0001:0006ccb0       ?MakeHeadnodePortals@@YAXPAUtree_t@@@Z 0046dcb0 f   portals.obj
 0001:0006cf50       ?MakeNodePortal@@YAXPAUnode_t@@@Z 0046df50 f   portals.obj
 0001:0006d200       ?MakeTreePortals@@YAXPAUtree_t@@@Z 0046e200 f   portals.obj
 0001:0006d220       ?MakeTreePortals_r@@YAXPAUnode_t@@@Z 0046e220 f   portals.obj
 0001:0006d330       ?MarkVisibleSides@@YAXPAUtree_t@@HHH@Z 0046e330 f   portals.obj
 0001:0006d410       ?MarkVisibleSides@@YAXPAUtree_t@@PAPAUmapbrush_t@@H@Z 0046e410 f   portals.obj
 0001:0006d4d0       ?MarkVisibleSides_r@@YAXPAUnode_t@@@Z 0046e4d0 f   portals.obj
 0001:0006d550       ?PlaceOccupant@@YAHPAUnode_t@@AAVVector@@PAUentity_t@@@Z 0046e550 f   portals.obj
 0001:0006d5e0       ?Portal_AreaLeakFlood@@YAHPAUportal_t@@H@Z 0046e5e0 f   portals.obj
 0001:0006d640       ?Portal_EntityFlood@@YAHPAUportal_t@@H@Z 0046e640 f   portals.obj
 0001:0006d690       ?Portal_VisFlood@@YAHPAUportal_t@@@Z 0046e690 f   portals.obj
 0001:0006d780       ?PrintPortal@@YAXPAUportal_t@@@Z 0046e780 f   portals.obj
 0001:0006d7e0       ?Purge@?$CUtlMemory@PAUportal_t@@@@QAEXXZ 0046e7e0 f i portals.obj
 0001:0006d810       ?RemoveAll@?$CUtlVector@PAUportal_t@@V?$CUtlMemory@PAUportal_t@@@@@@QAEXXZ 0046e810 f i portals.obj
 0001:0006d820       ?RemovePortalFromNode@@YAXPAUportal_t@@PAUnode_t@@@Z 0046e820 f   portals.obj
 0001:0006d8a0       ?ReportAreaportalLeak@@YAXPAUtree_t@@PAUnode_t@@@Z 0046e8a0 f   portals.obj
 0001:0006d9e0       ?SetAreaPortalAreas_r@@YAXPAUtree_t@@PAUnode_t@@@Z 0046e9e0 f   portals.obj
 0001:0006dba0       ?SetNodeAreaIndices_R@@YAXPAUnode_t@@@Z 0046eba0 f   portals.obj
 0001:0006dbe0       ?ShiftElementsRight@?$CUtlVector@PAUportal_t@@V?$CUtlMemory@PAUportal_t@@@@@@IAEXHH@Z 0046ebe0 f i portals.obj
 0001:0006dc20       ?SplitNodePortals@@YAXPAUnode_t@@@Z 0046ec20 f   portals.obj
 0001:0006e030       ?VisibleContents@@YAHH@Z   0046f030 f   portals.obj
 0001:0006e060       ?AddBSPPortal@@YAPAUdportal_t@@PAUportal_t@@AAVVector@@MH@Z 0046f060 f   prtfile.obj
 0001:0006e160       ?CreateVisPortals_r@@YAXPAUnode_t@@@Z 0046f160 f   prtfile.obj
 0001:0006e1a0       ?FillLeafNumbers_r@@YAXPAUnode_t@@H@Z 0046f1a0 f   prtfile.obj
 0001:0006e1e0       ?NumberLeafs_r@@YAXPAUnode_t@@@Z 0046f1e0 f   prtfile.obj
 0001:0006e260       ?SaveClusterPortalList@@YAXXZ 0046f260 f   prtfile.obj
 0001:0006e330       ?SaveClusters_r@@YAXPAUnode_t@@@Z 0046f330 f   prtfile.obj
 0001:0006e380       ?WriteFloat@@YAXPAU_iobuf@@M@Z 0046f380 f   prtfile.obj
 0001:0006e420       ?WritePortalFile@@YAXPAUtree_t@@@Z 0046f420 f   prtfile.obj
 0001:0006e640       ?WritePortalFile_r@@YAXPAUnode_t@@@Z 0046f640 f   prtfile.obj
 0001:0006eac0       ??0?$CUtlMemory@UNode_t@?$CUtlRBTree@UModelCollisionLookup_t@@GP6A_NABU1@0@Z@@@@QAE@HH@Z 0046fac0 f i StaticProp.obj
 0001:0006eb00       ??0?$CUtlMemory@UStaticPropDictLump_t@@@@QAE@HH@Z 0046fb00 f i StaticProp.obj
 0001:0006eb40       ??0?$CUtlMemory@UStaticPropLeafLump_t@@@@QAE@HH@Z 0046fb40 f i StaticProp.obj
 0001:0006eb80       ??0?$CUtlMemory@UStaticPropLump_t@@@@QAE@HH@Z 0046fb80 f i StaticProp.obj
 0001:0006ebc0       ??1?$CUtlMemory@UNode_t@?$CUtlRBTree@UModelCollisionLookup_t@@GP6A_NABU1@0@Z@@@@QAE@XZ 0046fbc0 f i StaticProp.obj
 0001:0006ebf0       ??1?$CUtlMemory@UStaticPropDictLump_t@@@@QAE@XZ 0046fbf0 f i StaticProp.obj
 0001:0006ec20       ??1?$CUtlMemory@UStaticPropLeafLump_t@@@@QAE@XZ 0046fc20 f i StaticProp.obj
 0001:0006ec50       ??1?$CUtlMemory@UStaticPropLump_t@@@@QAE@XZ 0046fc50 f i StaticProp.obj
 0001:0006f1a0       ?ComputeConvexHull@@YAPAVCPhysCollide@@PAUstudiohdr_t@@@Z 004701a0 f   StaticProp.obj
 0001:0006f5c0       ?EmitStaticProps@@YAXXZ    004705c0 f   StaticProp.obj
 0001:0006f9a0       ?Find@?$CUtlRBTree@UModelCollisionLookup_t@@GP6A_NABU1@0@Z@@QBEGABUModelCollisionLookup_t@@@Z 004709a0 f i StaticProp.obj
 0001:0006fa20       ?FindInsertionPosition@?$CUtlRBTree@UModelCollisionLookup_t@@GP6A_NABU1@0@Z@@IAEXABUModelCollisionLookup_t@@AAGAA_N@Z 00470a20 f i StaticProp.obj
 0001:0006fcd0       ?GetVertexData@mstudiomesh_t@@QAEPBUmstudio_meshvertexdata_t@@XZ 00470cd0 f i StaticProp.obj
 0001:0006fed0       ?GetVertexData@mstudiomodel_t@@QAEPBUmstudio_modelvertexdata_t@@XZ 00470ed0 f   StaticProp.obj
 0001:000700a0       ?Grow@?$CUtlMemory@UNode_t@?$CUtlRBTree@UModelCollisionLookup_t@@GP6A_NABU1@0@Z@@@@QAEXH@Z 004710a0 f i StaticProp.obj
 0001:00070110       ?Grow@?$CUtlMemory@UStaticPropDictLump_t@@@@QAEXH@Z 00471110 f i StaticProp.obj
 0001:00070180       ?Grow@?$CUtlMemory@UStaticPropLeafLump_t@@@@QAEXH@Z 00471180 f i StaticProp.obj
 0001:000701f0       ?Grow@?$CUtlMemory@UStaticPropLump_t@@@@QAEXH@Z 004711f0 f i StaticProp.obj
 0001:00070260       ?GrowVector@?$CUtlVector@UStaticPropDictLump_t@@V?$CUtlMemory@UStaticPropDictLump_t@@@@@@IAEXH@Z 00471260 f i StaticProp.obj
 0001:000702f0       ?GrowVector@?$CUtlVector@UStaticPropLeafLump_t@@V?$CUtlMemory@UStaticPropLeafLump_t@@@@@@IAEXH@Z 004712f0 f i StaticProp.obj
 0001:00070380       ?GrowVector@?$CUtlVector@UStaticPropLump_t@@V?$CUtlMemory@UStaticPropLump_t@@@@@@IAEXH@Z 00471380 f i StaticProp.obj
 0001:00070410       ?Insert@?$CUtlRBTree@UModelCollisionLookup_t@@GP6A_NABU1@0@Z@@QAEGABUModelCollisionLookup_t@@@Z 00471410 f i StaticProp.obj
 0001:000704b0       ?InsertAt@?$CUtlRBTree@UModelCollisionLookup_t@@GP6A_NABU1@0@Z@@IAEGG_N@Z 004714b0 f i StaticProp.obj
 0001:000705c0       ?InsertBefore@?$CUtlVector@UStaticPropDictLump_t@@V?$CUtlMemory@UStaticPropDictLump_t@@@@@@QAEHHABUStaticPropDictLump_t@@@Z 004715c0 f i StaticProp.obj
 0001:00070670       ?InsertBefore@?$CUtlVector@UStaticPropLeafLump_t@@V?$CUtlMemory@UStaticPropLeafLump_t@@@@@@QAEHHABUStaticPropLeafLump_t@@@Z 00471670 f i StaticProp.obj
 0001:00070720       ?InsertBefore@?$CUtlVector@UStaticPropLump_t@@V?$CUtlMemory@UStaticPropLump_t@@@@@@QAEHH@Z 00471720 f i StaticProp.obj
 0001:000707d0       ?InsertRebalance@?$CUtlRBTree@UModelCollisionLookup_t@@GP6A_NABU1@0@Z@@IAEXG@Z 004717d0 f i StaticProp.obj
 0001:00070a00       ?IsExternallyAllocated@?$CUtlMemory@UNode_t@?$CUtlRBTree@UModelCollisionLookup_t@@GP6A_NABU1@0@Z@@@@QBE_NXZ 00471a00 f i StaticProp.obj
 0001:00070a10       ?IsExternallyAllocated@?$CUtlMemory@UStaticPropDictLump_t@@@@QBE_NXZ 00471a10 f i StaticProp.obj
 0001:00070a20       ?IsExternallyAllocated@?$CUtlMemory@UStaticPropLeafLump_t@@@@QBE_NXZ 00471a20 f i StaticProp.obj
 0001:00070a30       ?IsExternallyAllocated@?$CUtlMemory@UStaticPropLump_t@@@@QBE_NXZ 00471a30 f i StaticProp.obj
 0001:00070a40       ?IsStaticProp@@YA?AW4isstaticprop_ret@@PAUstudiohdr_t@@@Z 00471a40 f   StaticProp.obj
 0001:00070af0       ?LinkToParent@?$CUtlRBTree@UModelCollisionLookup_t@@GP6A_NABU1@0@Z@@IAEXGG_N@Z 00471af0 f i StaticProp.obj
 0001:00070b70       ?Links@?$CUtlRBTree@UModelCollisionLookup_t@@GP6A_NABU1@0@Z@@IBEABULinks_t@1@G@Z 00471b70 f i StaticProp.obj
 0001:00070c00       ?LoadStudioModel@@YA_NPBD0AAVCUtlBuffer@@@Z 00471c00 f   StaticProp.obj
 0001:00070d70       ?NewNode@?$CUtlRBTree@UModelCollisionLookup_t@@GP6A_NABU1@0@Z@@QAEGXZ 00471d70 f i StaticProp.obj
 0001:00070e30       ?Purge@?$CUtlMemory@UNode_t@?$CUtlRBTree@UModelCollisionLookup_t@@GP6A_NABU1@0@Z@@@@QAEXXZ 00471e30 f i StaticProp.obj
 0001:00070e60       ?Purge@?$CUtlMemory@UStaticPropDictLump_t@@@@QAEXXZ 00471e60 f i StaticProp.obj
 0001:00070e90       ?Purge@?$CUtlMemory@UStaticPropLeafLump_t@@@@QAEXXZ 00471e90 f i StaticProp.obj
 0001:00070ec0       ?Purge@?$CUtlMemory@UStaticPropLump_t@@@@QAEXXZ 00471ec0 f i StaticProp.obj
 0001:00070ef0       ?Purge@?$CUtlRBTree@UModelCollisionLookup_t@@GP6A_NABU1@0@Z@@QAEXXZ 00471ef0 f i StaticProp.obj
 0001:00070f50       ?RemoveAll@?$CUtlVector@UStaticPropDictLump_t@@V?$CUtlMemory@UStaticPropDictLump_t@@@@@@QAEXXZ 00471f50 f i StaticProp.obj
 0001:00070f60       ?RemoveAll@?$CUtlVector@UStaticPropLeafLump_t@@V?$CUtlMemory@UStaticPropLeafLump_t@@@@@@QAEXXZ 00471f60 f i StaticProp.obj
 0001:00070f70       ?RemoveAll@?$CUtlVector@UStaticPropLump_t@@V?$CUtlMemory@UStaticPropLump_t@@@@@@QAEXXZ 00471f70 f i StaticProp.obj
 0001:00070f80       ?RotateLeft@?$CUtlRBTree@UModelCollisionLookup_t@@GP6A_NABU1@0@Z@@IAEXG@Z 00471f80 f i StaticProp.obj
 0001:00071080       ?RotateRight@?$CUtlRBTree@UModelCollisionLookup_t@@GP6A_NABU1@0@Z@@IAEXG@Z 00472080 f i StaticProp.obj
 0001:00071190       ?ShiftElementsRight@?$CUtlVector@UStaticPropDictLump_t@@V?$CUtlMemory@UStaticPropDictLump_t@@@@@@IAEXHH@Z 00472190 f i StaticProp.obj
 0001:000711d0       ?ShiftElementsRight@?$CUtlVector@UStaticPropLeafLump_t@@V?$CUtlMemory@UStaticPropLeafLump_t@@@@@@IAEXHH@Z 004721d0 f i StaticProp.obj
 0001:00071210       ?ShiftElementsRight@?$CUtlVector@UStaticPropLump_t@@V?$CUtlMemory@UStaticPropLump_t@@@@@@IAEXHH@Z 00472210 f i StaticProp.obj
 0001:00071260       ?StudioKeyValues@@YA_NPAUstudiohdr_t@@PAVKeyValues@@@Z 00472260 f   StaticProp.obj
 0001:000713d0       ?AddCloneTexData@@YAHPAUdtexdata_t@@PBD@Z 004723d0 f   textures.obj
 0001:00071460       ?FindAliasedTexData@@YAHPBDPAUdtexdata_t@@@Z 00472460 f   textures.obj
 0001:00071600       ?FindMiptex@@YAHPBD@Z      00472600 f   textures.obj
 0001:00071d70       ?FindOrCreateTexData@@YAHPBD@Z 00472d70 f   textures.obj
 0001:00071ed0       ?FindOrCreateTexInfo@@YAHABUtexinfo_s@@@Z 00472ed0 f   textures.obj
 0001:00072050       ?FindTexData@@YAHPBD@Z     00473050 f   textures.obj
 0001:000720b0       ?FindTexInfo@@YAHABUtexinfo_s@@@Z 004730b0 f   textures.obj
 0001:00072120       ?GetSurfaceProperties2@@YAHPAXPBD@Z 00473120 f   textures.obj
 0001:00072190       ?GetSurfaceProperties@@YAHPAXPBD@Z 00473190 f   textures.obj
 0001:00072200       ?GetTexData@@YAPAUdtexdata_t@@H@Z 00473200 f   textures.obj
 0001:00072220       ?LoadSurfacePropFile@@YAXPBD@Z 00473220 f   textures.obj
 0001:00072290       ?LoadSurfaceProperties@@YAXXZ 00473290 f   textures.obj
 0001:00072410       ?TexinfoForBrushTexture@@YAHPAUplane_t@@PAUbrush_texture_t@@ABVVector@@@Z 00473410 f   textures.obj
 0001:00072b10       ?TextureAxisFromPlane@@YAXPAUplane_t@@AAVVector@@1@Z 00473b10 f   textures.obj
 0001:00072cb0       ?FreeTree@@YAXPAUtree_t@@@Z 00473cb0 f   tree.obj
 0001:00072ce0       ?FreeTreePortals_r@@YAXPAUnode_t@@@Z 00473ce0 f   tree.obj
 0001:00072d60       ?FreeTree_r@@YAXPAUnode_t@@@Z 00473d60 f   tree.obj
 0001:00072de0       ?NodeForPoint@@YAPAUnode_t@@PAU1@AAVVector@@@Z 00473de0 f   tree.obj
 0001:00072e60       ?PrintTree_r@@YAXPAUnode_t@@H@Z 00473e60 f   tree.obj
 0001:00072f40       ?PruneNodes@@YAXPAUnode_t@@@Z 00473f40 f   tree.obj
 0001:00072f80       ?PruneNodes_r@@YAXPAUnode_t@@@Z 00473f80 f   tree.obj
 0001:00073040       ??0?$CUtlMemory@PAUface_t@@@@QAE@HH@Z 00474040 f i vbsp.obj
 0001:00073080       ??0?$CUtlMemory@PAUmapbrush_t@@@@QAE@HH@Z 00474080 f i vbsp.obj
 0001:000730c0       ??0?$CUtlMemory@PAUside_t@@@@QAE@HH@Z 004740c0 f i vbsp.obj
 0001:00073100       ??0?$CUtlMemory@UOccluderInfo_t@@@@QAE@HH@Z 00474100 f i vbsp.obj
 0001:00073140       ??1?$CUtlMemory@PAUface_t@@@@QAE@XZ 00474140 f i vbsp.obj
 0001:00073170       ??1?$CUtlMemory@PAUmapbrush_t@@@@QAE@XZ 00474170 f i vbsp.obj
 0001:000731a0       ??1?$CUtlMemory@PAUside_t@@@@QAE@XZ 004741a0 f i vbsp.obj
 0001:000731d0       ??1?$CUtlMemory@UOccluderInfo_t@@@@QAE@XZ 004741d0 f i vbsp.obj
 0001:00073200       ?AssignAreaToOccluder@@YAXHPAUtree_t@@_N@Z 00474200 f   vbsp.obj
 0001:000733e0       ?AssignOccluderAreas@@YAXPAUtree_t@@@Z 004743e0 f   vbsp.obj
 0001:00073430       ?BlockTree@@YAPAUnode_t@@HHHH@Z 00474430 f   vbsp.obj
 0001:00073730       ?ComputeOccluderBrushArea@@YAMPAUmapbrush_t@@@Z 00474730 f   vbsp.obj
 0001:00073e80       ?FixupOnlyEntsOccluderEntities@@YAXXZ 00474e80 f   vbsp.obj
 0001:00074170       ?Grow@?$CUtlMemory@PAUface_t@@@@QAEXH@Z 00475170 f i vbsp.obj
 0001:000741e0       ?Grow@?$CUtlMemory@PAUmapbrush_t@@@@QAEXH@Z 004751e0 f i vbsp.obj
 0001:00074250       ?Grow@?$CUtlMemory@PAUside_t@@@@QAEXH@Z 00475250 f i vbsp.obj
 0001:000742c0       ?Grow@?$CUtlMemory@UOccluderInfo_t@@@@QAEXH@Z 004752c0 f i vbsp.obj
 0001:00074330       ?GrowVector@?$CUtlVector@PAUface_t@@V?$CUtlMemory@PAUface_t@@@@@@IAEXH@Z 00475330 f i vbsp.obj
 0001:000743c0       ?GrowVector@?$CUtlVector@PAUmapbrush_t@@V?$CUtlMemory@PAUmapbrush_t@@@@@@IAEXH@Z 004753c0 f i vbsp.obj
 0001:00074450       ?GrowVector@?$CUtlVector@PAUside_t@@V?$CUtlMemory@PAUside_t@@@@@@IAEXH@Z 00475450 f i vbsp.obj
 0001:000744e0       ?GrowVector@?$CUtlVector@UOccluderInfo_t@@V?$CUtlMemory@UOccluderInfo_t@@@@@@IAEXH@Z 004754e0 f i vbsp.obj
 0001:00074570       ?InsertBefore@?$CUtlVector@PAUface_t@@V?$CUtlMemory@PAUface_t@@@@@@QAEHHABQAUface_t@@@Z 00475570 f i vbsp.obj
 0001:00074620       ?InsertBefore@?$CUtlVector@PAUmapbrush_t@@V?$CUtlMemory@PAUmapbrush_t@@@@@@QAEHHABQAUmapbrush_t@@@Z 00475620 f i vbsp.obj
 0001:000746d0       ?InsertBefore@?$CUtlVector@PAUside_t@@V?$CUtlMemory@PAUside_t@@@@@@QAEHHABQAUside_t@@@Z 004756d0 f i vbsp.obj
 0001:00074780       ?InsertBefore@?$CUtlVector@UOccluderInfo_t@@V?$CUtlMemory@UOccluderInfo_t@@@@@@QAEHH@Z 00475780 f i vbsp.obj
 0001:00074820       ?InsertBefore@?$CUtlVector@Udoccluderdata_t@@V?$CUtlMemory@Udoccluderdata_t@@@@@@QAEHH@Z 00475820 f i vbsp.obj
 0001:000748c0       ?InsertBefore@?$CUtlVector@Udoccluderpolydata_t@@V?$CUtlMemory@Udoccluderpolydata_t@@@@@@QAEHH@Z 004758c0 f i vbsp.obj
 0001:00074960       ?IsExternallyAllocated@?$CUtlMemory@PAUface_t@@@@QBE_NXZ 00475960 f i vbsp.obj
 0001:00074970       ?IsExternallyAllocated@?$CUtlMemory@PAUmapbrush_t@@@@QBE_NXZ 00475970 f i vbsp.obj
 0001:00074980       ?IsExternallyAllocated@?$CUtlMemory@PAUside_t@@@@QBE_NXZ 00475980 f i vbsp.obj
 0001:00074990       ?IsExternallyAllocated@?$CUtlMemory@UOccluderInfo_t@@@@QBE_NXZ 00475990 f i vbsp.obj
 0001:000749a0       ?IsFuncOccluder@@YA_NH@Z   004759a0 f   vbsp.obj
 0001:00074a00       ?LoadPhysicsDLL@@YAXXZ     00475a00 f   vbsp.obj
 0001:00074a10       ?MarkNoDynamicShadowSides@@YAXXZ 00475a10 f   vbsp.obj
 0001:00074a70       ?PrintCommandLine@@YAXHPAPAD@Z 00475a70 f   vbsp.obj
 0001:00074ac0       ?ProcessBlock_Thread@@YAXHH@Z 00475ac0 f   vbsp.obj
 0001:00074bd0       ?ProcessModels@@YAXXZ      00475bd0 f   vbsp.obj
 0001:00074dd0       ?ProcessSubModel@@YAXXZ    00475dd0 f   vbsp.obj
 0001:00074ed0       ?ProcessWorldModel@@YAXXZ  00475ed0 f   vbsp.obj
 0001:00075390       ?Purge@?$CUtlMemory@PAUface_t@@@@QAEXXZ 00476390 f i vbsp.obj
 0001:000753c0       ?Purge@?$CUtlMemory@PAUmapbrush_t@@@@QAEXXZ 004763c0 f i vbsp.obj
 0001:000753f0       ?Purge@?$CUtlMemory@PAUside_t@@@@QAEXXZ 004763f0 f i vbsp.obj
 0001:00075420       ?Purge@?$CUtlMemory@UOccluderInfo_t@@@@QAEXXZ 00476420 f i vbsp.obj
 0001:00075450       ?RemoveAll@?$CUtlVector@PAUface_t@@V?$CUtlMemory@PAUface_t@@@@@@QAEXXZ 00476450 f i vbsp.obj
 0001:00075460       ?RemoveAll@?$CUtlVector@PAUmapbrush_t@@V?$CUtlMemory@PAUmapbrush_t@@@@@@QAEXXZ 00476460 f i vbsp.obj
 0001:00075470       ?RemoveAll@?$CUtlVector@PAUside_t@@V?$CUtlMemory@PAUside_t@@@@@@QAEXXZ 00476470 f i vbsp.obj
 0001:00075480       ?RemoveAll@?$CUtlVector@UOccluderInfo_t@@V?$CUtlMemory@UOccluderInfo_t@@@@@@QAEXXZ 00476480 f i vbsp.obj
 0001:000754a0       ?RunVBSP@@YAHHPAPAD@Z      004764a0 f   vbsp.obj
 0001:00076250       ?SetOccluderArea@@YAXHHH@Z 00477250 f   vbsp.obj
 0001:000762b0       ?ShiftElementsRight@?$CUtlVector@PAUface_t@@V?$CUtlMemory@PAUface_t@@@@@@IAEXHH@Z 004772b0 f i vbsp.obj
 0001:000762f0       ?ShiftElementsRight@?$CUtlVector@PAUmapbrush_t@@V?$CUtlMemory@PAUmapbrush_t@@@@@@IAEXHH@Z 004772f0 f i vbsp.obj
 0001:00076330       ?ShiftElementsRight@?$CUtlVector@PAUside_t@@V?$CUtlMemory@PAUside_t@@@@@@IAEXHH@Z 00477330 f i vbsp.obj
 0001:00076370       ?ShiftElementsRight@?$CUtlVector@UOccluderInfo_t@@V?$CUtlMemory@UOccluderInfo_t@@@@@@IAEXHH@Z 00477370 f i vbsp.obj
 0001:000763b0       __snprintf                 004773b0 f i vbsp.obj
 0001:000763f0       _main                      004773f0 f   vbsp.obj
 0001:00076400       ??0?$CUtlDict@HH@@QAE@_NHH@Z 00477400 f i writebsp.obj
 0001:00076480       ??0?$CUtlMemory@UNode_t@?$CUtlRBTree@UNode_t@?$CUtlMap@PBDHH@@HVCKeyLess@2@@@@@QAE@HH@Z 00477480 f i writebsp.obj
 0001:000764c0       ??0?$CUtlMemory@Udtexdata_t@@@@QAE@HH@Z 004774c0 f i writebsp.obj
 0001:00076500       ??1?$CUtlDict@HH@@QAE@XZ   00477500 f i writebsp.obj
 0001:00076510       ??1?$CUtlMemory@UNode_t@?$CUtlRBTree@UNode_t@?$CUtlMap@PBDHH@@HVCKeyLess@2@@@@@QAE@XZ 00477510 f i writebsp.obj
 0001:00076540       ??1?$CUtlMemory@Udtexdata_t@@@@QAE@XZ 00477540 f i writebsp.obj
 0001:00076570       ??1?$CUtlRBTree@UNode_t@?$CUtlMap@PBDHH@@HVCKeyLess@2@@@QAE@XZ 00477570 f i writebsp.obj
 0001:00076610       ?AddDispsToBounds@@YAXHAAV?$CUtlVector@HV?$CUtlMemory@H@@@@AAVVector@@1@Z 00477610 f   writebsp.obj
 0001:00076880       ?AddToTail@?$CUtlVector@Utexinfo_s@@V?$CUtlMemory@Utexinfo_s@@@@@@QAEHABUtexinfo_s@@@Z 00477880 f i writebsp.obj
 0001:00076900       ?BeginBSPFile@@YAXXZ       00477900 f   writebsp.obj
 0001:00076970       ?BeginModel@@YAXXZ         00477970 f   writebsp.obj
 0001:00076a80       ?CaselessStringLessThan@@YA_NABQBD0@Z 00477a80 f i writebsp.obj
 0001:00076aa0       ?ComapctTexinfoArray@@YAXPAUtexinfomap_t@@@Z 00477aa0 f   writebsp.obj
 0001:00076c60       ?CompactTexdataArray@@YAXPAUtexdatamap_t@@@Z 00477c60 f   writebsp.obj
 0001:00076f70       ?CompactTexinfos@@YAXXZ    00477f70 f   writebsp.obj
 0001:00077390       ?ComputeBoundsNoSkybox@@YAXXZ 00478390 f   writebsp.obj
 0001:000776d0       ?CopyArray@?$CUtlVector@Udtexdata_t@@V?$CUtlMemory@Udtexdata_t@@@@@@QAEXPBUdtexdata_t@@H@Z 004786d0 f i writebsp.obj
 0001:00077750       ?CopyArray@?$CUtlVector@Utexinfo_s@@V?$CUtlMemory@Utexinfo_s@@@@@@QAEXPBUtexinfo_s@@H@Z 00478750 f i writebsp.obj
 0001:000777e0       ?CreateOrigFace@@YAHPAUface_t@@@Z 004787e0 f   writebsp.obj
 0001:00077a40       ?DiscoverMacroTextures@@YAXXZ 00478a40 f   writebsp.obj
 0001:00077d20       ?EmitBrushes@@YAXXZ        00478d20 f   writebsp.obj
 0001:00077f60       ?EmitDrawNode_r@@YAHPAUnode_t@@@Z 00478f60 f   writebsp.obj
 0001:000780d0       ?EmitFace@@YAXPAUface_t@@H@Z 004790d0 f   writebsp.obj
 0001:000783a0       ?EmitLeaf@@YAXPAUnode_t@@@Z 004793a0 f   writebsp.obj
 0001:000785b0       ?EmitLeafFaces@@YAXPAUface_t@@@Z 004795b0 f   writebsp.obj
 0001:000788c0       ?EmitMarkFace@@YAXPAUdleaf_t@@PAUface_t@@@Z 004798c0 f   writebsp.obj
 0001:00078970       ?EmitPlanes@@YAXXZ         00479970 f   writebsp.obj
 0001:000789d0       ?EndBSPFile@@YAXXZ         004799d0 f   writebsp.obj
 0001:00078bc0       ?EndModel@@YAXXZ           00479bc0 f   writebsp.obj
 0001:00078bf0       ?EnsurePresenceOfWaterLODControlEntity@@YAXXZ 00479bf0 f   writebsp.obj
 0001:00078cf0       ?Find@?$CUtlDict@HH@@QBEHPBD@Z 00479cf0 f i writebsp.obj
 0001:00078d80       ?Find@?$CUtlRBTree@UNode_t@?$CUtlMap@PBDHH@@HVCKeyLess@2@@@QBEHABUNode_t@?$CUtlMap@PBDHH@@@Z 00479d80 f i writebsp.obj
 0001:00078e00       ?FindInsertionPosition@?$CUtlRBTree@UNode_t@?$CUtlMap@PBDHH@@HVCKeyLess@2@@@IAEXABUNode_t@?$CUtlMap@PBDHH@@AAHAA_N@Z 00479e00 f i writebsp.obj
 0001:00078e70       ?FindMatchingBrushSideTexinfo@@YAHHPBUtexinfomap_t@@@Z 00479e70 f   writebsp.obj
 0001:00078ef0       ?FindOrCreateOrigFace@@YAHPAUface_t@@@Z 00479ef0 f   writebsp.obj
 0001:00078f70       ?FindOrigFace@@YAHPAUface_t@@@Z 00479f70 f   writebsp.obj
 0001:00078fd0       ?FirstInorder@?$CUtlRBTree@UNode_t@?$CUtlMap@PBDHH@@HVCKeyLess@2@@@QBEHXZ 00479fd0 f i writebsp.obj
 0001:00079000       ?FreeLeafFaces@@YAXPAUface_t@@@Z 0047a000 f   writebsp.obj
 0001:00079030       ?Grow@?$CUtlMemory@UNode_t@?$CUtlRBTree@UNode_t@?$CUtlMap@PBDHH@@HVCKeyLess@2@@@@@QAEXH@Z 0047a030 f i writebsp.obj
 0001:000790a0       ?Grow@?$CUtlMemory@Udtexdata_t@@@@QAEXH@Z 0047a0a0 f i writebsp.obj
 0001:00079110       ?GrowVector@?$CUtlVector@Udtexdata_t@@V?$CUtlMemory@Udtexdata_t@@@@@@IAEXH@Z 0047a110 f i writebsp.obj
 0001:000791a0       ?Insert@?$CUtlDict@HH@@QAEHPBDABH@Z 0047a1a0 f i writebsp.obj
 0001:00079280       ?Insert@?$CUtlRBTree@UNode_t@?$CUtlMap@PBDHH@@HVCKeyLess@2@@@QAEHABUNode_t@?$CUtlMap@PBDHH@@@Z 0047a280 f i writebsp.obj
 0001:00079310       ?InsertAt@?$CUtlRBTree@UNode_t@?$CUtlMap@PBDHH@@HVCKeyLess@2@@@IAEHH_N@Z 0047a310 f i writebsp.obj
 0001:00079420       ?InsertMultipleBefore@?$CUtlVector@Udtexdata_t@@V?$CUtlMemory@Udtexdata_t@@@@@@QAEHHHPBUdtexdata_t@@@Z 0047a420 f i writebsp.obj
 0001:00079540       ?InsertRebalance@?$CUtlRBTree@UNode_t@?$CUtlMap@PBDHH@@HVCKeyLess@2@@@IAEXH@Z 0047a540 f i writebsp.obj
 0001:00079730       ?IsBoxInsideWorld@@YA_NHAAV?$CUtlVector@HV?$CUtlMemory@H@@@@ABVVector@@1@Z 0047a730 f   writebsp.obj
 0001:000797e0       ?IsExternallyAllocated@?$CUtlMemory@UNode_t@?$CUtlRBTree@UNode_t@?$CUtlMap@PBDHH@@HVCKeyLess@2@@@@@QBE_NXZ 0047a7e0 f i writebsp.obj
 0001:000797f0       ?IsExternallyAllocated@?$CUtlMemory@Udtexdata_t@@@@QBE_NXZ 0047a7f0 f i writebsp.obj
 0001:00079800       ?LinkToParent@?$CUtlRBTree@UNode_t@?$CUtlMap@PBDHH@@HVCKeyLess@2@@@IAEXHH_N@Z 0047a800 f i writebsp.obj
 0001:00079880       ?Links@?$CUtlRBTree@UNode_t@?$CUtlMap@PBDHH@@HVCKeyLess@2@@@IBEABULinks_t@1@H@Z 0047a880 f i writebsp.obj
 0001:00079900       ?MarkNoShadowFaces@@YAXXZ  0047a900 f   writebsp.obj
 0001:00079910       ?NewNode@?$CUtlRBTree@UNode_t@?$CUtlMap@PBDHH@@HVCKeyLess@2@@@QAEHXZ 0047a910 f i writebsp.obj
 0001:000799c0       ?NextInorder@?$CUtlRBTree@UNode_t@?$CUtlMap@PBDHH@@HVCKeyLess@2@@@QBEHH@Z 0047a9c0 f i writebsp.obj
 0001:00079a70       ?PointLeafnum@@YAHPAUdmodel_t@@ABVVector@@@Z 0047aa70 f   writebsp.obj
 0001:00079b00       ?Purge@?$CUtlDict@HH@@QAEXXZ 0047ab00 f i writebsp.obj
 0001:00079b10       ?Purge@?$CUtlMemory@UNode_t@?$CUtlRBTree@UNode_t@?$CUtlMap@PBDHH@@HVCKeyLess@2@@@@@QAEXXZ 0047ab10 f i writebsp.obj
 0001:00079b40       ?Purge@?$CUtlMemory@Udtexdata_t@@@@QAEXXZ 0047ab40 f i writebsp.obj
 0001:00079b70       ?Purge@?$CUtlRBTree@UNode_t@?$CUtlMap@PBDHH@@HVCKeyLess@2@@@QAEXXZ 0047ab70 f i writebsp.obj
 0001:00079be0       ?RemoveAll@?$CUtlDict@HH@@QAEXXZ 0047abe0 f i writebsp.obj
 0001:00079d50       ?RemoveAll@?$CUtlRBTree@UNode_t@?$CUtlMap@PBDHH@@HVCKeyLess@2@@@QAEXXZ 0047ad50 f i writebsp.obj
 0001:00079dd0       ?RemoveAll@?$CUtlVector@Udtexdata_t@@V?$CUtlMemory@Udtexdata_t@@@@@@QAEXXZ 0047add0 f i writebsp.obj
 0001:00079de0       ?RotateLeft@?$CUtlRBTree@UNode_t@?$CUtlMap@PBDHH@@HVCKeyLess@2@@@IAEXH@Z 0047ade0 f i writebsp.obj
 0001:00079ed0       ?RotateRight@?$CUtlRBTree@UNode_t@?$CUtlMap@PBDHH@@HVCKeyLess@2@@@IAEXH@Z 0047aed0 f i writebsp.obj
 0001:00079fc0       ?SetCount@?$CUtlVector@Udtexdata_t@@V?$CUtlMemory@Udtexdata_t@@@@@@QAEXH@Z 0047afc0 f i writebsp.obj
 0001:00079fe0       ?SetLessFunc@?$CUtlRBTree@UNode_t@?$CUtlMap@PBDHH@@HVCKeyLess@2@@@QAEXABVCKeyLess@?$CUtlMap@PBDHH@@@Z 0047afe0 f i writebsp.obj
 0001:0007a000       ?SetLightStyles@@YAXXZ     0047b000 f   writebsp.obj
 0001:0007a180       ?SetModelNumbers@@YAXXZ    0047b180 f   writebsp.obj
 0001:0007a200       ?ShiftElementsRight@?$CUtlVector@Udtexdata_t@@V?$CUtlMemory@Udtexdata_t@@@@@@IAEXHH@Z 0047b200 f i writebsp.obj
 0001:0007a240       ?StringLessThan@@YA_NABQBD0@Z 0047b240 f i writebsp.obj
 0001:0007a280       ?WriteBSP@@YAXPAUnode_t@@PAUface_t@@@Z 0047b280 f   writebsp.obj
 0001:0007a39f       _GetEnvironmentVariableA@12 0047b39f f   kernel32:KERNEL32.dll
 0001:0007a3a5       _GetModuleFileNameA@12     0047b3a5 f   kernel32:KERNEL32.dll
 0001:0007a3ab       _GetModuleHandleA@4        0047b3ab f   kernel32:KERNEL32.dll
 0001:0007a3b1       _Sleep@4                   0047b3b1 f   kernel32:KERNEL32.dll
 0001:0007a3b7       _HeapAlloc@12              0047b3b7 f   kernel32:KERNEL32.dll
 0001:0007a3bd       _GetProcessHeap@0          0047b3bd f   kernel32:KERNEL32.dll
 0001:0007a3c3       _GetCurrentProcess@0       0047b3c3 f   kernel32:KERNEL32.dll
 0001:0007a3c9       _TerminateProcess@8        0047b3c9 f   kernel32:KERNEL32.dll
 0001:0007a3cf       _VirtualQuery@12           0047b3cf f   kernel32:KERNEL32.dll
 0001:0007a3d5       _GetStdHandle@4            0047b3d5 f   kernel32:KERNEL32.dll
 0001:0007a3db       _OutputDebugStringA@4      0047b3db f   kernel32:KERNEL32.dll
 0001:0007a3e1       _InitializeCriticalSection@4 0047b3e1 f   kernel32:KERNEL32.dll
 0001:0007a3e7       _EnterCriticalSection@4    0047b3e7 f   kernel32:KERNEL32.dll
 0001:0007a3ed       _LeaveCriticalSection@4    0047b3ed f   kernel32:KERNEL32.dll
 0001:0007a3f3       _GetConsoleScreenBufferInfo@8 0047b3f3 f   kernel32:KERNEL32.dll
 0001:0007a3f9       _SetConsoleTextAttribute@8 0047b3f9 f   kernel32:KERNEL32.dll
 0001:0007a3ff       _CloseHandle@4             0047b3ff f   kernel32:KERNEL32.dll
 0001:0007a405       _WaitForMultipleObjects@16 0047b405 f   kernel32:KERNEL32.dll
 0001:0007a40b       _CreateThread@24           0047b40b f   kernel32:KERNEL32.dll
 0001:0007a411       _SetThreadPriority@8       0047b411 f   kernel32:KERNEL32.dll
 0001:0007a417       _SetPriorityClass@8        0047b417 f   kernel32:KERNEL32.dll
 0001:0007a41d       _GetSystemInfo@4           0047b41d f   kernel32:KERNEL32.dll
 0001:0007a423       _SetUnhandledExceptionFilter@4 0047b423 f   kernel32:KERNEL32.dll
 0001:0007a429       _RegCloseKey@4             0047b429 f   advapi32:ADVAPI32.dll
 0001:0007a42f       _RegOpenKeyExA@20          0047b42f f   advapi32:ADVAPI32.dll
 0001:0007a435       _RegQueryValueExA@24       0047b435 f   advapi32:ADVAPI32.dll
 0001:0007a43b       _Warning                   0047b43b f   tier0:tier0.dll
 0001:0007a441       _Error                     0047b441 f   tier0:tier0.dll
 0001:0007a447       _CommandLine_Tier0         0047b447 f   tier0:tier0.dll
 0001:0007a44d       _Msg                       0047b44d f   tier0:tier0.dll
 0001:0007a453       _Plat_IsInDebugSession     0047b453 f   tier0:tier0.dll
 0001:0007a459       _WriteMiniDump             0047b459 f   tier0:tier0.dll
 0001:0007a45f       _SpewOutputFunc            0047b45f f   tier0:tier0.dll
 0001:0007a465       _Plat_FloatTime            0047b465 f   tier0:tier0.dll
 0001:0007a46b       _WriteMiniDumpUsingExceptionInfo 0047b46b f   tier0:tier0.dll
 0001:0007a471       _SpewActivate              0047b471 f   tier0:tier0.dll
 0001:0007a477       _RandomSeed                0047b477 f   vstdlib:vstdlib.dll
 0001:0007a47d       _RandomGaussianFloat       0047b47d f   vstdlib:vstdlib.dll
 0001:0007a483       _MemFreeScratch            0047b483 f   vtf:tier0.dll
 0001:0007a489       _MemAllocScratch           0047b489 f   vtf:tier0.dll
 0001:0007a490       ?_sqrtf@@YAMM@Z            0047b490 f   mathlib:mathlib_base.obj
 0001:0007a4e0       ?_rsqrtf@@YAMM@Z           0047b4e0 f   mathlib:mathlib_base.obj
 0001:0007a530       ?_InvRSquared@@YAMPBM@Z    0047b530 f   mathlib:mathlib_base.obj
 0001:0007a580       _cosf                      0047b580 f i mathlib:mathlib_base.obj
 0001:0007a5a0       ?_VectorNormalize@@YIMAAVVector@@@Z 0047b5a0 f   mathlib:mathlib_base.obj
 0001:0007a660       ?_VectorNormalizeFast@@YIXAAVVector@@@Z 0047b660 f   mathlib:mathlib_base.obj
 0001:0007a710       ?SinCos@@YAXMPAM0@Z        0047b710 f i mathlib:mathlib_base.obj
 0001:0007a730       ?AddPointToBounds@@YAXABVVector@@AAV1@1@Z 0047b730 f   mathlib:mathlib_base.obj
 0001:0007a7a0       ?AngleDiff@@YAMMM@Z        0047b7a0 f   mathlib:mathlib_base.obj
 0001:0007a820       ?AngleDistance@@YAMMM@Z    0047b820 f   mathlib:mathlib_base.obj
 0001:0007a870       ?AngleIMatrix@@YAXABVQAngle@@AAUmatrix3x4_t@@@Z 0047b870 f   mathlib:mathlib_base.obj
 0001:0007a9e0       ?AngleIMatrix@@YAXABVQAngle@@ABVVector@@AAUmatrix3x4_t@@@Z 0047b9e0 f   mathlib:mathlib_base.obj
 0001:0007aa80       ?AngleIMatrix@@YAXABVRadianEuler@@AAUmatrix3x4_t@@@Z 0047ba80 f   mathlib:mathlib_base.obj
 0001:0007aad0       ?AngleMatrix@@YAXABVQAngle@@AAUmatrix3x4_t@@@Z 0047bad0 f   mathlib:mathlib_base.obj
 0001:0007ac40       ?AngleMatrix@@YAXABVQAngle@@ABVVector@@AAUmatrix3x4_t@@@Z 0047bc40 f   mathlib:mathlib_base.obj
 0001:0007ac70       ?AngleMatrix@@YAXABVRadianEuler@@AAUmatrix3x4_t@@@Z 0047bc70 f   mathlib:mathlib_base.obj
 0001:0007acc0       ?AngleMatrix@@YAXABVRadianEuler@@ABVVector@@AAUmatrix3x4_t@@@Z 0047bcc0 f   mathlib:mathlib_base.obj
 0001:0007ad30       ?AngleNormalize@@YAMM@Z    0047bd30 f   mathlib:mathlib_base.obj
 0001:0007ad90       ?AngleNormalizePositive@@YAMM@Z 0047bd90 f   mathlib:mathlib_base.obj
 0001:0007ade0       ?AngleQuaternion@@YAXABVQAngle@@AAVQuaternion@@@Z 0047bde0 f   mathlib:mathlib_base.obj
 0001:0007af10       ?AngleQuaternion@@YAXABVRadianEuler@@AAVQuaternion@@@Z 0047bf10 f   mathlib:mathlib_base.obj
 0001:0007b030       ?AngleVectors@@YAXABVQAngle@@PAVVector@@11@Z 0047c030 f   mathlib:mathlib_base.obj
 0001:0007b1c0       ?AngleVectors@@YAXABVQAngle@@PAVVector@@@Z 0047c1c0 f   mathlib:mathlib_base.obj
 0001:0007b260       ?AngleVectorsTranspose@@YAXABVQAngle@@PAVVector@@11@Z 0047c260 f   mathlib:mathlib_base.obj
 0001:0007b3d0       ?AnglesAreEqual@@YA_NMMM@Z 0047c3d0 f   mathlib:mathlib_base.obj
 0001:0007b450       ?Approach@@YAMMMM@Z        0047c450 f   mathlib:mathlib_base.obj
 0001:0007b4b0       ?ApproachAngle@@YAMMMM@Z   0047c4b0 f   mathlib:mathlib_base.obj
 0001:0007b580       ?AxisAngleQuaternion@@YAXABVVector@@MAAVQuaternion@@@Z 0047c580 f   mathlib:mathlib_base.obj
 0001:0007b600       ?BSpline@@YAXABVVector@@000MAAV1@@Z 0047c600 f   mathlib:mathlib_base.obj
 0001:0007b960       ?BSpline_NormalizeX@@YAXABVVector@@000MAAV1@@Z 0047c960 f   mathlib:mathlib_base.obj
 0001:0007ba90       ?BasisToQuaternion@@YAXABVVector@@00AAVQuaternion@@@Z 0047ca90 f   mathlib:mathlib_base.obj
 0001:0007bb50       ?Bias@@YAMMM@Z             0047cb50 f   mathlib:mathlib_base.obj
 0001:0007bbb0       ?BoxOnPlaneSide@@YAHPBM0PBUcplane_t@@@Z 0047cbb0 f   mathlib:mathlib_base.obj
 0001:0007bde0       ?BuildExponentTable@@YAXXZ 0047cde0 f   mathlib:mathlib_base.obj
 0001:0007be30       ?BuildGammaTable@@YAXMMMH@Z 0047ce30 f   mathlib:mathlib_base.obj
 0001:0007c290       ?CalcClosestPointOnAABB@@YAXABVVector@@00AAV1@@Z 0047d290 f   mathlib:mathlib_base.obj
 0001:0007c310       ?CalcClosestPointOnLine2D@@YAXABVVector2D@@00AAV1@PAM@Z 0047d310 f   mathlib:mathlib_base.obj
 0001:0007c3c0       ?CalcClosestPointOnLine@@YAXABVVector@@00AAV1@PAM@Z 0047d3c0 f   mathlib:mathlib_base.obj
 0001:0007c4a0       ?CalcClosestPointOnLineSegment2D@@YAXABVVector2D@@00AAV1@PAM@Z 0047d4a0 f   mathlib:mathlib_base.obj
 0001:0007c560       ?CalcClosestPointOnLineSegment@@YAXABVVector@@00AAV1@PAM@Z 0047d560 f   mathlib:mathlib_base.obj
 0001:0007c650       ?CalcClosestPointToLineT2D@@YAMABVVector2D@@00AAV1@@Z 0047d650 f   mathlib:mathlib_base.obj
 0001:0007c6d0       ?CalcClosestPointToLineT@@YAMABVVector@@00AAV1@@Z 0047d6d0 f   mathlib:mathlib_base.obj
 0001:0007c780       ?CalcDistanceSqrToLine2D@@YAMABVVector2D@@00PAM@Z 0047d780 f   mathlib:mathlib_base.obj
 0001:0007c840       ?CalcDistanceSqrToLine@@YAMABVVector@@00PAM@Z 0047d840 f   mathlib:mathlib_base.obj
 0001:0007c940       ?CalcDistanceSqrToLineSegment2D@@YAMABVVector2D@@00PAM@Z 0047d940 f   mathlib:mathlib_base.obj
 0001:0007ca10       ?CalcDistanceSqrToLineSegment@@YAMABVVector@@00PAM@Z 0047da10 f   mathlib:mathlib_base.obj
 0001:0007cb20       ?CalcDistanceToLine2D@@YAMABVVector2D@@00PAM@Z 0047db20 f   mathlib:mathlib_base.obj
 0001:0007cbf0       ?CalcDistanceToLine@@YAMABVVector@@00PAM@Z 0047dbf0 f   mathlib:mathlib_base.obj
 0001:0007cd00       ?CalcDistanceToLineSegment2D@@YAMABVVector2D@@00PAM@Z 0047dd00 f   mathlib:mathlib_base.obj
 0001:0007cde0       ?CalcDistanceToLineSegment@@YAMABVVector@@00PAM@Z 0047dde0 f   mathlib:mathlib_base.obj
 0001:0007cf00       ?CalcLineToLineIntersectionSegment@@YA_NABVVector@@000PAV1@1PAM2@Z 0047df00 f   mathlib:mathlib_base.obj
 0001:0007d180       ?CalcSqrDistanceToAABB@@YAMABVVector@@00@Z 0047e180 f   mathlib:mathlib_base.obj
 0001:0007d250       ?Catmull_Rom_Spline@@YAXABVVector@@000MAAV1@@Z 0047e250 f   mathlib:mathlib_base.obj
 0001:0007d580       ?Catmull_Rom_Spline_Normalize@@YAXABVVector@@000MAAV1@@Z 0047e580 f   mathlib:mathlib_base.obj
 0001:0007d6a0       ?Catmull_Rom_Spline_NormalizeX@@YAXABVVector@@000MAAV1@@Z 0047e6a0 f   mathlib:mathlib_base.obj
 0001:0007d7d0       ?Catmull_Rom_Spline_Tangent@@YAXABVVector@@000MAAV1@@Z 0047e7d0 f   mathlib:mathlib_base.obj
 0001:0007dae0       ?CeilPow2@@YAHH@Z          0047eae0 f   mathlib:mathlib_base.obj
 0001:0007db00       ?ClearBounds@@YAXAAVVector@@0@Z 0047eb00 f   mathlib:mathlib_base.obj
 0001:0007db40       ?ClipPolyToPlane@@YAHPAVVector@@H0ABV1@MM@Z 0047eb40 f   mathlib:mathlib_base.obj
 0001:0007df40       ?ClipPolyToPlane_Precise@@YAHPANH0PBNNN@Z 0047ef40 f   mathlib:mathlib_base.obj
 0001:0007e250       ?ColorRGBExp32ToVector@@YAXABUColorRGBExp32@@AAVVector@@@Z 0047f250 f   mathlib:mathlib_base.obj
 0001:0007e2d0       ?ComputeTrianglePlane@@YAXABVVector@@00AAV1@AAM@Z 0047f2d0 f   mathlib:mathlib_base.obj
 0001:0007e390       ?ConcatRotations@@YAXQAY02$$CBM0QAY02M@Z 0047f390 f   mathlib:mathlib_base.obj
 0001:0007e520       ?ConcatTransforms@@YAXABUmatrix3x4_t@@0AAU1@@Z 0047f520 f   mathlib:mathlib_base.obj
 0001:0007e7c0       ?CrossProduct@@YAXPBM0PAM@Z 0047f7c0 f   mathlib:mathlib_base.obj
 0001:0007e820       ?Cubic_Spline@@YAXABVVector@@000MAAV1@@Z 0047f820 f   mathlib:mathlib_base.obj
 0001:0007e970       ?Cubic_Spline_NormalizeX@@YAXABVVector@@000MAAV1@@Z 0047f970 f   mathlib:mathlib_base.obj
 0001:0007eac0       ?FloorDivMod@@YAXNNPAH0@Z  0047fac0 f   mathlib:mathlib_base.obj
 0001:0007ebe0       ?FloorPow2@@YAHH@Z         0047fbe0 f   mathlib:mathlib_base.obj
 0001:0007ec00       ?Gain@@YAMMM@Z             0047fc00 f   mathlib:mathlib_base.obj
 0001:0007ed00       ?GammaToLinear@@YAMM@Z     0047fd00 f   mathlib:mathlib_base.obj
 0001:0007ed50       ?GammaToLinearFullRange@@YAMM@Z 0047fd50 f   mathlib:mathlib_base.obj
 0001:0007ed80       ?GreatestCommonDivisor@@YAHHH@Z 0047fd80 f   mathlib:mathlib_base.obj
 0001:0007edc0       ?Hermite_Spline@@YAMMMMM@Z 0047fdc0 f   mathlib:mathlib_base.obj
 0001:0007ee50       ?Hermite_Spline@@YAMMMMMM@Z 0047fe50 f   mathlib:mathlib_base.obj
 0001:0007eed0       ?Hermite_Spline@@YAXABVQuaternion@@00MAAV1@@Z 0047fed0 f   mathlib:mathlib_base.obj
 0001:0007f330       ?Hermite_Spline@@YAXABVVector@@000MAAV1@@Z 00480330 f   mathlib:mathlib_base.obj
 0001:0007f410       ?Hermite_Spline@@YAXABVVector@@00MAAV1@@Z 00480410 f   mathlib:mathlib_base.obj
 0001:0007f4d0       ?Hermite_SplineBasis@@YAXMQAM@Z 004804d0 f   mathlib:mathlib_base.obj
 0001:0007f540       ?IRotateAABB@@YAXABUmatrix3x4_t@@ABVVector@@1AAV2@2@Z 00480540 f   mathlib:mathlib_base.obj
 0001:0007f750       ?ITransformAABB@@YAXABUmatrix3x4_t@@ABVVector@@1AAV2@2@Z 00480750 f   mathlib:mathlib_base.obj
 0001:0007f9a0       ?InitSinCosTable@@YAXXZ    004809a0 f   mathlib:mathlib_base.obj
 0001:0007f9e0       ?IsDenormal@@YA_NABM@Z     004809e0 f   mathlib:mathlib_base.obj
 0001:0007fa00       ?Kochanek_Bartels_Spline@@YAXMMMABVVector@@000MAAV1@@Z 00480a00 f   mathlib:mathlib_base.obj
 0001:0007fe50       ?Kochanek_Bartels_Spline_NormalizeX@@YAXMMMABVVector@@000MAAV1@@Z 00480e50 f   mathlib:mathlib_base.obj
 0001:0007ffa0       ?LineSphereIntersection@@YAHABVVector@@M00PAM1@Z 00480fa0 f   mathlib:mathlib_base.obj
 0001:000800d0       ?LinearToGamma@@YAMM@Z     004810d0 f   mathlib:mathlib_base.obj
 0001:00080120       ?LinearToGammaFullRange@@YAMM@Z 00481120 f   mathlib:mathlib_base.obj
 0001:00080150       ?LinearToScreenGamma@@YAHM@Z 00481150 f   mathlib:mathlib_base.obj
 0001:00080180       ?LinearToTexture@@YAHM@Z   00481180 f   mathlib:mathlib_base.obj
 0001:000801b0       ?MathLib_3DNowEnabled@@YA_NXZ 004811b0 f   mathlib:mathlib_base.obj
 0001:000801c0       ?MathLib_Init@@YAXMMMH_N000@Z 004811c0 f   mathlib:mathlib_base.obj
 0001:000803a0       ?MathLib_MMXEnabled@@YA_NXZ 004813a0 f   mathlib:mathlib_base.obj
 0001:000803b0       ?MathLib_SSE2Enabled@@YA_NXZ 004813b0 f   mathlib:mathlib_base.obj
 0001:000803c0       ?MathLib_SSEEnabled@@YA_NXZ 004813c0 f   mathlib:mathlib_base.obj
 0001:000803d0       ?MatrixAngles@@YAXABUmatrix3x4_t@@AAVQuaternion@@AAVVector@@@Z 004813d0 f   mathlib:mathlib_base.obj
 0001:00080610       ?MatrixAngles@@YAXABUmatrix3x4_t@@AAVRadianEuler@@AAVVector@@@Z 00481610 f   mathlib:mathlib_base.obj
 0001:00080670       ?MatrixAngles@@YAXABUmatrix3x4_t@@PAM@Z 00481670 f   mathlib:mathlib_base.obj
 0001:00080850       ?MatrixCopy@@YAXABUmatrix3x4_t@@AAU1@@Z 00481850 f   mathlib:mathlib_base.obj
 0001:00080880       ?MatrixGetColumn@@YAXABUmatrix3x4_t@@HAAVVector@@@Z 00481880 f   mathlib:mathlib_base.obj
 0001:000808b0       ?MatrixInitialize@@YAXAAUmatrix3x4_t@@ABVVector@@111@Z 004818b0 f   mathlib:mathlib_base.obj
 0001:00080910       ?MatrixInvert@@YAXABUmatrix3x4_t@@AAU1@@Z 00481910 f   mathlib:mathlib_base.obj
 0001:00080a30       ?MatrixSetColumn@@YAXABVVector@@HAAUmatrix3x4_t@@@Z 00481a30 f   mathlib:mathlib_base.obj
 0001:00080a60       ?Parabolic_Spline@@YAXABVVector@@000MAAV1@@Z 00481a60 f   mathlib:mathlib_base.obj
 0001:00080c60       ?Parabolic_Spline_NormalizeX@@YAXABVVector@@000MAAV1@@Z 00481c60 f   mathlib:mathlib_base.obj
 0001:00080ea0       ?PolyFromPlane@@YAHPAVVector@@ABV1@MM@Z 00481ea0 f   mathlib:mathlib_base.obj
 0001:00081160       ?Q_log2@@YAHH@Z            00482160 f   mathlib:mathlib_base.obj
 0001:00081180       ?QuaternionAdd@@YAXABVQuaternion@@0AAV1@@Z 00482180 f   mathlib:mathlib_base.obj
 0001:000812d0       ?QuaternionAlign@@YAXABVQuaternion@@0AAV1@@Z 004822d0 f   mathlib:mathlib_base.obj
 0001:00081400       ?QuaternionAngleDiff@@YAMABVQuaternion@@0@Z 00482400 f   mathlib:mathlib_base.obj
 0001:000814d0       ?QuaternionAngles@@YAXABVQuaternion@@AAVQAngle@@@Z 004824d0 f   mathlib:mathlib_base.obj
 0001:00081630       ?QuaternionAngles@@YAXABVQuaternion@@AAVRadianEuler@@@Z 00482630 f   mathlib:mathlib_base.obj
 0001:000817c0       ?QuaternionAxisAngle@@YAXABVQuaternion@@AAVVector@@AAM@Z 004827c0 f   mathlib:mathlib_base.obj
 0001:00081820       ?QuaternionBlend@@YAXABVQuaternion@@0MAAV1@@Z 00482820 f   mathlib:mathlib_base.obj
 0001:00081a70       ?QuaternionBlendNoAlign@@YAXABVQuaternion@@0MAAV1@@Z 00482a70 f   mathlib:mathlib_base.obj
 0001:00081bb0       ?QuaternionConjugate@@YAXABVQuaternion@@AAV1@@Z 00482bb0 f   mathlib:mathlib_base.obj
 0001:00081bf0       ?QuaternionDotProduct@@YAMABVQuaternion@@0@Z 00482bf0 f   mathlib:mathlib_base.obj
 0001:00081c40       ?QuaternionIdentityBlend@@YAXABVQuaternion@@MAAV1@@Z 00482c40 f   mathlib:mathlib_base.obj
 0001:00081d60       ?QuaternionInvert@@YAXABVQuaternion@@AAV1@@Z 00482d60 f   mathlib:mathlib_base.obj
 0001:00081e00       ?QuaternionMatrix@@YAXABVQuaternion@@AAUmatrix3x4_t@@@Z 00482e00 f   mathlib:mathlib_base.obj
 0001:00081fc0       ?QuaternionMatrix@@YAXABVQuaternion@@ABVVector@@AAUmatrix3x4_t@@@Z 00482fc0 f   mathlib:mathlib_base.obj
 0001:00082190       ?QuaternionMult@@YAXABVQuaternion@@0AAV1@@Z 00483190 f   mathlib:mathlib_base.obj
 0001:000822b0       ?QuaternionNormalize@@YAMAAVQuaternion@@@Z 004832b0 f   mathlib:mathlib_base.obj
 0001:000823a0       ?QuaternionScale@@YAXABVQuaternion@@MAAV1@@Z 004833a0 f   mathlib:mathlib_base.obj
 0001:000824c0       ?QuaternionSlerp@@YAXABVQuaternion@@0MAAV1@@Z 004834c0 f   mathlib:mathlib_base.obj
 0001:000825e0       ?QuaternionSlerpNoAlign@@YAXABVQuaternion@@0MAAV1@@Z 004835e0 f   mathlib:mathlib_base.obj
 0001:00082820       ?R_CullBox@@YA_NABVVector@@0ABVFrustum_t@@@Z 00483820 f   mathlib:mathlib_base.obj
 0001:000828b0       ?R_CullBoxSkipNear@@YA_NABVVector@@0ABVFrustum_t@@@Z 004838b0 f   mathlib:mathlib_base.obj
 0001:00082930       ?RangeCompressor@@YAMMMMM@Z 00483930 f   mathlib:mathlib_base.obj
 0001:00082a60       ?RotateAABB@@YAXABUmatrix3x4_t@@ABVVector@@1AAV2@2@Z 00483a60 f   mathlib:mathlib_base.obj
 0001:00082ca0       ?RotationDelta@@YAXABVQAngle@@0PAV1@@Z 00483ca0 f   mathlib:mathlib_base.obj
 0001:00082d50       ?RotationDeltaAxisAngle@@YAXABVQAngle@@0AAVVector@@AAM@Z 00483d50 f   mathlib:mathlib_base.obj
 0001:00082fe0       ?SetIdentityMatrix@@YAXAAUmatrix3x4_t@@@Z 00483fe0 f   mathlib:mathlib_base.obj
 0001:00083040       ?SignbitsForPlane@@YAHPAUcplane_t@@@Z 00484040 f   mathlib:mathlib_base.obj
 0001:00083070       ?SmoothCurve@@YAMM@Z       00484070 f   mathlib:mathlib_base.obj
 0001:000830b0       ?SmoothCurve_Tweak@@YAMMMM@Z 004840b0 f   mathlib:mathlib_base.obj
 0001:00083220       ?SolveInverseQuadratic@@YA_NMMMMMMAAM00@Z 00484220 f   mathlib:mathlib_base.obj
 0001:00083360       ?SolveInverseQuadraticMonotonic@@YA_NMMMMMMAAM00@Z 00484360 f   mathlib:mathlib_base.obj
 0001:000835e0       ?SolveInverseReciprocalQuadratic@@YA_NMMMMMMAAM00@Z 004845e0 f   mathlib:mathlib_base.obj
 0001:00083740       ?SolveQuadratic@@YA_NMMMAAM0@Z 00484740 f   mathlib:mathlib_base.obj
 0001:00083830       ?SphereToAABBIntersection@@YA_NABVVector@@M00@Z 00484830 f   mathlib:mathlib_base.obj
 0001:000838c0       ?Spline_Normalize@@YAXABVVector@@000AAV1@1@Z 004848c0 f   mathlib:mathlib_base.obj
 0001:000839d0       ?TextureToLinear@@YAMH@Z   004849d0 f   mathlib:mathlib_base.obj
 0001:00083a00       ?TransformAABB@@YAXABUmatrix3x4_t@@ABVVector@@1AAV2@2@Z 00484a00 f   mathlib:mathlib_base.obj
 0001:00083c50       ?TransformAndRotate@@YAXABVVector@@0ABUmatrix3x4_t@@AAV1@2@Z 00484c50 f   mathlib:mathlib_base.obj
 0001:00083d60       ?TransformAnglesToLocalSpace@@YA?AVQAngle@@ABV1@ABUmatrix3x4_t@@@Z 00484d60 f   mathlib:mathlib_base.obj
 0001:00083dd0       ?TransformAnglesToWorldSpace@@YA?AVQAngle@@ABV1@ABUmatrix3x4_t@@@Z 00484dd0 f   mathlib:mathlib_base.obj
 0001:00083e30       ?VectorAngles@@YAXABVVector@@0AAVQAngle@@@Z 00484e30 f   mathlib:mathlib_base.obj
 0001:00084070       ?VectorAngles@@YAXABVVector@@AAVQAngle@@@Z 00485070 f   mathlib:mathlib_base.obj
 0001:000841c0       ?VectorAngles@@YAXPBMPAM@Z 004851c0 f   mathlib:mathlib_base.obj
 0001:00084320       ?VectorCompare@@YAHPBM0@Z  00485320 f   mathlib:mathlib_base.obj
 0001:00084360       ?VectorIRotate@@YAXPBMABUmatrix3x4_t@@PAM@Z 00485360 f   mathlib:mathlib_base.obj
 0001:000843f0       ?VectorITransform@@YAXPBMABUmatrix3x4_t@@PAM@Z 004853f0 f   mathlib:mathlib_base.obj
 0001:00084480       ?VectorMA@@YAXABVVector@@M0AAV1@@Z 00485480 f   mathlib:mathlib_base.obj
 0001:000844c0       ?VectorMA@@YAXPBMM0PAM@Z   004854c0 f   mathlib:mathlib_base.obj
 0001:00084500       ?VectorMatrix@@YAXABVVector@@AAUmatrix3x4_t@@@Z 00485500 f   mathlib:mathlib_base.obj
 0001:00084640       ?VectorRotate@@YAXABVVector@@ABVQAngle@@AAV1@@Z 00485640 f   mathlib:mathlib_base.obj
 0001:00084700       ?VectorRotate@@YAXPBMABUmatrix3x4_t@@PAM@Z 00485700 f   mathlib:mathlib_base.obj
 0001:00084790       ?VectorRotateSSE@@YAXPBMABUmatrix3x4_t@@PAM@Z 00485790 f   mathlib:mathlib_base.obj
 0001:00084820       ?VectorToColorRGBExp32@@YAXABVVector@@AAUColorRGBExp32@@@Z 00485820 f   mathlib:mathlib_base.obj
 0001:00084930       ?VectorTransform@@YAXPBMABUmatrix3x4_t@@PAM@Z 00485930 f   mathlib:mathlib_base.obj
 0001:000849d0       ?VectorTransformSSE@@YAXPBMABUmatrix3x4_t@@PAM@Z 004859d0 f   mathlib:mathlib_base.obj
 0001:00084a70       ?VectorVectors@@YAXABVVector@@AAV1@1@Z 00485a70 f   mathlib:mathlib_base.obj
 0001:00084b90       ?VectorYawRotate@@YAXABVVector@@MAAV1@@Z 00485b90 f   mathlib:mathlib_base.obj
 0001:00084c50       ?VectorsEqual@@YAHPBM0@Z   00485c50 f   mathlib:mathlib_base.obj
 0001:00084c90       ?_3DNow_InvRSquared@@YAMPBM@Z 00485c90 f   mathlib:mathlib_base.obj
 0001:00084ce0       ?_3DNow_RSqrt@@YAMM@Z      00485ce0 f   mathlib:mathlib_base.obj
 0001:00084d00       ?_3DNow_Sqrt@@YAMM@Z       00485d00 f   mathlib:mathlib_base.obj
 0001:00084d30       ?_3DNow_VectorNormalize@@YIMAAVVector@@@Z 00485d30 f   mathlib:mathlib_base.obj
 0001:00084dc0       ?_3DNow_VectorNormalizeFast@@YIXAAVVector@@@Z 00485dc0 f   mathlib:mathlib_base.obj
 0001:00084dd0       ?_SSE2_SinCos@@YAXMPAM0@Z  00485dd0 f   mathlib:mathlib_base.obj
 0001:00084ef0       ?_SSE2_cos@@YAMM@Z         00485ef0 f   mathlib:mathlib_base.obj
 0001:00084fc0       ?_SSE_InvRSquared@@YAMPBM@Z 00485fc0 f   mathlib:mathlib_base.obj
 0001:00085010       ?_SSE_RSqrtAccurate@@YAMM@Z 00486010 f i mathlib:mathlib_base.obj
 0001:00085060       ?_SSE_RSqrtFast@@YAMM@Z    00486060 f i mathlib:mathlib_base.obj
 0001:00085080       ?_SSE_SinCos@@YAXMPAM0@Z   00486080 f   mathlib:mathlib_base.obj
 0001:000851c0       ?_SSE_Sqrt@@YAMM@Z         004861c0 f   mathlib:mathlib_base.obj
 0001:000851e0       ?_SSE_VectorMA@@YAXPBMM0PAM@Z 004861e0 f   mathlib:mathlib_base.obj
 0001:00085210       ?_SSE_VectorNormalize@@YIMAAVVector@@@Z 00486210 f   mathlib:mathlib_base.obj
 0001:000852e0       ?_SSE_VectorNormalizeFast@@YIXAAVVector@@@Z 004862e0 f   mathlib:mathlib_base.obj
 0001:00085380       ?_SSE_cos@@YAMM@Z          00486380 f   mathlib:mathlib_base.obj
 0001:00085450       ??$_Construct@$00PBD@?$basic_string@DU?$char_traits@D@std@@V?$allocator@D@2@@std@@AAEXQBDI@Z 00486450 f i tier1:tokenreader.obj
 0001:000854f0       ??$_Immortalize_memcpy_image@V_Iostream_error_category2@std@@@std@@YAABV_Iostream_error_category2@0@XZ 004864f0 f i tier1:tokenreader.obj
 0001:00085500       ??$use_facet@V?$ctype@D@std@@@std@@YAABV?$ctype@D@0@ABVlocale@0@@Z 00486500 f i tier1:tokenreader.obj
 0001:00085690       ??0?$basic_istream@DU?$char_traits@D@std@@@std@@QAE@PAV?$basic_streambuf@DU?$char_traits@D@std@@@1@_N@Z 00486690 f i tier1:tokenreader.obj
 0001:00085890       ??0TokenReader@@QAE@XZ     00486890 f   tier1:tokenreader.obj
 0001:00085a90       ??0_System_error@std@@IAE@Verror_code@1@ABV?$basic_string@DU?$char_traits@D@std@@V?$allocator@D@2@@1@@Z 00486a90 f i tier1:tokenreader.obj
 0001:00085ca0       ??0_System_error@std@@QAE@ABV01@@Z 00486ca0 f i tier1:tokenreader.obj
 0001:00085cf0       ??0failure@ios_base@std@@QAE@ABV012@@Z 00486cf0 f i tier1:tokenreader.obj
 0001:00085d40       ??0failure@ios_base@std@@QAE@PBDABVerror_code@2@@Z 00486d40 f i tier1:tokenreader.obj
 0001:00085e30       ??0runtime_error@std@@QAE@ABV01@@Z 00486e30 f i tier1:tokenreader.obj
 0001:00085e70       ??0system_error@std@@QAE@ABV01@@Z 00486e70 f i tier1:tokenreader.obj
 0001:00085ec0       ??1?$basic_string@DU?$char_traits@D@std@@V?$allocator@D@2@@std@@QAE@XZ 00486ec0 f i tier1:tokenreader.obj
 0001:00085f10       ??1?$ctype@D@std@@MAE@XZ   00486f10 f i tier1:tokenreader.obj
 0001:00085f50       ??1_Sentry_base@?$basic_istream@DU?$char_traits@D@std@@@std@@QAE@XZ 00486f50 f i tier1:tokenreader.obj
 0001:00085fa0       ??1_Sentry_base@?$basic_ostream@DU?$char_traits@D@std@@@std@@QAE@XZ 00486fa0 f i tier1:tokenreader.obj
 0001:00085ff0       ??1ctype_base@std@@UAE@XZ  00486ff0 f i tier1:tokenreader.obj
 0001:00086000       ??1error_category@std@@UAE@XZ 00487000 f i tier1:tokenreader.obj
 0001:00086010       ??1failure@ios_base@std@@UAE@XZ 00487010 f i tier1:tokenreader.obj
 0001:00086030       ??1sentry@?$basic_istream@DU?$char_traits@D@std@@@std@@QAE@XZ 00487030 f i tier1:tokenreader.obj
 0001:00086090       ??1sentry@?$basic_ostream@DU?$char_traits@D@std@@@std@@QAE@XZ 00487090 f i tier1:tokenreader.obj
 0001:00086100       ??1system_error@std@@UAE@XZ 00487100 f i tier1:tokenreader.obj
 0001:00086111       ??_ETokenReader@@$4PPPPPPPM@A@AEPAXI@Z 00487111 f i tier1:tokenreader.obj
 0001:00086120       ??_E?$ctype@D@std@@MAEPAXI@Z 00487120 f i tier1:tokenreader.obj
 0001:00086120       ??_G?$ctype@D@std@@MAEPAXI@Z 00487120 f i tier1:tokenreader.obj
 0001:00086180       ??_ETokenReader@@UAEPAXI@Z 00487180 f i tier1:tokenreader.obj
 0001:00086180       ??_GTokenReader@@UAEPAXI@Z 00487180 f i tier1:tokenreader.obj
 0001:00086250       ??_E_Iostream_error_category2@std@@UAEPAXI@Z 00487250 f i tier1:tokenreader.obj
 0001:00086250       ??_G_Iostream_error_category2@std@@UAEPAXI@Z 00487250 f i tier1:tokenreader.obj
 0001:00086270       ??_E_System_error@std@@UAEPAXI@Z 00487270 f i tier1:tokenreader.obj
 0001:00086270       ??_G_System_error@std@@UAEPAXI@Z 00487270 f i tier1:tokenreader.obj
 0001:000862a0       ??_Ectype_base@std@@UAEPAXI@Z 004872a0 f i tier1:tokenreader.obj
 0001:000862a0       ??_Gctype_base@std@@UAEPAXI@Z 004872a0 f i tier1:tokenreader.obj
 0001:000862d0       ??_Efailure@ios_base@std@@UAEPAXI@Z 004872d0 f i tier1:tokenreader.obj
 0001:000862d0       ??_Gfailure@ios_base@std@@UAEPAXI@Z 004872d0 f i tier1:tokenreader.obj
 0001:00086300       ??_Eruntime_error@std@@UAEPAXI@Z 00487300 f i tier1:tokenreader.obj
 0001:00086300       ??_Gruntime_error@std@@UAEPAXI@Z 00487300 f i tier1:tokenreader.obj
 0001:00086330       ??_Esystem_error@std@@UAEPAXI@Z 00487330 f i tier1:tokenreader.obj
 0001:00086330       ??_Gsystem_error@std@@UAEPAXI@Z 00487330 f i tier1:tokenreader.obj
 0001:00086360       ?Close@TokenReader@@QAEXXZ 00487360 f   tier1:tokenreader.obj
 0001:000863f0       ?Error@TokenReader@@QAAPBDPADZZ 004873f0 f   tier1:tokenreader.obj
 0001:00086440       ?Expecting@TokenReader@@QAE_NW4trtoken_t@@PBD@Z 00487440 f   tier1:tokenreader.obj
 0001:000864b0       ?GetString@TokenReader@@AAE?AW4trtoken_t@@PADH@Z 004874b0 f   tier1:tokenreader.obj
 0001:00086660       ?IgnoreTill@TokenReader@@QAEXW4trtoken_t@@PBD@Z 00487660 f   tier1:tokenreader.obj
 0001:00086710       ?NextToken@TokenReader@@QAE?AW4trtoken_t@@PADH@Z 00487710 f   tier1:tokenreader.obj
 0001:00086940       ?NextTokenDynamic@TokenReader@@QAE?AW4trtoken_t@@PAPAD@Z 00487940 f   tier1:tokenreader.obj
 0001:000869c0       ?Open@TokenReader@@QAE_NPBD@Z 004879c0 f   tier1:tokenreader.obj
 0001:00086a10       ?PeekTokenType@TokenReader@@QAE?AW4trtoken_t@@PADH@Z 00487a10 f   tier1:tokenreader.obj
 0001:00086a60       ?SkipWhiteSpace@TokenReader@@AAE_NXZ 00487a60 f   tier1:tokenreader.obj
 0001:00086ae0       ?Stuff@TokenReader@@QAEXW4trtoken_t@@PBD@Z 00487ae0 f   tier1:tokenreader.obj
 0001:00086b20       ?_Gnavail@?$basic_streambuf@DU?$char_traits@D@std@@@std@@IBE_JXZ 00487b20 f i tier1:tokenreader.obj
 0001:00086b40       ?_Initcvt@?$basic_filebuf@DU?$char_traits@D@std@@@std@@IAEXABV?$codecvt@DDU_Mbstatet@@@2@@Z 00487b40 f i tier1:tokenreader.obj
 0001:00086bd0       ?_Ipfx@?$basic_istream@DU?$char_traits@D@std@@@std@@QAE_N_N@Z 00487bd0 f i tier1:tokenreader.obj
 0001:00086e10       ?_Osfx@?$basic_ostream@DU?$char_traits@D@std@@@std@@QAEXXZ 00487e10 f i tier1:tokenreader.obj
 0001:00086ef0       ?_Pnavail@?$basic_streambuf@DU?$char_traits@D@std@@@std@@IBE_JXZ 00487ef0 f i tier1:tokenreader.obj
 0001:00086f10       ?allocate@?$allocator@D@std@@QAEPADI@Z 00487f10 f i tier1:tokenreader.obj
 0001:00086f70       ?append@?$basic_string@DU?$char_traits@D@std@@V?$allocator@D@2@@std@@QAEAAV12@QBDI@Z 00487f70 f i tier1:tokenreader.obj
 0001:000870d0       ?clear@ios_base@std@@QAEXH_N@Z 004880d0 f i tier1:tokenreader.obj
 0001:00087150       ?default_error_condition@error_category@std@@UBE?AVerror_condition@2@H@Z 00488150 f i tier1:tokenreader.obj
 0001:00087170       ?do_narrow@?$ctype@D@std@@MBEDDD@Z 00488170 f i tier1:tokenreader.obj
 0001:00087180       ?do_narrow@?$ctype@D@std@@MBEPBDPBD0DPAD@Z 00488180 f i tier1:tokenreader.obj
 0001:000871a0       ?do_tolower@?$ctype@D@std@@MBEDD@Z 004881a0 f i tier1:tokenreader.obj
 0001:000871c0       ?do_tolower@?$ctype@D@std@@MBEPBDPADPBD@Z 004881c0 f i tier1:tokenreader.obj
 0001:000871f0       ?do_toupper@?$ctype@D@std@@MBEDD@Z 004881f0 f i tier1:tokenreader.obj
 0001:00087210       ?do_toupper@?$ctype@D@std@@MBEPBDPADPBD@Z 00488210 f i tier1:tokenreader.obj
 0001:00087240       ?do_widen@?$ctype@D@std@@MBEDD@Z 00488240 f i tier1:tokenreader.obj
 0001:00087250       ?do_widen@?$ctype@D@std@@MBEPBDPBD0PAD@Z 00488250 f i tier1:tokenreader.obj
 0001:00087270       ?equivalent@error_category@std@@UBE_NABVerror_code@2@H@Z 00488270 f i tier1:tokenreader.obj
 0001:000872a0       ?equivalent@error_category@std@@UBE_NHABVerror_condition@2@@Z 004882a0 f i tier1:tokenreader.obj
 0001:000872e0       ?flush@?$basic_ostream@DU?$char_traits@D@std@@@std@@QAEAAV12@XZ 004882e0 f i tier1:tokenreader.obj
 0001:00087470       ?get@?$basic_istream@DU?$char_traits@D@std@@@std@@QAEAAV12@PAD_JD@Z 00488470 f i tier1:tokenreader.obj
 0001:00087670       ?get@?$basic_istream@DU?$char_traits@D@std@@@std@@QAEHXZ 00488670 f i tier1:tokenreader.obj
 0001:00087830       ?ignore@?$basic_istream@DU?$char_traits@D@std@@@std@@QAEAAV12@_JH@Z 00488830 f i tier1:tokenreader.obj
 0001:00087a10       ?make_error_code@std@@YA?AVerror_code@1@W4io_errc@1@@Z 00488a10 f i tier1:tokenreader.obj
 0001:00087a30       ?message@_Iostream_error_category2@std@@UBE?AV?$basic_string@DU?$char_traits@D@std@@V?$allocator@D@2@@2@H@Z 00488a30 f i tier1:tokenreader.obj
 0001:00087af0       ?name@_Iostream_error_category2@std@@UBEPBDXZ 00488af0 f i tier1:tokenreader.obj
 0001:00087b00       ?open@?$basic_ifstream@DU?$char_traits@D@std@@@std@@QAEXPBDHH@Z 00488b00 f i tier1:tokenreader.obj
 0001:00087c80       ?peek@?$basic_istream@DU?$char_traits@D@std@@@std@@QAEHXZ 00488c80 f i tier1:tokenreader.obj
 0001:00087df0       ?putback@?$basic_istream@DU?$char_traits@D@std@@@std@@QAEAAV12@D@Z 00488df0 f i tier1:tokenreader.obj
 0001:00088000       ?setstate@?$basic_ios@DU?$char_traits@D@std@@@std@@QAEXH_N@Z 00489000 f i tier1:tokenreader.obj
 0001:00088030       ?snextc@?$basic_streambuf@DU?$char_traits@D@std@@@std@@QAEHXZ 00489030 f i tier1:tokenreader.obj
 0001:000880a0       ?AddToTail@?$CUtlVector@PADV?$CUtlMemory@PAD@@@@QAEHABQAD@Z 004890a0 f i tier1:strtools.obj
 0001:00088150       ?AllocString@@YAPADPBDH@Z  00489150 f   tier1:strtools.obj
 0001:00088230       ?InsertBefore@?$CUtlVector@PADV?$CUtlMemory@PAD@@@@QAEHHABQAD@Z 00489230 f i tier1:strtools.obj
 0001:000882e0       ?V_AppendSlash@@YAXPADH@Z  004892e0 f   tier1:strtools.obj
 0001:00088330       ?V_ComposeFileName@@YAXPBD0PADH@Z 00489330 f   tier1:strtools.obj
 0001:00088430       ?V_DefaultExtension@@YAXPADPBDH@Z 00489430 f   tier1:strtools.obj
 0001:000884e0       ?V_ExtractFileExtension@@YAXPBDPADH@Z 004894e0 f   tier1:strtools.obj
 0001:00088550       ?V_ExtractFilePath@@YA_NPBDPADH@Z 00489550 f   tier1:strtools.obj
 0001:000885c0       ?V_FileBase@@YAXPBDPADH@Z  004895c0 f   tier1:strtools.obj
 0001:00088680       ?V_FixSlashes@@YAXPADD@Z   00489680 f   tier1:strtools.obj
 0001:000886b0       ?V_GetFileExtension@@YAPBDPBD@Z 004896b0 f   tier1:strtools.obj
 0001:00088700       ?V_IsAbsolutePath@@YA_NPBD@Z 00489700 f   tier1:strtools.obj
 0001:00088730       ?V_MakeAbsolutePath@@YAXPADHPBD1@Z 00489730 f   tier1:strtools.obj
 0001:000888d0       ?V_RemoveDotSlashes@@YA_NPAD@Z 004898d0 f   tier1:strtools.obj
 0001:000889f0       ?V_SetExtension@@YAXPADPBDH@Z 004899f0 f   tier1:strtools.obj
 0001:00088ae0       ?V_SplitString2@@YAXPBDPAPBDHAAV?$CUtlVector@PADV?$CUtlMemory@PAD@@@@@Z 00489ae0 f   tier1:strtools.obj
 0001:00088d20       ?V_SplitString@@YAXPBD0AAV?$CUtlVector@PADV?$CUtlMemory@PAD@@@@@Z 00489d20 f   tier1:strtools.obj
 0001:00088d40       ?V_StrLeft@@YAXPBDHPADH@Z  00489d40 f   tier1:strtools.obj
 0001:00088d70       ?V_StrRight@@YAXPBDHPADH@Z 00489d70 f   tier1:strtools.obj
 0001:00088df0       ?V_StrSlice@@YAXPBDHHPADH@Z 00489df0 f   tier1:strtools.obj
 0001:00088e90       ?V_StrSubst@@YA_NPBD00PADH_N@Z 00489e90 f   tier1:strtools.obj
 0001:00088fb0       ?V_StripExtension@@YAXPBDPADH@Z 00489fb0 f   tier1:strtools.obj
 0001:00089050       ?V_StripFilename@@YAXPAD@Z 0048a050 f   tier1:strtools.obj
 0001:00089090       ?V_StripLastDir@@YA_NPADH@Z 0048a090 f   tier1:strtools.obj
 0001:00089140       ?V_StripTrailingSlash@@YAXPAD@Z 0048a140 f   tier1:strtools.obj
 0001:00089180       ?V_UTF8ToUnicode@@YAHPBDPA_WH@Z 0048a180 f   tier1:strtools.obj
 0001:000891d0       ?V_UnicodeToUTF8@@YAHPB_WPADH@Z 0048a1d0 f   tier1:strtools.obj
 0001:00089220       ?V_UnqualifiedFileName@@YAPBDPBD@Z 0048a220 f   tier1:strtools.obj
 0001:00089260       ?V_atof@@YAMPBD@Z          0048a260 f   tier1:strtools.obj
 0001:00089480       ?V_atoi@@YAHPBD@Z          0048a480 f   tier1:strtools.obj
 0001:00089550       ?V_binarytohex@@YAXPBEHPADH@Z 0048a550 f   tier1:strtools.obj
 0001:00089620       ?V_hextobinary@@YAXPBDHPAEH@Z 0048a620 f   tier1:strtools.obj
 0001:000896e0       ?V_normalizeFloatString@@YAXPAD@Z 0048a6e0 f   tier1:strtools.obj
 0001:00089740       ?V_pretifymem@@YAPADMH_N@Z 0048a740 f   tier1:strtools.obj
 0001:00089900       ?V_pretifynum@@YAPAD_J@Z   0048a900 f   tier1:strtools.obj
 0001:00089c40       ?V_snprintf@@YAHPADHPBDZZ  0048ac40 f   tier1:strtools.obj
 0001:00089ca0       ?V_strcasecmp@@YAHPBD0@Z   0048aca0 f   tier1:strtools.obj
 0001:00089ce0       ?V_stristr@@YAPADPADPBD@Z  0048ace0 f   tier1:strtools.obj
 0001:00089d10       ?V_stristr@@YAPBDPBD0@Z    0048ad10 f   tier1:strtools.obj
 0001:00089de0       ?V_strncasecmp@@YAHPBD0H@Z 0048ade0 f   tier1:strtools.obj
 0001:00089e70       ?V_strncat@@YAPADPADPBDIH@Z 0048ae70 f   tier1:strtools.obj
 0001:00089f00       ?V_strnchr@@YAPBDPBDDH@Z   0048af00 f   tier1:strtools.obj
 0001:00089f30       ?V_strncmp@@YAHPBD0H@Z     0048af30 f   tier1:strtools.obj
 0001:00089f90       ?V_strncpy@@YAXPADPBDH@Z   0048af90 f   tier1:strtools.obj
 0001:00089fd0       ?V_strnicmp@@YAHPBD0H@Z    0048afd0 f   tier1:strtools.obj
 0001:0008a000       ?V_strnistr@@YAPBDPBD0H@Z  0048b000 f   tier1:strtools.obj
 0001:0008a0f0       ?V_strnlwr@@YAPADPADI@Z    0048b0f0 f   tier1:strtools.obj
 0001:0008a130       ?V_strtowcs@@YAXPBDHPA_WH@Z 0048b130 f   tier1:strtools.obj
 0001:0008a160       ?V_vsnprintf@@YAHPADHPBD0@Z 0048b160 f   tier1:strtools.obj
 0001:0008a1c0       ?V_wcsncpy@@YAXPA_WPB_WH@Z 0048b1c0 f   tier1:strtools.obj
 0001:0008a200       ?V_wcstostr@@YAXPB_WHPADH@Z 0048b200 f   tier1:strtools.obj
 0001:0008a230       ?_V_memcmp@@YAHPBDHPBX1H@Z 0048b230 f   tier1:strtools.obj
 0001:0008a2c0       ?_V_memcpy@@YAXPBDHPAXPBXH@Z 0048b2c0 f   tier1:strtools.obj
 0001:0008a2f0       ?_V_memmove@@YAXPBDHPAXPBXH@Z 0048b2f0 f   tier1:strtools.obj
 0001:0008a320       ?_V_memset@@YAXPBDHPAXHH@Z 0048b320 f   tier1:strtools.obj
 0001:0008a350       ?_V_strcmp@@YAHPBDH00@Z    0048b350 f   tier1:strtools.obj
 0001:0008a3b0       ?_V_strcpy@@YAXPBDHPAD0@Z  0048b3b0 f   tier1:strtools.obj
 0001:0008a3f0       ?_V_stricmp@@YAHPBDH00@Z   0048b3f0 f   tier1:strtools.obj
 0001:0008a420       ?_V_strlen@@YAHPBDH0@Z     0048b420 f   tier1:strtools.obj
 0001:0008a450       ?_V_strlower@@YAPADPBDHPAD@Z 0048b450 f   tier1:strtools.obj
 0001:0008a470       ?_V_strrchr@@YAPADPBDH0D@Z 0048b470 f   tier1:strtools.obj
 0001:0008a4c0       ?_V_strstr@@YAPADPBDH00@Z  0048b4c0 f   tier1:strtools.obj
 0001:0008a4f0       ?_V_strupr@@YAPADPBDHPAD@Z 0048b4f0 f   tier1:strtools.obj
 0001:0008a510       ?_V_wcscmp@@YAHPBDHPB_W1@Z 0048b510 f   tier1:strtools.obj
 0001:0008a550       ?_V_wcslen@@YAHPBDHPB_W@Z  0048b550 f   tier1:strtools.obj
 0001:0008a580       ?CharacterSetBuild@@YAXPAUcharacterset_s@@PBD@Z 0048b580 f   tier1:characterset.obj
 0001:0008a5d0       ??0InterfaceReg@@QAE@P6APAXXZPBD@Z 0048b5d0 f   tier1:interface.obj
 0001:0008a600       ?Sys_GetFactory@@YAP6APAXPBDPAH@Z0@Z 0048b600 f   tier1:interface.obj
 0001:0008a620       ?Sys_GetFactory@@YAP6APAXPBDPAH@ZPAVCSysModule@@@Z 0048b620 f   tier1:interface.obj
 0001:0008a640       ?Sys_GetFactoryThis@@YAP6APAXPBDPAH@ZXZ 0048b640 f   tier1:interface.obj
 0001:0008a650       ?Sys_LoadInterface@@YA_NPBD0PAPAVCSysModule@@PAPAX@Z 0048b650 f   tier1:interface.obj
 0001:0008a800       ?Sys_LoadLibrary@@YAPAUHINSTANCE__@@PBD@Z 0048b800 f   tier1:interface.obj
 0001:0008a890       ?Sys_LoadModule@@YAPAVCSysModule@@PBD@Z 0048b890 f   tier1:interface.obj
 0001:0008a9d0       ?Sys_UnloadModule@@YAXPAVCSysModule@@@Z 0048b9d0 f   tier1:interface.obj
 0001:0008a9f0       _CreateInterface           0048b9f0 f   tier1:interface.obj
 0001:0008aa60       ??$GetType@E@CUtlBuffer@@IAEXAAEPBD@Z 0048ba60 f i tier1:KeyValues.obj
 0001:0008aac0       ??$GetType@I@CUtlBuffer@@IAEXAAIPBD@Z 0048bac0 f i tier1:KeyValues.obj
 0001:0008ab20       ??$GetType@M@CUtlBuffer@@IAEXAAMPBD@Z 0048bb20 f i tier1:KeyValues.obj
 0001:0008ab80       ??$GetType@N@CUtlBuffer@@IAEXAANPBD@Z 0048bb80 f i tier1:KeyValues.obj
 0001:0008abe0       ??$PutType@E@CUtlBuffer@@IAEXEPBD@Z 0048bbe0 f i tier1:KeyValues.obj
 0001:0008ac30       ??$PutType@I@CUtlBuffer@@IAEXIPBD@Z 0048bc30 f i tier1:KeyValues.obj
 0001:0008aca0       ??$PutType@M@CUtlBuffer@@IAEXMPBD@Z 0048bca0 f i tier1:KeyValues.obj
 0001:0008ad20       ??$PutType@N@CUtlBuffer@@IAEXNPBD@Z 0048bd20 f i tier1:KeyValues.obj
 0001:0008ada0       ??$PutTypeBin@E@CUtlBuffer@@IAEXE@Z 0048bda0 f i tier1:KeyValues.obj
 0001:0008add0       ??$PutTypeBin@I@CUtlBuffer@@IAEXI@Z 0048bdd0 f i tier1:KeyValues.obj
 0001:0008ae20       ??$PutTypeBin@M@CUtlBuffer@@IAEXM@Z 0048be20 f i tier1:KeyValues.obj
 0001:0008ae70       ??$PutTypeBin@N@CUtlBuffer@@IAEXN@Z 0048be70 f i tier1:KeyValues.obj
 0001:0008aec0       ??0?$CUtlMemory@PAVKeyValues@@@@QAE@HH@Z 0048bec0 f i tier1:KeyValues.obj
 0001:0008af00       ??0KeyValues@@QAE@PBD0000@Z 0048bf00 f   tier1:KeyValues.obj
 0001:0008b030       ??0KeyValues@@QAE@PBD00@Z  0048c030 f   tier1:KeyValues.obj
 0001:0008b100       ??0KeyValues@@QAE@PBD0H0H@Z 0048c100 f   tier1:KeyValues.obj
 0001:0008b1a0       ??0KeyValues@@QAE@PBD0H@Z  0048c1a0 f   tier1:KeyValues.obj
 0001:0008b220       ??0KeyValues@@QAE@PBD0PB_W@Z 0048c220 f   tier1:KeyValues.obj
 0001:0008b290       ??0KeyValues@@QAE@PBD@Z    0048c290 f   tier1:KeyValues.obj
 0001:0008b300       ??1?$CUtlMemory@PAVKeyValues@@@@QAE@XZ 0048c300 f i tier1:KeyValues.obj
 0001:0008b360       ??1?$CUtlVector@PAVKeyValues@@V?$CUtlMemory@PAVKeyValues@@@@@@QAE@XZ 0048c360 f i tier1:KeyValues.obj
 0001:0008b400       ??1CKeyErrorContext@@QAE@XZ 0048c400 f i tier1:KeyValues.obj
 0001:0008b410       ??1CUtlBuffer@@QAE@XZ      0048c410 f i tier1:KeyValues.obj
 0001:0008b480       ??1KeyValues@@AAE@XZ       0048c480 f   tier1:KeyValues.obj
 0001:0008b4c0       ??2KeyValues@@SAPAXI@Z     0048c4c0 f   tier1:KeyValues.obj
 0001:0008b4e0       ??2KeyValues@@SAPAXIHPBDH@Z 0048c4e0 f   tier1:KeyValues.obj
 0001:0008b500       ??3KeyValues@@SAXPAX@Z     0048c500 f   tier1:KeyValues.obj
 0001:0008b550       ??3KeyValues@@SAXPAXHPBDH@Z 0048c550 f   tier1:KeyValues.obj
 0001:0008b5a0       ??4KeyValues@@QAEAAV0@AAV0@@Z 0048c5a0 f   tier1:KeyValues.obj
 0001:0008b600       ?AddSubKey@KeyValues@@QAEXPAV1@@Z 0048c600 f   tier1:KeyValues.obj
 0001:0008b640       ?AppendIncludedKeys@KeyValues@@AAEXAAV?$CUtlVector@PAVKeyValues@@V?$CUtlMemory@PAVKeyValues@@@@@@@Z 0048c640 f   tier1:KeyValues.obj
 0001:0008b680       ?ChainKeyValue@KeyValues@@QAEXPAV1@@Z 0048c680 f   tier1:KeyValues.obj
 0001:0008b690       ?Clear@KeyValues@@QAEXXZ   0048c690 f   tier1:KeyValues.obj
 0001:0008b710       ?CopySubkeys@KeyValues@@QBEXPAV1@@Z 0048c710 f   tier1:KeyValues.obj
 0001:0008b8d0       ?CreateKey@KeyValues@@AAEPAV1@PBD@Z 0048c8d0 f   tier1:KeyValues.obj
 0001:0008b980       ?CreateNewKey@KeyValues@@QAEPAV1@XZ 0048c980 f   tier1:KeyValues.obj
 0001:0008ba10       ?FindKey@KeyValues@@QAEPAV1@PBD_N@Z 0048ca10 f   tier1:KeyValues.obj
 0001:0008bb90       ?FindKey@KeyValues@@QBEPAV1@H@Z 0048cb90 f   tier1:KeyValues.obj
 0001:0008bbc0       ?GetColor@KeyValues@@QAE?AVColor@@PBD@Z 0048cbc0 f   tier1:KeyValues.obj
 0001:0008bc90       ?GetDataType@KeyValues@@QAE?AW4types_t@1@PBD@Z 0048cc90 f   tier1:KeyValues.obj
 0001:0008bcb0       ?GetFirstSubKey@KeyValues@@QAEPAV1@XZ 0048ccb0 f   tier1:KeyValues.obj
 0001:0008bcc0       ?GetFirstTrueSubKey@KeyValues@@QAEPAV1@XZ 0048ccc0 f   tier1:KeyValues.obj
 0001:0008bce0       ?GetFirstValue@KeyValues@@QAEPAV1@XZ 0048cce0 f   tier1:KeyValues.obj
 0001:0008bd00       ?GetFloat@KeyValues@@QAEMPBDM@Z 0048cd00 f   tier1:KeyValues.obj
 0001:0008bda0       ?GetInt@KeyValues@@QAEHPBDH@Z 0048cda0 f   tier1:KeyValues.obj
 0001:0008be20       ?GetName@KeyValues@@QBEPBDXZ 0048ce20 f   tier1:KeyValues.obj
 0001:0008be40       ?GetNameSymbol@KeyValues@@QBEHXZ 0048ce40 f   tier1:KeyValues.obj
 0001:0008be50       ?GetNextKey@KeyValues@@QAEPAV1@XZ 0048ce50 f   tier1:KeyValues.obj
 0001:0008be60       ?GetNextTrueSubKey@KeyValues@@QAEPAV1@XZ 0048ce60 f   tier1:KeyValues.obj
 0001:0008be80       ?GetNextValue@KeyValues@@QAEPAV1@XZ 0048ce80 f   tier1:KeyValues.obj
 0001:0008bea0       ?GetPtr@KeyValues@@QAEPAXPBDPAX@Z 0048cea0 f   tier1:KeyValues.obj
 0001:0008bf00       ?GetString@KeyValues@@QAEPBDPBD0@Z 0048cf00 f   tier1:KeyValues.obj
 0001:0008c050       ?GetUint64@KeyValues@@QAE_KPBD_K@Z 0048d050 f   tier1:KeyValues.obj
 0001:0008c0e0       ?GetUnsignedChar@CUtlBuffer@@QAEEXZ 0048d0e0 f i tier1:KeyValues.obj
 0001:0008c140       ?GetWString@KeyValues@@QAEPB_WPBDPB_W@Z 0048d140 f   tier1:KeyValues.obj
 0001:0008c290       ?Grow@?$CUtlMemory@PAVKeyValues@@@@QAEXH@Z 0048d290 f i tier1:KeyValues.obj
 0001:0008c300       ?GrowVector@?$CUtlVector@PAVKeyValues@@V?$CUtlMemory@PAVKeyValues@@@@@@IAEXH@Z 0048d300 f i tier1:KeyValues.obj
 0001:0008c390       ?Init@KeyValues@@AAEXXZ    0048d390 f   tier1:KeyValues.obj
 0001:0008c3e0       ?InsertBefore@?$CUtlVector@PAVKeyValues@@V?$CUtlMemory@PAVKeyValues@@@@@@QAEHHABQAVKeyValues@@@Z 0048d3e0 f i tier1:KeyValues.obj
 0001:0008c490       ?InternalWrite@KeyValues@@AAEXPAVIBaseFileSystem@@PAXPAVCUtlBuffer@@PBXH@Z 0048d490 f   tier1:KeyValues.obj
 0001:0008c4c0       ?IsEmpty@KeyValues@@QAE_NPBD@Z 0048d4c0 f   tier1:KeyValues.obj
 0001:0008c4f0       ?IsExternallyAllocated@?$CUtlMemory@PAVKeyValues@@@@QBE_NXZ 0048d4f0 f i tier1:KeyValues.obj
 0001:0008c500       ?LoadFromBuffer@KeyValues@@QAE_NPBD0PAVIBaseFileSystem@@0@Z 0048d500 f   tier1:KeyValues.obj
 0001:0008c5c0       ?LoadFromBuffer@KeyValues@@QAE_NPBDAAVCUtlBuffer@@PAVIBaseFileSystem@@0@Z 0048d5c0 f   tier1:KeyValues.obj
 0001:0008c8f0       ?LoadFromFile@KeyValues@@QAE_NPAVIBaseFileSystem@@PBD1@Z 0048d8f0 f   tier1:KeyValues.obj
 0001:0008ca70       ?MakeCopy@KeyValues@@QBEPAV1@XZ 0048da70 f   tier1:KeyValues.obj
 0001:0008cbf0       ?ParseIncludedKeys@KeyValues@@AAEXPBD0PAVIBaseFileSystem@@0AAV?$CUtlVector@PAVKeyValues@@V?$CUtlMemory@PAVKeyValues@@@@@@@Z 0048dbf0 f   tier1:KeyValues.obj
 0001:0008ce20       ?Purge@?$CUtlMemory@PAVKeyValues@@@@QAEXXZ 0048de20 f i tier1:KeyValues.obj
 0001:0008ce50       ?ReadAsBinary@KeyValues@@QAE_NAAVCUtlBuffer@@@Z 0048de50 f   tier1:KeyValues.obj
 0001:0008d480       ?ReadToken@KeyValues@@AAEPBDAAVCUtlBuffer@@AA_N@Z 0048e480 f   tier1:KeyValues.obj
 0001:0008d5f0       ?RecursiveCopyKeyValues@KeyValues@@AAEXAAV1@@Z 0048e5f0 f   tier1:KeyValues.obj
 0001:0008d820       ?RecursiveLoadFromBuffer@KeyValues@@AAEXPBDAAVCUtlBuffer@@@Z 0048e820 f   tier1:KeyValues.obj
 0001:0008da70       ?RecursiveSaveToFile@KeyValues@@AAEXPAVIBaseFileSystem@@PAXPAVCUtlBuffer@@H@Z 0048ea70 f   tier1:KeyValues.obj
 0001:0008e390       ?RecursiveSaveToFile@KeyValues@@QAEXAAVCUtlBuffer@@H@Z 0048f390 f   tier1:KeyValues.obj
 0001:0008e3b0       ?RemoveAll@?$CUtlVector@PAVKeyValues@@V?$CUtlMemory@PAVKeyValues@@@@@@QAEXXZ 0048f3b0 f i tier1:KeyValues.obj
 0001:0008e3c0       ?RemoveEverything@KeyValues@@AAEXXZ 0048f3c0 f   tier1:KeyValues.obj
 0001:0008e4b0       ?RemoveSubKey@KeyValues@@QAEXPAV1@@Z 0048f4b0 f   tier1:KeyValues.obj
 0001:0008e510       ?ReportError@CKeyValuesErrorStack@@QAEXPBD@Z 0048f510 f i tier1:KeyValues.obj
 0001:0008e5a0       ?SaveToFile@KeyValues@@QAE_NPAVIBaseFileSystem@@PBD1@Z 0048f5a0 f   tier1:KeyValues.obj
 0001:0008e620       ?SetColor@KeyValues@@QAEXPBDVColor@@@Z 0048f620 f   tier1:KeyValues.obj
 0001:0008e660       ?SetFloat@KeyValues@@QAEXPBDM@Z 0048f660 f   tier1:KeyValues.obj
 0001:0008e690       ?SetInt@KeyValues@@QAEXPBDH@Z 0048f690 f   tier1:KeyValues.obj
 0001:0008e6b0       ?SetName@KeyValues@@QAEXPBD@Z 0048f6b0 f   tier1:KeyValues.obj
 0001:0008e6d0       ?SetNextKey@KeyValues@@QAEXPAV1@@Z 0048f6d0 f   tier1:KeyValues.obj
 0001:0008e6e0       ?SetPtr@KeyValues@@QAEXPBDPAX@Z 0048f6e0 f   tier1:KeyValues.obj
 0001:0008e700       ?SetString@KeyValues@@QAEXPBD0@Z 0048f700 f   tier1:KeyValues.obj
 0001:0008e770       ?SetStringValue@KeyValues@@QAEXPBD@Z 0048f770 f   tier1:KeyValues.obj
 0001:0008e7d0       ?SetUint64@KeyValues@@QAEXPBD_K@Z 0048f7d0 f   tier1:KeyValues.obj
 0001:0008e820       ?SetWString@KeyValues@@QAEXPBDPB_W@Z 0048f820 f   tier1:KeyValues.obj
 0001:0008e8b0       ?ShiftElementsRight@?$CUtlVector@PAVKeyValues@@V?$CUtlMemory@PAVKeyValues@@@@@@IAEXHH@Z 0048f8b0 f i tier1:KeyValues.obj
 0001:0008e8f0       ?UsesEscapeSequences@KeyValues@@QAEX_N@Z 0048f8f0 f   tier1:KeyValues.obj
 0001:0008e900       ?WriteAsBinary@KeyValues@@QAE_NAAVCUtlBuffer@@@Z 0048f900 f   tier1:KeyValues.obj
 0001:0008eca0       ?WriteConvertedString@KeyValues@@AAEXPAVIBaseFileSystem@@PAXPAVCUtlBuffer@@PBD@Z 0048fca0 f   tier1:KeyValues.obj
 0001:0008ed50       ?WriteIndents@KeyValues@@AAEXPAVIBaseFileSystem@@PAXPAVCUtlBuffer@@H@Z 0048fd50 f   tier1:KeyValues.obj
 0001:0008edc0       ?__empty_global_delete@@YAXPAX@Z 0048fdc0 f i tier1:KeyValues.obj
 0001:0008edd0       ?__empty_global_delete@@YAXPAXI@Z 0048fdd0 f i tier1:KeyValues.obj
 0001:0008edd0       ?__global_delete@@YAXPAXI@Z 0048fdd0 f i tier1:KeyValues.obj
 0001:0008ede0       ?deleteThis@KeyValues@@QAEXXZ 0048fde0 f   tier1:KeyValues.obj
 0001:0008ee40       ?swprintf@@YAHQA_WQB_WZZ   0048fe40 f i tier1:KeyValues.obj
 0001:0008ee70       ?FindConversion@CUtlNoEscConversion@@UAEDPBDPAH@Z 0048fe70 f i tier1:utlbuffer.obj
 0001:0008ee90       ??$GetType@D@CUtlBuffer@@IAEXAADPBD@Z 0048fe90 f i tier1:utlbuffer.obj
 0001:0008eef0       ??0?$CUtlMemory@E@@QAE@PAEH@Z 0048fef0 f i tier1:utlbuffer.obj
 0001:0008ef10       ??0CUtlBuffer@@QAE@HHH@Z   0048ff10 f   tier1:utlbuffer.obj
 0001:0008f010       ??0CUtlBuffer@@QAE@PBXHH@Z 00490010 f   tier1:utlbuffer.obj
 0001:0008f0f0       ??0CUtlCStringConversion@@QAE@DPBDHPAUConversionArray_t@CUtlCharConversion@@@Z 004900f0 f   tier1:utlbuffer.obj
 0001:0008f150       ??0CUtlCharConversion@@QAE@DPBDHPAUConversionArray_t@0@@Z 00490150 f   tier1:utlbuffer.obj
 0001:0008f1f0       ?AddNullTermination@CUtlBuffer@@IAEXXZ 004901f0 f   tier1:utlbuffer.obj
 0001:0008f240       ?CheckArbitraryPeekGet@CUtlBuffer@@IAE_NHAAH@Z 00490240 f   tier1:utlbuffer.obj
 0001:0008f2b0       ?CheckGet@CUtlBuffer@@IAE_NH@Z 004902b0 f   tier1:utlbuffer.obj
 0001:0008f310       ?CheckPeekGet@CUtlBuffer@@IAE_NHH@Z 00490310 f   tier1:utlbuffer.obj
 0001:0008f340       ?CheckPut@CUtlBuffer@@IAE_NH@Z 00490340 f   tier1:utlbuffer.obj
 0001:0008f390       ?ConvertCRLF@CUtlBuffer@@QAE_NAAV1@@Z 00490390 f   tier1:utlbuffer.obj
 0001:0008f820       ?ConvertToGrowableMemory@?$CUtlMemory@E@@QAEXH@Z 00490820 f i tier1:utlbuffer.obj
 0001:0008f870       ?EatCPPComment@CUtlBuffer@@QAE_NXZ 00490870 f   tier1:utlbuffer.obj
 0001:0008f940       ?EatWhiteSpace@CUtlBuffer@@QAEXXZ 00490940 f   tier1:utlbuffer.obj
 0001:0008f9b0       ?EnsureCapacity@CUtlBuffer@@QAEXH@Z 004909b0 f   tier1:utlbuffer.obj
 0001:0008fa10       ?FindConversion@CUtlCStringConversion@@UAEDPBDPAH@Z 00490a10 f   tier1:utlbuffer.obj
 0001:0008fa30       ?FindConversion@CUtlCharConversion@@UAEDPBDPAH@Z 00490a30 f   tier1:utlbuffer.obj
 0001:0008fac0       ?Get@CUtlBuffer@@QAEXPAXH@Z 00490ac0 f   tier1:utlbuffer.obj
 0001:0008fb00       ?GetCStringCharConversion@@YAPAVCUtlCharConversion@@XZ 00490b00 f   tier1:utlbuffer.obj
 0001:0008fb10       ?GetChar@CUtlBuffer@@QAEDXZ 00490b10 f i tier1:utlbuffer.obj
 0001:0008fb70       ?GetConversionLength@CUtlCharConversion@@QBEHD@Z 00490b70 f   tier1:utlbuffer.obj
 0001:0008fb90       ?GetConversionString@CUtlCharConversion@@QBEPBDD@Z 00490b90 f   tier1:utlbuffer.obj
 0001:0008fbb0       ?GetDelimitedChar@CUtlBuffer@@QAEDPAVCUtlCharConversion@@@Z 00490bb0 f   tier1:utlbuffer.obj
 0001:0008fbe0       ?GetDelimitedCharInternal@CUtlBuffer@@IAEDPAVCUtlCharConversion@@@Z 00490be0 f   tier1:utlbuffer.obj
 0001:0008fca0       ?GetDelimitedString@CUtlBuffer@@QAEXPAVCUtlCharConversion@@PADH@Z 00490ca0 f   tier1:utlbuffer.obj
 0001:0008fde0       ?GetDelimiter@CUtlCharConversion@@QBEPBDXZ 00490de0 f   tier1:utlbuffer.obj
 0001:0008fdf0       ?GetDelimiterLength@CUtlCharConversion@@QBEHXZ 00490df0 f   tier1:utlbuffer.obj
 0001:0008fe00       ?GetEscapeChar@CUtlCharConversion@@QBEDXZ 00490e00 f   tier1:utlbuffer.obj
 0001:0008fe10       ?GetLine@CUtlBuffer@@QAEXPADH@Z 00490e10 f   tier1:utlbuffer.obj
 0001:0008ff90       ?GetNoEscCharConversion@@YAPAVCUtlCharConversion@@XZ 00490f90 f   tier1:utlbuffer.obj
 0001:0008ffa0       ?GetOverflow@CUtlBuffer@@IAE_NH@Z 00490fa0 f   tier1:utlbuffer.obj
 0001:0008ffb0       ?GetString@CUtlBuffer@@QAEXPADH@Z 00490fb0 f   tier1:utlbuffer.obj
 0001:000900a0       ?GetToken@CUtlBuffer@@QAE_NPBD@Z 004910a0 f   tier1:utlbuffer.obj
 0001:000901a0       ?GetUpTo@CUtlBuffer@@QAEHPAXH@Z 004911a0 f   tier1:utlbuffer.obj
 0001:000901e0       ?MaxConversionLength@CUtlCharConversion@@QBEHXZ 004911e0 f   tier1:utlbuffer.obj
 0001:000901f0       ?OnGetOverflow@CUtlBuffer@@IAE_NH@Z 004911f0 f   tier1:utlbuffer.obj
 0001:00090200       ?OnPutOverflow@CUtlBuffer@@IAE_NH@Z 00491200 f   tier1:utlbuffer.obj
 0001:00090210       ?ParseToken@CUtlBuffer@@QAE_NPBD0PADH@Z 00491210 f   tier1:utlbuffer.obj
 0001:000904e0       ?PeekDelimitedStringLength@CUtlBuffer@@QAEHPAVCUtlCharConversion@@_N@Z 004914e0 f   tier1:utlbuffer.obj
 0001:00090610       ?PeekGet@CUtlBuffer@@QAEPBXHH@Z 00491610 f   tier1:utlbuffer.obj
 0001:00090650       ?PeekLineLength@CUtlBuffer@@IAEHXZ 00491650 f   tier1:utlbuffer.obj
 0001:000906f0       ?PeekStringLength@CUtlBuffer@@QAEHXZ 004916f0 f   tier1:utlbuffer.obj
 0001:00090810       ?PeekStringMatch@CUtlBuffer@@IAE_NHPBDH@Z 00491810 f   tier1:utlbuffer.obj
 0001:00090870       ?PeekWhiteSpace@CUtlBuffer@@IAEHH@Z 00491870 f   tier1:utlbuffer.obj
 0001:000908d0       ?Printf@CUtlBuffer@@QAAXPBDZZ 004918d0 f   tier1:utlbuffer.obj
 0001:00090920       ?Put@CUtlBuffer@@QAEXPBXH@Z 00491920 f   tier1:utlbuffer.obj
 0001:00090990       ?PutDelimitedChar@CUtlBuffer@@QAEXPAVCUtlCharConversion@@D@Z 00491990 f   tier1:utlbuffer.obj
 0001:000909e0       ?PutDelimitedCharInternal@CUtlBuffer@@IAEXPAVCUtlCharConversion@@D@Z 004919e0 f i tier1:utlbuffer.obj
 0001:00090a90       ?PutDelimitedString@CUtlBuffer@@QAEXPAVCUtlCharConversion@@PBD@Z 00491a90 f   tier1:utlbuffer.obj
 0001:00090bf0       ?PutOverflow@CUtlBuffer@@IAE_NH@Z 00491bf0 f   tier1:utlbuffer.obj
 0001:00090cd0       ?PutString@CUtlBuffer@@QAEXPBD@Z 00491cd0 f   tier1:utlbuffer.obj
 0001:00090db0       ?PutTabs@CUtlBuffer@@IAEXXZ 00491db0 f i tier1:utlbuffer.obj
 0001:00090e60       ?Scanf@CUtlBuffer@@QAAHPBDZZ 00491e60 f   tier1:utlbuffer.obj
 0001:00090e80       ?SeekGet@CUtlBuffer@@QAEXW4SeekType_t@1@H@Z 00491e80 f   tier1:utlbuffer.obj
 0001:00090ed0       ?SeekPut@CUtlBuffer@@QAEXW4SeekType_t@1@H@Z 00491ed0 f   tier1:utlbuffer.obj
 0001:00090f50       ?SetBufferType@CUtlBuffer@@QAEX_N0@Z 00491f50 f   tier1:utlbuffer.obj
 0001:00090f90       ?SetExternalBuffer@?$CUtlMemory@E@@QAEXPAEH@Z 00491f90 f i tier1:utlbuffer.obj
 0001:00090fd0       ?SetExternalBuffer@CUtlBuffer@@QAEXPAXHHH@Z 00491fd0 f   tier1:utlbuffer.obj
 0001:00091090       ?SetLittleEndian@CUtlBuffer@@QAEX_N@Z 00492090 f   tier1:utlbuffer.obj
 0001:000910a0       ?SetOverflowFuncs@CUtlBuffer@@IAEXP81@AE_NH@Z0@Z 004920a0 f   tier1:utlbuffer.obj
 0001:000910c0       ?VaPrintf@CUtlBuffer@@QAEXPBDPAD@Z 004920c0 f   tier1:utlbuffer.obj
 0001:00091120       ?VaScanf@CUtlBuffer@@QAEHPBDPAD@Z 00492120 f   tier1:utlbuffer.obj
 0001:000913d0       ??0?$CUtlMemory@PAUStringPool_t@CUtlSymbolTable@@@@QAE@HH@Z 004923d0 f i tier1:utlsymbol.obj
 0001:00091410       ??0?$CUtlMemory@UNode_t@?$CUtlRBTree@VCStringPoolIndex@CUtlSymbolTable@@GVCLess@2@@@@@QAE@HH@Z 00492410 f i tier1:utlsymbol.obj
 0001:00091450       ??0CUtlSymbol@@QAE@PBD@Z   00492450 f   tier1:utlsymbol.obj
 0001:00091490       ??0CUtlSymbolTable@@QAE@HH_N@Z 00492490 f   tier1:utlsymbol.obj
 0001:00091540       ??1?$CUtlMemory@PAUStringPool_t@CUtlSymbolTable@@@@QAE@XZ 00492540 f i tier1:utlsymbol.obj
 0001:000915a0       ??1?$CUtlMemory@UNode_t@?$CUtlRBTree@VCStringPoolIndex@CUtlSymbolTable@@GVCLess@2@@@@@QAE@XZ 004925a0 f i tier1:utlsymbol.obj
 0001:00091600       ??1?$CUtlRBTree@VCStringPoolIndex@CUtlSymbolTable@@GVCLess@2@@@QAE@XZ 00492600 f i tier1:utlsymbol.obj
 0001:000916d0       ??1?$CUtlVector@PAUStringPool_t@CUtlSymbolTable@@V?$CUtlMemory@PAUStringPool_t@CUtlSymbolTable@@@@@@QAE@XZ 004926d0 f i tier1:utlsymbol.obj
 0001:00091770       ??1CTree@CUtlSymbolTable@@QAE@XZ 00492770 f i tier1:utlsymbol.obj
 0001:00091780       ??1CUtlSymbolTable@@QAE@XZ 00492780 f   tier1:utlsymbol.obj
 0001:00091860       ??8CUtlSymbol@@QBE_NPBD@Z  00492860 f   tier1:utlsymbol.obj
 0001:00091900       ??RCLess@CUtlSymbolTable@@QBE_NABVCStringPoolIndex@1@0@Z 00492900 f   tier1:utlsymbol.obj
 0001:000919b0       ?AddString@CUtlSymbolTable@@QAE?AVCUtlSymbol@@PBD@Z 004929b0 f   tier1:utlsymbol.obj
 0001:00091c30       ?CurrTable@CUtlSymbol@@KAPAVCUtlSymbolTableMT@@XZ 00492c30 f   tier1:utlsymbol.obj
 0001:00091d60       ?DisableStaticSymbolTable@CUtlSymbol@@SAXXZ 00492d60 f   tier1:utlsymbol.obj
 0001:00091d70       ?Find@?$CUtlRBTree@VCStringPoolIndex@CUtlSymbolTable@@GVCLess@2@@@QBEGABVCStringPoolIndex@CUtlSymbolTable@@@Z 00492d70 f i tier1:utlsymbol.obj
 0001:00091e00       ?Find@CUtlSymbolTable@@QAE?AVCUtlSymbol@@PBD@Z 00492e00 f   tier1:utlsymbol.obj
 0001:00091ea0       ?FindFileName@CUtlFilenameSymbolTable@@QAEPAXPBD@Z 00492ea0 f   tier1:utlsymbol.obj
 0001:00091fa0       ?FindInsertionPosition@?$CUtlRBTree@VCStringPoolIndex@CUtlSymbolTable@@GVCLess@2@@@IAEXABVCStringPoolIndex@CUtlSymbolTable@@AAGAA_N@Z 00492fa0 f i tier1:utlsymbol.obj
 0001:00092020       ?FindOrAddFileName@CUtlFilenameSymbolTable@@QAEPAXPBD@Z 00493020 f   tier1:utlsymbol.obj
 0001:00092110       ?FindPoolWithSpace@CUtlSymbolTable@@ABEHH@Z 00493110 f   tier1:utlsymbol.obj
 0001:00092150       ?Grow@?$CUtlMemory@PAUStringPool_t@CUtlSymbolTable@@@@QAEXH@Z 00493150 f i tier1:utlsymbol.obj
 0001:000921c0       ?Grow@?$CUtlMemory@UNode_t@?$CUtlRBTree@VCStringPoolIndex@CUtlSymbolTable@@GVCLess@2@@@@@QAEXH@Z 004931c0 f i tier1:utlsymbol.obj
 0001:00092230       ?GrowVector@?$CUtlVector@PAUStringPool_t@CUtlSymbolTable@@V?$CUtlMemory@PAUStringPool_t@CUtlSymbolTable@@@@@@IAEXH@Z 00493230 f i tier1:utlsymbol.obj
 0001:000922c0       ?Initialize@CUtlSymbol@@KAXXZ 004932c0 f   tier1:utlsymbol.obj
 0001:000923c0       ?Insert@?$CUtlRBTree@VCStringPoolIndex@CUtlSymbolTable@@GVCLess@2@@@QAEGABVCStringPoolIndex@CUtlSymbolTable@@@Z 004933c0 f i tier1:utlsymbol.obj
 0001:00092460       ?InsertAt@?$CUtlRBTree@VCStringPoolIndex@CUtlSymbolTable@@GVCLess@2@@@IAEGG_N@Z 00493460 f i tier1:utlsymbol.obj
 0001:00092560       ?InsertBefore@?$CUtlVector@PAUStringPool_t@CUtlSymbolTable@@V?$CUtlMemory@PAUStringPool_t@CUtlSymbolTable@@@@@@QAEHHABQAUStringPool_t@CUtlSymbolTable@@@Z 00493560 f i tier1:utlsymbol.obj
 0001:00092610       ?InsertRebalance@?$CUtlRBTree@VCStringPoolIndex@CUtlSymbolTable@@GVCLess@2@@@IAEXG@Z 00493610 f i tier1:utlsymbol.obj
 0001:00092810       ?IsExternallyAllocated@?$CUtlMemory@PAUStringPool_t@CUtlSymbolTable@@@@QBE_NXZ 00493810 f i tier1:utlsymbol.obj
 0001:00092820       ?IsExternallyAllocated@?$CUtlMemory@UNode_t@?$CUtlRBTree@VCStringPoolIndex@CUtlSymbolTable@@GVCLess@2@@@@@QBE_NXZ 00493820 f i tier1:utlsymbol.obj
 0001:00092830       ?LinkToParent@?$CUtlRBTree@VCStringPoolIndex@CUtlSymbolTable@@GVCLess@2@@@IAEXGG_N@Z 00493830 f i tier1:utlsymbol.obj
 0001:000928b0       ?Links@?$CUtlRBTree@VCStringPoolIndex@CUtlSymbolTable@@GVCLess@2@@@IBEABULinks_t@1@G@Z 004938b0 f i tier1:utlsymbol.obj
 0001:00092940       ?NewNode@?$CUtlRBTree@VCStringPoolIndex@CUtlSymbolTable@@GVCLess@2@@@QAEGXZ 00493940 f i tier1:utlsymbol.obj
 0001:00092a00       ?Purge@?$CUtlMemory@PAUStringPool_t@CUtlSymbolTable@@@@QAEXXZ 00493a00 f i tier1:utlsymbol.obj
 0001:00092a30       ?Purge@?$CUtlMemory@UNode_t@?$CUtlRBTree@VCStringPoolIndex@CUtlSymbolTable@@GVCLess@2@@@@@QAEXXZ 00493a30 f i tier1:utlsymbol.obj
 0001:00092a60       ?Purge@?$CUtlRBTree@VCStringPoolIndex@CUtlSymbolTable@@GVCLess@2@@@QAEXXZ 00493a60 f i tier1:utlsymbol.obj
 0001:00092ac0       ?RemoveAll@?$CUtlRBTree@VCStringPoolIndex@CUtlSymbolTable@@GVCLess@2@@@QAEXXZ 00493ac0 f i tier1:utlsymbol.obj
 0001:00092b40       ?RemoveAll@?$CUtlVector@PAUStringPool_t@CUtlSymbolTable@@V?$CUtlMemory@PAUStringPool_t@CUtlSymbolTable@@@@@@QAEXXZ 00493b40 f i tier1:utlsymbol.obj
 0001:00092b50       ?RemoveAll@CUtlSymbolTable@@QAEXXZ 00493b50 f   tier1:utlsymbol.obj
 0001:00092c00       ?RotateLeft@?$CUtlRBTree@VCStringPoolIndex@CUtlSymbolTable@@GVCLess@2@@@IAEXG@Z 00493c00 f i tier1:utlsymbol.obj
 0001:00092d10       ?RotateRight@?$CUtlRBTree@VCStringPoolIndex@CUtlSymbolTable@@GVCLess@2@@@IAEXG@Z 00493d10 f i tier1:utlsymbol.obj
 0001:00092e20       ?ShiftElementsRight@?$CUtlVector@PAUStringPool_t@CUtlSymbolTable@@V?$CUtlMemory@PAUStringPool_t@CUtlSymbolTable@@@@@@IAEXHH@Z 00493e20 f i tier1:utlsymbol.obj
 0001:00092e60       ?String@CUtlFilenameSymbolTable@@QAE_NABQAXPADH@Z 00493e60 f   tier1:utlsymbol.obj
 0001:00092ed0       ?String@CUtlSymbol@@QBEPBDXZ 00493ed0 f   tier1:utlsymbol.obj
 0001:00092f30       ?String@CUtlSymbolTable@@QBEPBDVCUtlSymbol@@@Z 00493f30 f   tier1:utlsymbol.obj
 0001:00092f80       ?CRC32_Final@@YAXPAK@Z     00493f80 f   tier1:checksum_crc.obj
 0001:00092f90       ?CRC32_GetTableEntry@@YAKI@Z 00493f90 f   tier1:checksum_crc.obj
 0001:00092fa0       ?CRC32_Init@@YAXPAK@Z      00493fa0 f   tier1:checksum_crc.obj
 0001:00092fb0       ?CRC32_ProcessBuffer@@YAXPAKPBXH@Z 00493fb0 f   tier1:checksum_crc.obj
 0001:00093180       ??0?$CUtlMemory@UNode_t@?$CUtlRBTree@PBDGP6A_NABQBD0@Z@@@@QAE@HH@Z 00494180 f i tier1:stringpool.obj
 0001:000931c0       ??0?$CUtlMemory@Uhash_item_t@CCountedStringPool@@@@QAE@HH@Z 004941c0 f i tier1:stringpool.obj
 0001:00093200       ??0CCountedStringPool@@QAE@XZ 00494200 f   tier1:stringpool.obj
 0001:000933d0       ??0CStringPool@@QAE@XZ     004943d0 f   tier1:stringpool.obj
 0001:00093430       ??1?$CUtlMemory@UNode_t@?$CUtlRBTree@PBDGP6A_NABQBD0@Z@@@@QAE@XZ 00494430 f i tier1:stringpool.obj
 0001:00093490       ??1?$CUtlMemory@Uhash_item_t@CCountedStringPool@@@@QAE@XZ 00494490 f i tier1:stringpool.obj
 0001:000934f0       ??1?$CUtlRBTree@PBDGP6A_NABQBD0@Z@@QAE@XZ 004944f0 f i tier1:stringpool.obj
 0001:000935c0       ??1?$CUtlVector@Uhash_item_t@CCountedStringPool@@V?$CUtlMemory@Uhash_item_t@CCountedStringPool@@@@@@QAE@XZ 004945c0 f i tier1:stringpool.obj
 0001:00093660       ??1CCountedStringPool@@UAE@XZ 00494660 f   tier1:stringpool.obj
 0001:00093760       ??1CStringPool@@QAE@XZ     00494760 f   tier1:stringpool.obj
 0001:000937b0       ??_ECCountedStringPool@@UAEPAXI@Z 004947b0 f i tier1:stringpool.obj
 0001:000937b0       ??_GCCountedStringPool@@UAEPAXI@Z 004947b0 f i tier1:stringpool.obj
 0001:000937e0       ?Allocate@CStringPool@@QAEPBDPBD@Z 004947e0 f   tier1:stringpool.obj
 0001:00093900       ?Count@CStringPool@@QBEIXZ 00494900 f   tier1:stringpool.obj
 0001:00093910       ?DereferenceString@CCountedStringPool@@QAEXPBD@Z 00494910 f   tier1:stringpool.obj
 0001:00093a20       ?EnsureCount@?$CUtlVector@GV?$CUtlMemory@G@@@@QAEXH@Z 00494a20 f i tier1:stringpool.obj
 0001:00093ae0       ?Find@?$CUtlRBTree@PBDGP6A_NABQBD0@Z@@QBEGABQBD@Z 00494ae0 f i tier1:stringpool.obj
 0001:00093b70       ?Find@CStringPool@@QAEPBDPBD@Z 00494b70 f   tier1:stringpool.obj
 0001:00093bc0       ?FindInsertionPosition@?$CUtlRBTree@PBDGP6A_NABQBD0@Z@@IAEXABQBDAAGAA_N@Z 00494bc0 f i tier1:stringpool.obj
 0001:00093c40       ?FindString@CCountedStringPool@@QAEPADPBD@Z 00494c40 f   tier1:stringpool.obj
 0001:00093cc0       ?FindStringHandle@CCountedStringPool@@QAEGPBD@Z 00494cc0 f   tier1:stringpool.obj
 0001:00093d40       ?FirstInorder@?$CUtlRBTree@PBDGP6A_NABQBD0@Z@@QBEGXZ 00494d40 f i tier1:stringpool.obj
 0001:00093d80       ?FreeAll@CCountedStringPool@@QAEXXZ 00494d80 f   tier1:stringpool.obj
 0001:00093e30       ?FreeAll@CStringPool@@QAEXXZ 00494e30 f   tier1:stringpool.obj
 0001:00093fc0       ?Grow@?$CUtlMemory@UNode_t@?$CUtlRBTree@PBDGP6A_NABQBD0@Z@@@@QAEXH@Z 00494fc0 f i tier1:stringpool.obj
 0001:00094030       ?Grow@?$CUtlMemory@Uhash_item_t@CCountedStringPool@@@@QAEXH@Z 00495030 f i tier1:stringpool.obj
 0001:000940a0       ?GrowVector@?$CUtlVector@Uhash_item_t@CCountedStringPool@@V?$CUtlMemory@Uhash_item_t@CCountedStringPool@@@@@@IAEXH@Z 004950a0 f i tier1:stringpool.obj
 0001:00094130       ?HandleToString@CCountedStringPool@@QAEPADG@Z 00495130 f   tier1:stringpool.obj
 0001:00094150       ?Insert@?$CUtlRBTree@PBDGP6A_NABQBD0@Z@@QAEGABQBD@Z 00495150 f i tier1:stringpool.obj
 0001:000941f0       ?InsertAt@?$CUtlRBTree@PBDGP6A_NABQBD0@Z@@IAEGG_N@Z 004951f0 f i tier1:stringpool.obj
 0001:000942f0       ?InsertBefore@?$CUtlVector@Uhash_item_t@CCountedStringPool@@V?$CUtlMemory@Uhash_item_t@CCountedStringPool@@@@@@QAEHH@Z 004952f0 f i tier1:stringpool.obj
 0001:00094340       ?InsertRebalance@?$CUtlRBTree@PBDGP6A_NABQBD0@Z@@IAEXG@Z 00495340 f i tier1:stringpool.obj
 0001:00094540       ?IsExternallyAllocated@?$CUtlMemory@UNode_t@?$CUtlRBTree@PBDGP6A_NABQBD0@Z@@@@QBE_NXZ 00495540 f i tier1:stringpool.obj
 0001:00094550       ?IsExternallyAllocated@?$CUtlMemory@Uhash_item_t@CCountedStringPool@@@@QBE_NXZ 00495550 f i tier1:stringpool.obj
 0001:00094560       ?LinkToParent@?$CUtlRBTree@PBDGP6A_NABQBD0@Z@@IAEXGG_N@Z 00495560 f i tier1:stringpool.obj
 0001:000945e0       ?Links@?$CUtlRBTree@PBDGP6A_NABQBD0@Z@@IBEABULinks_t@1@G@Z 004955e0 f i tier1:stringpool.obj
 0001:00094670       ?NewNode@?$CUtlRBTree@PBDGP6A_NABQBD0@Z@@QAEGXZ 00495670 f i tier1:stringpool.obj
 0001:00094730       ?NextInorder@?$CUtlRBTree@PBDGP6A_NABQBD0@Z@@QBEGG@Z 00495730 f i tier1:stringpool.obj
 0001:00094800       ?Purge@?$CUtlMemory@UNode_t@?$CUtlRBTree@PBDGP6A_NABQBD0@Z@@@@QAEXXZ 00495800 f i tier1:stringpool.obj
 0001:00094830       ?Purge@?$CUtlMemory@Uhash_item_t@CCountedStringPool@@@@QAEXXZ 00495830 f i tier1:stringpool.obj
 0001:00094860       ?Purge@?$CUtlRBTree@PBDGP6A_NABQBD0@Z@@QAEXXZ 00495860 f i tier1:stringpool.obj
 0001:000948c0       ?ReferenceString@CCountedStringPool@@QAEPADPBD@Z 004958c0 f   tier1:stringpool.obj
 0001:000948f0       ?ReferenceStringHandle@CCountedStringPool@@QAEGPBD@Z 004958f0 f   tier1:stringpool.obj
 0001:00094a60       ?RemoveAll@?$CUtlRBTree@PBDGP6A_NABQBD0@Z@@QAEXXZ 00495a60 f i tier1:stringpool.obj
 0001:00094ae0       ?RemoveAll@?$CUtlVector@Uhash_item_t@CCountedStringPool@@V?$CUtlMemory@Uhash_item_t@CCountedStringPool@@@@@@QAEXXZ 00495ae0 f i tier1:stringpool.obj
 0001:00094af0       ?RotateLeft@?$CUtlRBTree@PBDGP6A_NABQBD0@Z@@IAEXG@Z 00495af0 f i tier1:stringpool.obj
 0001:00094c00       ?RotateRight@?$CUtlRBTree@PBDGP6A_NABQBD0@Z@@IAEXG@Z 00495c00 f i tier1:stringpool.obj
 0001:00094d10       ?SetCount@?$CUtlVector@Uhash_item_t@CCountedStringPool@@V?$CUtlMemory@Uhash_item_t@CCountedStringPool@@@@@@QAEXH@Z 00495d10 f i tier1:stringpool.obj
 0001:00094d60       ?ShiftElementsRight@?$CUtlVector@Uhash_item_t@CCountedStringPool@@V?$CUtlMemory@Uhash_item_t@CCountedStringPool@@@@@@IAEXHH@Z 00495d60 f i tier1:stringpool.obj
 0001:00094db0       ?StrLess@@YA_NABQBD0@Z     00495db0 f   tier1:stringpool.obj
 0001:00094e40       ??0ConCommand@@QAE@PBDP6AXXZ0HP6AH0QAY0EA@D@Z@Z 00495e40 f   tier1:convar.obj
 0001:00094f40       ??0ConCommandBase@@QAE@PBD0H@Z 00495f40 f   tier1:convar.obj
 0001:00094fc0       ??0ConCommandBase@@QAE@XZ  00495fc0 f   tier1:convar.obj
 0001:00094ff0       ??0ConVar@@QAE@PBD0H0@Z    00495ff0 f   tier1:convar.obj
 0001:00095150       ??0ConVar@@QAE@PBD0H0P6AXPAV0@0@Z@Z 00496150 f   tier1:convar.obj
 0001:000952b0       ??0ConVar@@QAE@PBD0H0_NM1M@Z 004962b0 f   tier1:convar.obj
 0001:00095420       ??0ConVar@@QAE@PBD0H0_NM1MP6AXPAV0@0@Z@Z 00496420 f   tier1:convar.obj
 0001:00095590       ??0ConVar@@QAE@PBD0H@Z     00496590 f   tier1:convar.obj
 0001:000956f0       ??1ConCommand@@UAE@XZ      004966f0 f   tier1:convar.obj
 0001:00095700       ??1ConCommandBase@@UAE@XZ  00496700 f   tier1:convar.obj
 0001:00095710       ??1ConVar@@UAE@XZ          00496710 f   tier1:convar.obj
 0001:00095740       ??_EConCommand@@UAEPAXI@Z  00496740 f i tier1:convar.obj
 0001:00095740       ??_GConCommand@@UAEPAXI@Z  00496740 f i tier1:convar.obj
 0001:00095770       ??_EConCommandBase@@UAEPAXI@Z 00496770 f i tier1:convar.obj
 0001:00095770       ??_GConCommandBase@@UAEPAXI@Z 00496770 f i tier1:convar.obj
 0001:000957a0       ??_EConVar@@UAEPAXI@Z      004967a0 f i tier1:convar.obj
 0001:000957a0       ??_GConVar@@UAEPAXI@Z      004967a0 f i tier1:convar.obj
 0001:000957f0       ?AddFlags@ConCommandBase@@UAEXH@Z 004967f0 f   tier1:convar.obj
 0001:00095800       ?AddFlags@ConVar@@UAEXH@Z  00496800 f   tier1:convar.obj
 0001:00095810       ?AddToList@ConCommandBase@@SAXPAV1@@Z 00496810 f   tier1:convar.obj
 0001:00095830       ?AutoCompleteSuggest@ConCommand@@UAEHPBDQAY0EA@D@Z 00496830 f   tier1:convar.obj
 0001:00095850       ?CanAutoComplete@ConCommand@@UAE_NXZ 00496850 f   tier1:convar.obj
 0001:00095860       ?ChangeStringValue@ConVar@@EAEXPBD@Z 00496860 f   tier1:convar.obj
 0001:00095910       ?ClampValue@ConVar@@EAE_NAAM@Z 00496910 f   tier1:convar.obj
 0001:00095960       ?CopyString@ConCommandBase@@IAEPADPBD@Z 00496960 f   tier1:convar.obj
 0001:000959b0       ?Create@ConCommand@@EAEXPBDP6AXXZ0HP6AH0QAY0EA@D@Z@Z 004969b0 f   tier1:convar.obj
 0001:00095a30       ?Create@ConCommandBase@@MAEXPBD0H@Z 00496a30 f   tier1:convar.obj
 0001:00095a90       ?Create@ConVar@@EAEXPBD0H0_NM1MP6AXPAV1@0@Z@Z 00496a90 f   tier1:convar.obj
 0001:00095b70       ?DefaultCompletionFunc@@YAHPBDQAY0EA@D@Z 00496b70 f   tier1:convar.obj
 0001:00095b80       ?Dispatch@ConCommand@@UAEXXZ 00496b80 f   tier1:convar.obj
 0001:00095b90       ?FindCommand@ConCommandBase@@SAPBV1@PBD@Z 00496b90 f   tier1:convar.obj
 0001:00095bd0       ?GetCommands@ConCommandBase@@SAPBV1@XZ 00496bd0 f   tier1:convar.obj
 0001:00095be0       ?GetDefault@ConVar@@QBEPBDXZ 00496be0 f   tier1:convar.obj
 0001:00095bf0       ?GetHelpText@ConCommandBase@@UBEPBDXZ 00496bf0 f   tier1:convar.obj
 0001:00095c00       ?GetHelpText@ConVar@@UBEPBDXZ 00496c00 f   tier1:convar.obj
 0001:00095c10       ?GetMax@ConVar@@QBE_NAAM@Z 00496c10 f   tier1:convar.obj
 0001:00095c30       ?GetMin@ConVar@@QBE_NAAM@Z 00496c30 f   tier1:convar.obj
 0001:00095c50       ?GetName@ConCommandBase@@UBEPBDXZ 00496c50 f   tier1:convar.obj
 0001:00095c60       ?GetName@ConVar@@UBEPBDXZ  00496c60 f   tier1:convar.obj
 0001:00095c70       ?GetNext@ConCommandBase@@QBEPBV1@XZ 00496c70 f   tier1:convar.obj
 0001:00095c80       ?Init@ConCommandBase@@MAEXXZ 00496c80 f   tier1:convar.obj
 0001:00095ca0       ?Init@ConVar@@EAEXXZ       00496ca0 f   tier1:convar.obj
 0001:00095cc0       ?InstallChangeCallback@ConVar@@QAEXP6AXPAV1@PBD@Z@Z 00496cc0 f   tier1:convar.obj
 0001:00095ce0       ?InternalSetFloatValue@ConVar@@EAEXM@Z 00496ce0 f   tier1:convar.obj
 0001:00095d70       ?InternalSetIntValue@ConVar@@EAEXH@Z 00496d70 f   tier1:convar.obj
 0001:00095e00       ?InternalSetValue@ConVar@@EAEXPBD@Z 00496e00 f   tier1:convar.obj
 0001:00095e90       ?IsBitSet@ConCommandBase@@UBE_NH@Z 00496e90 f   tier1:convar.obj
 0001:00095ea0       ?IsBitSet@ConVar@@UBE_NH@Z 00496ea0 f   tier1:convar.obj
 0001:00095ec0       ?IsCommand@ConCommand@@UBE_NXZ 00496ec0 f   tier1:convar.obj
 0001:00095ed0       ?IsCommand@ConCommandBase@@UBE_NXZ 00496ed0 f   tier1:convar.obj
 0001:00095ee0       ?IsCommand@ConVar@@UBE_NXZ 00496ee0 f   tier1:convar.obj
 0001:00095ef0       ?IsRegistered@ConCommandBase@@UBE_NXZ 00496ef0 f   tier1:convar.obj
 0001:00095f00       ?IsRegistered@ConVar@@UBE_NXZ 00496f00 f   tier1:convar.obj
 0001:00095f10       ?OneTimeInit@ConCommandBaseMgr@@SAXPAVIConCommandBaseAccessor@@@Z 00496f10 f   tier1:convar.obj
 0001:00095f40       ?RemoveFlaggedCommands@ConCommandBase@@SAXH@Z 00496f40 f   tier1:convar.obj
 0001:00095f90       ?Revert@ConVar@@QAEXXZ     00496f90 f   tier1:convar.obj
 0001:00095fa0       ?RevertAll@ConVar@@SAXXZ   00496fa0 f   tier1:convar.obj
 0001:00095fe0       ?RevertFlaggedCvars@ConCommandBase@@SAXH@Z 00496fe0 f   tier1:convar.obj
 0001:00096060       ?SetNext@ConCommandBase@@QAEXPAV1@@Z 00497060 f   tier1:convar.obj
 0001:00096070       ?SetValue@ConVar@@UAEXH@Z  00497070 f   tier1:convar.obj
 0001:00096080       ?SetValue@ConVar@@UAEXM@Z  00497080 f   tier1:convar.obj
 0001:000960a0       ?SetValue@ConVar@@UAEXPBD@Z 004970a0 f   tier1:convar.obj
 0001:000960b0       ?Hash12@@YAIPBX@Z          004970b0 f   tier1:generichash.obj
 0001:00096170       ?Hash16@@YAIPBX@Z          00497170 f   tier1:generichash.obj
 0001:00096270       ?Hash4@@YAIPBX@Z           00497270 f   tier1:generichash.obj
 0001:000962c0       ?Hash8@@YAIPBX@Z           004972c0 f   tier1:generichash.obj
 0001:00096350       ?HashBlock@@YAIPBXI@Z      00497350 f   tier1:generichash.obj
 0001:000963a0       ?HashString@@YAIPBD@Z      004973a0 f   tier1:generichash.obj
 0001:000963e0       ?HashStringCaseless@@YAIPBD@Z 004973e0 f   tier1:generichash.obj
 0001:00096450       ?HashStringCaselessConventional@@YAIPBD@Z 00497450 f   tier1:generichash.obj
 0001:00096490       __alloca_probe             00497490 f   LIBCMT:chkstk.obj
 0001:00096490       __chkstk                   00497490 f   LIBCMT:chkstk.obj
 0001:000964bb       ??1type_info@@UAE@XZ       004974bb f   LIBCMT:std_type_info_static.obj
 0001:000964c2       ??_Etype_info@@UAEPAXI@Z   004974c2 f i LIBCMT:std_type_info_static.obj
 0001:000964c2       ??_Gtype_info@@UAEPAXI@Z   004974c2 f i LIBCMT:std_type_info_static.obj
 0001:000965aa       __Init_thread_abort        004975aa f   LIBCMT:thread_safe_statics.obj
 0001:000965ce       __Init_thread_footer       004975ce f   LIBCMT:thread_safe_statics.obj
 0001:00096618       __Init_thread_header       00497618 f   LIBCMT:thread_safe_statics.obj
 0001:0009666a       __Init_thread_lock         0049766a f   LIBCMT:thread_safe_statics.obj
 0001:00096676       __Init_thread_notify       00497676 f   LIBCMT:thread_safe_statics.obj
 0001:000966ac       __Init_thread_unlock       004976ac f   LIBCMT:thread_safe_statics.obj
 0001:000966b8       __Init_thread_wait         004976b8 f   LIBCMT:thread_safe_statics.obj
 0001:00096706       ?configure_argv@__scrt_narrow_argv_policy@@SAHXZ 00497706 f i LIBCMT:utility.obj
 0001:00096757       ?initialize_environment@__scrt_narrow_environment_policy@@SAHXZ 00497757 f i LIBCMT:utility.obj
 0001:0009678f       _NtCurrentTeb              0049778f f i LIBCMT:utility.obj
 0001:00096796       ___scrt_acquire_startup_lock 00497796 f   LIBCMT:utility.obj
 0001:000967c8       ___scrt_dllmain_after_initialize_c 004977c8 f   LIBCMT:utility.obj
 0001:000967f3       ___scrt_dllmain_before_initialize_c 004977f3 f   LIBCMT:utility.obj
 0001:00096801       ___scrt_dllmain_crt_thread_attach 00497801 f   LIBCMT:utility.obj
 0001:00096820       ___scrt_dllmain_crt_thread_detach 00497820 f   LIBCMT:utility.obj
 0001:0009682d       ___scrt_dllmain_exception_filter 0049782d f   LIBCMT:utility.obj
 0001:00096861       ___scrt_dllmain_uninitialize_c 00497861 f   LIBCMT:utility.obj
 0001:00096884       ___scrt_dllmain_uninitialize_critical 00497884 f   LIBCMT:utility.obj
 0001:00096891       ___scrt_initialize_crt     00497891 f   LIBCMT:utility.obj
 0001:000968ca       ___scrt_initialize_onexit_tables 004978ca f   LIBCMT:utility.obj
 0001:00096951       ___scrt_is_nonwritable_in_current_image 00497951 f   LIBCMT:utility.obj
 0001:000969e5       ___scrt_release_startup_lock 004979e5 f   LIBCMT:utility.obj
 0001:00096a02       ___scrt_uninitialize_crt   00497a02 f   LIBCMT:utility.obj
 0001:00096a2a       __onexit                   00497a2a f   LIBCMT:utility.obj
 0001:00096a57       _at_quick_exit             00497a57 f   LIBCMT:utility.obj
 0001:00096a7a       _atexit                    00497a7a f   LIBCMT:utility.obj
 0001:00096a90       __alloca_probe_16          00497a90 f   LIBCMT:alloca16.obj
 0001:00096aa6       __alloca_probe_8           00497aa6     LIBCMT:alloca16.obj
 0001:00096d31       ?set_app_type@__scrt_main_policy@@SAXXZ 00497d31 f i LIBCMT:exe_main.obj
 0001:00096d3a       ?set_commode@__scrt_file_policy@@SAXXZ 00497d3a f i LIBCMT:exe_main.obj
 0001:00096d4b       ?set_fmode@__scrt_file_policy@@SAXXZ 00497d4b f i LIBCMT:exe_main.obj
 0001:00096d58       _mainCRTStartup            00497d58 f   LIBCMT:exe_main.obj
 0001:00096d70       __ftol2_sse_excpt          00497d70 f   LIBCMT:ftol2.obj
 0001:00096d80       __ftol2_sse                00497d80 f   LIBCMT:ftol2.obj
 0001:00096d90       __ftoi2                    00497d90 f   LIBCMT:ftol2.obj
 0001:00096e10       __ftoui2                   00497e10 f   LIBCMT:ftol2.obj
 0001:00096ec0       __ftol2                    00497ec0 f   LIBCMT:ftol2.obj
 0001:00096f70       __ftoul2                   00497f70 f   LIBCMT:ftol2.obj
 0001:00097030       __ftoul2_legacy            00498030 f   LIBCMT:ftol2.obj
 0001:00097060       __allshr                   00498060 f   LIBCMT:llshr.obj
 0001:00097081       @__security_check_cookie@4 00498081 f   LIBCMT:secchk.obj
 0001:00097090       __alldiv                   00498090 f   LIBCMT:lldiv.obj
 0001:00097140       __allmul                   00498140 f   LIBCMT:llmul.obj
 0001:00097180       __allrem                   00498180 f   LIBCMT:llrem.obj
 0001:00097232       ___raise_securityfailure   00498232 f   LIBCMT:gs_report.obj
 0001:0009725a       ___report_gsfailure        0049825a f   LIBCMT:gs_report.obj
 0001:00097354       ___report_rangecheckfailure 00498354 f   LIBCMT:gs_report.obj
 0001:00097360       ___report_securityfailure  00498360 f   LIBCMT:gs_report.obj
 0001:0009742f       ___report_securityfailureEx 0049842f f   LIBCMT:gs_report.obj
 0001:00097550       __ftoui3                   00498550 f   LIBCMT:ftol3.obj
 0001:000975a0       __ftoul3                   004985a0 f   LIBCMT:ftol3.obj
 0001:00097610       __ftoul3_legacy            00498610 f   LIBCMT:ftol3.obj
 0001:00097640       __ftol3                    00498640 f   LIBCMT:ftol3.obj
 0001:000976b0       __dtoui3                   004986b0 f   LIBCMT:ftol3.obj
 0001:00097730       __dtoul3                   00498730 f   LIBCMT:ftol3.obj
 0001:000977e0       __dtoul3_legacy            004987e0 f   LIBCMT:ftol3.obj
 0001:00097810       __dtol3                    00498810 f   LIBCMT:ftol3.obj
 0001:000978c0       __ultod3                   004988c0 f   LIBCMT:ftol3.obj
 0001:00097920       __ltod3                    00498920 f   LIBCMT:ftol3.obj
 0001:00097961       @_RTC_AllocaHelper@12      00498961 f   LIBCMT:stack.obj
 0001:00097993       @_RTC_CheckStackVars2@12   00498993 f   LIBCMT:stack.obj
 0001:00097a5a       @_RTC_CheckStackVars@8     00498a5a f   LIBCMT:stack.obj
 0001:00097aae       __RTC_CheckEsp             00498aae f   LIBCMT:stack.obj
 0001:00097ad1       __CRT_RTC_INIT             00498ad1 f   LIBCMT:init.obj
 0001:00097ad4       __CRT_RTC_INITW            00498ad4 f   LIBCMT:init.obj
 0001:00097ad7       __RTC_InitBase             00498ad7 f   LIBCMT:init.obj
 0001:00097af0       __RTC_Shutdown             00498af0 f   LIBCMT:init.obj
 0001:00097af3       ___scrt_fastfail           00498af3 f   LIBCMT:utility_desktop.obj
 0001:00097c0e       ___scrt_get_show_window_mode 00498c0e f   LIBCMT:utility_desktop.obj
 0001:00097c3f       ___scrt_initialize_mta     00498c3f f   LIBCMT:utility_desktop.obj
 0001:00097c44       ___scrt_initialize_winrt   00498c44 f   LIBCMT:utility_desktop.obj
 0001:00097c47       ___scrt_is_managed_app     00498c47 f   LIBCMT:utility_desktop.obj
 0001:00097c89       ___scrt_set_unhandled_exception_filter 00498c89 f   LIBCMT:utility_desktop.obj
 0001:00097c95       ___scrt_exe_initialize_mta 00498c95 f   LIBCMT:utility_desktop.obj
 0001:00097c95       ___scrt_stub_for_initialize_mta 00498c95 f   LIBCMT:utility_desktop.obj
 0001:00097c98       ___scrt_unhandled_exception_filter@4 00498c98 f   LIBCMT:utility_desktop.obj
 0001:00097cee       __crt_debugger_hook        00498cee f   LIBCMT:utility_desktop.obj
 0001:00097cf6       @_guard_check_icall_nop@4  00498cf6 f i LIBCMT:guard_support.obj
 0001:00097cf9       _ReadNoFence               00498cf9 f i LIBCMT:guard_support.obj
 0001:00097d03       _ReadPointerNoFence        00498d03 f i LIBCMT:guard_support.obj
 0001:00097d0d       ___castguard_check_failure_debugbreak 00498d0d f i LIBCMT:guard_support.obj
 0001:00097d28       ___castguard_check_failure_fastfail 00498d28 f i LIBCMT:guard_support.obj
 0001:00097d47       ___castguard_check_failure_nop 00498d47 f i LIBCMT:guard_support.obj
 0001:00097d4a       ___castguard_check_failure_os_handled 00498d4a f i LIBCMT:guard_support.obj
 0001:00097da6       ___castguard_slow_path_check_debugbreak 00498da6 f i LIBCMT:guard_support.obj
 0001:00097dd3       ___castguard_slow_path_check_fastfail 00498dd3 f i LIBCMT:guard_support.obj
 0001:00097e04       ___castguard_slow_path_check_nop 00498e04 f i LIBCMT:guard_support.obj
 0001:00097e07       ___castguard_slow_path_check_os_handled 00498e07 f i LIBCMT:guard_support.obj
 0001:00097e62       __guard_icall_checks_enforced 00498e62 f i LIBCMT:guard_support.obj
 0001:00097e77       ___isa_available_init      00498e77 f   LIBCMT:cpu_disp.obj
 0001:0009804b       __get_startup_argv_mode    0049904b f   LIBCMT:argv_mode.obj
 0001:0009804f       ___scrt_is_ucrt_dll_in_use 0049904f f   LIBCMT:ucrt_detection.obj
 0001:00098060       __SEH_prolog4              00499060 f   LIBCMT:sehprolg4.obj
 0001:000980b0       __SEH_epilog4              004990b0 f   LIBCMT:sehprolg4.obj
 0001:00098111       ___security_init_cookie    00499111 f   LIBCMT:gs_support.obj
 0001:0009815c       __matherr                  0049915c f   LIBCMT:matherr.obj
 0001:0009815f       __get_startup_commit_mode  0049915f f   LIBCMT:commit_mode.obj
 0001:00098162       __get_startup_file_mode    00499162 f   LIBCMT:file_mode.obj
 0001:00098168       __get_startup_new_mode     00499168 f   LIBCMT:new_mode.obj
 0001:0009816b       __get_startup_thread_locale_mode 0049916b f   LIBCMT:thread_locale.obj
 0001:0009816e       ?__scrt_initialize_type_info@@YAXXZ 0049916e f   LIBCMT:tncleanup.obj
 0001:0009817a       ?__scrt_uninitialize_type_info@@YAXXZ 0049917a f   LIBCMT:tncleanup.obj
 0001:00098186       __should_initialize_environment 00499186 f   LIBCMT:env_mode.obj
 0001:00098189       __initialize_default_precision 00499189 f   LIBCMT:default_precision.obj
 0001:000981aa       __initialize_invalid_parameter_handler 004991aa f   LIBCMT:invalid_parameter_handler.obj
 0001:000981ad       __initialize_denormal_control 004991ad f   LIBCMT:denormal_control.obj
 0001:000981b0       ___scrt_initialize_default_local_stdio_options 004991b0 f   LIBCMT:default_local_stdio_options.obj
 0001:000981cd       ___scrt_is_user_matherr_present 004991cd f   LIBCMT:matherr_detection.obj
 0001:000981d9       ___scrt_get_dyn_tls_init_callback 004991d9 f   LIBCMT:dyn_tls_init.obj
 0001:000981df       ___scrt_get_dyn_tls_dtor_callback 004991df f   LIBCMT:dyn_tls_dtor.obj
 0001:000981e5       __RTC_Initialize           004991e5 f   LIBCMT:initsect.obj
 0001:00098211       __RTC_Terminate            00499211 f   LIBCMT:initsect.obj
 0001:000982af       ?_RTC_AllocaFailure@@YAXPAXPAU_RTC_ALLOCA_NODE@@H@Z 004992af f   LIBCMT:error.obj
 0001:00098388       ?_RTC_Failure@@YAXPAXH@Z   00499388 f   LIBCMT:error.obj
 0001:000983c4       ?_RTC_StackFailure@@YAXPAXPBD@Z 004993c4 f   LIBCMT:error.obj
 0001:0009879b       __RTC_UninitUse            0049979b f   LIBCMT:error.obj
 0001:0009883a       __vsprintf_s_l             0049983a f i LIBCMT:error.obj
 0001:00098867       _sprintf_s                 00499867 f i LIBCMT:error.obj
 0001:00098883       ?_RTC_GetErrorFunc@@YAP6AHHPBDH00ZZPBX@Z 00499883 f   LIBCMT:userapi.obj
 0001:00098889       ?_RTC_GetErrorFuncW@@YAP6AHHPB_WH00ZZPBX@Z 00499889 f   LIBCMT:userapi.obj
 0001:0009888f       __RTC_GetErrDesc           0049988f f   LIBCMT:userapi.obj
 0001:000988a7       __RTC_NumErrors            004998a7 f   LIBCMT:userapi.obj
 0001:000988ab       __RTC_SetErrorFunc         004998ab f   LIBCMT:userapi.obj
 0001:000988c5       __RTC_SetErrorFuncW        004998c5 f   LIBCMT:userapi.obj
 0001:000988df       __RTC_SetErrorType         004998df f   LIBCMT:userapi.obj
 0001:00098b06       ?_RTC_GetSrcLine@@YAHPAEPA_WKPAH1K@Z 00499b06 f   LIBCMT:pdblkup.obj
 0001:00098e52       __except_handler4_noexcept 00499e52 f   LIBCMT:chandler4_noexcept.obj
 0001:00098e98       ??0_Init_locks@std@@QAE@XZ 00499e98 f   libcpmt:xlock.obj
 0001:00098ec5       ??0_Lockit@std@@QAE@H@Z    00499ec5 f   libcpmt:xlock.obj
 0001:00098ef6       ??0_Lockit@std@@QAE@XZ     00499ef6 f   libcpmt:xlock.obj
 0001:00098f05       ??1_Init_locks@std@@QAE@XZ 00499f05 f   libcpmt:xlock.obj
 0001:00098f2c       ??1_Lockit@std@@QAE@XZ     00499f2c f   libcpmt:xlock.obj
 0001:00098f4b       ?_Init_locks_ctor@_Init_locks@std@@CAXPAV12@@Z 00499f4b f   libcpmt:xlock.obj
 0001:00098f72       ?_Init_locks_dtor@_Init_locks@std@@CAXPAV12@@Z 00499f72 f   libcpmt:xlock.obj
 0001:00098f99       ?_Lockit_ctor@_Lockit@std@@CAXPAV12@@Z 00499f99 f   libcpmt:xlock.obj
 0001:00098fa5       ?_Lockit_ctor@_Lockit@std@@CAXPAV12@H@Z 00499fa5 f   libcpmt:xlock.obj
 0001:00098fce       ?_Lockit_ctor@_Lockit@std@@SAXH@Z 00499fce f   libcpmt:xlock.obj
 0001:00098ff2       ?_Lockit_dtor@_Lockit@std@@CAXPAV12@@Z 00499ff2 f   libcpmt:xlock.obj
 0001:00099009       ?_Lockit_dtor@_Lockit@std@@SAXH@Z 0049a009 f   libcpmt:xlock.obj
 0001:0009902d       __Lock_at_thread_exit_mutex 0049a02d f   libcpmt:xlock.obj
 0001:00099039       __Unlock_at_thread_exit_mutex 0049a039 f   libcpmt:xlock.obj
 0001:00099045       ??0bad_alloc@std@@QAE@XZ   0049a045 f i libcpmt:xthrow.obj
 0001:0009905d       ??0bad_function_call@std@@QAE@ABV01@@Z 0049a05d f i libcpmt:xthrow.obj
 0001:00099078       ??0bad_function_call@std@@QAE@XZ 0049a078 f i libcpmt:xthrow.obj
 0001:00099089       ??0exception@std@@QAE@QBD@Z 0049a089 f i libcpmt:xthrow.obj
 0001:000990be       ??0exception@std@@QAE@QBDH@Z 0049a0be f i libcpmt:xthrow.obj
 0001:000990db       ??0exception@std@@QAE@XZ   0049a0db f i libcpmt:xthrow.obj
 0001:000990ec       ??0invalid_argument@std@@QAE@ABV01@@Z 0049a0ec f i libcpmt:xthrow.obj
 0001:00099107       ??0invalid_argument@std@@QAE@PBD@Z 0049a107 f i libcpmt:xthrow.obj
 0001:00099126       ??0length_error@std@@QAE@ABV01@@Z 0049a126 f i libcpmt:xthrow.obj
 0001:00099141       ??0length_error@std@@QAE@PBD@Z 0049a141 f i libcpmt:xthrow.obj
 0001:00099160       ??0logic_error@std@@QAE@ABV01@@Z 0049a160 f i libcpmt:xthrow.obj
 0001:0009917b       ??0logic_error@std@@QAE@PBD@Z 0049a17b f i libcpmt:xthrow.obj
 0001:0009919a       ??0out_of_range@std@@QAE@ABV01@@Z 0049a19a f i libcpmt:xthrow.obj
 0001:000991b5       ??0out_of_range@std@@QAE@PBD@Z 0049a1b5 f i libcpmt:xthrow.obj
 0001:000991d4       ??0overflow_error@std@@QAE@ABV01@@Z 0049a1d4 f i libcpmt:xthrow.obj
 0001:000991ef       ??0overflow_error@std@@QAE@PBD@Z 0049a1ef f i libcpmt:xthrow.obj
 0001:0009920e       ??0regex_error@std@@QAE@ABV01@@Z 0049a20e f i libcpmt:xthrow.obj
 0001:00099232       ??0regex_error@std@@QAE@W4error_type@regex_constants@1@@Z 0049a232 f i libcpmt:xthrow.obj
 0001:00099260       ??0runtime_error@std@@QAE@PBD@Z 0049a260 f i libcpmt:xthrow.obj
 0001:0009927f       ??1bad_alloc@std@@UAE@XZ   0049a27f f i libcpmt:xthrow.obj
 0001:00099290       ??1bad_function_call@std@@UAE@XZ 0049a290 f i libcpmt:xthrow.obj
 0001:000992a1       ??1invalid_argument@std@@UAE@XZ 0049a2a1 f i libcpmt:xthrow.obj
 0001:000992b2       ??1length_error@std@@UAE@XZ 0049a2b2 f i libcpmt:xthrow.obj
 0001:000992c3       ??1logic_error@std@@UAE@XZ 0049a2c3 f i libcpmt:xthrow.obj
 0001:000992d4       ??1out_of_range@std@@UAE@XZ 0049a2d4 f i libcpmt:xthrow.obj
 0001:000992e5       ??1overflow_error@std@@UAE@XZ 0049a2e5 f i libcpmt:xthrow.obj
 0001:000992f6       ??1regex_error@std@@UAE@XZ 0049a2f6 f i libcpmt:xthrow.obj
 0001:00099307       ??1runtime_error@std@@UAE@XZ 0049a307 f i libcpmt:xthrow.obj
 0001:00099318       ??_Ebad_function_call@std@@UAEPAXI@Z 0049a318 f i libcpmt:xthrow.obj
 0001:00099318       ??_Gbad_function_call@std@@UAEPAXI@Z 0049a318 f i libcpmt:xthrow.obj
 0001:00099345       ??_Einvalid_argument@std@@UAEPAXI@Z 0049a345 f i libcpmt:xthrow.obj
 0001:00099345       ??_Ginvalid_argument@std@@UAEPAXI@Z 0049a345 f i libcpmt:xthrow.obj
 0001:00099372       ??_Elength_error@std@@UAEPAXI@Z 0049a372 f i libcpmt:xthrow.obj
 0001:00099372       ??_Glength_error@std@@UAEPAXI@Z 0049a372 f i libcpmt:xthrow.obj
 0001:0009939f       ??_Elogic_error@std@@UAEPAXI@Z 0049a39f f i libcpmt:xthrow.obj
 0001:0009939f       ??_Glogic_error@std@@UAEPAXI@Z 0049a39f f i libcpmt:xthrow.obj
 0001:000993cc       ??_Eout_of_range@std@@UAEPAXI@Z 0049a3cc f i libcpmt:xthrow.obj
 0001:000993cc       ??_Gout_of_range@std@@UAEPAXI@Z 0049a3cc f i libcpmt:xthrow.obj
 0001:000993f9       ??_Eoverflow_error@std@@UAEPAXI@Z 0049a3f9 f i libcpmt:xthrow.obj
 0001:000993f9       ??_Goverflow_error@std@@UAEPAXI@Z 0049a3f9 f i libcpmt:xthrow.obj
 0001:00099426       ??_Eregex_error@std@@UAEPAXI@Z 0049a426 f i libcpmt:xthrow.obj
 0001:00099426       ??_Gregex_error@std@@UAEPAXI@Z 0049a426 f i libcpmt:xthrow.obj
 0001:00099453       ?_Stringify@regex_error@std@@CAPBDW4error_type@regex_constants@2@@Z 0049a453 f i libcpmt:xthrow.obj
 0001:00099513       ?_Xbad_alloc@std@@YAXXZ    0049a513 f   libcpmt:xthrow.obj
 0001:00099530       ?_Xbad_function_call@std@@YAXXZ 0049a530 f   libcpmt:xthrow.obj
 0001:0009954d       ?_Xinvalid_argument@std@@YAXPBD@Z 0049a54d f   libcpmt:xthrow.obj
 0001:0009956d       ?_Xlength_error@std@@YAXPBD@Z 0049a56d f   libcpmt:xthrow.obj
 0001:0009958d       ?_Xout_of_range@std@@YAXPBD@Z 0049a58d f   libcpmt:xthrow.obj
 0001:000995ad       ?_Xoverflow_error@std@@YAXPBD@Z 0049a5ad f   libcpmt:xthrow.obj
 0001:000995cd       ?_Xregex_error@std@@YAXW4error_type@regex_constants@1@@Z 0049a5cd f   libcpmt:xthrow.obj
 0001:000995ed       ?_Xruntime_error@std@@YAXPBD@Z 0049a5ed f   libcpmt:xthrow.obj
 0001:0009960d       ?what@bad_function_call@std@@UBEPBDXZ 0049a60d f i libcpmt:xthrow.obj
 0001:00099613       ??0?$_Yarn@D@std@@QAE@PBD@Z 0049a613 f i libcpmt:locale0.obj
 0001:0009962f       ??0_Fac_node@std@@QAE@PAU01@PAV_Facet_base@1@@Z 0049a62f f i libcpmt:locale0.obj
 0001:00099643       ??0_Facet_base@std@@QAE@XZ 0049a643 f i libcpmt:locale0.obj
 0001:0009964c       ??0_Locimp@locale@std@@AAE@ABV012@@Z 0049a64c f i libcpmt:locale0.obj
 0001:000996b6       ??0_Locimp@locale@std@@AAE@_N@Z 0049a6b6 f i libcpmt:locale0.obj
 0001:000996f7       ??0facet@locale@std@@IAE@I@Z 0049a6f7 f i libcpmt:locale0.obj
 0001:00099710       ??0locale@std@@AAE@PAV_Locimp@01@@Z 0049a710 f i libcpmt:locale0.obj
 0001:0009971f       ??0locale@std@@QAE@W4_Uninitialized@1@@Z 0049a71f f i libcpmt:locale0.obj
 0001:00099724       ??1_Fac_node@std@@QAE@XZ   0049a724 f i libcpmt:locale0.obj
 0001:00099755       ??1_Fac_tidy_reg_t@std@@QAE@XZ 0049a755 f i libcpmt:locale0.obj
 0001:0009977c       ??1_Locimp@locale@std@@MAE@XZ 0049a77c f i libcpmt:locale0.obj
 0001:000997a7       ??4?$_Yarn@D@std@@QAEAAV01@PBD@Z 0049a7a7 f i libcpmt:locale0.obj
 0001:000997fb       ??_G_Fac_node@std@@QAEPAXI@Z 0049a7fb f i libcpmt:locale0.obj
 0001:0009981d       ??_E_Locimp@locale@std@@MAEPAXI@Z 0049a81d f i libcpmt:locale0.obj
 0001:0009981d       ??_G_Locimp@locale@std@@MAEPAXI@Z 0049a81d f i libcpmt:locale0.obj
 0001:0009983f       ?_C_str@?$_Yarn@D@std@@QBEPBDXZ 0049a83f f i libcpmt:locale0.obj
 0001:00099849       ?_Empty@?$_Yarn@D@std@@QBE_NXZ 0049a849 f i libcpmt:locale0.obj
 0001:00099850       ?_Facet_Register@std@@YAXPAV_Facet_base@1@@Z 0049a850 f   libcpmt:locale0.obj
 0001:0009987c       ?_Getgloballocale@locale@std@@CAPAV_Locimp@12@XZ 0049a87c f   libcpmt:locale0.obj
 0001:00099882       ?_Init@locale@std@@CAPAV_Locimp@12@_N@Z 0049a882 f   libcpmt:locale0.obj
 0001:0009990f       ?_Locimp_dtor@_Locimp@locale@std@@CAXPAV123@@Z 0049a90f f   libcpmt:locale0.obj
 0001:0009997f       ?_Locinfo_ctor@_Locinfo@std@@SAXPAV12@PBD@Z 0049a97f f   libcpmt:locale0.obj
 0001:000999ca       ?_Locinfo_dtor@_Locinfo@std@@SAXPAV12@@Z 0049a9ca f   libcpmt:locale0.obj
 0001:000999e4       ?_New_Locimp@_Locimp@locale@std@@CAPAV123@ABV123@@Z 0049a9e4 f   libcpmt:locale0.obj
 0001:00099a14       ?_New_Locimp@_Locimp@locale@std@@CAPAV123@_N@Z 0049aa14 f   libcpmt:locale0.obj
 0001:00099a37       ?_Setgloballocale@locale@std@@CAXPAX@Z 0049aa37 f   libcpmt:locale0.obj
 0001:00099a5f       ?_Tidy@?$_Yarn@D@std@@AAEXXZ 0049aa5f f i libcpmt:locale0.obj
 0001:00099a74       ?classic@locale@std@@SAABV12@XZ 0049aa74 f   libcpmt:locale0.obj
 0001:00099a8b       ?empty@locale@std@@SA?AV12@XZ 0049aa8b f   libcpmt:locale0.obj
 0001:00099aa9       __Deletegloballocale       0049aaa9 f   libcpmt:locale0.obj
 0001:00099b0e       ??_Glocale@std@@QAEPAXI@Z  0049ab0e f i libcpmt:ios.obj
 0001:00099b30       ?_Addstd@ios_base@std@@SAXPAV12@@Z 0049ab30 f   libcpmt:ios.obj
 0001:00099b82       ?_Callfns@ios_base@std@@AAEXW4event@12@@Z 0049ab82 f i libcpmt:ios.obj
 0001:00099bb5       ?_Ios_base_dtor@ios_base@std@@CAXPAV12@@Z 0049abb5 f   libcpmt:ios.obj
 0001:00099bf5       ?_Tidy@ios_base@std@@AAEXXZ 0049abf5 f i libcpmt:ios.obj
 0001:0009df70       ___std_count_trivial_1@12  0049ef70 f   libcpmt:vector_algorithms.obj
 0001:0009e040       ___std_count_trivial_2@12  0049f040 f   libcpmt:vector_algorithms.obj
 0001:0009e110       ___std_count_trivial_4@12  0049f110 f   libcpmt:vector_algorithms.obj
 0001:0009e1c0       ___std_count_trivial_8@16  0049f1c0 f   libcpmt:vector_algorithms.obj
 0001:0009e290       ___std_find_trivial_1@12   0049f290 f   libcpmt:vector_algorithms.obj
 0001:0009e360       ___std_find_trivial_2@12   0049f360 f   libcpmt:vector_algorithms.obj
 0001:0009e430       ___std_find_trivial_4@12   0049f430 f   libcpmt:vector_algorithms.obj
 0001:0009e4f0       ___std_find_trivial_8@16   0049f4f0 f   libcpmt:vector_algorithms.obj
 0001:0009e5c0       ___std_find_trivial_unsized_1@8 0049f5c0 f   libcpmt:vector_algorithms.obj
 0001:0009e5d0       ___std_find_trivial_unsized_2@8 0049f5d0 f   libcpmt:vector_algorithms.obj
 0001:0009e5e0       ___std_find_trivial_unsized_4@8 0049f5e0 f   libcpmt:vector_algorithms.obj
 0001:0009e5f0       ___std_find_trivial_unsized_8@12 0049f5f0 f   libcpmt:vector_algorithms.obj
 0001:0009e610       ___std_max_element_1@12    0049f610 f   libcpmt:vector_algorithms.obj
 0001:0009e620       ___std_max_element_2@12    0049f620 f   libcpmt:vector_algorithms.obj
 0001:0009e630       ___std_max_element_4@12    0049f630 f   libcpmt:vector_algorithms.obj
 0001:0009e640       ___std_max_element_8@12    0049f640 f   libcpmt:vector_algorithms.obj
 0001:0009e650       ___std_min_element_1@12    0049f650 f   libcpmt:vector_algorithms.obj
 0001:0009e660       ___std_min_element_2@12    0049f660 f   libcpmt:vector_algorithms.obj
 0001:0009e670       ___std_min_element_4@12    0049f670 f   libcpmt:vector_algorithms.obj
 0001:0009e680       ___std_min_element_8@12    0049f680 f   libcpmt:vector_algorithms.obj
 0001:0009e690       ___std_minmax_element_1@12 0049f690 f   libcpmt:vector_algorithms.obj
 0001:0009e6a0       ___std_minmax_element_2@12 0049f6a0 f   libcpmt:vector_algorithms.obj
 0001:0009e6b0       ___std_minmax_element_4@12 0049f6b0 f   libcpmt:vector_algorithms.obj
 0001:0009e6c0       ___std_minmax_element_8@12 0049f6c0 f   libcpmt:vector_algorithms.obj
 0001:0009e6d0       ___std_reverse_copy_trivially_copyable_1 0049f6d0 f   libcpmt:vector_algorithms.obj
 0001:0009e780       ___std_reverse_copy_trivially_copyable_2 0049f780 f   libcpmt:vector_algorithms.obj
 0001:0009e830       ___std_reverse_copy_trivially_copyable_4 0049f830 f   libcpmt:vector_algorithms.obj
 0001:0009e8e0       ___std_reverse_copy_trivially_copyable_8 0049f8e0 f   libcpmt:vector_algorithms.obj
 0001:0009e990       ___std_reverse_trivially_swappable_1 0049f990 f   libcpmt:vector_algorithms.obj
 0001:0009ea50       ___std_reverse_trivially_swappable_2 0049fa50 f   libcpmt:vector_algorithms.obj
 0001:0009eb20       ___std_reverse_trivially_swappable_4 0049fb20 f   libcpmt:vector_algorithms.obj
 0001:0009ebd0       ___std_reverse_trivially_swappable_8 0049fbd0 f   libcpmt:vector_algorithms.obj
 0001:0009eca0       ___std_swap_ranges_trivially_swappable 0049fca0 f   libcpmt:vector_algorithms.obj
 0001:0009ed60       ___std_swap_ranges_trivially_swappable_noalias 0049fd60 f   libcpmt:vector_algorithms.obj
 0001:0009ee16       ?uncaught_exception@std@@YA_NXZ 0049fe16 f   libcpmt:uncaught_exception.obj
 0001:0009ee1b       ?_Syserror_map@std@@YAPBDH@Z 0049fe1b f   libcpmt:syserror.obj
 0001:0009ee40       ?_Winerror_map@std@@YAHH@Z 0049fe40 f   libcpmt:syserror.obj
 0001:0009ee62       ?_Winerror_message@std@@YAKKPADK@Z 0049fe62 f   libcpmt:syserror.obj
 0001:0009ee89       __Getctype                 0049fe89 f   libcpmt:_tolower.obj
 0001:0009eef4       __Tolower                  0049fef4 f   libcpmt:_tolower.obj
 0001:0009f000       __Toupper                  004a0000 f   libcpmt:_toupper.obj
 0001:0009f254       ??$size@H$0O@@std@@YAIAAY0O@$$CBH@Z 004a0254 f i libcpmt:fiopen.obj
 0001:0009f258       ?_Fiopen@std@@YAPAU_iobuf@@PBDHH@Z 004a0258 f   libcpmt:fiopen.obj
 0001:0009f261       ?_Fiopen@std@@YAPAU_iobuf@@PBGHH@Z 004a0261 f   libcpmt:fiopen.obj
 0001:0009f26a       ?_Fiopen@std@@YAPAU_iobuf@@PB_WHH@Z 004a026a f   libcpmt:fiopen.obj
 0001:0009f2ad       __Mtxdst                   004a02ad f   libcpmt:xmtx.obj
 0001:0009f2bb       __Mtxinit                  004a02bb f   libcpmt:xmtx.obj
 0001:0009f2d0       __Mtxlock                  004a02d0 f   libcpmt:xmtx.obj
 0001:0009f2de       __Mtxunlock                004a02de f   libcpmt:xmtx.obj
 0001:0009f2ec       ??$?0$$V@?$_Compressed_pair@V?$allocator@D@std@@V?$_String_val@U?$_Simple_types@D@std@@@2@$00@std@@QAE@U_Zero_then_variadic_args_t@1@@Z 004a02ec f i libcpmt:locale.obj
 0001:0009f303       ??$?0AAPAV_Facet_base@std@@@?$_Compressed_pair@U?$default_delete@V_Facet_base@std@@@std@@PAV_Facet_base@2@$00@std@@QAE@U_Zero_then_variadic_args_t@1@AAPAV_Facet_base@1@@Z 004a0303 f i libcpmt:locale.obj
 0001:0009f313       ??$?0U?$default_delete@V_Facet_base@std@@@std@@$0A@@?$unique_ptr@V_Facet_base@std@@U?$default_delete@V_Facet_base@std@@@2@@std@@QAE@PAV_Facet_base@1@@Z 004a0313 f i libcpmt:locale.obj
 0001:0009f321       ??$?8DU?$char_traits@D@std@@@std@@YA_NABV?$istreambuf_iterator@DU?$char_traits@D@std@@@0@0@Z 004a0321 f i libcpmt:locale.obj
 0001:0009f331       ??$_Adl_verify_range@PADPBD@std@@YAXABQADABQBD@Z 004a0331 f i libcpmt:locale.obj
 0001:0009f334       ??$_Adl_verify_range@PBDPBD@std@@YAXABQBD0@Z 004a0334 f i libcpmt:locale.obj
 0001:0009f337       ??$_Adl_verify_range@V?$istreambuf_iterator@DU?$char_traits@D@std@@@std@@V12@@std@@YAXABV?$istreambuf_iterator@DU?$char_traits@D@std@@@0@0@Z 004a0337 f i libcpmt:locale.obj
 0001:0009f33a       ??$_Allocate@$07U_Default_allocate_traits@std@@$0A@@std@@YAPAXI@Z 004a033a f i libcpmt:locale.obj
 0001:0009f360       ??$_Construct@$0A@D@?$basic_string@DU?$char_traits@D@std@@V?$allocator@D@2@@std@@AAEXDI@Z 004a0360 f i libcpmt:locale.obj
 0001:0009f3df       ??$_Construct_in_place@PADAAPAD@std@@YAXAAPAD0@Z 004a03df f i libcpmt:locale.obj
 0001:0009f3ee       ??$_Construct_in_place@PADABQAD@std@@YAXAAPADABQAD@Z 004a03ee f i libcpmt:locale.obj
 0001:0009f3fd       ??$_Convert_size@II@std@@YAII@Z 004a03fd f i libcpmt:locale.obj
 0001:0009f405       ??$_Could_compare_equal_to_value_type@PBDD@std@@YA_NABD@Z 004a0405 f i libcpmt:locale.obj
 0001:0009f408       ??$_Deallocate@$07$0A@@std@@YAXPAXI@Z 004a0408 f i libcpmt:locale.obj
 0001:0009f434       ??$_Destroy_in_place@PAD@std@@YAXAAPAD@Z 004a0434 f i libcpmt:locale.obj
 0001:0009f437       ??$_Find_elem@D$0BL@@std@@YAIAAY0BL@$$CBDD@Z 004a0437 f i libcpmt:locale.obj
 0001:0009f450       ??$_Find_elem@D$0BN@@std@@YAIAAY0BN@$$CBDD@Z 004a0450 f i libcpmt:locale.obj
 0001:0009f469       ??$_Find_elem@D$0P@@std@@YAIAAY0P@$$CBDD@Z 004a0469 f i libcpmt:locale.obj
 0001:0009f482       ??$_Find_unchecked@PBDD@std@@YAPBDPBDQBDABD@Z 004a0482 f i libcpmt:locale.obj
 0001:0009f49e       ??$_Float_put_desired_precision@N@std@@YAH_JH@Z 004a049e f i libcpmt:locale.obj
 0001:0009f4cf       ??$_Float_put_desired_precision@O@std@@YAH_JH@Z 004a04cf f i libcpmt:locale.obj
 0001:0009f500       ??$_Get_size_of_n@$00@std@@YAII@Z 004a0500 f i libcpmt:locale.obj
 0001:0009f508       ??$_Getloctxt@V?$istreambuf_iterator@DU?$char_traits@D@std@@@std@@D@std@@YAHAAV?$istreambuf_iterator@DU?$char_traits@D@std@@@0@0IPBDW4_Case_sensitive@0@@Z 004a0508 f i libcpmt:locale.obj
 0001:0009f730       ??$_Getvals@D@?$numpunct@D@std@@IAEXDPBUlconv@@U_Cvtvec@@@Z 004a0730 f i libcpmt:locale.obj
 0001:0009f749       ??$_Maklocchr@D@std@@YADDPADABU_Cvtvec@@@Z 004a0749 f i libcpmt:locale.obj
 0001:0009f751       ??$_Maklocstr@D@std@@YAPADPBDPADABU_Cvtvec@@@Z 004a0751 f i libcpmt:locale.obj
 0001:0009f795       ??$_Pocma@V?$allocator@D@std@@@std@@YAXAAV?$allocator@D@0@0@Z 004a0795 f i libcpmt:locale.obj
 0001:0009f798       ??$_Reallocate_grow_by@V<lambda_1>@?1??append@?$basic_string@DU?$char_traits@D@std@@V?$allocator@D@2@@std@@QAEAAV34@ID@Z@ID@?$basic_string@DU?$char_traits@D@std@@V?$allocator@D@2@@std@@AAEAAV01@IV<lambda_1>@?1??append@01@QAEAAV01@ID@Z@ID@Z 004a0798 f i libcpmt:locale.obj
 0001:0009f860       ??$_Reallocate_grow_by@V<lambda_1>@?1??append@?$basic_string@DU?$char_traits@D@std@@V?$allocator@D@2@@std@@QAEAAV34@QBDI@Z@PBDI@?$basic_string@DU?$char_traits@D@std@@V?$allocator@D@2@@std@@AAEAAV01@IV<lambda_1>@?1??append@01@QAEAAV01@QBDI@Z@PBDI@Z 004a0860 f i libcpmt:locale.obj
 0001:0009f921       ??$_Reallocate_grow_by@V<lambda_1>@?1??insert@?$basic_string@DU?$char_traits@D@std@@V?$allocator@D@2@@std@@QAEAAV34@IID@Z@IID@?$basic_string@DU?$char_traits@D@std@@V?$allocator@D@2@@std@@AAEAAV01@IV<lambda_1>@?1??insert@01@QAEAAV01@IID@Z@IID@Z 004a0921 f i libcpmt:locale.obj
 0001:0009f9b3       ??$_Reallocate_grow_by@V<lambda_1>@?1??push_back@?$basic_string@DU?$char_traits@D@std@@V?$allocator@D@2@@std@@QAEXD@Z@D@?$basic_string@DU?$char_traits@D@std@@V?$allocator@D@2@@std@@AAEAAV01@IV<lambda_1>@?1??push_back@01@QAEXD@Z@D@Z 004a09b3 f i libcpmt:locale.obj
 0001:0009fa54       ??$_To_address@PBD@std@@YA?A_PABQBD@Z 004a0a54 f i libcpmt:locale.obj
 0001:0009fa5e       ??$_Unfancy@D@std@@YAPADPAD@Z 004a0a5e f i libcpmt:locale.obj
 0001:0009fa66       ??$_Voidify_iter@PAD@std@@YAPAXPAD@Z 004a0a66 f i libcpmt:locale.obj
 0001:0009fa6e       ??$_Voidify_iter@PAPAD@std@@YAPAXPAPAD@Z 004a0a6e f i libcpmt:locale.obj
 0001:0009fa76       ??$__std_find_trivial@$$CBDD@@YAPBDPBD0D@Z 004a0a76 f i libcpmt:locale.obj
 0001:0009fa89       ??$addressof@$$CBV?$_String_val@U?$_Simple_types@D@std@@@std@@@std@@YAPBV?$_String_val@U?$_Simple_types@D@std@@@0@ABV10@@Z 004a0a89 f i libcpmt:locale.obj
 0001:0009fa91       ??$addressof@D@std@@YAPADAAD@Z 004a0a91 f i libcpmt:locale.obj
 0001:0009fa99       ??$addressof@PAD@std@@YAPAPADAAPAD@Z 004a0a99 f i libcpmt:locale.obj
 0001:0009faa1       ??$addressof@V?$_String_val@U?$_Simple_types@D@std@@@std@@@std@@YAPAV?$_String_val@U?$_Simple_types@D@std@@@0@AAV10@@Z 004a0aa1 f i libcpmt:locale.obj
 0001:0009faa9       ??$addressof@V?$basic_string@DU?$char_traits@D@std@@V?$allocator@D@2@@std@@@std@@YAPAV?$basic_string@DU?$char_traits@D@std@@V?$allocator@D@2@@0@AAV10@@Z 004a0aa9 f i libcpmt:locale.obj
 0001:0009fab1       ??$begin@$$CBD$0BL@@std@@YAPBDAAY0BL@$$CBD@Z 004a0ab1 f i libcpmt:locale.obj
 0001:0009fab9       ??$begin@$$CBD$0BN@@std@@YAPBDAAY0BN@$$CBD@Z 004a0ab9 f i libcpmt:locale.obj
 0001:0009fac1       ??$begin@$$CBD$0P@@std@@YAPBDAAY0P@$$CBD@Z 004a0ac1 f i libcpmt:locale.obj
 0001:0009fac9       ??$construct_at@DABD$0A@@std@@YAPADQADABD@Z 004a0ac9 f i libcpmt:locale.obj
 0001:0009fad8       ??$construct_at@PADAAPAD$0A@@std@@YAPAPADQAPADAAPAD@Z 004a0ad8 f i libcpmt:locale.obj
 0001:0009fae7       ??$construct_at@PADABQAD$0A@@std@@YAPAPADQAPADABQAD@Z 004a0ae7 f i libcpmt:locale.obj
 0001:0009faf6       ??$end@$$CBD$0BL@@std@@YAPBDAAY0BL@$$CBD@Z 004a0af6 f i libcpmt:locale.obj
 0001:0009fb01       ??$end@$$CBD$0BN@@std@@YAPBDAAY0BN@$$CBD@Z 004a0b01 f i libcpmt:locale.obj
 0001:0009fb0c       ??$end@$$CBD$0P@@std@@YAPBDAAY0P@$$CBD@Z 004a0b0c f i libcpmt:locale.obj
 0001:0009fb17       ??$exchange@PAV_Facet_base@std@@$$T@std@@YAPAV_Facet_base@0@AAPAV10@$$QA$$T@Z 004a0b17 f i libcpmt:locale.obj
 0001:0009fb28       ??$forward@AAPAD@std@@YAAAPADAAPAD@Z 004a0b28 f i libcpmt:locale.obj
 0001:0009fb30       ??$forward@AAPAV_Facet_base@std@@@std@@YAAAPAV_Facet_base@0@AAPAV10@@Z 004a0b30 f i libcpmt:locale.obj
 0001:0009fb38       ??$forward@ABD@std@@YAABDABD@Z 004a0b38 f i libcpmt:locale.obj
 0001:0009fb40       ??$forward@ABQAD@std@@YAABQADABQAD@Z 004a0b40 f i libcpmt:locale.obj
 0001:0009fb48       ??$max@I@std@@YAABIABI0@Z  004a0b48 f i libcpmt:locale.obj
 0001:0009fb5d       ??$min@H@std@@YAABHABH0@Z  004a0b5d f i libcpmt:locale.obj
 0001:0009fb72       ??$min@I@std@@YAABIABI0@Z  004a0b72 f i libcpmt:locale.obj
 0001:0009fb87       ??$move@AAV?$allocator@D@std@@@std@@YA$$QAV?$allocator@D@0@AAV10@@Z 004a0b87 f i libcpmt:locale.obj
 0001:0009fb8f       ??$move@AAV?$basic_string@DU?$char_traits@D@std@@V?$allocator@D@2@@std@@@std@@YA$$QAV?$basic_string@DU?$char_traits@D@std@@V?$allocator@D@2@@0@AAV10@@Z 004a0b8f f i libcpmt:locale.obj
 0001:0009fb97       ??$to_address@$$CBD@std@@YAPBDQBD@Z 004a0b97 f i libcpmt:locale.obj
 0001:0009fb9f       ??$use_facet@V?$num_get@DV?$istreambuf_iterator@DU?$char_traits@D@std@@@std@@@std@@@std@@YAABV?$num_get@DV?$istreambuf_iterator@DU?$char_traits@D@std@@@std@@@0@ABVlocale@0@@Z 004a0b9f f i libcpmt:locale.obj
 0001:0009fc34       ??$use_facet@V?$num_put@DV?$ostreambuf_iterator@DU?$char_traits@D@std@@@std@@@std@@@std@@YAABV?$num_put@DV?$ostreambuf_iterator@DU?$char_traits@D@std@@@std@@@0@ABVlocale@0@@Z 004a0c34 f i libcpmt:locale.obj
 0001:0009fcc9       ??$use_facet@V?$numpunct@D@std@@@std@@YAABV?$numpunct@D@0@ABVlocale@0@@Z 004a0cc9 f i libcpmt:locale.obj
 0001:0009fd5e       ??0?$_String_val@U?$_Simple_types@D@std@@@std@@QAE@XZ 004a0d5e f i libcpmt:locale.obj
 0001:0009fd73       ??0?$allocator@D@std@@QAE@XZ 004a0d73 f i libcpmt:locale.obj
 0001:0009fd76       ??0?$basic_string@DU?$char_traits@D@std@@V?$allocator@D@2@@std@@QAE@ID@Z 004a0d76 f i libcpmt:locale.obj
 0001:0009fda0       ??0?$basic_string@DU?$char_traits@D@std@@V?$allocator@D@2@@std@@QAE@QBD@Z 004a0da0 f i libcpmt:locale.obj
 0001:0009fdd9       ??0?$codecvt@DDU_Mbstatet@@@std@@QAE@ABV_Locinfo@1@I@Z 004a0dd9 f i libcpmt:locale.obj
 0001:0009fdf2       ??0?$ctype@D@std@@QAE@ABV_Locinfo@1@I@Z 004a0df2 f i libcpmt:locale.obj
 0001:0009fe28       ??0?$num_get@DV?$istreambuf_iterator@DU?$char_traits@D@std@@@std@@@std@@QAE@ABV_Locinfo@1@I@Z 004a0e28 f i libcpmt:locale.obj
 0001:0009fe41       ??0?$num_put@DV?$ostreambuf_iterator@DU?$char_traits@D@std@@@std@@@std@@QAE@ABV_Locinfo@1@I@Z 004a0e41 f i libcpmt:locale.obj
 0001:0009fe5a       ??0?$numpunct@D@std@@QAE@ABV_Locinfo@1@I_N@Z 004a0e5a f i libcpmt:locale.obj
 0001:0009fe90       ??0_Bxty@?$_String_val@U?$_Simple_types@D@std@@@std@@QAE@XZ 004a0e90 f i libcpmt:locale.obj
 0001:0009fe9d       ??0_Fake_proxy_ptr_impl@std@@QAE@ABU_Fake_allocator@1@ABU_Container_base0@1@@Z 004a0e9d f i libcpmt:locale.obj
 0001:0009fea2       ??0bad_alloc@std@@AAE@QBD@Z 004a0ea2 f i libcpmt:locale.obj
 0001:0009febf       ??0ctype_base@std@@QAE@I@Z 004a0ebf f i libcpmt:locale.obj
 0001:0009fed8       ??0locale@std@@QAE@ABV01@@Z 004a0ed8 f i libcpmt:locale.obj
 0001:0009ff03       ??0locale@std@@QAE@XZ      004a0f03 f i libcpmt:locale.obj
 0001:0009ff48       ??1?$_Compressed_pair@V?$allocator@D@std@@V?$_String_val@U?$_Simple_types@D@std@@@2@$00@std@@QAE@XZ 004a0f48 f i libcpmt:locale.obj
 0001:0009ff4b       ??1?$_String_val@U?$_Simple_types@D@std@@@std@@QAE@XZ 004a0f4b f i libcpmt:locale.obj
 0001:0009ff4e       ??1?$_Tidy_guard@V?$numpunct@D@std@@@std@@QAE@XZ 004a0f4e f i libcpmt:locale.obj
 0001:0009ff59       ??1?$num_get@DV?$istreambuf_iterator@DU?$char_traits@D@std@@@std@@@std@@MAE@XZ 004a0f59 f i libcpmt:locale.obj
 0001:0009ff60       ??1?$num_put@DV?$ostreambuf_iterator@DU?$char_traits@D@std@@@std@@@std@@MAE@XZ 004a0f60 f i libcpmt:locale.obj
 0001:0009ff67       ??1?$numpunct@D@std@@MAE@XZ 004a0f67 f i libcpmt:locale.obj
 0001:0009ff7d       ??1_Bxty@?$_String_val@U?$_Simple_types@D@std@@@std@@QAE@XZ 004a0f7d f i libcpmt:locale.obj
 0001:0009ff80       ??4?$basic_string@DU?$char_traits@D@std@@V?$allocator@D@2@@std@@QAEAAV01@$$QAV01@@Z 004a0f80 f i libcpmt:locale.obj
 0001:0009ffb5       ??4?$ostreambuf_iterator@DU?$char_traits@D@std@@@std@@QAEAAV01@D@Z 004a0fb5 f i libcpmt:locale.obj
 0001:0009ffd9       ??A?$basic_string@DU?$char_traits@D@std@@V?$allocator@D@2@@std@@QAEAADI@Z 004a0fd9 f i libcpmt:locale.obj
 0001:0009ffed       ??A?$basic_string@DU?$char_traits@D@std@@V?$allocator@D@2@@std@@QBEABDI@Z 004a0fed f i libcpmt:locale.obj
 0001:000a0001       ??D?$istreambuf_iterator@DU?$char_traits@D@std@@@std@@QBEDXZ 004a1001 f i libcpmt:locale.obj
 0001:000a0014       ??D?$ostreambuf_iterator@DU?$char_traits@D@std@@@std@@QAEAAV01@XZ 004a1014 f i libcpmt:locale.obj
 0001:000a0017       ??E?$istreambuf_iterator@DU?$char_traits@D@std@@@std@@QAEAAV01@XZ 004a1017 f i libcpmt:locale.obj
 0001:000a0023       ??E?$ostreambuf_iterator@DU?$char_traits@D@std@@@std@@QAEAAV01@XZ 004a1023 f i libcpmt:locale.obj
 0001:000a0026       ??R<lambda_1>@?1??append@?$basic_string@DU?$char_traits@D@std@@V?$allocator@D@2@@std@@QAEAAV23@ID@Z@QBE@QADQBDIID@Z 004a1026 f i libcpmt:locale.obj
 0001:000a0059       ??R<lambda_1>@?1??append@?$basic_string@DU?$char_traits@D@std@@V?$allocator@D@2@@std@@QAEAAV23@QBDI@Z@QBE@QAD0I0I@Z 004a1059 f i libcpmt:locale.obj
 0001:000a008a       ??R<lambda_1>@?1??insert@?$basic_string@DU?$char_traits@D@std@@V?$allocator@D@2@@std@@QAEAAV23@IID@Z@QBE@QADQBDIIID@Z 004a108a f i libcpmt:locale.obj
 0001:000a00d3       ??R<lambda_1>@?1??push_back@?$basic_string@DU?$char_traits@D@std@@V?$allocator@D@2@@std@@QAEXD@Z@QBE@QADQBDID@Z 004a10d3 f i libcpmt:locale.obj
 0001:000a00fc       ??R?$default_delete@V_Facet_base@std@@@std@@QBEXPAV_Facet_base@1@@Z 004a10fc f i libcpmt:locale.obj
 0001:000a0120       ??Y?$basic_string@DU?$char_traits@D@std@@V?$allocator@D@2@@std@@QAEAAV01@ABV01@@Z 004a1120 f i libcpmt:locale.obj
 0001:000a0129       ??_E?$num_get@DV?$istreambuf_iterator@DU?$char_traits@D@std@@@std@@@std@@MAEPAXI@Z 004a1129 f i libcpmt:locale.obj
 0001:000a0129       ??_G?$num_get@DV?$istreambuf_iterator@DU?$char_traits@D@std@@@std@@@std@@MAEPAXI@Z 004a1129 f i libcpmt:locale.obj
 0001:000a014c       ??_E?$num_put@DV?$ostreambuf_iterator@DU?$char_traits@D@std@@@std@@@std@@MAEPAXI@Z 004a114c f i libcpmt:locale.obj
 0001:000a014c       ??_G?$num_put@DV?$ostreambuf_iterator@DU?$char_traits@D@std@@@std@@@std@@MAEPAXI@Z 004a114c f i libcpmt:locale.obj
 0001:000a016f       ??_E?$numpunct@D@std@@MAEPAXI@Z 004a116f f i libcpmt:locale.obj
 0001:000a016f       ??_G?$numpunct@D@std@@MAEPAXI@Z 004a116f f i libcpmt:locale.obj
 0001:000a019d       ?_Activate_SSO_buffer@?$_String_val@U?$_Simple_types@D@std@@@std@@QAEXXZ 004a119d f i libcpmt:locale.obj
 0001:000a01a0       ?_Addfac@_Locimp@locale@std@@AAEXPAVfacet@23@I@Z 004a11a0 f i libcpmt:locale.obj
 0001:000a01b6       ?_Calculate_growth@?$basic_string@DU?$char_traits@D@std@@V?$allocator@D@2@@std@@ABEII@Z 004a11b6 f i libcpmt:locale.obj
 0001:000a01d0       ?_Check_offset@?$_String_val@U?$_Simple_types@D@std@@@std@@QBEXI@Z 004a11d0 f i libcpmt:locale.obj
 0001:000a01e5       ?_Eos@?$basic_string@DU?$char_traits@D@std@@V?$allocator@D@2@@std@@AAEXI@Z 004a11e5 f i libcpmt:locale.obj
 0001:000a0200       ?_Ffmt@?$num_put@DV?$ostreambuf_iterator@DU?$char_traits@D@std@@@std@@@std@@ABAPADPADDH@Z 004a1200 f i libcpmt:locale.obj
 0001:000a0295       ?_Fput@?$num_put@DV?$ostreambuf_iterator@DU?$char_traits@D@std@@@std@@@std@@ABA?AV?$ostreambuf_iterator@DU?$char_traits@D@std@@@2@V32@AAVios_base@2@DPBDI@Z 004a1295 f i libcpmt:locale.obj
 0001:000a05ca       ?_Get_first@?$_Compressed_pair@U?$default_delete@V_Facet_base@std@@@std@@PAV_Facet_base@2@$00@std@@QAEAAU?$default_delete@V_Facet_base@std@@@2@XZ 004a15ca f i libcpmt:locale.obj
 0001:000a05cd       ?_Get_first@?$_Compressed_pair@V?$allocator@D@std@@V?$_String_val@U?$_Simple_types@D@std@@@2@$00@std@@QAEAAV?$allocator@D@2@XZ 004a15cd f i libcpmt:locale.obj
 0001:000a05d0       ?_Get_first@?$_Compressed_pair@V?$allocator@D@std@@V?$_String_val@U?$_Simple_types@D@std@@@2@$00@std@@QBEABV?$allocator@D@2@XZ 004a15d0 f i libcpmt:locale.obj
 0001:000a05d3       ?_Getal@?$basic_string@DU?$char_traits@D@std@@V?$allocator@D@2@@std@@AAEAAV?$allocator@D@2@XZ 004a15d3 f i libcpmt:locale.obj
 0001:000a05d6       ?_Getal@?$basic_string@DU?$char_traits@D@std@@V?$allocator@D@2@@std@@ABEABV?$allocator@D@2@XZ 004a15d6 f i libcpmt:locale.obj
 0001:000a05d9       ?_Getcat@?$ctype@D@std@@SAIPAPBVfacet@locale@2@PBV42@@Z 004a15d9 f i libcpmt:locale.obj
 0001:000a063f       ?_Getcat@?$num_get@DV?$istreambuf_iterator@DU?$char_traits@D@std@@@std@@@std@@SAIPAPBVfacet@locale@2@PBV42@@Z 004a163f f i libcpmt:locale.obj
 0001:000a06a7       ?_Getcat@?$num_put@DV?$ostreambuf_iterator@DU?$char_traits@D@std@@@std@@@std@@SAIPAPBVfacet@locale@2@PBV42@@Z 004a16a7 f i libcpmt:locale.obj
 0001:000a070f       ?_Getcat@?$numpunct@D@std@@SAIPAPBVfacet@locale@2@PBV42@@Z 004a170f f i libcpmt:locale.obj
 0001:000a078a       ?_Getctype@_Locinfo@std@@QBE?AU_Ctypevec@@XZ 004a178a f i libcpmt:locale.obj
 0001:000a07ad       ?_Getcvt@_Locinfo@std@@QBE?AU_Cvtvec@@XZ 004a17ad f i libcpmt:locale.obj
 0001:000a07d1       ?_Getfalse@_Locinfo@std@@QBEPBDXZ 004a17d1 f i libcpmt:locale.obj
 0001:000a07d7       ?_Getffld@?$num_get@DV?$istreambuf_iterator@DU?$char_traits@D@std@@@std@@@std@@ABAHPADAAV?$istreambuf_iterator@DU?$char_traits@D@std@@@2@1AAVios_base@2@PAH@Z 004a17d7 f i libcpmt:locale.obj
 0001:000a0e6b       ?_Getffldx@?$num_get@DV?$istreambuf_iterator@DU?$char_traits@D@std@@@std@@@std@@ABAHPADAAV?$istreambuf_iterator@DU?$char_traits@D@std@@@2@1AAVios_base@2@PAH@Z 004a1e6b f i libcpmt:locale.obj
 0001:000a1507       ?_Getifld@?$num_get@DV?$istreambuf_iterator@DU?$char_traits@D@std@@@std@@@std@@ABAHPADAAV?$istreambuf_iterator@DU?$char_traits@D@std@@@2@1HABVlocale@2@@Z 004a2507 f i libcpmt:locale.obj
 0001:000a18ba       ?_Getlconv@_Locinfo@std@@QBEPBUlconv@@XZ 004a28ba f i libcpmt:locale.obj
 0001:000a18bf       ?_Getname@_Locinfo@std@@QBEPBDXZ 004a28bf f i libcpmt:locale.obj
 0001:000a18ca       ?_Gettrue@_Locinfo@std@@QBEPBDXZ 004a28ca f i libcpmt:locale.obj
 0001:000a18d0       ?_Ifmt@?$num_put@DV?$ostreambuf_iterator@DU?$char_traits@D@std@@@std@@@std@@ABAPADPADPBDH@Z 004a28d0 f i libcpmt:locale.obj
 0001:000a1945       ?_Inc@?$istreambuf_iterator@DU?$char_traits@D@std@@@std@@AAEXXZ 004a2945 f i libcpmt:locale.obj
 0001:000a1966       ?_Init@?$codecvt@DDU_Mbstatet@@@std@@IAEXABV_Locinfo@2@@Z 004a2966 f i libcpmt:locale.obj
 0001:000a1969       ?_Init@?$ctype@D@std@@IAEXABV_Locinfo@2@@Z 004a2969 f i libcpmt:locale.obj
 0001:000a198c       ?_Init@?$num_get@DV?$istreambuf_iterator@DU?$char_traits@D@std@@@std@@@std@@IAEXABV_Locinfo@2@@Z 004a298c f i libcpmt:locale.obj
 0001:000a198f       ?_Init@?$num_put@DV?$ostreambuf_iterator@DU?$char_traits@D@std@@@std@@@std@@IAEXABV_Locinfo@2@@Z 004a298f f i libcpmt:locale.obj
 0001:000a1992       ?_Init@?$numpunct@D@std@@IAEXABV_Locinfo@2@_N@Z 004a2992 f i libcpmt:locale.obj
 0001:000a1a36       ?_Iput@?$num_put@DV?$ostreambuf_iterator@DU?$char_traits@D@std@@@std@@@std@@ABA?AV?$ostreambuf_iterator@DU?$char_traits@D@std@@@2@V32@AAVios_base@2@DPADI@Z 004a2a36 f i libcpmt:locale.obj
 0001:000a1d1e       ?_Large_string_engaged@?$_String_val@U?$_Simple_types@D@std@@@std@@QBE_NXZ 004a2d1e f i libcpmt:locale.obj
 0001:000a1d27       ?_Locimp_Addfac@_Locimp@locale@std@@CAXPAV123@PAVfacet@23@I@Z 004a2d27 f   libcpmt:locale.obj
 0001:000a1df0       ?_Locimp_ctor@_Locimp@locale@std@@CAXPAV123@ABV123@@Z 004a2df0 f   libcpmt:locale.obj
 0001:000a1ea7       ?_Locinfo_Addcats@_Locinfo@std@@SAAAV12@PAV12@HPBD@Z 004a2ea7 f   libcpmt:locale.obj
 0001:000a1f4c       ?_Locinfo_ctor@_Locinfo@std@@SAXPAV12@HPBD@Z 004a2f4c f   libcpmt:locale.obj
 0001:000a1f82       ?_Makeloc@_Locimp@locale@std@@CAPAV123@ABV_Locinfo@3@HPAV123@PBV23@@Z 004a2f82 f   libcpmt:locale.obj
 0001:000a217e       ?_Memcpy_val_from@?$basic_string@DU?$char_traits@D@std@@V?$allocator@D@2@@std@@AAEXABV12@@Z 004a317e f i libcpmt:locale.obj
 0001:000a2193       ?_Myptr@?$_String_val@U?$_Simple_types@D@std@@@std@@QAEPADXZ 004a3193 f i libcpmt:locale.obj
 0001:000a219e       ?_Myptr@?$_String_val@U?$_Simple_types@D@std@@@std@@QBEPBDXZ 004a319e f i libcpmt:locale.obj
 0001:000a21a9       ?_Peek@?$istreambuf_iterator@DU?$char_traits@D@std@@@std@@ABEDXZ 004a31a9 f i libcpmt:locale.obj
 0001:000a21cd       ?_Put@?$num_put@DV?$ostreambuf_iterator@DU?$char_traits@D@std@@@std@@@std@@ABA?AV?$ostreambuf_iterator@DU?$char_traits@D@std@@@2@V32@PBDI@Z 004a31cd f i libcpmt:locale.obj
 0001:000a2200       ?_Release@_Fake_proxy_ptr_impl@std@@QAEXXZ 004a3200 f i libcpmt:locale.obj
 0001:000a2203       ?_Rep@?$num_put@DV?$ostreambuf_iterator@DU?$char_traits@D@std@@@std@@@std@@ABA?AV?$ostreambuf_iterator@DU?$char_traits@D@std@@@2@V32@DI@Z 004a3203 f i libcpmt:locale.obj
 0001:000a222f       ?_Stodx_v2@std@@YANPBDPAPADHPAH@Z 004a322f f i libcpmt:locale.obj
 0001:000a2280       ?_Stofx_v2@std@@YAMPBDPAPADHPAH@Z 004a3280 f i libcpmt:locale.obj
 0001:000a22d9       ?_Swap_proxy_and_iterators@?$basic_string@DU?$char_traits@D@std@@V?$allocator@D@2@@std@@AAEXAAV12@@Z 004a32d9 f i libcpmt:locale.obj
 0001:000a22dc       ?_Swap_proxy_and_iterators@_Container_base0@std@@QAEXAAU12@@Z 004a32dc f i libcpmt:locale.obj
 0001:000a22df       ?_Take_contents@?$basic_string@DU?$char_traits@D@std@@V?$allocator@D@2@@std@@AAEXAAV12@@Z 004a32df f i libcpmt:locale.obj
 0001:000a2304       ?_Tidy@?$_Yarn@_W@std@@AAEXXZ 004a3304 f i libcpmt:locale.obj
 0001:000a2319       ?_Tidy@?$ctype@D@std@@IAEXXZ 004a3319 f i libcpmt:locale.obj
 0001:000a2343       ?_Tidy@?$numpunct@D@std@@AAEXXZ 004a3343 f i libcpmt:locale.obj
 0001:000a2363       ?append@?$basic_string@DU?$char_traits@D@std@@V?$allocator@D@2@@std@@QAEAAV12@ABV12@@Z 004a3363 f i libcpmt:locale.obj
 0001:000a237f       ?append@?$basic_string@DU?$char_traits@D@std@@V?$allocator@D@2@@std@@QAEAAV12@ID@Z 004a337f f i libcpmt:locale.obj
 0001:000a23d7       ?assign@?$_Char_traits@DH@std@@SAPADQADID@Z 004a33d7 f i libcpmt:locale.obj
 0001:000a23f6       ?assign@?$_Char_traits@DH@std@@SAXAADABD@Z 004a33f6 f i libcpmt:locale.obj
 0001:000a2405       ?assign@?$_Narrow_char_traits@DH@std@@SAPADQADID@Z 004a3405 f i libcpmt:locale.obj
 0001:000a241d       ?assign@?$_Narrow_char_traits@DH@std@@SAXAADABD@Z 004a341d f i libcpmt:locale.obj
 0001:000a242c       ?assign@?$basic_string@DU?$char_traits@D@std@@V?$allocator@D@2@@std@@QAEAAV12@$$QAV12@@Z 004a342c f i libcpmt:locale.obj
 0001:000a2441       ?c_str@?$basic_string@DU?$char_traits@D@std@@V?$allocator@D@2@@std@@QBEPBDXZ 004a3441 f i libcpmt:locale.obj
 0001:000a244c       ?copy@?$_Char_traits@DH@std@@SAPADQADQBDI@Z 004a344c f i libcpmt:locale.obj
 0001:000a2465       ?deallocate@?$allocator@D@std@@QAEXQADI@Z 004a3465 f i libcpmt:locale.obj
 0001:000a2479       ?decimal_point@?$numpunct@D@std@@QBEDXZ 004a3479 f i libcpmt:locale.obj
 0001:000a2491       ?do_decimal_point@?$numpunct@D@std@@MBEDXZ 004a3491 f i libcpmt:locale.obj
 0001:000a2495       ?do_falsename@?$numpunct@D@std@@MBE?AV?$basic_string@DU?$char_traits@D@std@@V?$allocator@D@2@@2@XZ 004a3495 f i libcpmt:locale.obj
 0001:000a24ab       ?do_get@?$num_get@DV?$istreambuf_iterator@DU?$char_traits@D@std@@@std@@@std@@MBE?AV?$istreambuf_iterator@DU?$char_traits@D@std@@@2@V32@0AAVios_base@2@AAHAAG@Z 004a34ab f i libcpmt:locale.obj
 0001:000a2599       ?do_get@?$num_get@DV?$istreambuf_iterator@DU?$char_traits@D@std@@@std@@@std@@MBE?AV?$istreambuf_iterator@DU?$char_traits@D@std@@@2@V32@0AAVios_base@2@AAHAAI@Z 004a3599 f i libcpmt:locale.obj
 0001:000a25d9       ?do_get@?$num_get@DV?$istreambuf_iterator@DU?$char_traits@D@std@@@std@@@std@@MBE?AV?$istreambuf_iterator@DU?$char_traits@D@std@@@2@V32@0AAVios_base@2@AAHAAJ@Z 004a35d9 f i libcpmt:locale.obj
 0001:000a269d       ?do_get@?$num_get@DV?$istreambuf_iterator@DU?$char_traits@D@std@@@std@@@std@@MBE?AV?$istreambuf_iterator@DU?$char_traits@D@std@@@2@V32@0AAVios_base@2@AAHAAK@Z 004a369d f i libcpmt:locale.obj
 0001:000a2761       ?do_get@?$num_get@DV?$istreambuf_iterator@DU?$char_traits@D@std@@@std@@@std@@MBE?AV?$istreambuf_iterator@DU?$char_traits@D@std@@@2@V32@0AAVios_base@2@AAHAAM@Z 004a3761 f i libcpmt:locale.obj
 0001:000a285c       ?do_get@?$num_get@DV?$istreambuf_iterator@DU?$char_traits@D@std@@@std@@@std@@MBE?AV?$istreambuf_iterator@DU?$char_traits@D@std@@@2@V32@0AAVios_base@2@AAHAAN@Z 004a385c f i libcpmt:locale.obj
 0001:000a294d       ?do_get@?$num_get@DV?$istreambuf_iterator@DU?$char_traits@D@std@@@std@@@std@@MBE?AV?$istreambuf_iterator@DU?$char_traits@D@std@@@2@V32@0AAVios_base@2@AAHAAO@Z 004a394d f i libcpmt:locale.obj
 0001:000a298b       ?do_get@?$num_get@DV?$istreambuf_iterator@DU?$char_traits@D@std@@@std@@@std@@MBE?AV?$istreambuf_iterator@DU?$char_traits@D@std@@@2@V32@0AAVios_base@2@AAHAAPAX@Z 004a398b f i libcpmt:locale.obj
 0001:000a2a47       ?do_get@?$num_get@DV?$istreambuf_iterator@DU?$char_traits@D@std@@@std@@@std@@MBE?AV?$istreambuf_iterator@DU?$char_traits@D@std@@@2@V32@0AAVios_base@2@AAHAA_J@Z 004a3a47 f i libcpmt:locale.obj
 0001:000a2b12       ?do_get@?$num_get@DV?$istreambuf_iterator@DU?$char_traits@D@std@@@std@@@std@@MBE?AV?$istreambuf_iterator@DU?$char_traits@D@std@@@2@V32@0AAVios_base@2@AAHAA_K@Z 004a3b12 f i libcpmt:locale.obj
 0001:000a2bdd       ?do_get@?$num_get@DV?$istreambuf_iterator@DU?$char_traits@D@std@@@std@@@std@@MBE?AV?$istreambuf_iterator@DU?$char_traits@D@std@@@2@V32@0AAVios_base@2@AAHAA_N@Z 004a3bdd f i libcpmt:locale.obj
 0001:000a2e36       ?do_grouping@?$numpunct@D@std@@MBE?AV?$basic_string@DU?$char_traits@D@std@@V?$allocator@D@2@@2@XZ 004a3e36 f i libcpmt:locale.obj
 0001:000a2e4c       ?do_put@?$num_put@DV?$ostreambuf_iterator@DU?$char_traits@D@std@@@std@@@std@@MBE?AV?$ostreambuf_iterator@DU?$char_traits@D@std@@@2@V32@AAVios_base@2@DJ@Z 004a3e4c f i libcpmt:locale.obj
 0001:000a2eb7       ?do_put@?$num_put@DV?$ostreambuf_iterator@DU?$char_traits@D@std@@@std@@@std@@MBE?AV?$ostreambuf_iterator@DU?$char_traits@D@std@@@2@V32@AAVios_base@2@DK@Z 004a3eb7 f i libcpmt:locale.obj
 0001:000a2f22       ?do_put@?$num_put@DV?$ostreambuf_iterator@DU?$char_traits@D@std@@@std@@@std@@MBE?AV?$ostreambuf_iterator@DU?$char_traits@D@std@@@2@V32@AAVios_base@2@DN@Z 004a3f22 f i libcpmt:locale.obj
 0001:000a3079       ?do_put@?$num_put@DV?$ostreambuf_iterator@DU?$char_traits@D@std@@@std@@@std@@MBE?AV?$ostreambuf_iterator@DU?$char_traits@D@std@@@2@V32@AAVios_base@2@DO@Z 004a4079 f i libcpmt:locale.obj
 0001:000a31d0       ?do_put@?$num_put@DV?$ostreambuf_iterator@DU?$char_traits@D@std@@@std@@@std@@MBE?AV?$ostreambuf_iterator@DU?$char_traits@D@std@@@2@V32@AAVios_base@2@DPBX@Z 004a41d0 f i libcpmt:locale.obj
 0001:000a322b       ?do_put@?$num_put@DV?$ostreambuf_iterator@DU?$char_traits@D@std@@@std@@@std@@MBE?AV?$ostreambuf_iterator@DU?$char_traits@D@std@@@2@V32@AAVios_base@2@D_J@Z 004a422b f i libcpmt:locale.obj
 0001:000a3299       ?do_put@?$num_put@DV?$ostreambuf_iterator@DU?$char_traits@D@std@@@std@@@std@@MBE?AV?$ostreambuf_iterator@DU?$char_traits@D@std@@@2@V32@AAVios_base@2@D_K@Z 004a4299 f i libcpmt:locale.obj
 0001:000a3307       ?do_put@?$num_put@DV?$ostreambuf_iterator@DU?$char_traits@D@std@@@std@@@std@@MBE?AV?$ostreambuf_iterator@DU?$char_traits@D@std@@@2@V32@AAVios_base@2@D_N@Z 004a4307 f i libcpmt:locale.obj
 0001:000a34b4       ?do_thousands_sep@?$numpunct@D@std@@MBEDXZ 004a44b4 f i libcpmt:locale.obj
 0001:000a34b8       ?do_truename@?$numpunct@D@std@@MBE?AV?$basic_string@DU?$char_traits@D@std@@V?$allocator@D@2@@2@XZ 004a44b8 f i libcpmt:locale.obj
 0001:000a34ce       ?empty@?$basic_string@DU?$char_traits@D@std@@V?$allocator@D@2@@std@@QBE_NXZ 004a44ce f i libcpmt:locale.obj
 0001:000a34d6       ?eof@?$_Narrow_char_traits@DH@std@@SAHXZ 004a44d6 f i libcpmt:locale.obj
 0001:000a34da       ?eq_int_type@?$_Narrow_char_traits@DH@std@@SA_NABH0@Z 004a44da f i libcpmt:locale.obj
 0001:000a34ec       ?equal@?$istreambuf_iterator@DU?$char_traits@D@std@@@std@@QBE_NABV12@@Z 004a44ec f i libcpmt:locale.obj
 0001:000a3526       ?falsename@?$numpunct@D@std@@QBE?AV?$basic_string@DU?$char_traits@D@std@@V?$allocator@D@2@@2@XZ 004a4526 f i libcpmt:locale.obj
 0001:000a354b       ?flags@ios_base@std@@QBEHXZ 004a454b f i libcpmt:locale.obj
 0001:000a354f       ?getloc@ios_base@std@@QBE?AVlocale@2@XZ 004a454f f i libcpmt:locale.obj
 0001:000a3565       ?global@locale@std@@SA?AV12@ABV12@@Z 004a4565 f   libcpmt:locale.obj
 0001:000a364d       ?gptr@?$basic_streambuf@DU?$char_traits@D@std@@@std@@IBEPADXZ 004a464d f i libcpmt:locale.obj
 0001:000a3653       ?grouping@?$numpunct@D@std@@QBE?AV?$basic_string@DU?$char_traits@D@std@@V?$allocator@D@2@@2@XZ 004a4653 f i libcpmt:locale.obj
 0001:000a3678       ?insert@?$basic_string@DU?$char_traits@D@std@@V?$allocator@D@2@@std@@QAEAAV12@IID@Z 004a4678 f i libcpmt:locale.obj
 0001:000a36e9       ?is_constant_evaluated@std@@YA_NXZ 004a46e9 f i libcpmt:locale.obj
 0001:000a36ec       ?length@?$_Narrow_char_traits@DH@std@@SAIQBD@Z 004a46ec f i libcpmt:locale.obj
 0001:000a3700       ?max_size@?$_Default_allocator_traits@V?$allocator@D@std@@@std@@SAIABV?$allocator@D@2@@Z 004a4700 f i libcpmt:locale.obj
 0001:000a3704       ?move@?$_Char_traits@DH@std@@SAPADQADQBDI@Z 004a4704 f i libcpmt:locale.obj
 0001:000a371d       ?precision@ios_base@std@@QBE_JXZ 004a471d f i libcpmt:locale.obj
 0001:000a3724       ?release@?$unique_ptr@V_Facet_base@std@@U?$default_delete@V_Facet_base@std@@@2@@std@@QAEPAV_Facet_base@2@XZ 004a4724 f i libcpmt:locale.obj
 0001:000a372a       ?resize@?$basic_string@DU?$char_traits@D@std@@V?$allocator@D@2@@std@@QAEXID@Z 004a472a f i libcpmt:locale.obj
 0001:000a3756       ?sbumpc@?$basic_streambuf@DU?$char_traits@D@std@@@std@@QAEHXZ 004a4756 f i libcpmt:locale.obj
 0001:000a378f       ?sgetc@?$basic_streambuf@DU?$char_traits@D@std@@@std@@QAEHXZ 004a478f f i libcpmt:locale.obj
 0001:000a37bd       ?size@?$basic_string@DU?$char_traits@D@std@@V?$allocator@D@2@@std@@QBEIXZ 004a47bd f i libcpmt:locale.obj
 0001:000a37c1       ?sputc@?$basic_streambuf@DU?$char_traits@D@std@@@std@@QAEHD@Z 004a47c1 f i libcpmt:locale.obj
 0001:000a3812       ?thousands_sep@?$numpunct@D@std@@QBEDXZ 004a4812 f i libcpmt:locale.obj
 0001:000a382a       ?to_char_type@?$_Narrow_char_traits@DH@std@@SADABH@Z 004a482a f i libcpmt:locale.obj
 0001:000a3834       ?to_int_type@?$_Narrow_char_traits@DH@std@@SAHABD@Z 004a4834 f i libcpmt:locale.obj
 0001:000a383f       ?tolower@?$ctype@D@std@@QBEDD@Z 004a483f f i libcpmt:locale.obj
 0001:000a3860       ?truename@?$numpunct@D@std@@QBE?AV?$basic_string@DU?$char_traits@D@std@@V?$allocator@D@2@@2@XZ 004a4860 f i libcpmt:locale.obj
 0001:000a3885       ?widen@?$ctype@D@std@@QBEPBDPBD0PAD@Z 004a4885 f i libcpmt:locale.obj
 0001:000a38ac       ?width@ios_base@std@@QAE_J_J@Z 004a48ac f i libcpmt:locale.obj
 0001:000a38c9       ?width@ios_base@std@@QBE_JXZ 004a48c9 f i libcpmt:locale.obj
 0001:000a38d0       _fabsl                     004a48d0 f i libcpmt:locale.obj
 0001:000a38da       _frexpl                    004a48da f i libcpmt:locale.obj
 0001:000a38f2       _ldexpf                    004a48f2 f i libcpmt:locale.obj
 0001:000a3911       ??1_Init_atexit@@QAE@XZ    004a4911 f i libcpmt:iosptrs.obj
 0001:000a3979       ?_Atexit@@YAXP6AXXZ@Z      004a4979 f   libcpmt:iosptrs.obj
 0001:000a39b6       ___std_get_string_size_without_trailing_whitespace@8 004a49b6 f   libcpmt:syserror_import_lib.obj
 0001:000a39da       ___std_system_error_allocate_message@8 004a49da f   libcpmt:syserror_import_lib.obj
 0001:000a3a24       ___std_system_error_deallocate_message@4 004a4a24 f   libcpmt:syserror_import_lib.obj
 0001:000a3a2a       ??0?$__crt_scoped_stack_ptr@_W@@QAE@U?$__crt_scoped_stack_ptr_tag@_W@@@Z 004a4a2a f i libcpmt:StlLCMapStringA.obj
 0001:000a3a38       ??0?$__crt_scoped_stack_ptr_tag@_W@@QAE@QA_W@Z 004a4a38 f i libcpmt:StlLCMapStringA.obj
 0001:000a3a46       ??1?$__crt_scoped_stack_ptr@_W@@QAE@XZ 004a4a46 f i libcpmt:StlLCMapStringA.obj
 0001:000a3a5f       ??B?$__crt_scoped_stack_ptr@_W@@QBE_NXZ 004a4a5f f i libcpmt:StlLCMapStringA.obj
 0001:000a3a66       ?get@?$__crt_scoped_stack_ptr@_W@@QBEPA_WXZ 004a4a66 f i libcpmt:StlLCMapStringA.obj
 0001:000a3a69       __MallocaComputeSize       004a4a69 f i libcpmt:StlLCMapStringA.obj
 0001:000a3a7a       __MarkAllocaS              004a4a7a f i libcpmt:StlLCMapStringA.obj
 0001:000a3a8e       ___crtLCMapStringA         004a4a8e f   libcpmt:StlLCMapStringA.obj
 0001:000a3c5a       __freea_crt                004a4c5a f i libcpmt:StlLCMapStringA.obj
 0001:000a3c78       __Getcvt                   004a4c78 f   libcpmt:xwctomb.obj
 0001:000a3ceb       __Wcrtomb                  004a4ceb f   libcpmt:xwctomb.obj
 0001:000a3d47       ___Wcrtomb_lk              004a4d47 f   libcpmt:xwctomb.obj
 0001:000a3d50       ??$?0$$V@?$_Compressed_pair@V?$allocator@G@std@@V?$_String_val@U?$_Simple_types@G@std@@@2@$00@std@@QAE@U_Zero_then_variadic_args_t@1@@Z 004a4d50 f i libcpmt:wlocale.obj
 0001:000a3d67       ??$?0$$V@?$_Compressed_pair@V?$allocator@_W@std@@V?$_String_val@U?$_Simple_types@_W@std@@@2@$00@std@@QAE@U_Zero_then_variadic_args_t@1@@Z 004a4d67 f i libcpmt:wlocale.obj
 0001:000a3d7e       ??$?0V?$allocator@D@std@@$$V@?$_Compressed_pair@V?$allocator@D@std@@V?$_String_val@U?$_Simple_types@D@std@@@2@$00@std@@QAE@U_One_then_variadic_args_t@1@$$QAV?$allocator@D@1@@Z 004a4d7e f i libcpmt:wlocale.obj
 0001:000a3d95       ??$?0V?$allocator@G@std@@$$V@?$_Compressed_pair@V?$allocator@G@std@@V?$_String_val@U?$_Simple_types@G@std@@@2@$00@std@@QAE@U_One_then_variadic_args_t@1@$$QAV?$allocator@G@1@@Z 004a4d95 f i libcpmt:wlocale.obj
 0001:000a3dac       ??$?0V?$allocator@_W@std@@$$V@?$_Compressed_pair@V?$allocator@_W@std@@V?$_String_val@U?$_Simple_types@_W@std@@@2@$00@std@@QAE@U_One_then_variadic_args_t@1@$$QAV?$allocator@_W@1@@Z 004a4dac f i libcpmt:wlocale.obj
 0001:000a3dc3       ??$?8GU?$char_traits@G@std@@@std@@YA_NABV?$istreambuf_iterator@GU?$char_traits@G@std@@@0@0@Z 004a4dc3 f i libcpmt:wlocale.obj
 0001:000a3dd3       ??$?8_WU?$char_traits@_W@std@@@std@@YA_NABV?$istreambuf_iterator@_WU?$char_traits@_W@std@@@0@0@Z 004a4dd3 f i libcpmt:wlocale.obj
 0001:000a3de3       ??$_Adl_verify_range@PADPAD@std@@YAXABQAD0@Z 004a4de3 f i libcpmt:wlocale.obj
 0001:000a3de6       ??$_Adl_verify_range@PAGPAG@std@@YAXABQAG0@Z 004a4de6 f i libcpmt:wlocale.obj
 0001:000a3de9       ??$_Adl_verify_range@PAGPBG@std@@YAXABQAGABQBG@Z 004a4de9 f i libcpmt:wlocale.obj
 0001:000a3dec       ??$_Adl_verify_range@PA_WPA_W@std@@YAXABQA_W0@Z 004a4dec f i libcpmt:wlocale.obj
 0001:000a3def       ??$_Adl_verify_range@PA_WPB_W@std@@YAXABQA_WABQB_W@Z 004a4def f i libcpmt:wlocale.obj
 0001:000a3df2       ??$_Adl_verify_range@PBGPBG@std@@YAXABQBG0@Z 004a4df2 f i libcpmt:wlocale.obj
 0001:000a3df5       ??$_Adl_verify_range@PB_WPB_W@std@@YAXABQB_W0@Z 004a4df5 f i libcpmt:wlocale.obj
 0001:000a3df8       ??$_Adl_verify_range@V?$istreambuf_iterator@GU?$char_traits@G@std@@@std@@V12@@std@@YAXABV?$istreambuf_iterator@GU?$char_traits@G@std@@@0@0@Z 004a4df8 f i libcpmt:wlocale.obj
 0001:000a3dfb       ??$_Adl_verify_range@V?$istreambuf_iterator@_WU?$char_traits@_W@std@@@std@@V12@@std@@YAXABV?$istreambuf_iterator@_WU?$char_traits@_W@std@@@0@0@Z 004a4dfb f i libcpmt:wlocale.obj
 0001:000a3dfe       ??$_Bit_cast@IT_Addr_storage@error_category@std@@$0A@@std@@YAIABT_Addr_storage@error_category@0@@Z 004a4dfe f i libcpmt:wlocale.obj
 0001:000a3e08       ??$_Construct@$00PBG@?$basic_string@GU?$char_traits@G@std@@V?$allocator@G@2@@std@@AAEXQBGI@Z 004a4e08 f i libcpmt:wlocale.obj
 0001:000a3e8a       ??$_Construct@$00PB_W@?$basic_string@_WU?$char_traits@_W@std@@V?$allocator@_W@2@@std@@AAEXQB_WI@Z 004a4e8a f i libcpmt:wlocale.obj
 0001:000a3f0c       ??$_Construct@$01PBD@?$basic_string@DU?$char_traits@D@std@@V?$allocator@D@2@@std@@AAEXQBDI@Z 004a4f0c f i libcpmt:wlocale.obj
 0001:000a3f76       ??$_Construct@$01PBG@?$basic_string@GU?$char_traits@G@std@@V?$allocator@G@2@@std@@AAEXQBGI@Z 004a4f76 f i libcpmt:wlocale.obj
 0001:000a3fe9       ??$_Construct@$01PB_W@?$basic_string@_WU?$char_traits@_W@std@@V?$allocator@_W@2@@std@@AAEXQB_WI@Z 004a4fe9 f i libcpmt:wlocale.obj
 0001:000a405c       ??$_Construct@$0A@G@?$basic_string@GU?$char_traits@G@std@@V?$allocator@G@2@@std@@AAEXGI@Z 004a505c f i libcpmt:wlocale.obj
 0001:000a40d6       ??$_Construct@$0A@_W@?$basic_string@_WU?$char_traits@_W@std@@V?$allocator@_W@2@@std@@AAEX_WI@Z 004a50d6 f i libcpmt:wlocale.obj
 0001:000a4150       ??$_Construct_in_place@PAGAAPAG@std@@YAXAAPAG0@Z 004a5150 f i libcpmt:wlocale.obj
 0001:000a415f       ??$_Construct_in_place@PAGABQAG@std@@YAXAAPAGABQAG@Z 004a515f f i libcpmt:wlocale.obj
 0001:000a416e       ??$_Construct_in_place@PA_WAAPA_W@std@@YAXAAPA_W0@Z 004a516e f i libcpmt:wlocale.obj
 0001:000a417d       ??$_Construct_in_place@PA_WABQA_W@std@@YAXAAPA_WABQA_W@Z 004a517d f i libcpmt:wlocale.obj
 0001:000a418c       ??$_Copy_unchecked@PA_WPA_WV?$ostreambuf_iterator@GU?$char_traits@G@std@@@std@@@std@@YA?AV?$ostreambuf_iterator@GU?$char_traits@G@std@@@0@PA_W0V10@@Z 004a518c f i libcpmt:wlocale.obj
 0001:000a41ba       ??$_Copy_unchecked@PA_WPA_WV?$ostreambuf_iterator@_WU?$char_traits@_W@std@@@std@@@std@@YA?AV?$ostreambuf_iterator@_WU?$char_traits@_W@std@@@0@PA_W0V10@@Z 004a51ba f i libcpmt:wlocale.obj
 0001:000a41e8       ??$_Could_compare_equal_to_value_type@PBGG@std@@YA_NABG@Z 004a51e8 f i libcpmt:wlocale.obj
 0001:000a41eb       ??$_Could_compare_equal_to_value_type@PB_W_W@std@@YA_NAB_W@Z 004a51eb f i libcpmt:wlocale.obj
 0001:000a41ee       ??$_Destroy_in_place@PAG@std@@YAXAAPAG@Z 004a51ee f i libcpmt:wlocale.obj
 0001:000a41f1       ??$_Destroy_in_place@PA_W@std@@YAXAAPA_W@Z 004a51f1 f i libcpmt:wlocale.obj
 0001:000a41f4       ??$_Find_elem@G$0BL@@std@@YAIAAY0BL@$$CBGG@Z 004a51f4 f i libcpmt:wlocale.obj
 0001:000a420f       ??$_Find_elem@G$0BN@@std@@YAIAAY0BN@$$CBGG@Z 004a520f f i libcpmt:wlocale.obj
 0001:000a422a       ??$_Find_elem@G$0M@@std@@YAIAAY0M@$$CBGG@Z 004a522a f i libcpmt:wlocale.obj
 0001:000a4245       ??$_Find_elem@G$0P@@std@@YAIAAY0P@$$CBGG@Z 004a5245 f i libcpmt:wlocale.obj
 0001:000a4260       ??$_Find_elem@_W$0BL@@std@@YAIAAY0BL@$$CB_W_W@Z 004a5260 f i libcpmt:wlocale.obj
 0001:000a427b       ??$_Find_elem@_W$0BN@@std@@YAIAAY0BN@$$CB_W_W@Z 004a527b f i libcpmt:wlocale.obj
 0001:000a4296       ??$_Find_elem@_W$0M@@std@@YAIAAY0M@$$CB_W_W@Z 004a5296 f i libcpmt:wlocale.obj
 0001:000a42b1       ??$_Find_elem@_W$0P@@std@@YAIAAY0P@$$CB_W_W@Z 004a52b1 f i libcpmt:wlocale.obj
 0001:000a42cc       ??$_Find_unchecked@PBGG@std@@YAPBGPBGQBGABG@Z 004a52cc f i libcpmt:wlocale.obj
 0001:000a42e3       ??$_Find_unchecked@PB_W_W@std@@YAPB_WPB_WQB_WAB_W@Z 004a52e3 f i libcpmt:wlocale.obj
 0001:000a42fa       ??$_Get_size_of_n@$01@std@@YAII@Z 004a52fa f i libcpmt:wlocale.obj
 0001:000a430f       ??$_Get_unwrapped@AAPA_W@std@@YA?A_TAAPA_W@Z 004a530f f i libcpmt:wlocale.obj
 0001:000a4319       ??$_Get_unwrapped_n@AAV?$ostreambuf_iterator@GU?$char_traits@G@std@@@std@@H@std@@YA?A_TAAV?$ostreambuf_iterator@GU?$char_traits@G@std@@@0@H@Z 004a5319 f i libcpmt:wlocale.obj
 0001:000a4321       ??$_Get_unwrapped_n@AAV?$ostreambuf_iterator@_WU?$char_traits@_W@std@@@std@@H@std@@YA?A_TAAV?$ostreambuf_iterator@_WU?$char_traits@_W@std@@@0@H@Z 004a5321 f i libcpmt:wlocale.obj
 0001:000a4329       ??$_Getint_v2@V?$istreambuf_iterator@GU?$char_traits@G@std@@@std@@G@std@@YAHAAV?$istreambuf_iterator@GU?$char_traits@G@std@@@0@0HHAAH1ABV?$ctype@G@0@@Z 004a5329 f i libcpmt:wlocale.obj
 0001:000a4581       ??$_Getint_v2@V?$istreambuf_iterator@_WU?$char_traits@_W@std@@@std@@_W@std@@YAHAAV?$istreambuf_iterator@_WU?$char_traits@_W@std@@@0@0HHAAH1ABV?$ctype@_W@0@@Z 004a5581 f i libcpmt:wlocale.obj
 0001:000a47d9       ??$_Getloctxt@V?$istreambuf_iterator@GU?$char_traits@G@std@@@std@@D@std@@YAHAAV?$istreambuf_iterator@GU?$char_traits@G@std@@@0@0IPBDW4_Case_sensitive@0@@Z 004a57d9 f i libcpmt:wlocale.obj
 0001:000a4a01       ??$_Getloctxt@V?$istreambuf_iterator@GU?$char_traits@G@std@@@std@@G@std@@YAHAAV?$istreambuf_iterator@GU?$char_traits@G@std@@@0@0IPBGW4_Case_sensitive@0@@Z 004a5a01 f i libcpmt:wlocale.obj
 0001:000a4c3c       ??$_Getloctxt@V?$istreambuf_iterator@_WU?$char_traits@_W@std@@@std@@D@std@@YAHAAV?$istreambuf_iterator@_WU?$char_traits@_W@std@@@0@0IPBDW4_Case_sensitive@0@@Z 004a5c3c f i libcpmt:wlocale.obj
 0001:000a4e64       ??$_Getloctxt@V?$istreambuf_iterator@_WU?$char_traits@_W@std@@@std@@_W@std@@YAHAAV?$istreambuf_iterator@_WU?$char_traits@_W@std@@@0@0IPB_WW4_Case_sensitive@0@@Z 004a5e64 f i libcpmt:wlocale.obj
 0001:000a509f       ??$_Getvals@G@?$_Mpunct@G@std@@IAEXGPBUlconv@@@Z 004a609f f i libcpmt:wlocale.obj
 0001:000a5131       ??$_Getvals@G@?$numpunct@G@std@@IAEXGPBUlconv@@U_Cvtvec@@@Z 004a6131 f i libcpmt:wlocale.obj
 0001:000a5193       ??$_Getvals@G@?$time_get@GV?$istreambuf_iterator@GU?$char_traits@G@std@@@std@@@std@@IAEXGABV_Locinfo@1@@Z 004a6193 f i libcpmt:wlocale.obj
 0001:000a51fe       ??$_Getvals@_W@?$time_get@_WV?$istreambuf_iterator@_WU?$char_traits@_W@std@@@std@@@std@@IAEX_WABV_Locinfo@1@@Z 004a61fe f i libcpmt:wlocale.obj
 0001:000a5257       ??$_Hash_array_representation@G@std@@YAIQBGI@Z 004a6257 f i libcpmt:wlocale.obj
 0001:000a5272       ??$_Hash_array_representation@_W@std@@YAIQB_WI@Z 004a6272 f i libcpmt:wlocale.obj
 0001:000a528d       ??$_Idl_distance@PA_WPA_W@std@@YA?A_PABQA_W0@Z 004a628d f i libcpmt:wlocale.obj
 0001:000a529e       ??$_LStrcoll@G@std@@YAHPBG000PBU_Collvec@@@Z 004a629e f i libcpmt:wlocale.obj
 0001:000a52e8       ??$_LStrcoll@_W@std@@YAHPB_W000PBU_Collvec@@@Z 004a62e8 f i libcpmt:wlocale.obj
 0001:000a52f1       ??$_LStrxfrm@G@std@@YAIPAG0PBG1PBU_Collvec@@@Z 004a62f1 f i libcpmt:wlocale.obj
 0001:000a5320       ??$_LStrxfrm@_W@std@@YAIPA_W0PB_W1PBU_Collvec@@@Z 004a6320 f i libcpmt:wlocale.obj
 0001:000a5329       ??$_Maklocchr@G@std@@YAGDPAGABU_Cvtvec@@@Z 004a6329 f i libcpmt:wlocale.obj
 0001:000a535a       ??$_Maklocchr@_W@std@@YA_WDPA_WABU_Cvtvec@@@Z 004a635a f i libcpmt:wlocale.obj
 0001:000a538b       ??$_Maklocstr@G@std@@YAPAGPBDPAGABU_Cvtvec@@@Z 004a638b f i libcpmt:wlocale.obj
 0001:000a5433       ??$_Maklocstr@_W@std@@YAPA_WPBDPA_WABU_Cvtvec@@@Z 004a6433 f i libcpmt:wlocale.obj
 0001:000a54db       ??$_Pocma@V?$allocator@G@std@@@std@@YAXAAV?$allocator@G@0@0@Z 004a64db f i libcpmt:wlocale.obj
 0001:000a54de       ??$_Pocma@V?$allocator@_W@std@@@std@@YAXAAV?$allocator@_W@0@0@Z 004a64de f i libcpmt:wlocale.obj
 0001:000a54e1       ??$_Reallocate_grow_by@V<lambda_1>@?1??append@?$basic_string@GU?$char_traits@G@std@@V?$allocator@G@2@@std@@QAEAAV34@IG@Z@IG@?$basic_string@GU?$char_traits@G@std@@V?$allocator@G@2@@std@@AAEAAV01@IV<lambda_1>@?1??append@01@QAEAAV01@IG@Z@IG@Z 004a64e1 f i libcpmt:wlocale.obj
 0001:000a5576       ??$_Reallocate_grow_by@V<lambda_1>@?1??append@?$basic_string@GU?$char_traits@G@std@@V?$allocator@G@2@@std@@QAEAAV34@QBGI@Z@PBGI@?$basic_string@GU?$char_traits@G@std@@V?$allocator@G@2@@std@@AAEAAV01@IV<lambda_1>@?1??append@01@QAEAAV01@QBGI@Z@PBGI@Z 004a6576 f i libcpmt:wlocale.obj
 0001:000a560b       ??$_Reallocate_grow_by@V<lambda_1>@?1??append@?$basic_string@_WU?$char_traits@_W@std@@V?$allocator@_W@2@@std@@QAEAAV34@I_W@Z@I_W@?$basic_string@_WU?$char_traits@_W@std@@V?$allocator@_W@2@@std@@AAEAAV01@IV<lambda_1>@?1??append@01@QAEAAV01@I_W@Z@I_W@Z 004a660b f i libcpmt:wlocale.obj
 0001:000a56a0       ??$_Reallocate_grow_by@V<lambda_1>@?1??append@?$basic_string@_WU?$char_traits@_W@std@@V?$allocator@_W@2@@std@@QAEAAV34@QB_WI@Z@PB_WI@?$basic_string@_WU?$char_traits@_W@std@@V?$allocator@_W@2@@std@@AAEAAV01@IV<lambda_1>@?1??append@01@QAEAAV01@QB_WI@Z@PB_WI@Z 004a66a0 f i libcpmt:wlocale.obj
 0001:000a5735       ??$_Reallocate_grow_by@V<lambda_1>@?1??insert@?$basic_string@GU?$char_traits@G@std@@V?$allocator@G@2@@std@@QAEAAV34@IIG@Z@IIG@?$basic_string@GU?$char_traits@G@std@@V?$allocator@G@2@@std@@AAEAAV01@IV<lambda_1>@?1??insert@01@QAEAAV01@IIG@Z@IIG@Z 004a6735 f i libcpmt:wlocale.obj
 0001:000a57cd       ??$_Reallocate_grow_by@V<lambda_1>@?1??insert@?$basic_string@_WU?$char_traits@_W@std@@V?$allocator@_W@2@@std@@QAEAAV34@II_W@Z@II_W@?$basic_string@_WU?$char_traits@_W@std@@V?$allocator@_W@2@@std@@AAEAAV01@IV<lambda_1>@?1??insert@01@QAEAAV01@II_W@Z@II_W@Z 004a67cd f i libcpmt:wlocale.obj
 0001:000a5865       ??$_Reallocate_grow_by@V<lambda_1>@?1??push_back@?$basic_string@GU?$char_traits@G@std@@V?$allocator@G@2@@std@@QAEXG@Z@G@?$basic_string@GU?$char_traits@G@std@@V?$allocator@G@2@@std@@AAEAAV01@IV<lambda_1>@?1??push_back@01@QAEXG@Z@G@Z 004a6865 f i libcpmt:wlocale.obj
 0001:000a592a       ??$_Reallocate_grow_by@V<lambda_1>@?1??push_back@?$basic_string@_WU?$char_traits@_W@std@@V?$allocator@_W@2@@std@@QAEX_W@Z@_W@?$basic_string@_WU?$char_traits@_W@std@@V?$allocator@_W@2@@std@@AAEAAV01@IV<lambda_1>@?1??push_back@01@QAEX_W@Z@_W@Z 004a692a f i libcpmt:wlocale.obj
 0001:000a59ef       ??$_Refancy@PAG$0A@@std@@YAPAGPAG@Z 004a69ef f i libcpmt:wlocale.obj
 0001:000a59f7       ??$_Refancy@PA_W$0A@@std@@YAPA_WPA_W@Z 004a69f7 f i libcpmt:wlocale.obj
 0001:000a59ff       ??$_Seek_wrapped@V?$ostreambuf_iterator@GU?$char_traits@G@std@@@std@@V12@@std@@YAXAAV?$ostreambuf_iterator@GU?$char_traits@G@std@@@0@$$QAV10@@Z 004a69ff f i libcpmt:wlocale.obj
 0001:000a5a14       ??$_Seek_wrapped@V?$ostreambuf_iterator@_WU?$char_traits@_W@std@@@std@@V12@@std@@YAXAAV?$ostreambuf_iterator@_WU?$char_traits@_W@std@@@0@$$QAV10@@Z 004a6a14 f i libcpmt:wlocale.obj
 0001:000a5a29       ??$_To_address@PBG@std@@YA?A_PABQBG@Z 004a6a29 f i libcpmt:wlocale.obj
 0001:000a5a33       ??$_To_address@PB_W@std@@YA?A_PABQB_W@Z 004a6a33 f i libcpmt:wlocale.obj
 0001:000a5a3d       ??$_Unfancy@G@std@@YAPAGPAG@Z 004a6a3d f i libcpmt:wlocale.obj
 0001:000a5a45       ??$_Unfancy@_W@std@@YAPA_WPA_W@Z 004a6a45 f i libcpmt:wlocale.obj
 0001:000a5a4d       ??$_Voidify_iter@PAG@std@@YAPAXPAG@Z 004a6a4d f i libcpmt:wlocale.obj
 0001:000a5a55       ??$_Voidify_iter@PAPAG@std@@YAPAXPAPAG@Z 004a6a55 f i libcpmt:wlocale.obj
 0001:000a5a5d       ??$_Voidify_iter@PAPA_W@std@@YAPAXPAPA_W@Z 004a6a5d f i libcpmt:wlocale.obj
 0001:000a5a65       ??$_Voidify_iter@PA_W@std@@YAPAXPA_W@Z 004a6a65 f i libcpmt:wlocale.obj
 0001:000a5a6d       ??$__std_find_trivial@$$CBGG@@YAPBGPBG0G@Z 004a6a6d f i libcpmt:wlocale.obj
 0001:000a5a80       ??$__std_find_trivial@$$CB_W_W@@YAPB_WPB_W0_W@Z 004a6a80 f i libcpmt:wlocale.obj
 0001:000a5a93       ??$addressof@$$CBV?$_String_val@U?$_Simple_types@G@std@@@std@@@std@@YAPBV?$_String_val@U?$_Simple_types@G@std@@@0@ABV10@@Z 004a6a93 f i libcpmt:wlocale.obj
 0001:000a5a9b       ??$addressof@$$CBV?$_String_val@U?$_Simple_types@_W@std@@@std@@@std@@YAPBV?$_String_val@U?$_Simple_types@_W@std@@@0@ABV10@@Z 004a6a9b f i libcpmt:wlocale.obj
 0001:000a5aa3       ??$addressof@$$CBV?$moneypunct@G$00@std@@@std@@YAPBV?$moneypunct@G$00@0@ABV10@@Z 004a6aa3 f i libcpmt:wlocale.obj
 0001:000a5aab       ??$addressof@$$CBV?$moneypunct@G$0A@@std@@@std@@YAPBV?$moneypunct@G$0A@@0@ABV10@@Z 004a6aab f i libcpmt:wlocale.obj
 0001:000a5ab3       ??$addressof@$$CBV?$moneypunct@_W$00@std@@@std@@YAPBV?$moneypunct@_W$00@0@ABV10@@Z 004a6ab3 f i libcpmt:wlocale.obj
 0001:000a5abb       ??$addressof@$$CBV?$moneypunct@_W$0A@@std@@@std@@YAPBV?$moneypunct@_W$0A@@0@ABV10@@Z 004a6abb f i libcpmt:wlocale.obj
 0001:000a5ac3       ??$addressof@G@std@@YAPAGAAG@Z 004a6ac3 f i libcpmt:wlocale.obj
 0001:000a5acb       ??$addressof@PAG@std@@YAPAPAGAAPAG@Z 004a6acb f i libcpmt:wlocale.obj
 0001:000a5ad3       ??$addressof@PA_W@std@@YAPAPA_WAAPA_W@Z 004a6ad3 f i libcpmt:wlocale.obj
 0001:000a5adb       ??$addressof@V?$_String_val@U?$_Simple_types@G@std@@@std@@@std@@YAPAV?$_String_val@U?$_Simple_types@G@std@@@0@AAV10@@Z 004a6adb f i libcpmt:wlocale.obj
 0001:000a5ae3       ??$addressof@V?$_String_val@U?$_Simple_types@_W@std@@@std@@@std@@YAPAV?$_String_val@U?$_Simple_types@_W@std@@@0@AAV10@@Z 004a6ae3 f i libcpmt:wlocale.obj
 0001:000a5aeb       ??$addressof@V?$basic_string@GU?$char_traits@G@std@@V?$allocator@G@2@@std@@@std@@YAPAV?$basic_string@GU?$char_traits@G@std@@V?$allocator@G@2@@0@AAV10@@Z 004a6aeb f i libcpmt:wlocale.obj
 0001:000a5af3       ??$addressof@V?$basic_string@_WU?$char_traits@_W@std@@V?$allocator@_W@2@@std@@@std@@YAPAV?$basic_string@_WU?$char_traits@_W@std@@V?$allocator@_W@2@@0@AAV10@@Z 004a6af3 f i libcpmt:wlocale.obj
 0001:000a5afb       ??$addressof@_W@std@@YAPA_WAA_W@Z 004a6afb f i libcpmt:wlocale.obj
 0001:000a5b03       ??$begin@$$CBD$0M@@std@@YAPBDAAY0M@$$CBD@Z 004a6b03 f i libcpmt:wlocale.obj
 0001:000a5b0b       ??$construct_at@GABG$0A@@std@@YAPAGQAGABG@Z 004a6b0b f i libcpmt:wlocale.obj
 0001:000a5b1c       ??$construct_at@PAGAAPAG$0A@@std@@YAPAPAGQAPAGAAPAG@Z 004a6b1c f i libcpmt:wlocale.obj
 0001:000a5b2b       ??$construct_at@PAGABQAG$0A@@std@@YAPAPAGQAPAGABQAG@Z 004a6b2b f i libcpmt:wlocale.obj
 0001:000a5b3a       ??$construct_at@PA_WAAPA_W$0A@@std@@YAPAPA_WQAPA_WAAPA_W@Z 004a6b3a f i libcpmt:wlocale.obj
 0001:000a5b49       ??$construct_at@PA_WABQA_W$0A@@std@@YAPAPA_WQAPA_WABQA_W@Z 004a6b49 f i libcpmt:wlocale.obj
 0001:000a5b58       ??$construct_at@_WAB_W$0A@@std@@YAPA_WQA_WAB_W@Z 004a6b58 f i libcpmt:wlocale.obj
 0001:000a5b69       ??$copy@PA_WV?$ostreambuf_iterator@GU?$char_traits@G@std@@@std@@@std@@YA?AV?$ostreambuf_iterator@GU?$char_traits@G@std@@@0@PA_W0V10@@Z 004a6b69 f i libcpmt:wlocale.obj
 0001:000a5b95       ??$copy@PA_WV?$ostreambuf_iterator@_WU?$char_traits@_W@std@@@std@@@std@@YA?AV?$ostreambuf_iterator@_WU?$char_traits@_W@std@@@0@PA_W0V10@@Z 004a6b95 f i libcpmt:wlocale.obj
 0001:000a5bc1       ??$end@$$CBD$0M@@std@@YAPBDAAY0M@$$CBD@Z 004a6bc1 f i libcpmt:wlocale.obj
 0001:000a5bcc       ??$forward@AAPAG@std@@YAAAPAGAAPAG@Z 004a6bcc f i libcpmt:wlocale.obj
 0001:000a5bd4       ??$forward@AAPA_W@std@@YAAAPA_WAAPA_W@Z 004a6bd4 f i libcpmt:wlocale.obj
 0001:000a5bdc       ??$forward@ABG@std@@YAABGABG@Z 004a6bdc f i libcpmt:wlocale.obj
 0001:000a5be4       ??$forward@ABQAG@std@@YAABQAGABQAG@Z 004a6be4 f i libcpmt:wlocale.obj
 0001:000a5bec       ??$forward@ABQA_W@std@@YAABQA_WABQA_W@Z 004a6bec f i libcpmt:wlocale.obj
 0001:000a5bf4       ??$forward@AB_W@std@@YAAB_WAB_W@Z 004a6bf4 f i libcpmt:wlocale.obj
 0001:000a5bfc       ??$forward@V?$allocator@D@std@@@std@@YA$$QAV?$allocator@D@0@AAV10@@Z 004a6bfc f i libcpmt:wlocale.obj
 0001:000a5c04       ??$forward@V?$allocator@G@std@@@std@@YA$$QAV?$allocator@G@0@AAV10@@Z 004a6c04 f i libcpmt:wlocale.obj
 0001:000a5c0c       ??$forward@V?$allocator@_W@std@@@std@@YA$$QAV?$allocator@_W@0@AAV10@@Z 004a6c0c f i libcpmt:wlocale.obj
 0001:000a5c14       ??$forward@V?$ostreambuf_iterator@GU?$char_traits@G@std@@@std@@@std@@YA$$QAV?$ostreambuf_iterator@GU?$char_traits@G@std@@@0@AAV10@@Z 004a6c14 f i libcpmt:wlocale.obj
 0001:000a5c1c       ??$forward@V?$ostreambuf_iterator@_WU?$char_traits@_W@std@@@std@@@std@@YA$$QAV?$ostreambuf_iterator@_WU?$char_traits@_W@std@@@0@AAV10@@Z 004a6c1c f i libcpmt:wlocale.obj
 0001:000a5c24       ??$move@AAV?$allocator@G@std@@@std@@YA$$QAV?$allocator@G@0@AAV10@@Z 004a6c24 f i libcpmt:wlocale.obj
 0001:000a5c2c       ??$move@AAV?$allocator@_W@std@@@std@@YA$$QAV?$allocator@_W@0@AAV10@@Z 004a6c2c f i libcpmt:wlocale.obj
 0001:000a5c34       ??$move@AAV?$basic_string@GU?$char_traits@G@std@@V?$allocator@G@2@@std@@@std@@YA$$QAV?$basic_string@GU?$char_traits@G@std@@V?$allocator@G@2@@0@AAV10@@Z 004a6c34 f i libcpmt:wlocale.obj
 0001:000a5c3c       ??$move@AAV?$basic_string@_WU?$char_traits@_W@std@@V?$allocator@_W@2@@std@@@std@@YA$$QAV?$basic_string@_WU?$char_traits@_W@std@@V?$allocator@_W@2@@0@AAV10@@Z 004a6c3c f i libcpmt:wlocale.obj
 0001:000a5c44       ??$to_address@$$CBG@std@@YAPBGQBG@Z 004a6c44 f i libcpmt:wlocale.obj
 0001:000a5c4c       ??$to_address@$$CB_W@std@@YAPB_WQB_W@Z 004a6c4c f i libcpmt:wlocale.obj
 0001:000a5c54       ??$use_facet@V?$codecvt@GDU_Mbstatet@@@std@@@std@@YAABV?$codecvt@GDU_Mbstatet@@@0@ABVlocale@0@@Z 004a6c54 f i libcpmt:wlocale.obj
 0001:000a5ce9       ??$use_facet@V?$codecvt@_WDU_Mbstatet@@@std@@@std@@YAABV?$codecvt@_WDU_Mbstatet@@@0@ABVlocale@0@@Z 004a6ce9 f i libcpmt:wlocale.obj
 0001:000a5d7e       ??$use_facet@V?$collate@G@std@@@std@@YAABV?$collate@G@0@ABVlocale@0@@Z 004a6d7e f i libcpmt:wlocale.obj
 0001:000a5e13       ??$use_facet@V?$collate@_W@std@@@std@@YAABV?$collate@_W@0@ABVlocale@0@@Z 004a6e13 f i libcpmt:wlocale.obj
 0001:000a5ea8       ??$use_facet@V?$ctype@G@std@@@std@@YAABV?$ctype@G@0@ABVlocale@0@@Z 004a6ea8 f i libcpmt:wlocale.obj
 0001:000a5f3d       ??$use_facet@V?$ctype@_W@std@@@std@@YAABV?$ctype@_W@0@ABVlocale@0@@Z 004a6f3d f i libcpmt:wlocale.obj
 0001:000a5fd2       ??$use_facet@V?$messages@G@std@@@std@@YAABV?$messages@G@0@ABVlocale@0@@Z 004a6fd2 f i libcpmt:wlocale.obj
 0001:000a6067       ??$use_facet@V?$messages@_W@std@@@std@@YAABV?$messages@_W@0@ABVlocale@0@@Z 004a7067 f i libcpmt:wlocale.obj
 0001:000a60fc       ??$use_facet@V?$money_get@GV?$istreambuf_iterator@GU?$char_traits@G@std@@@std@@@std@@@std@@YAABV?$money_get@GV?$istreambuf_iterator@GU?$char_traits@G@std@@@std@@@0@ABVlocale@0@@Z 004a70fc f i libcpmt:wlocale.obj
 0001:000a6191       ??$use_facet@V?$money_get@_WV?$istreambuf_iterator@_WU?$char_traits@_W@std@@@std@@@std@@@std@@YAABV?$money_get@_WV?$istreambuf_iterator@_WU?$char_traits@_W@std@@@std@@@0@ABVlocale@0@@Z 004a7191 f i libcpmt:wlocale.obj
 0001:000a6226       ??$use_facet@V?$money_put@GV?$ostreambuf_iterator@GU?$char_traits@G@std@@@std@@@std@@@std@@YAABV?$money_put@GV?$ostreambuf_iterator@GU?$char_traits@G@std@@@std@@@0@ABVlocale@0@@Z 004a7226 f i libcpmt:wlocale.obj
 0001:000a62bb       ??$use_facet@V?$money_put@_WV?$ostreambuf_iterator@_WU?$char_traits@_W@std@@@std@@@std@@@std@@YAABV?$money_put@_WV?$ostreambuf_iterator@_WU?$char_traits@_W@std@@@std@@@0@ABVlocale@0@@Z 004a72bb f i libcpmt:wlocale.obj
 0001:000a6350       ??$use_facet@V?$moneypunct@G$00@std@@@std@@YAABV?$moneypunct@G$00@0@ABVlocale@0@@Z 004a7350 f i libcpmt:wlocale.obj
 0001:000a63e5       ??$use_facet@V?$moneypunct@G$0A@@std@@@std@@YAABV?$moneypunct@G$0A@@0@ABVlocale@0@@Z 004a73e5 f i libcpmt:wlocale.obj
 0001:000a647a       ??$use_facet@V?$moneypunct@_W$00@std@@@std@@YAABV?$moneypunct@_W$00@0@ABVlocale@0@@Z 004a747a f i libcpmt:wlocale.obj
 0001:000a650f       ??$use_facet@V?$moneypunct@_W$0A@@std@@@std@@YAABV?$moneypunct@_W$0A@@0@ABVlocale@0@@Z 004a750f f i libcpmt:wlocale.obj
 0001:000a65a4       ??$use_facet@V?$num_get@GV?$istreambuf_iterator@GU?$char_traits@G@std@@@std@@@std@@@std@@YAABV?$num_get@GV?$istreambuf_iterator@GU?$char_traits@G@std@@@std@@@0@ABVlocale@0@@Z 004a75a4 f i libcpmt:wlocale.obj
 0001:000a6639       ??$use_facet@V?$num_get@_WV?$istreambuf_iterator@_WU?$char_traits@_W@std@@@std@@@std@@@std@@YAABV?$num_get@_WV?$istreambuf_iterator@_WU?$char_traits@_W@std@@@std@@@0@ABVlocale@0@@Z 004a7639 f i libcpmt:wlocale.obj
 0001:000a66ce       ??$use_facet@V?$num_put@GV?$ostreambuf_iterator@GU?$char_traits@G@std@@@std@@@std@@@std@@YAABV?$num_put@GV?$ostreambuf_iterator@GU?$char_traits@G@std@@@std@@@0@ABVlocale@0@@Z 004a76ce f i libcpmt:wlocale.obj
 0001:000a6763       ??$use_facet@V?$num_put@_WV?$ostreambuf_iterator@_WU?$char_traits@_W@std@@@std@@@std@@@std@@YAABV?$num_put@_WV?$ostreambuf_iterator@_WU?$char_traits@_W@std@@@std@@@0@ABVlocale@0@@Z 004a7763 f i libcpmt:wlocale.obj
 0001:000a67f8       ??$use_facet@V?$numpunct@G@std@@@std@@YAABV?$numpunct@G@0@ABVlocale@0@@Z 004a77f8 f i libcpmt:wlocale.obj
 0001:000a688d       ??$use_facet@V?$numpunct@_W@std@@@std@@YAABV?$numpunct@_W@0@ABVlocale@0@@Z 004a788d f i libcpmt:wlocale.obj
 0001:000a6922       ??$use_facet@V?$time_get@GV?$istreambuf_iterator@GU?$char_traits@G@std@@@std@@@std@@@std@@YAABV?$time_get@GV?$istreambuf_iterator@GU?$char_traits@G@std@@@std@@@0@ABVlocale@0@@Z 004a7922 f i libcpmt:wlocale.obj
 0001:000a69b7       ??$use_facet@V?$time_get@_WV?$istreambuf_iterator@_WU?$char_traits@_W@std@@@std@@@std@@@std@@YAABV?$time_get@_WV?$istreambuf_iterator@_WU?$char_traits@_W@std@@@std@@@0@ABVlocale@0@@Z 004a79b7 f i libcpmt:wlocale.obj
 0001:000a6a4c       ??$use_facet@V?$time_put@GV?$ostreambuf_iterator@GU?$char_traits@G@std@@@std@@@std@@@std@@YAABV?$time_put@GV?$ostreambuf_iterator@GU?$char_traits@G@std@@@std@@@0@ABVlocale@0@@Z 004a7a4c f i libcpmt:wlocale.obj
 0001:000a6ae1       ??$use_facet@V?$time_put@_WV?$ostreambuf_iterator@_WU?$char_traits@_W@std@@@std@@@std@@@std@@YAABV?$time_put@_WV?$ostreambuf_iterator@_WU?$char_traits@_W@std@@@std@@@0@ABVlocale@0@@Z 004a7ae1 f i libcpmt:wlocale.obj
 0001:000a6b76       ??0?$_Mpunct@G@std@@QAE@ABV_Locinfo@1@I_N1@Z 004a7b76 f i libcpmt:wlocale.obj
 0001:000a6bb2       ??0?$_Mpunct@_W@std@@QAE@ABV_Locinfo@1@I_N1@Z 004a7bb2 f i libcpmt:wlocale.obj
 0001:000a6bee       ??0?$_String_const_iterator@V?$_String_val@U?$_Simple_types@G@std@@@std@@@std@@QAE@PBGPBU_Container_base0@1@@Z 004a7bee f i libcpmt:wlocale.obj
 0001:000a6bfc       ??0?$_String_const_iterator@V?$_String_val@U?$_Simple_types@G@std@@@std@@@std@@QAE@XZ 004a7bfc f i libcpmt:wlocale.obj
 0001:000a6c02       ??0?$_String_const_iterator@V?$_String_val@U?$_Simple_types@_W@std@@@std@@@std@@QAE@PB_WPBU_Container_base0@1@@Z 004a7c02 f i libcpmt:wlocale.obj
 0001:000a6c10       ??0?$_String_const_iterator@V?$_String_val@U?$_Simple_types@_W@std@@@std@@@std@@QAE@XZ 004a7c10 f i libcpmt:wlocale.obj
 0001:000a6c16       ??0?$_String_iterator@V?$_String_val@U?$_Simple_types@G@std@@@std@@@std@@QAE@PBGPBU_Container_base0@1@@Z 004a7c16 f i libcpmt:wlocale.obj
 0001:000a6c24       ??0?$_String_iterator@V?$_String_val@U?$_Simple_types@_W@std@@@std@@@std@@QAE@PB_WPBU_Container_base0@1@@Z 004a7c24 f i libcpmt:wlocale.obj
 0001:000a6c32       ??0?$_String_val@U?$_Simple_types@G@std@@@std@@QAE@XZ 004a7c32 f i libcpmt:wlocale.obj
 0001:000a6c47       ??0?$_String_val@U?$_Simple_types@_W@std@@@std@@QAE@XZ 004a7c47 f i libcpmt:wlocale.obj
 0001:000a6c5c       ??0?$allocator@G@std@@QAE@XZ 004a7c5c f i libcpmt:wlocale.obj
 0001:000a6c5f       ??0?$allocator@_W@std@@QAE@XZ 004a7c5f f i libcpmt:wlocale.obj
 0001:000a6c62       ??0?$basic_string@DU?$char_traits@D@std@@V?$allocator@D@2@@std@@QAE@$$QAV01@@Z 004a7c62 f i libcpmt:wlocale.obj
 0001:000a6c9b       ??0?$basic_string@DU?$char_traits@D@std@@V?$allocator@D@2@@std@@QAE@ABV01@@Z 004a7c9b f i libcpmt:wlocale.obj
 0001:000a6cd1       ??0?$basic_string@DU?$char_traits@D@std@@V?$allocator@D@2@@std@@QAE@QBDI@Z 004a7cd1 f i libcpmt:wlocale.obj
 0001:000a6cfb       ??0?$basic_string@GU?$char_traits@G@std@@V?$allocator@G@2@@std@@QAE@$$QAV01@@Z 004a7cfb f i libcpmt:wlocale.obj
 0001:000a6d36       ??0?$basic_string@GU?$char_traits@G@std@@V?$allocator@G@2@@std@@QAE@ABV01@@Z 004a7d36 f i libcpmt:wlocale.obj
 0001:000a6d6c       ??0?$basic_string@GU?$char_traits@G@std@@V?$allocator@G@2@@std@@QAE@IG@Z 004a7d6c f i libcpmt:wlocale.obj
 0001:000a6d96       ??0?$basic_string@GU?$char_traits@G@std@@V?$allocator@G@2@@std@@QAE@QBG@Z 004a7d96 f i libcpmt:wlocale.obj
 0001:000a6dd3       ??0?$basic_string@GU?$char_traits@G@std@@V?$allocator@G@2@@std@@QAE@QBGI@Z 004a7dd3 f i libcpmt:wlocale.obj
 0001:000a6dfd       ??0?$basic_string@GU?$char_traits@G@std@@V?$allocator@G@2@@std@@QAE@XZ 004a7dfd f i libcpmt:wlocale.obj
 0001:000a6e1a       ??0?$basic_string@_WU?$char_traits@_W@std@@V?$allocator@_W@2@@std@@QAE@$$QAV01@@Z 004a7e1a f i libcpmt:wlocale.obj
 0001:000a6e55       ??0?$basic_string@_WU?$char_traits@_W@std@@V?$allocator@_W@2@@std@@QAE@ABV01@@Z 004a7e55 f i libcpmt:wlocale.obj
 0001:000a6e8b       ??0?$basic_string@_WU?$char_traits@_W@std@@V?$allocator@_W@2@@std@@QAE@I_W@Z 004a7e8b f i libcpmt:wlocale.obj
 0001:000a6eb5       ??0?$basic_string@_WU?$char_traits@_W@std@@V?$allocator@_W@2@@std@@QAE@QB_W@Z 004a7eb5 f i libcpmt:wlocale.obj
 0001:000a6ef4       ??0?$basic_string@_WU?$char_traits@_W@std@@V?$allocator@_W@2@@std@@QAE@QB_WI@Z 004a7ef4 f i libcpmt:wlocale.obj
 0001:000a6f1e       ??0?$basic_string@_WU?$char_traits@_W@std@@V?$allocator@_W@2@@std@@QAE@XZ 004a7f1e f i libcpmt:wlocale.obj
 0001:000a6f3b       ??0?$codecvt@GDU_Mbstatet@@@std@@QAE@ABV_Locinfo@1@I@Z 004a7f3b f i libcpmt:wlocale.obj
 0001:000a6f72       ??0?$codecvt@_WDU_Mbstatet@@@std@@QAE@ABV_Locinfo@1@I@Z 004a7f72 f i libcpmt:wlocale.obj
 0001:000a6fa9       ??0?$collate@G@std@@QAE@ABV_Locinfo@1@I@Z 004a7fa9 f i libcpmt:wlocale.obj
 0001:000a6fd1       ??0?$collate@_W@std@@QAE@ABV_Locinfo@1@I@Z 004a7fd1 f i libcpmt:wlocale.obj
 0001:000a6ff9       ??0?$ctype@G@std@@QAE@ABV_Locinfo@1@I@Z 004a7ff9 f i libcpmt:wlocale.obj
 0001:000a701e       ??0?$ctype@_W@std@@QAE@ABV_Locinfo@1@I@Z 004a801e f i libcpmt:wlocale.obj
 0001:000a7043       ??0?$messages@G@std@@QAE@ABV_Locinfo@1@I@Z 004a8043 f i libcpmt:wlocale.obj
 0001:000a705c       ??0?$messages@_W@std@@QAE@ABV_Locinfo@1@I@Z 004a805c f i libcpmt:wlocale.obj
 0001:000a7075       ??0?$money_get@GV?$istreambuf_iterator@GU?$char_traits@G@std@@@std@@@std@@QAE@ABV_Locinfo@1@I@Z 004a8075 f i libcpmt:wlocale.obj
 0001:000a708e       ??0?$money_get@_WV?$istreambuf_iterator@_WU?$char_traits@_W@std@@@std@@@std@@QAE@ABV_Locinfo@1@I@Z 004a808e f i libcpmt:wlocale.obj
 0001:000a70a7       ??0?$money_put@GV?$ostreambuf_iterator@GU?$char_traits@G@std@@@std@@@std@@QAE@ABV_Locinfo@1@I@Z 004a80a7 f i libcpmt:wlocale.obj
 0001:000a70c0       ??0?$money_put@_WV?$ostreambuf_iterator@_WU?$char_traits@_W@std@@@std@@@std@@QAE@ABV_Locinfo@1@I@Z 004a80c0 f i libcpmt:wlocale.obj
 0001:000a70d9       ??0?$moneypunct@G$00@std@@QAE@ABV_Locinfo@1@I_N@Z 004a80d9 f i libcpmt:wlocale.obj
 0001:000a7100       ??0?$moneypunct@G$0A@@std@@QAE@ABV_Locinfo@1@I_N@Z 004a8100 f i libcpmt:wlocale.obj
 0001:000a7127       ??0?$moneypunct@_W$00@std@@QAE@ABV_Locinfo@1@I_N@Z 004a8127 f i libcpmt:wlocale.obj
 0001:000a714e       ??0?$moneypunct@_W$0A@@std@@QAE@ABV_Locinfo@1@I_N@Z 004a814e f i libcpmt:wlocale.obj
 0001:000a7175       ??0?$num_get@GV?$istreambuf_iterator@GU?$char_traits@G@std@@@std@@@std@@QAE@ABV_Locinfo@1@I@Z 004a8175 f i libcpmt:wlocale.obj
 0001:000a718e       ??0?$num_get@_WV?$istreambuf_iterator@_WU?$char_traits@_W@std@@@std@@@std@@QAE@ABV_Locinfo@1@I@Z 004a818e f i libcpmt:wlocale.obj
 0001:000a71a7       ??0?$num_put@GV?$ostreambuf_iterator@GU?$char_traits@G@std@@@std@@@std@@QAE@ABV_Locinfo@1@I@Z 004a81a7 f i libcpmt:wlocale.obj
 0001:000a71c0       ??0?$num_put@_WV?$ostreambuf_iterator@_WU?$char_traits@_W@std@@@std@@@std@@QAE@ABV_Locinfo@1@I@Z 004a81c0 f i libcpmt:wlocale.obj
 0001:000a71d9       ??0?$numpunct@G@std@@QAE@ABV_Locinfo@1@I_N@Z 004a81d9 f i libcpmt:wlocale.obj
 0001:000a720f       ??0?$numpunct@_W@std@@QAE@ABV_Locinfo@1@I_N@Z 004a820f f i libcpmt:wlocale.obj
 0001:000a7245       ??0?$time_get@GV?$istreambuf_iterator@GU?$char_traits@G@std@@@std@@@std@@QAE@ABV_Locinfo@1@I@Z 004a8245 f i libcpmt:wlocale.obj
 0001:000a7278       ??0?$time_get@_WV?$istreambuf_iterator@_WU?$char_traits@_W@std@@@std@@@std@@QAE@ABV_Locinfo@1@I@Z 004a8278 f i libcpmt:wlocale.obj
 0001:000a72ab       ??0?$time_put@GV?$ostreambuf_iterator@GU?$char_traits@G@std@@@std@@@std@@QAE@ABV_Locinfo@1@I@Z 004a82ab f i libcpmt:wlocale.obj
 0001:000a72d4       ??0?$time_put@_WV?$ostreambuf_iterator@_WU?$char_traits@_W@std@@@std@@@std@@QAE@ABV_Locinfo@1@I@Z 004a82d4 f i libcpmt:wlocale.obj
 0001:000a72fd       ??0_Bxty@?$_String_val@U?$_Simple_types@G@std@@@std@@QAE@XZ 004a82fd f i libcpmt:wlocale.obj
 0001:000a730a       ??0_Bxty@?$_String_val@U?$_Simple_types@_W@std@@@std@@QAE@XZ 004a830a f i libcpmt:wlocale.obj
 0001:000a7317       ??0_Timevec@std@@QAE@PAX@Z 004a8317 f i libcpmt:wlocale.obj
 0001:000a7325       ??0error_code@std@@QAE@HABVerror_category@1@@Z 004a8325 f i libcpmt:wlocale.obj
 0001:000a7339       ??0error_condition@std@@QAE@HABVerror_category@1@@Z 004a8339 f i libcpmt:wlocale.obj
 0001:000a734d       ??0messages_base@std@@QAE@I@Z 004a834d f i libcpmt:wlocale.obj
 0001:000a7366       ??0money_base@std@@QAE@I@Z 004a8366 f i libcpmt:wlocale.obj
 0001:000a737f       ??0runtime_error@std@@QAE@ABV?$basic_string@DU?$char_traits@D@std@@V?$allocator@D@2@@1@@Z 004a837f f i libcpmt:wlocale.obj
 0001:000a73a7       ??0system_error@std@@QAE@Verror_code@1@PBD@Z 004a83a7 f i libcpmt:wlocale.obj
 0001:000a73f4       ??0time_base@std@@QAE@I@Z  004a83f4 f i libcpmt:wlocale.obj
 0001:000a740d       ??1?$_Compressed_pair@V?$allocator@G@std@@V?$_String_val@U?$_Simple_types@G@std@@@2@$00@std@@QAE@XZ 004a840d f i libcpmt:wlocale.obj
 0001:000a7410       ??1?$_Compressed_pair@V?$allocator@_W@std@@V?$_String_val@U?$_Simple_types@_W@std@@@2@$00@std@@QAE@XZ 004a8410 f i libcpmt:wlocale.obj
 0001:000a7413       ??1?$_Mpunct@G@std@@MAE@XZ 004a8413 f i libcpmt:wlocale.obj
 0001:000a7429       ??1?$_Mpunct@_W@std@@MAE@XZ 004a8429 f i libcpmt:wlocale.obj
 0001:000a743f       ??1?$_String_val@U?$_Simple_types@G@std@@@std@@QAE@XZ 004a843f f i libcpmt:wlocale.obj
 0001:000a7442       ??1?$_String_val@U?$_Simple_types@_W@std@@@std@@QAE@XZ 004a8442 f i libcpmt:wlocale.obj
 0001:000a7445       ??1?$_Tidy_guard@V?$_Mpunct@G@std@@@std@@QAE@XZ 004a8445 f i libcpmt:wlocale.obj
 0001:000a7450       ??1?$_Tidy_guard@V?$_Mpunct@_W@std@@@std@@QAE@XZ 004a8450 f i libcpmt:wlocale.obj
 0001:000a745b       ??1?$_Tidy_guard@V?$numpunct@G@std@@@std@@QAE@XZ 004a845b f i libcpmt:wlocale.obj
 0001:000a7466       ??1?$_Tidy_guard@V?$numpunct@_W@std@@@std@@QAE@XZ 004a8466 f i libcpmt:wlocale.obj
 0001:000a7471       ??1?$_Tidy_guard@V?$time_get@GV?$istreambuf_iterator@GU?$char_traits@G@std@@@std@@@std@@@std@@QAE@XZ 004a8471 f i libcpmt:wlocale.obj
 0001:000a747c       ??1?$_Tidy_guard@V?$time_get@_WV?$istreambuf_iterator@_WU?$char_traits@_W@std@@@std@@@std@@@std@@QAE@XZ 004a847c f i libcpmt:wlocale.obj
 0001:000a7487       ??1?$basic_string@GU?$char_traits@G@std@@V?$allocator@G@2@@std@@QAE@XZ 004a8487 f i libcpmt:wlocale.obj
 0001:000a748c       ??1?$basic_string@_WU?$char_traits@_W@std@@V?$allocator@_W@2@@std@@QAE@XZ 004a848c f i libcpmt:wlocale.obj
 0001:000a7491       ??1?$codecvt@GDU_Mbstatet@@@std@@MAE@XZ 004a8491 f i libcpmt:wlocale.obj
 0001:000a7498       ??1?$codecvt@_WDU_Mbstatet@@@std@@MAE@XZ 004a8498 f i libcpmt:wlocale.obj
 0001:000a749f       ??1?$collate@G@std@@MAE@XZ 004a849f f i libcpmt:wlocale.obj
 0001:000a74b9       ??1?$collate@_W@std@@MAE@XZ 004a84b9 f i libcpmt:wlocale.obj
 0001:000a74d3       ??1?$ctype@G@std@@MAE@XZ   004a84d3 f i libcpmt:wlocale.obj
 0001:000a74fc       ??1?$ctype@_W@std@@MAE@XZ  004a84fc f i libcpmt:wlocale.obj
 0001:000a7525       ??1?$messages@G@std@@MAE@XZ 004a8525 f i libcpmt:wlocale.obj
 0001:000a752c       ??1?$messages@_W@std@@MAE@XZ 004a852c f i libcpmt:wlocale.obj
 0001:000a7533       ??1?$money_get@GV?$istreambuf_iterator@GU?$char_traits@G@std@@@std@@@std@@MAE@XZ 004a8533 f i libcpmt:wlocale.obj
 0001:000a753a       ??1?$money_get@_WV?$istreambuf_iterator@_WU?$char_traits@_W@std@@@std@@@std@@MAE@XZ 004a853a f i libcpmt:wlocale.obj
 0001:000a7541       ??1?$money_put@GV?$ostreambuf_iterator@GU?$char_traits@G@std@@@std@@@std@@MAE@XZ 004a8541 f i libcpmt:wlocale.obj
 0001:000a7548       ??1?$money_put@_WV?$ostreambuf_iterator@_WU?$char_traits@_W@std@@@std@@@std@@MAE@XZ 004a8548 f i libcpmt:wlocale.obj
 0001:000a754f       ??1?$moneypunct@G$00@std@@MAE@XZ 004a854f f i libcpmt:wlocale.obj
 0001:000a7565       ??1?$moneypunct@G$0A@@std@@MAE@XZ 004a8565 f i libcpmt:wlocale.obj
 0001:000a757b       ??1?$moneypunct@_W$00@std@@MAE@XZ 004a857b f i libcpmt:wlocale.obj
 0001:000a7591       ??1?$moneypunct@_W$0A@@std@@MAE@XZ 004a8591 f i libcpmt:wlocale.obj
 0001:000a75a7       ??1?$num_get@GV?$istreambuf_iterator@GU?$char_traits@G@std@@@std@@@std@@MAE@XZ 004a85a7 f i libcpmt:wlocale.obj
 0001:000a75ae       ??1?$num_get@_WV?$istreambuf_iterator@_WU?$char_traits@_W@std@@@std@@@std@@MAE@XZ 004a85ae f i libcpmt:wlocale.obj
 0001:000a75b5       ??1?$num_put@GV?$ostreambuf_iterator@GU?$char_traits@G@std@@@std@@@std@@MAE@XZ 004a85b5 f i libcpmt:wlocale.obj
 0001:000a75bc       ??1?$num_put@_WV?$ostreambuf_iterator@_WU?$char_traits@_W@std@@@std@@@std@@MAE@XZ 004a85bc f i libcpmt:wlocale.obj
 0001:000a75c3       ??1?$numpunct@G@std@@MAE@XZ 004a85c3 f i libcpmt:wlocale.obj
 0001:000a75d9       ??1?$numpunct@_W@std@@MAE@XZ 004a85d9 f i libcpmt:wlocale.obj
 0001:000a75ef       ??1?$time_get@GV?$istreambuf_iterator@GU?$char_traits@G@std@@@std@@@std@@MAE@XZ 004a85ef f i libcpmt:wlocale.obj
 0001:000a7605       ??1?$time_get@_WV?$istreambuf_iterator@_WU?$char_traits@_W@std@@@std@@@std@@MAE@XZ 004a8605 f i libcpmt:wlocale.obj
 0001:000a761b       ??1?$time_put@GV?$ostreambuf_iterator@GU?$char_traits@G@std@@@std@@@std@@MAE@XZ 004a861b f i libcpmt:wlocale.obj
 0001:000a7635       ??1?$time_put@_WV?$ostreambuf_iterator@_WU?$char_traits@_W@std@@@std@@@std@@MAE@XZ 004a8635 f i libcpmt:wlocale.obj
 0001:000a764f       ??1_Bxty@?$_String_val@U?$_Simple_types@G@std@@@std@@QAE@XZ 004a864f f i libcpmt:wlocale.obj
 0001:000a7652       ??1_Bxty@?$_String_val@U?$_Simple_types@_W@std@@@std@@QAE@XZ 004a8652 f i libcpmt:wlocale.obj
 0001:000a7655       ??1_Iostream_error_category2@std@@UAE@XZ 004a8655 f i libcpmt:wlocale.obj
 0001:000a7658       ??1_System_error@std@@UAE@XZ 004a8658 f i libcpmt:wlocale.obj
 0001:000a7669       ??1_Timevec@std@@QAE@XZ    004a8669 f i libcpmt:wlocale.obj
 0001:000a7672       ??1messages_base@std@@UAE@XZ 004a8672 f i libcpmt:wlocale.obj
 0001:000a7679       ??1money_base@std@@UAE@XZ  004a8679 f i libcpmt:wlocale.obj
 0001:000a7680       ??1time_base@std@@UAE@XZ   004a8680 f i libcpmt:wlocale.obj
 0001:000a7687       ??4?$_Yarn@_W@std@@QAEAAV01@PB_W@Z 004a8687 f i libcpmt:wlocale.obj
 0001:000a76e3       ??4?$basic_string@GU?$char_traits@G@std@@V?$allocator@G@2@@std@@QAEAAV01@$$QAV01@@Z 004a86e3 f i libcpmt:wlocale.obj
 0001:000a771a       ??4?$basic_string@_WU?$char_traits@_W@std@@V?$allocator@_W@2@@std@@QAEAAV01@$$QAV01@@Z 004a871a f i libcpmt:wlocale.obj
 0001:000a7751       ??4?$ostreambuf_iterator@GU?$char_traits@G@std@@@std@@QAEAAV01@G@Z 004a8751 f i libcpmt:wlocale.obj
 0001:000a777a       ??4?$ostreambuf_iterator@_WU?$char_traits@_W@std@@@std@@QAEAAV01@_W@Z 004a877a f i libcpmt:wlocale.obj
 0001:000a77a3       ??4_Timevec@std@@QAEAAV01@ABV01@@Z 004a87a3 f i libcpmt:wlocale.obj
 0001:000a77c8       ??8?$_String_const_iterator@V?$_String_val@U?$_Simple_types@G@std@@@std@@@std@@QBE_NABV01@@Z 004a87c8 f i libcpmt:wlocale.obj
 0001:000a77d9       ??8?$_String_const_iterator@V?$_String_val@U?$_Simple_types@_W@std@@@std@@@std@@QBE_NABV01@@Z 004a87d9 f i libcpmt:wlocale.obj
 0001:000a77ea       ??8error_category@std@@QBE_NABV01@@Z 004a87ea f i libcpmt:wlocale.obj
 0001:000a77fd       ??8std@@YA_NABVerror_condition@0@0@Z 004a87fd f i libcpmt:wlocale.obj
 0001:000a7824       ??A?$basic_string@GU?$char_traits@G@std@@V?$allocator@G@2@@std@@QAEAAGI@Z 004a8824 f i libcpmt:wlocale.obj
 0001:000a7839       ??A?$basic_string@GU?$char_traits@G@std@@V?$allocator@G@2@@std@@QBEABGI@Z 004a8839 f i libcpmt:wlocale.obj
 0001:000a784e       ??A?$basic_string@_WU?$char_traits@_W@std@@V?$allocator@_W@2@@std@@QAEAA_WI@Z 004a884e f i libcpmt:wlocale.obj
 0001:000a7863       ??A?$basic_string@_WU?$char_traits@_W@std@@V?$allocator@_W@2@@std@@QBEAB_WI@Z 004a8863 f i libcpmt:wlocale.obj
 0001:000a7878       ??D?$_String_const_iterator@V?$_String_val@U?$_Simple_types@G@std@@@std@@@std@@QBEABGXZ 004a8878 f i libcpmt:wlocale.obj
 0001:000a787b       ??D?$_String_const_iterator@V?$_String_val@U?$_Simple_types@_W@std@@@std@@@std@@QBEAB_WXZ 004a887b f i libcpmt:wlocale.obj
 0001:000a787e       ??D?$_String_iterator@V?$_String_val@U?$_Simple_types@G@std@@@std@@@std@@QBEAAGXZ 004a887e f i libcpmt:wlocale.obj
 0001:000a7881       ??D?$_String_iterator@V?$_String_val@U?$_Simple_types@_W@std@@@std@@@std@@QBEAA_WXZ 004a8881 f i libcpmt:wlocale.obj
 0001:000a7884       ??D?$istreambuf_iterator@GU?$char_traits@G@std@@@std@@QBEGXZ 004a8884 f i libcpmt:wlocale.obj
 0001:000a7898       ??D?$istreambuf_iterator@_WU?$char_traits@_W@std@@@std@@QBE_WXZ 004a8898 f i libcpmt:wlocale.obj
 0001:000a78ac       ??D?$ostreambuf_iterator@GU?$char_traits@G@std@@@std@@QAEAAV01@XZ 004a88ac f i libcpmt:wlocale.obj
 0001:000a78af       ??D?$ostreambuf_iterator@_WU?$char_traits@_W@std@@@std@@QAEAAV01@XZ 004a88af f i libcpmt:wlocale.obj
 0001:000a78b2       ??E?$_String_const_iterator@V?$_String_val@U?$_Simple_types@G@std@@@std@@@std@@QAEAAV01@XZ 004a88b2 f i libcpmt:wlocale.obj
 0001:000a78b8       ??E?$_String_const_iterator@V?$_String_val@U?$_Simple_types@_W@std@@@std@@@std@@QAEAAV01@XZ 004a88b8 f i libcpmt:wlocale.obj
 0001:000a78be       ??E?$_String_iterator@V?$_String_val@U?$_Simple_types@G@std@@@std@@@std@@QAEAAV01@XZ 004a88be f i libcpmt:wlocale.obj
 0001:000a78c4       ??E?$_String_iterator@V?$_String_val@U?$_Simple_types@_W@std@@@std@@@std@@QAEAAV01@XZ 004a88c4 f i libcpmt:wlocale.obj
 0001:000a78ca       ??E?$istreambuf_iterator@GU?$char_traits@G@std@@@std@@QAEAAV01@XZ 004a88ca f i libcpmt:wlocale.obj
 0001:000a78d6       ??E?$istreambuf_iterator@_WU?$char_traits@_W@std@@@std@@QAEAAV01@XZ 004a88d6 f i libcpmt:wlocale.obj
 0001:000a78e2       ??E?$ostreambuf_iterator@GU?$char_traits@G@std@@@std@@QAEAAV01@H@Z 004a88e2 f i libcpmt:wlocale.obj
 0001:000a78e7       ??E?$ostreambuf_iterator@GU?$char_traits@G@std@@@std@@QAEAAV01@XZ 004a88e7 f i libcpmt:wlocale.obj
 0001:000a78ea       ??E?$ostreambuf_iterator@_WU?$char_traits@_W@std@@@std@@QAEAAV01@H@Z 004a88ea f i libcpmt:wlocale.obj
 0001:000a78ef       ??E?$ostreambuf_iterator@_WU?$char_traits@_W@std@@@std@@QAEAAV01@XZ 004a88ef f i libcpmt:wlocale.obj
 0001:000a78f2       ??G?$_String_iterator@V?$_String_val@U?$_Simple_types@G@std@@@std@@@std@@QBE?AV01@H@Z 004a88f2 f i libcpmt:wlocale.obj
 0001:000a7907       ??G?$_String_iterator@V?$_String_val@U?$_Simple_types@_W@std@@@std@@@std@@QBE?AV01@H@Z 004a8907 f i libcpmt:wlocale.obj
 0001:000a791c       ??H?$_String_iterator@V?$_String_val@U?$_Simple_types@G@std@@@std@@@std@@QBE?AV01@H@Z 004a891c f i libcpmt:wlocale.obj
 0001:000a7930       ??H?$_String_iterator@V?$_String_val@U?$_Simple_types@_W@std@@@std@@@std@@QBE?AV01@H@Z 004a8930 f i libcpmt:wlocale.obj
 0001:000a7944       ??R<lambda_1>@?1??append@?$basic_string@GU?$char_traits@G@std@@V?$allocator@G@2@@std@@QAEAAV23@IG@Z@QBE@QAGQBGIIG@Z 004a8944 f i libcpmt:wlocale.obj
 0001:000a7980       ??R<lambda_1>@?1??append@?$basic_string@GU?$char_traits@G@std@@V?$allocator@G@2@@std@@QAEAAV23@QBGI@Z@QBE@QAG0I0I@Z 004a8980 f i libcpmt:wlocale.obj
 0001:000a79bf       ??R<lambda_1>@?1??append@?$basic_string@_WU?$char_traits@_W@std@@V?$allocator@_W@2@@std@@QAEAAV23@I_W@Z@QBE@QA_WQB_WII0@Z 004a89bf f i libcpmt:wlocale.obj
 0001:000a79fb       ??R<lambda_1>@?1??append@?$basic_string@_WU?$char_traits@_W@std@@V?$allocator@_W@2@@std@@QAEAAV23@QB_WI@Z@QBE@QA_W0I0I@Z 004a89fb f i libcpmt:wlocale.obj
 0001:000a7a3a       ??R<lambda_1>@?1??insert@?$basic_string@GU?$char_traits@G@std@@V?$allocator@G@2@@std@@QAEAAV23@IIG@Z@QBE@QAGQBGIIIG@Z 004a8a3a f i libcpmt:wlocale.obj
 0001:000a7a8d       ??R<lambda_1>@?1??insert@?$basic_string@_WU?$char_traits@_W@std@@V?$allocator@_W@2@@std@@QAEAAV23@II_W@Z@QBE@QA_WQB_WIII0@Z 004a8a8d f i libcpmt:wlocale.obj
 0001:000a7ae0       ??R<lambda_1>@?1??push_back@?$basic_string@GU?$char_traits@G@std@@V?$allocator@G@2@@std@@QAEXG@Z@QBE@QAGQBGIG@Z 004a8ae0 f i libcpmt:wlocale.obj
 0001:000a7b10       ??R<lambda_1>@?1??push_back@?$basic_string@_WU?$char_traits@_W@std@@V?$allocator@_W@2@@std@@QAEX_W@Z@QBE@QA_WQB_WI0@Z 004a8b10 f i libcpmt:wlocale.obj
 0001:000a7b40       ??Y?$_String_const_iterator@V?$_String_val@U?$_Simple_types@G@std@@@std@@@std@@QAEAAV01@H@Z 004a8b40 f i libcpmt:wlocale.obj
 0001:000a7b50       ??Y?$_String_const_iterator@V?$_String_val@U?$_Simple_types@_W@std@@@std@@@std@@QAEAAV01@H@Z 004a8b50 f i libcpmt:wlocale.obj
 0001:000a7b60       ??Y?$_String_iterator@V?$_String_val@U?$_Simple_types@G@std@@@std@@@std@@QAEAAV01@H@Z 004a8b60 f i libcpmt:wlocale.obj
 0001:000a7b70       ??Y?$_String_iterator@V?$_String_val@U?$_Simple_types@_W@std@@@std@@@std@@QAEAAV01@H@Z 004a8b70 f i libcpmt:wlocale.obj
 0001:000a7b80       ??Y?$basic_string@DU?$char_traits@D@std@@V?$allocator@D@2@@std@@QAEAAV01@D@Z 004a8b80 f i libcpmt:wlocale.obj
 0001:000a7b95       ??Y?$basic_string@GU?$char_traits@G@std@@V?$allocator@G@2@@std@@QAEAAV01@ABV01@@Z 004a8b95 f i libcpmt:wlocale.obj
 0001:000a7b9e       ??Y?$basic_string@_WU?$char_traits@_W@std@@V?$allocator@_W@2@@std@@QAEAAV01@ABV01@@Z 004a8b9e f i libcpmt:wlocale.obj
 0001:000a7ba7       ??Z?$_String_const_iterator@V?$_String_val@U?$_Simple_types@G@std@@@std@@@std@@QAEAAV01@H@Z 004a8ba7 f i libcpmt:wlocale.obj
 0001:000a7bb9       ??Z?$_String_const_iterator@V?$_String_val@U?$_Simple_types@_W@std@@@std@@@std@@QAEAAV01@H@Z 004a8bb9 f i libcpmt:wlocale.obj
 0001:000a7bcb       ??Z?$_String_iterator@V?$_String_val@U?$_Simple_types@G@std@@@std@@@std@@QAEAAV01@H@Z 004a8bcb f i libcpmt:wlocale.obj
 0001:000a7bdd       ??Z?$_String_iterator@V?$_String_val@U?$_Simple_types@_W@std@@@std@@@std@@QAEAAV01@H@Z 004a8bdd f i libcpmt:wlocale.obj
 0001:000a7bef       ??_E?$_Mpunct@G@std@@MAEPAXI@Z 004a8bef f i libcpmt:wlocale.obj
 0001:000a7bef       ??_G?$_Mpunct@G@std@@MAEPAXI@Z 004a8bef f i libcpmt:wlocale.obj
 0001:000a7c1d       ??_E?$_Mpunct@_W@std@@MAEPAXI@Z 004a8c1d f i libcpmt:wlocale.obj
 0001:000a7c1d       ??_G?$_Mpunct@_W@std@@MAEPAXI@Z 004a8c1d f i libcpmt:wlocale.obj
 0001:000a7c4b       ??_E?$codecvt@GDU_Mbstatet@@@std@@MAEPAXI@Z 004a8c4b f i libcpmt:wlocale.obj
 0001:000a7c4b       ??_G?$codecvt@GDU_Mbstatet@@@std@@MAEPAXI@Z 004a8c4b f i libcpmt:wlocale.obj
 0001:000a7c6e       ??_E?$codecvt@_WDU_Mbstatet@@@std@@MAEPAXI@Z 004a8c6e f i libcpmt:wlocale.obj
 0001:000a7c6e       ??_G?$codecvt@_WDU_Mbstatet@@@std@@MAEPAXI@Z 004a8c6e f i libcpmt:wlocale.obj
 0001:000a7c91       ??_E?$collate@G@std@@MAEPAXI@Z 004a8c91 f i libcpmt:wlocale.obj
 0001:000a7c91       ??_G?$collate@G@std@@MAEPAXI@Z 004a8c91 f i libcpmt:wlocale.obj
 0001:000a7cb3       ??_E?$collate@_W@std@@MAEPAXI@Z 004a8cb3 f i libcpmt:wlocale.obj
 0001:000a7cb3       ??_G?$collate@_W@std@@MAEPAXI@Z 004a8cb3 f i libcpmt:wlocale.obj
 0001:000a7cd5       ??_E?$ctype@G@std@@MAEPAXI@Z 004a8cd5 f i libcpmt:wlocale.obj
 0001:000a7cd5       ??_G?$ctype@G@std@@MAEPAXI@Z 004a8cd5 f i libcpmt:wlocale.obj
 0001:000a7cf7       ??_E?$ctype@_W@std@@MAEPAXI@Z 004a8cf7 f i libcpmt:wlocale.obj
 0001:000a7cf7       ??_G?$ctype@_W@std@@MAEPAXI@Z 004a8cf7 f i libcpmt:wlocale.obj
 0001:000a7d19       ??_E?$messages@G@std@@MAEPAXI@Z 004a8d19 f i libcpmt:wlocale.obj
 0001:000a7d19       ??_G?$messages@G@std@@MAEPAXI@Z 004a8d19 f i libcpmt:wlocale.obj
 0001:000a7d3c       ??_E?$messages@_W@std@@MAEPAXI@Z 004a8d3c f i libcpmt:wlocale.obj
 0001:000a7d3c       ??_G?$messages@_W@std@@MAEPAXI@Z 004a8d3c f i libcpmt:wlocale.obj
 0001:000a7d5f       ??_E?$money_get@GV?$istreambuf_iterator@GU?$char_traits@G@std@@@std@@@std@@MAEPAXI@Z 004a8d5f f i libcpmt:wlocale.obj
 0001:000a7d5f       ??_G?$money_get@GV?$istreambuf_iterator@GU?$char_traits@G@std@@@std@@@std@@MAEPAXI@Z 004a8d5f f i libcpmt:wlocale.obj
 0001:000a7d82       ??_E?$money_get@_WV?$istreambuf_iterator@_WU?$char_traits@_W@std@@@std@@@std@@MAEPAXI@Z 004a8d82 f i libcpmt:wlocale.obj
 0001:000a7d82       ??_G?$money_get@_WV?$istreambuf_iterator@_WU?$char_traits@_W@std@@@std@@@std@@MAEPAXI@Z 004a8d82 f i libcpmt:wlocale.obj
 0001:000a7da5       ??_E?$money_put@GV?$ostreambuf_iterator@GU?$char_traits@G@std@@@std@@@std@@MAEPAXI@Z 004a8da5 f i libcpmt:wlocale.obj
 0001:000a7da5       ??_G?$money_put@GV?$ostreambuf_iterator@GU?$char_traits@G@std@@@std@@@std@@MAEPAXI@Z 004a8da5 f i libcpmt:wlocale.obj
 0001:000a7dc8       ??_E?$money_put@_WV?$ostreambuf_iterator@_WU?$char_traits@_W@std@@@std@@@std@@MAEPAXI@Z 004a8dc8 f i libcpmt:wlocale.obj
 0001:000a7dc8       ??_G?$money_put@_WV?$ostreambuf_iterator@_WU?$char_traits@_W@std@@@std@@@std@@MAEPAXI@Z 004a8dc8 f i libcpmt:wlocale.obj
 0001:000a7deb       ??_E?$moneypunct@G$00@std@@MAEPAXI@Z 004a8deb f i libcpmt:wlocale.obj
 0001:000a7deb       ??_G?$moneypunct@G$00@std@@MAEPAXI@Z 004a8deb f i libcpmt:wlocale.obj
 0001:000a7e19       ??_E?$moneypunct@G$0A@@std@@MAEPAXI@Z 004a8e19 f i libcpmt:wlocale.obj
 0001:000a7e19       ??_G?$moneypunct@G$0A@@std@@MAEPAXI@Z 004a8e19 f i libcpmt:wlocale.obj
 0001:000a7e47       ??_E?$moneypunct@_W$00@std@@MAEPAXI@Z 004a8e47 f i libcpmt:wlocale.obj
 0001:000a7e47       ??_G?$moneypunct@_W$00@std@@MAEPAXI@Z 004a8e47 f i libcpmt:wlocale.obj
 0001:000a7e75       ??_E?$moneypunct@_W$0A@@std@@MAEPAXI@Z 004a8e75 f i libcpmt:wlocale.obj
 0001:000a7e75       ??_G?$moneypunct@_W$0A@@std@@MAEPAXI@Z 004a8e75 f i libcpmt:wlocale.obj
 0001:000a7ea3       ??_E?$num_get@GV?$istreambuf_iterator@GU?$char_traits@G@std@@@std@@@std@@MAEPAXI@Z 004a8ea3 f i libcpmt:wlocale.obj
 0001:000a7ea3       ??_G?$num_get@GV?$istreambuf_iterator@GU?$char_traits@G@std@@@std@@@std@@MAEPAXI@Z 004a8ea3 f i libcpmt:wlocale.obj
 0001:000a7ec6       ??_E?$num_get@_WV?$istreambuf_iterator@_WU?$char_traits@_W@std@@@std@@@std@@MAEPAXI@Z 004a8ec6 f i libcpmt:wlocale.obj
 0001:000a7ec6       ??_G?$num_get@_WV?$istreambuf_iterator@_WU?$char_traits@_W@std@@@std@@@std@@MAEPAXI@Z 004a8ec6 f i libcpmt:wlocale.obj
 0001:000a7ee9       ??_E?$num_put@GV?$ostreambuf_iterator@GU?$char_traits@G@std@@@std@@@std@@MAEPAXI@Z 004a8ee9 f i libcpmt:wlocale.obj
 0001:000a7ee9       ??_G?$num_put@GV?$ostreambuf_iterator@GU?$char_traits@G@std@@@std@@@std@@MAEPAXI@Z 004a8ee9 f i libcpmt:wlocale.obj
 0001:000a7f0c       ??_E?$num_put@_WV?$ostreambuf_iterator@_WU?$char_traits@_W@std@@@std@@@std@@MAEPAXI@Z 004a8f0c f i libcpmt:wlocale.obj
 0001:000a7f0c       ??_G?$num_put@_WV?$ostreambuf_iterator@_WU?$char_traits@_W@std@@@std@@@std@@MAEPAXI@Z 004a8f0c f i libcpmt:wlocale.obj
 0001:000a7f2f       ??_E?$numpunct@G@std@@MAEPAXI@Z 004a8f2f f i libcpmt:wlocale.obj
 0001:000a7f2f       ??_G?$numpunct@G@std@@MAEPAXI@Z 004a8f2f f i libcpmt:wlocale.obj
 0001:000a7f5d       ??_E?$numpunct@_W@std@@MAEPAXI@Z 004a8f5d f i libcpmt:wlocale.obj
 0001:000a7f5d       ??_G?$numpunct@_W@std@@MAEPAXI@Z 004a8f5d f i libcpmt:wlocale.obj
 0001:000a7f8b       ??_E?$time_get@GV?$istreambuf_iterator@GU?$char_traits@G@std@@@std@@@std@@MAEPAXI@Z 004a8f8b f i libcpmt:wlocale.obj
 0001:000a7f8b       ??_G?$time_get@GV?$istreambuf_iterator@GU?$char_traits@G@std@@@std@@@std@@MAEPAXI@Z 004a8f8b f i libcpmt:wlocale.obj
 0001:000a7fb9       ??_E?$time_get@_WV?$istreambuf_iterator@_WU?$char_traits@_W@std@@@std@@@std@@MAEPAXI@Z 004a8fb9 f i libcpmt:wlocale.obj
 0001:000a7fb9       ??_G?$time_get@_WV?$istreambuf_iterator@_WU?$char_traits@_W@std@@@std@@@std@@MAEPAXI@Z 004a8fb9 f i libcpmt:wlocale.obj
 0001:000a7fe7       ??_E?$time_put@GV?$ostreambuf_iterator@GU?$char_traits@G@std@@@std@@@std@@MAEPAXI@Z 004a8fe7 f i libcpmt:wlocale.obj
 0001:000a7fe7       ??_G?$time_put@GV?$ostreambuf_iterator@GU?$char_traits@G@std@@@std@@@std@@MAEPAXI@Z 004a8fe7 f i libcpmt:wlocale.obj
 0001:000a8009       ??_E?$time_put@_WV?$ostreambuf_iterator@_WU?$char_traits@_W@std@@@std@@@std@@MAEPAXI@Z 004a9009 f i libcpmt:wlocale.obj
 0001:000a8009       ??_G?$time_put@_WV?$ostreambuf_iterator@_WU?$char_traits@_W@std@@@std@@@std@@MAEPAXI@Z 004a9009 f i libcpmt:wlocale.obj
 0001:000a802b       ??_Emessages_base@std@@UAEPAXI@Z 004a902b f i libcpmt:wlocale.obj
 0001:000a802b       ??_Gmessages_base@std@@UAEPAXI@Z 004a902b f i libcpmt:wlocale.obj
 0001:000a804e       ??_Emoney_base@std@@UAEPAXI@Z 004a904e f i libcpmt:wlocale.obj
 0001:000a804e       ??_Gmoney_base@std@@UAEPAXI@Z 004a904e f i libcpmt:wlocale.obj
 0001:000a8071       ??_Etime_base@std@@UAEPAXI@Z 004a9071 f i libcpmt:wlocale.obj
 0001:000a8071       ??_Gtime_base@std@@UAEPAXI@Z 004a9071 f i libcpmt:wlocale.obj
 0001:000a8094       ?_Activate_SSO_buffer@?$_String_val@U?$_Simple_types@G@std@@@std@@QAEXXZ 004a9094 f i libcpmt:wlocale.obj
 0001:000a8097       ?_Activate_SSO_buffer@?$_String_val@U?$_Simple_types@_W@std@@@std@@QAEXXZ 004a9097 f i libcpmt:wlocale.obj
 0001:000a809a       ?_Adopt@_Iterator_base0@std@@QAEXPBX@Z 004a909a f i libcpmt:wlocale.obj
 0001:000a809d       ?_C_str@?$_Yarn@_W@std@@QBEPB_WXZ 004a909d f i libcpmt:wlocale.obj
 0001:000a80a7       ?_Calculate_growth@?$basic_string@GU?$char_traits@G@std@@V?$allocator@G@2@@std@@ABEII@Z 004a90a7 f i libcpmt:wlocale.obj
 0001:000a80c1       ?_Calculate_growth@?$basic_string@GU?$char_traits@G@std@@V?$allocator@G@2@@std@@CAIIII@Z 004a90c1 f i libcpmt:wlocale.obj
 0001:000a80f1       ?_Calculate_growth@?$basic_string@_WU?$char_traits@_W@std@@V?$allocator@_W@2@@std@@ABEII@Z 004a90f1 f i libcpmt:wlocale.obj
 0001:000a810b       ?_Calculate_growth@?$basic_string@_WU?$char_traits@_W@std@@V?$allocator@_W@2@@std@@CAIIII@Z 004a910b f i libcpmt:wlocale.obj
 0001:000a813b       ?_Check_offset@?$_String_val@U?$_Simple_types@G@std@@@std@@QBEXI@Z 004a913b f i libcpmt:wlocale.obj
 0001:000a8150       ?_Check_offset@?$_String_val@U?$_Simple_types@_W@std@@@std@@QBEXI@Z 004a9150 f i libcpmt:wlocale.obj
 0001:000a8165       ?_Compat@?$_String_const_iterator@V?$_String_val@U?$_Simple_types@G@std@@@std@@@std@@QBEXABV12@@Z 004a9165 f i libcpmt:wlocale.obj
 0001:000a8168       ?_Compat@?$_String_const_iterator@V?$_String_val@U?$_Simple_types@_W@std@@@std@@@std@@QBEXABV12@@Z 004a9168 f i libcpmt:wlocale.obj
 0001:000a816b       ?_Donarrow@?$ctype@G@std@@IBEDGD@Z 004a916b f i libcpmt:wlocale.obj
 0001:000a81b3       ?_Donarrow@?$ctype@_W@std@@IBED_WD@Z 004a91b3 f i libcpmt:wlocale.obj
 0001:000a81fb       ?_Dowiden@?$ctype@G@std@@IBEGD@Z 004a91fb f i libcpmt:wlocale.obj
 0001:000a8236       ?_Dowiden@?$ctype@_W@std@@IBE_WD@Z 004a9236 f i libcpmt:wlocale.obj
 0001:000a826f       ?_Empty@?$_Yarn@_W@std@@QBE_NXZ 004a926f f i libcpmt:wlocale.obj
 0001:000a8276       ?_Eos@?$basic_string@GU?$char_traits@G@std@@V?$allocator@G@2@@std@@AAEXI@Z 004a9276 f i libcpmt:wlocale.obj
 0001:000a8293       ?_Eos@?$basic_string@_WU?$char_traits@_W@std@@V?$allocator@_W@2@@std@@AAEXI@Z 004a9293 f i libcpmt:wlocale.obj
 0001:000a82b0       ?_Ffmt@?$num_put@GV?$ostreambuf_iterator@GU?$char_traits@G@std@@@std@@@std@@ABAPADPADDH@Z 004a92b0 f i libcpmt:wlocale.obj
 0001:000a8345       ?_Ffmt@?$num_put@_WV?$ostreambuf_iterator@_WU?$char_traits@_W@std@@@std@@@std@@ABAPADPADDH@Z 004a9345 f i libcpmt:wlocale.obj
 0001:000a83da       ?_Fnv1a_append_bytes@std@@YAIIQBEI@Z 004a93da f i libcpmt:wlocale.obj
 0001:000a8402       ?_Fput@?$num_put@GV?$ostreambuf_iterator@GU?$char_traits@G@std@@@std@@@std@@ABA?AV?$ostreambuf_iterator@GU?$char_traits@G@std@@@2@V32@AAVios_base@2@GPBDI@Z 004a9402 f i libcpmt:wlocale.obj
 0001:000a8747       ?_Fput@?$num_put@_WV?$ostreambuf_iterator@_WU?$char_traits@_W@std@@@std@@@std@@ABA?AV?$ostreambuf_iterator@_WU?$char_traits@_W@std@@@2@V32@AAVios_base@2@_WPBDI@Z 004a9747 f i libcpmt:wlocale.obj
 0001:000a8a8c       ?_Get_first@?$_Compressed_pair@V?$allocator@G@std@@V?$_String_val@U?$_Simple_types@G@std@@@2@$00@std@@QAEAAV?$allocator@G@2@XZ 004a9a8c f i libcpmt:wlocale.obj
 0001:000a8a8f       ?_Get_first@?$_Compressed_pair@V?$allocator@G@std@@V?$_String_val@U?$_Simple_types@G@std@@@2@$00@std@@QBEABV?$allocator@G@2@XZ 004a9a8f f i libcpmt:wlocale.obj
 0001:000a8a92       ?_Get_first@?$_Compressed_pair@V?$allocator@_W@std@@V?$_String_val@U?$_Simple_types@_W@std@@@2@$00@std@@QAEAAV?$allocator@_W@2@XZ 004a9a92 f i libcpmt:wlocale.obj
 0001:000a8a95       ?_Get_first@?$_Compressed_pair@V?$allocator@_W@std@@V?$_String_val@U?$_Simple_types@_W@std@@@2@$00@std@@QBEABV?$allocator@_W@2@XZ 004a9a95 f i libcpmt:wlocale.obj
 0001:000a8a98       ?_Getal@?$basic_string@GU?$char_traits@G@std@@V?$allocator@G@2@@std@@AAEAAV?$allocator@G@2@XZ 004a9a98 f i libcpmt:wlocale.obj
 0001:000a8a9b       ?_Getal@?$basic_string@GU?$char_traits@G@std@@V?$allocator@G@2@@std@@ABEABV?$allocator@G@2@XZ 004a9a9b f i libcpmt:wlocale.obj
 0001:000a8a9e       ?_Getal@?$basic_string@_WU?$char_traits@_W@std@@V?$allocator@_W@2@@std@@AAEAAV?$allocator@_W@2@XZ 004a9a9e f i libcpmt:wlocale.obj
 0001:000a8aa1       ?_Getal@?$basic_string@_WU?$char_traits@_W@std@@V?$allocator@_W@2@@std@@ABEABV?$allocator@_W@2@XZ 004a9aa1 f i libcpmt:wlocale.obj
 0001:000a8aa4       ?_Getcat@?$codecvt@GDU_Mbstatet@@@std@@SAIPAPBVfacet@locale@2@PBV42@@Z 004a9aa4 f i libcpmt:wlocale.obj
 0001:000a8b0a       ?_Getcat@?$codecvt@_WDU_Mbstatet@@@std@@SAIPAPBVfacet@locale@2@PBV42@@Z 004a9b0a f i libcpmt:wlocale.obj
 0001:000a8b70       ?_Getcat@?$collate@G@std@@SAIPAPBVfacet@locale@2@PBV42@@Z 004a9b70 f i libcpmt:wlocale.obj
 0001:000a8c12       ?_Getcat@?$collate@_W@std@@SAIPAPBVfacet@locale@2@PBV42@@Z 004a9c12 f i libcpmt:wlocale.obj
 0001:000a8cb4       ?_Getcat@?$ctype@G@std@@SAIPAPBVfacet@locale@2@PBV42@@Z 004a9cb4 f i libcpmt:wlocale.obj
 0001:000a8d24       ?_Getcat@?$ctype@_W@std@@SAIPAPBVfacet@locale@2@PBV42@@Z 004a9d24 f i libcpmt:wlocale.obj
 0001:000a8d94       ?_Getcat@?$messages@G@std@@SAIPAPBVfacet@locale@2@PBV42@@Z 004a9d94 f i libcpmt:wlocale.obj
 0001:000a8dfc       ?_Getcat@?$messages@_W@std@@SAIPAPBVfacet@locale@2@PBV42@@Z 004a9dfc f i libcpmt:wlocale.obj
 0001:000a8e64       ?_Getcat@?$money_get@GV?$istreambuf_iterator@GU?$char_traits@G@std@@@std@@@std@@SAIPAPBVfacet@locale@2@PBV42@@Z 004a9e64 f i libcpmt:wlocale.obj
 0001:000a8ecc       ?_Getcat@?$money_get@_WV?$istreambuf_iterator@_WU?$char_traits@_W@std@@@std@@@std@@SAIPAPBVfacet@locale@2@PBV42@@Z 004a9ecc f i libcpmt:wlocale.obj
 0001:000a8f34       ?_Getcat@?$money_put@GV?$ostreambuf_iterator@GU?$char_traits@G@std@@@std@@@std@@SAIPAPBVfacet@locale@2@PBV42@@Z 004a9f34 f i libcpmt:wlocale.obj
 0001:000a8f9c       ?_Getcat@?$money_put@_WV?$ostreambuf_iterator@_WU?$char_traits@_W@std@@@std@@@std@@SAIPAPBVfacet@locale@2@PBV42@@Z 004a9f9c f i libcpmt:wlocale.obj
 0001:000a9004       ?_Getcat@?$moneypunct@G$00@std@@SAIPAPBVfacet@locale@2@PBV42@@Z 004aa004 f i libcpmt:wlocale.obj
 0001:000a9088       ?_Getcat@?$moneypunct@G$0A@@std@@SAIPAPBVfacet@locale@2@PBV42@@Z 004aa088 f i libcpmt:wlocale.obj
 0001:000a910d       ?_Getcat@?$moneypunct@_W$00@std@@SAIPAPBVfacet@locale@2@PBV42@@Z 004aa10d f i libcpmt:wlocale.obj
 0001:000a9191       ?_Getcat@?$moneypunct@_W$0A@@std@@SAIPAPBVfacet@locale@2@PBV42@@Z 004aa191 f i libcpmt:wlocale.obj
 0001:000a9216       ?_Getcat@?$num_get@GV?$istreambuf_iterator@GU?$char_traits@G@std@@@std@@@std@@SAIPAPBVfacet@locale@2@PBV42@@Z 004aa216 f i libcpmt:wlocale.obj
 0001:000a927e       ?_Getcat@?$num_get@_WV?$istreambuf_iterator@_WU?$char_traits@_W@std@@@std@@@std@@SAIPAPBVfacet@locale@2@PBV42@@Z 004aa27e f i libcpmt:wlocale.obj
 0001:000a92e6       ?_Getcat@?$num_put@GV?$ostreambuf_iterator@GU?$char_traits@G@std@@@std@@@std@@SAIPAPBVfacet@locale@2@PBV42@@Z 004aa2e6 f i libcpmt:wlocale.obj
 0001:000a934e       ?_Getcat@?$num_put@_WV?$ostreambuf_iterator@_WU?$char_traits@_W@std@@@std@@@std@@SAIPAPBVfacet@locale@2@PBV42@@Z 004aa34e f i libcpmt:wlocale.obj
 0001:000a93b6       ?_Getcat@?$numpunct@G@std@@SAIPAPBVfacet@locale@2@PBV42@@Z 004aa3b6 f i libcpmt:wlocale.obj
 0001:000a9431       ?_Getcat@?$numpunct@_W@std@@SAIPAPBVfacet@locale@2@PBV42@@Z 004aa431 f i libcpmt:wlocale.obj
 0001:000a94ac       ?_Getcat@?$time_get@GV?$istreambuf_iterator@GU?$char_traits@G@std@@@std@@@std@@SAIPAPBVfacet@locale@2@PBV42@@Z 004aa4ac f i libcpmt:wlocale.obj
 0001:000a9518       ?_Getcat@?$time_get@_WV?$istreambuf_iterator@_WU?$char_traits@_W@std@@@std@@@std@@SAIPAPBVfacet@locale@2@PBV42@@Z 004aa518 f i libcpmt:wlocale.obj
 0001:000a9584       ?_Getcat@?$time_put@GV?$ostreambuf_iterator@GU?$char_traits@G@std@@@std@@@std@@SAIPAPBVfacet@locale@2@PBV42@@Z 004aa584 f i libcpmt:wlocale.obj
 0001:000a95f8       ?_Getcat@?$time_put@_WV?$ostreambuf_iterator@_WU?$char_traits@_W@std@@@std@@@std@@SAIPAPBVfacet@locale@2@PBV42@@Z 004aa5f8 f i libcpmt:wlocale.obj
 0001:000a966c       ?_Getcoll@_Locinfo@std@@QBE?AU_Collvec@@XZ 004aa66c f i libcpmt:wlocale.obj
 0001:000a9682       ?_Getdateorder@_Locinfo@std@@QBEHXZ 004aa682 f i libcpmt:wlocale.obj
 0001:000a9687       ?_Getdays@_Locinfo@std@@QBEPBDXZ 004aa687 f i libcpmt:wlocale.obj
 0001:000a96b5       ?_Getffld@?$num_get@GV?$istreambuf_iterator@GU?$char_traits@G@std@@@std@@@std@@ABAHPADAAV?$istreambuf_iterator@GU?$char_traits@G@std@@@2@1AAVios_base@2@PAH@Z 004aa6b5 f i libcpmt:wlocale.obj
 0001:000a9d82       ?_Getffld@?$num_get@_WV?$istreambuf_iterator@_WU?$char_traits@_W@std@@@std@@@std@@ABAHPADAAV?$istreambuf_iterator@_WU?$char_traits@_W@std@@@2@1AAVios_base@2@PAH@Z 004aad82 f i libcpmt:wlocale.obj
 0001:000aa44f       ?_Getffldx@?$num_get@GV?$istreambuf_iterator@GU?$char_traits@G@std@@@std@@@std@@ABAHPADAAV?$istreambuf_iterator@GU?$char_traits@G@std@@@2@1AAVios_base@2@PAH@Z 004ab44f f i libcpmt:wlocale.obj
 0001:000aab89       ?_Getffldx@?$num_get@_WV?$istreambuf_iterator@_WU?$char_traits@_W@std@@@std@@@std@@ABAHPADAAV?$istreambuf_iterator@_WU?$char_traits@_W@std@@@2@1AAVios_base@2@PAH@Z 004abb89 f i libcpmt:wlocale.obj
 0001:000ab2c3       ?_Getfmt@?$time_get@GV?$istreambuf_iterator@GU?$char_traits@G@std@@@std@@@std@@IBE?AV?$istreambuf_iterator@GU?$char_traits@G@std@@@2@V32@0AAVios_base@2@AAHPAUtm@@PBD@Z 004ac2c3 f i libcpmt:wlocale.obj
 0001:000ab42b       ?_Getfmt@?$time_get@_WV?$istreambuf_iterator@_WU?$char_traits@_W@std@@@std@@@std@@IBE?AV?$istreambuf_iterator@_WU?$char_traits@_W@std@@@2@V32@0AAVios_base@2@AAHPAUtm@@PBD@Z 004ac42b f i libcpmt:wlocale.obj
 0001:000ab593       ?_Getifld@?$num_get@GV?$istreambuf_iterator@GU?$char_traits@G@std@@@std@@@std@@ABAHPADAAV?$istreambuf_iterator@GU?$char_traits@G@std@@@2@1HABVlocale@2@@Z 004ac593 f i libcpmt:wlocale.obj
 0001:000ab99f       ?_Getifld@?$num_get@_WV?$istreambuf_iterator@_WU?$char_traits@_W@std@@@std@@@std@@ABAHPADAAV?$istreambuf_iterator@_WU?$char_traits@_W@std@@@2@1HABVlocale@2@@Z 004ac99f f i libcpmt:wlocale.obj
 0001:000abdab       ?_Getint@?$time_get@GV?$istreambuf_iterator@GU?$char_traits@G@std@@@std@@@std@@ABAHAAV?$istreambuf_iterator@GU?$char_traits@G@std@@@2@0HHAAHABV?$ctype@G@2@@Z 004acdab f i libcpmt:wlocale.obj
 0001:000abdcf       ?_Getint@?$time_get@_WV?$istreambuf_iterator@_WU?$char_traits@_W@std@@@std@@@std@@ABAHAAV?$istreambuf_iterator@_WU?$char_traits@_W@std@@@2@0HHAAHABV?$ctype@_W@2@@Z 004acdcf f i libcpmt:wlocale.obj
 0001:000abdf3       ?_Getmfld@?$money_get@GV?$istreambuf_iterator@GU?$char_traits@G@std@@@std@@@std@@ABE?AV?$basic_string@DU?$char_traits@D@std@@V?$allocator@D@2@@2@AAV?$istreambuf_iterator@GU?$char_traits@G@std@@@2@0_NAAVios_base@2@AAY0M@G@Z 004acdf3 f i libcpmt:wlocale.obj
 0001:000ac886       ?_Getmfld@?$money_get@_WV?$istreambuf_iterator@_WU?$char_traits@_W@std@@@std@@@std@@ABE?AV?$basic_string@DU?$char_traits@D@std@@V?$allocator@D@2@@2@AAV?$istreambuf_iterator@_WU?$char_traits@_W@std@@@2@0_NAAVios_base@2@AAY0M@_W@Z 004ad886 f i libcpmt:wlocale.obj
 0001:000ad319       ?_Getmonths@_Locinfo@std@@QBEPBDXZ 004ae319 f i libcpmt:wlocale.obj
 0001:000ad347       ?_Getptr@_Timevec@std@@QBEPAXXZ 004ae347 f i libcpmt:wlocale.obj
 0001:000ad34a       ?_Getvals@?$_Mpunct@_W@std@@IAEX_WPBUlconv@@@Z 004ae34a f i libcpmt:wlocale.obj
 0001:000ad3b6       ?_Getvals@?$numpunct@_W@std@@IAEX_WPBUlconv@@U_Cvtvec@@@Z 004ae3b6 f i libcpmt:wlocale.obj
 0001:000ad3d4       ?_Gnavail@?$basic_streambuf@GU?$char_traits@G@std@@@std@@IBE_JXZ 004ae3d4 f i libcpmt:wlocale.obj
 0001:000ad3e6       ?_Gnavail@?$basic_streambuf@_WU?$char_traits@_W@std@@@std@@IBE_JXZ 004ae3e6 f i libcpmt:wlocale.obj
 0001:000ad3f8       ?_Gninc@?$basic_streambuf@GU?$char_traits@G@std@@@std@@IAEPAGXZ 004ae3f8 f i libcpmt:wlocale.obj
 0001:000ad408       ?_Gninc@?$basic_streambuf@_WU?$char_traits@_W@std@@@std@@IAEPA_WXZ 004ae408 f i libcpmt:wlocale.obj
 0001:000ad418       ?_Ifmt@?$num_put@GV?$ostreambuf_iterator@GU?$char_traits@G@std@@@std@@@std@@ABAPADPADPBDH@Z 004ae418 f i libcpmt:wlocale.obj
 0001:000ad48d       ?_Ifmt@?$num_put@_WV?$ostreambuf_iterator@_WU?$char_traits@_W@std@@@std@@@std@@ABAPADPADPBDH@Z 004ae48d f i libcpmt:wlocale.obj
 0001:000ad502       ?_Inc@?$istreambuf_iterator@GU?$char_traits@G@std@@@std@@AAEXXZ 004ae502 f i libcpmt:wlocale.obj
 0001:000ad528       ?_Inc@?$istreambuf_iterator@_WU?$char_traits@_W@std@@@std@@AAEXXZ 004ae528 f i libcpmt:wlocale.obj
 0001:000ad54e       ?_Init@?$_Mpunct@G@std@@IAEXABV_Locinfo@2@_N@Z 004ae54e f i libcpmt:wlocale.obj
 0001:000ad619       ?_Init@?$_Mpunct@_W@std@@IAEXABV_Locinfo@2@_N@Z 004ae619 f i libcpmt:wlocale.obj
 0001:000ad6e4       ?_Init@?$codecvt@GDU_Mbstatet@@@std@@IAEXABV_Locinfo@2@@Z 004ae6e4 f i libcpmt:wlocale.obj
 0001:000ad708       ?_Init@?$codecvt@_WDU_Mbstatet@@@std@@IAEXABV_Locinfo@2@@Z 004ae708 f i libcpmt:wlocale.obj
 0001:000ad72c       ?_Init@?$collate@G@std@@IAEXABV_Locinfo@2@@Z 004ae72c f i libcpmt:wlocale.obj
 0001:000ad73e       ?_Init@?$collate@_W@std@@IAEXABV_Locinfo@2@@Z 004ae73e f i libcpmt:wlocale.obj
 0001:000ad750       ?_Init@?$ctype@G@std@@IAEXABV_Locinfo@2@@Z 004ae750 f i libcpmt:wlocale.obj
 0001:000ad789       ?_Init@?$ctype@_W@std@@IAEXABV_Locinfo@2@@Z 004ae789 f i libcpmt:wlocale.obj
 0001:000ad7c2       ?_Init@?$messages@G@std@@IAEXABV_Locinfo@2@@Z 004ae7c2 f i libcpmt:wlocale.obj
 0001:000ad7c5       ?_Init@?$messages@_W@std@@IAEXABV_Locinfo@2@@Z 004ae7c5 f i libcpmt:wlocale.obj
 0001:000ad7c8       ?_Init@?$money_get@GV?$istreambuf_iterator@GU?$char_traits@G@std@@@std@@@std@@IAEXABV_Locinfo@2@@Z 004ae7c8 f i libcpmt:wlocale.obj
 0001:000ad7cb       ?_Init@?$money_get@_WV?$istreambuf_iterator@_WU?$char_traits@_W@std@@@std@@@std@@IAEXABV_Locinfo@2@@Z 004ae7cb f i libcpmt:wlocale.obj
 0001:000ad7ce       ?_Init@?$money_put@GV?$ostreambuf_iterator@GU?$char_traits@G@std@@@std@@@std@@IAEXABV_Locinfo@2@@Z 004ae7ce f i libcpmt:wlocale.obj
 0001:000ad7d1       ?_Init@?$money_put@_WV?$ostreambuf_iterator@_WU?$char_traits@_W@std@@@std@@@std@@IAEXABV_Locinfo@2@@Z 004ae7d1 f i libcpmt:wlocale.obj
 0001:000ad7d4       ?_Init@?$num_get@GV?$istreambuf_iterator@GU?$char_traits@G@std@@@std@@@std@@IAEXABV_Locinfo@2@@Z 004ae7d4 f i libcpmt:wlocale.obj
 0001:000ad7d7       ?_Init@?$num_get@_WV?$istreambuf_iterator@_WU?$char_traits@_W@std@@@std@@@std@@IAEXABV_Locinfo@2@@Z 004ae7d7 f i libcpmt:wlocale.obj
 0001:000ad7da       ?_Init@?$num_put@GV?$ostreambuf_iterator@GU?$char_traits@G@std@@@std@@@std@@IAEXABV_Locinfo@2@@Z 004ae7da f i libcpmt:wlocale.obj
 0001:000ad7dd       ?_Init@?$num_put@_WV?$ostreambuf_iterator@_WU?$char_traits@_W@std@@@std@@@std@@IAEXABV_Locinfo@2@@Z 004ae7dd f i libcpmt:wlocale.obj
 0001:000ad7e0       ?_Init@?$numpunct@G@std@@IAEXABV_Locinfo@2@_N@Z 004ae7e0 f i libcpmt:wlocale.obj
 0001:000ad8b9       ?_Init@?$numpunct@_W@std@@IAEXABV_Locinfo@2@_N@Z 004ae8b9 f i libcpmt:wlocale.obj
 0001:000ad98a       ?_Init@?$time_get@GV?$istreambuf_iterator@GU?$char_traits@G@std@@@std@@@std@@IAEXABV_Locinfo@2@@Z 004ae98a f i libcpmt:wlocale.obj
 0001:000ad9c2       ?_Init@?$time_get@_WV?$istreambuf_iterator@_WU?$char_traits@_W@std@@@std@@@std@@IAEXABV_Locinfo@2@@Z 004ae9c2 f i libcpmt:wlocale.obj
 0001:000ad9fa       ?_Init@?$time_put@GV?$ostreambuf_iterator@GU?$char_traits@G@std@@@std@@@std@@IAEXABV_Locinfo@2@@Z 004ae9fa f i libcpmt:wlocale.obj
 0001:000ada23       ?_Init@?$time_put@_WV?$ostreambuf_iterator@_WU?$char_traits@_W@std@@@std@@@std@@IAEXABV_Locinfo@2@@Z 004aea23 f i libcpmt:wlocale.obj
 0001:000ada4c       ?_Iput@?$num_put@GV?$ostreambuf_iterator@GU?$char_traits@G@std@@@std@@@std@@ABA?AV?$ostreambuf_iterator@GU?$char_traits@G@std@@@2@V32@AAVios_base@2@GPADI@Z 004aea4c f i libcpmt:wlocale.obj
 0001:000add3f       ?_Iput@?$num_put@_WV?$ostreambuf_iterator@_WU?$char_traits@_W@std@@@std@@@std@@ABA?AV?$ostreambuf_iterator@_WU?$char_traits@_W@std@@@2@V32@AAVios_base@2@_WPADI@Z 004aed3f f i libcpmt:wlocale.obj
 0001:000ae032       ?_Large_string_engaged@?$_String_val@U?$_Simple_types@G@std@@@std@@QBE_NXZ 004af032 f i libcpmt:wlocale.obj
 0001:000ae03b       ?_Large_string_engaged@?$_String_val@U?$_Simple_types@_W@std@@@std@@QBE_NXZ 004af03b f i libcpmt:wlocale.obj
 0001:000ae044       ?_Makestr@_System_error@std@@CA?AV?$basic_string@DU?$char_traits@D@std@@V?$allocator@D@2@@2@Verror_code@2@V32@@Z 004af044 f i libcpmt:wlocale.obj
 0001:000ae0b7       ?_Makeushloc@_Locimp@locale@std@@CAXABV_Locinfo@3@HPAV123@PBV23@@Z 004af0b7 f   libcpmt:wlocale.obj
 0001:000ae593       ?_Makewloc@_Locimp@locale@std@@CAXABV_Locinfo@3@HPAV123@PBV23@@Z 004af593 f   libcpmt:wlocale.obj
 0001:000aea6f       ?_Maklocwcs@std@@YAPA_WPB_W@Z 004afa6f f i libcpmt:wlocale.obj
 0001:000aeab8       ?_Makpat@?$_Mpunct@G@std@@AAEXAAUpattern@money_base@2@III@Z 004afab8 f i libcpmt:wlocale.obj
 0001:000aeaf9       ?_Makpat@?$_Mpunct@_W@std@@AAEXAAUpattern@money_base@2@III@Z 004afaf9 f i libcpmt:wlocale.obj
 0001:000aeb3a       ?_Memcpy_val_from@?$basic_string@GU?$char_traits@G@std@@V?$allocator@G@2@@std@@AAEXABV12@@Z 004afb3a f i libcpmt:wlocale.obj
 0001:000aeb4f       ?_Memcpy_val_from@?$basic_string@_WU?$char_traits@_W@std@@V?$allocator@_W@2@@std@@AAEXABV12@@Z 004afb4f f i libcpmt:wlocale.obj
 0001:000aeb64       ?_Myptr@?$_String_val@U?$_Simple_types@G@std@@@std@@QAEPAGXZ 004afb64 f i libcpmt:wlocale.obj
 0001:000aeb6f       ?_Myptr@?$_String_val@U?$_Simple_types@G@std@@@std@@QBEPBGXZ 004afb6f f i libcpmt:wlocale.obj
 0001:000aeb7a       ?_Myptr@?$_String_val@U?$_Simple_types@_W@std@@@std@@QAEPA_WXZ 004afb7a f i libcpmt:wlocale.obj
 0001:000aeb85       ?_Myptr@?$_String_val@U?$_Simple_types@_W@std@@@std@@QBEPB_WXZ 004afb85 f i libcpmt:wlocale.obj
 0001:000aeb90       ?_Peek@?$istreambuf_iterator@GU?$char_traits@G@std@@@std@@ABEGXZ 004afb90 f i libcpmt:wlocale.obj
 0001:000aebbe       ?_Peek@?$istreambuf_iterator@_WU?$char_traits@_W@std@@@std@@ABE_WXZ 004afbbe f i libcpmt:wlocale.obj
 0001:000aebec       ?_Pnavail@?$basic_streambuf@GU?$char_traits@G@std@@@std@@IBE_JXZ 004afbec f i libcpmt:wlocale.obj
 0001:000aebfe       ?_Pnavail@?$basic_streambuf@_WU?$char_traits@_W@std@@@std@@IBE_JXZ 004afbfe f i libcpmt:wlocale.obj
 0001:000aec10       ?_Pninc@?$basic_streambuf@GU?$char_traits@G@std@@@std@@IAEPAGXZ 004afc10 f i libcpmt:wlocale.obj
 0001:000aec20       ?_Pninc@?$basic_streambuf@_WU?$char_traits@_W@std@@@std@@IAEPA_WXZ 004afc20 f i libcpmt:wlocale.obj
 0001:000aec30       ?_Put@?$money_put@GV?$ostreambuf_iterator@GU?$char_traits@G@std@@@std@@@std@@CA?AV?$ostreambuf_iterator@GU?$char_traits@G@std@@@2@V32@V?$_String_const_iterator@V?$_String_val@U?$_Simple_types@G@std@@@std@@@2@I@Z 004afc30 f i libcpmt:wlocale.obj
 0001:000aec69       ?_Put@?$money_put@_WV?$ostreambuf_iterator@_WU?$char_traits@_W@std@@@std@@@std@@CA?AV?$ostreambuf_iterator@_WU?$char_traits@_W@std@@@2@V32@V?$_String_const_iterator@V?$_String_val@U?$_Simple_types@_W@std@@@std@@@2@I@Z 004afc69 f i libcpmt:wlocale.obj
 0001:000aeca2       ?_Put@?$num_put@GV?$ostreambuf_iterator@GU?$char_traits@G@std@@@std@@@std@@ABA?AV?$ostreambuf_iterator@GU?$char_traits@G@std@@@2@V32@PBGI@Z 004afca2 f i libcpmt:wlocale.obj
 0001:000aecd7       ?_Put@?$num_put@_WV?$ostreambuf_iterator@_WU?$char_traits@_W@std@@@std@@@std@@ABA?AV?$ostreambuf_iterator@_WU?$char_traits@_W@std@@@2@V32@PB_WI@Z 004afcd7 f i libcpmt:wlocale.obj
 0001:000aed0c       ?_Putmfld@?$money_put@GV?$ostreambuf_iterator@GU?$char_traits@G@std@@@std@@@std@@ABE?AV?$ostreambuf_iterator@GU?$char_traits@G@std@@@2@V32@_NAAVios_base@2@G1V?$basic_string@GU?$char_traits@G@std@@V?$allocator@G@2@@2@G@Z 004afd0c f i libcpmt:wlocale.obj
 0001:000af290       ?_Putmfld@?$money_put@_WV?$ostreambuf_iterator@_WU?$char_traits@_W@std@@@std@@@std@@ABE?AV?$ostreambuf_iterator@_WU?$char_traits@_W@std@@@2@V32@_NAAVios_base@2@_W1V?$basic_string@_WU?$char_traits@_W@std@@V?$allocator@_W@2@@2@3@Z 004b0290 f i libcpmt:wlocale.obj
 0001:000af814       ?_Rep@?$money_put@GV?$ostreambuf_iterator@GU?$char_traits@G@std@@@std@@@std@@CA?AV?$ostreambuf_iterator@GU?$char_traits@G@std@@@2@V32@GI@Z 004b0814 f i libcpmt:wlocale.obj
 0001:000af840       ?_Rep@?$money_put@_WV?$ostreambuf_iterator@_WU?$char_traits@_W@std@@@std@@@std@@CA?AV?$ostreambuf_iterator@_WU?$char_traits@_W@std@@@2@V32@_WI@Z 004b0840 f i libcpmt:wlocale.obj
 0001:000af86c       ?_Rep@?$num_put@GV?$ostreambuf_iterator@GU?$char_traits@G@std@@@std@@@std@@ABA?AV?$ostreambuf_iterator@GU?$char_traits@G@std@@@2@V32@GI@Z 004b086c f i libcpmt:wlocale.obj
 0001:000af898       ?_Rep@?$num_put@_WV?$ostreambuf_iterator@_WU?$char_traits@_W@std@@@std@@@std@@ABA?AV?$ostreambuf_iterator@_WU?$char_traits@_W@std@@@2@V32@_WI@Z 004b0898 f i libcpmt:wlocale.obj
 0001:000af8c4       ?_Swap_proxy_and_iterators@?$basic_string@GU?$char_traits@G@std@@V?$allocator@G@2@@std@@AAEXAAV12@@Z 004b08c4 f i libcpmt:wlocale.obj
 0001:000af8c7       ?_Swap_proxy_and_iterators@?$basic_string@_WU?$char_traits@_W@std@@V?$allocator@_W@2@@std@@AAEXAAV12@@Z 004b08c7 f i libcpmt:wlocale.obj
 0001:000af8ca       ?_Take_contents@?$basic_string@GU?$char_traits@G@std@@V?$allocator@G@2@@std@@AAEXAAV12@@Z 004b08ca f i libcpmt:wlocale.obj
 0001:000af8f1       ?_Take_contents@?$basic_string@_WU?$char_traits@_W@std@@V?$allocator@_W@2@@std@@AAEXAAV12@@Z 004b08f1 f i libcpmt:wlocale.obj
 0001:000af918       ?_Tidy@?$_Mpunct@G@std@@AAEXXZ 004b0918 f i libcpmt:wlocale.obj
 0001:000af940       ?_Tidy@?$_Mpunct@_W@std@@AAEXXZ 004b0940 f i libcpmt:wlocale.obj
 0001:000af968       ?_Tidy@?$numpunct@G@std@@AAEXXZ 004b0968 f i libcpmt:wlocale.obj
 0001:000af988       ?_Tidy@?$numpunct@_W@std@@AAEXXZ 004b0988 f i libcpmt:wlocale.obj
 0001:000af9a8       ?_Tidy@?$time_get@GV?$istreambuf_iterator@GU?$char_traits@G@std@@@std@@@std@@AAEXXZ 004b09a8 f i libcpmt:wlocale.obj
 0001:000af9c8       ?_Tidy@?$time_get@_WV?$istreambuf_iterator@_WU?$char_traits@_W@std@@@std@@@std@@AAEXXZ 004b09c8 f i libcpmt:wlocale.obj
 0001:000af9e8       ?_Tidy_deallocate@?$basic_string@GU?$char_traits@G@std@@V?$allocator@G@2@@std@@AAEXXZ 004b09e8 f i libcpmt:wlocale.obj
 0001:000afa16       ?_Tidy_deallocate@?$basic_string@_WU?$char_traits@_W@std@@V?$allocator@_W@2@@std@@AAEXXZ 004b0a16 f i libcpmt:wlocale.obj
 0001:000afa44       ?_Tidy_init@?$basic_string@GU?$char_traits@G@std@@V?$allocator@G@2@@std@@AAEXXZ 004b0a44 f i libcpmt:wlocale.obj
 0001:000afa55       ?_Tidy_init@?$basic_string@_WU?$char_traits@_W@std@@V?$allocator@_W@2@@std@@AAEXXZ 004b0a55 f i libcpmt:wlocale.obj
 0001:000afa66       ?_W_Getdays@_Locinfo@std@@QBEPBGXZ 004b0a66 f i libcpmt:wlocale.obj
 0001:000afa94       ?_W_Getmonths@_Locinfo@std@@QBEPBGXZ 004b0a94 f i libcpmt:wlocale.obj
 0001:000afac2       ?_W_Gettnames@_Locinfo@std@@QBE?AV_Timevec@2@XZ 004b0ac2 f i libcpmt:wlocale.obj
 0001:000afad6       ?_Xran@?$_String_val@U?$_Simple_types@G@std@@@std@@SAXXZ 004b0ad6 f i libcpmt:wlocale.obj
 0001:000afae1       ?_Xran@?$_String_val@U?$_Simple_types@_W@std@@@std@@SAXXZ 004b0ae1 f i libcpmt:wlocale.obj
 0001:000afaec       ?allocate@?$allocator@G@std@@QAEPAGI@Z 004b0aec f i libcpmt:wlocale.obj
 0001:000afb0c       ?allocate@?$allocator@_W@std@@QAEPA_WI@Z 004b0b0c f i libcpmt:wlocale.obj
 0001:000afb2c       ?append@?$basic_string@DU?$char_traits@D@std@@V?$allocator@D@2@@std@@QAEAAV12@QBD@Z 004b0b2c f i libcpmt:wlocale.obj
 0001:000afb4d       ?append@?$basic_string@GU?$char_traits@G@std@@V?$allocator@G@2@@std@@QAEAAV12@ABV12@@Z 004b0b4d f i libcpmt:wlocale.obj
 0001:000afb69       ?append@?$basic_string@GU?$char_traits@G@std@@V?$allocator@G@2@@std@@QAEAAV12@IG@Z 004b0b69 f i libcpmt:wlocale.obj
 0001:000afbc1       ?append@?$basic_string@GU?$char_traits@G@std@@V?$allocator@G@2@@std@@QAEAAV12@QBGI@Z 004b0bc1 f i libcpmt:wlocale.obj
 0001:000afc1c       ?append@?$basic_string@_WU?$char_traits@_W@std@@V?$allocator@_W@2@@std@@QAEAAV12@ABV12@@Z 004b0c1c f i libcpmt:wlocale.obj
 0001:000afc38       ?append@?$basic_string@_WU?$char_traits@_W@std@@V?$allocator@_W@2@@std@@QAEAAV12@I_W@Z 004b0c38 f i libcpmt:wlocale.obj
 0001:000afc90       ?append@?$basic_string@_WU?$char_traits@_W@std@@V?$allocator@_W@2@@std@@QAEAAV12@QB_WI@Z 004b0c90 f i libcpmt:wlocale.obj
 0001:000afceb       ?assign@?$_Char_traits@GG@std@@SAPAGQAGIG@Z 004b0ceb f i libcpmt:wlocale.obj
 0001:000afd15       ?assign@?$_Char_traits@GG@std@@SAXAAGABG@Z 004b0d15 f i libcpmt:wlocale.obj
 0001:000afd26       ?assign@?$_Char_traits@_WG@std@@SAPA_WQA_WI_W@Z 004b0d26 f i libcpmt:wlocale.obj
 0001:000afd50       ?assign@?$_Char_traits@_WG@std@@SAXAA_WAB_W@Z 004b0d50 f i libcpmt:wlocale.obj
 0001:000afd61       ?assign@?$_WChar_traits@G@std@@SAPAGQAGIG@Z 004b0d61 f i libcpmt:wlocale.obj
 0001:000afd77       ?assign@?$_WChar_traits@G@std@@SAXAAGABG@Z 004b0d77 f i libcpmt:wlocale.obj
 0001:000afd88       ?assign@?$_WChar_traits@_W@std@@SAPA_WQA_WI_W@Z 004b0d88 f i libcpmt:wlocale.obj
 0001:000afd9e       ?assign@?$_WChar_traits@_W@std@@SAXAA_WAB_W@Z 004b0d9e f i libcpmt:wlocale.obj
 0001:000afdaf       ?assign@?$basic_string@GU?$char_traits@G@std@@V?$allocator@G@2@@std@@QAEAAV12@$$QAV12@@Z 004b0daf f i libcpmt:wlocale.obj
 0001:000afdc4       ?assign@?$basic_string@_WU?$char_traits@_W@std@@V?$allocator@_W@2@@std@@QAEAAV12@$$QAV12@@Z 004b0dc4 f i libcpmt:wlocale.obj
 0001:000afdd9       ?begin@?$basic_string@GU?$char_traits@G@std@@V?$allocator@G@2@@std@@QAE?AV?$_String_iterator@V?$_String_val@U?$_Simple_types@G@std@@@std@@@2@XZ 004b0dd9 f i libcpmt:wlocale.obj
 0001:000afded       ?begin@?$basic_string@_WU?$char_traits@_W@std@@V?$allocator@_W@2@@std@@QAE?AV?$_String_iterator@V?$_String_val@U?$_Simple_types@_W@std@@@std@@@2@XZ 004b0ded f i libcpmt:wlocale.obj
 0001:000afe01       ?c_str@?$basic_string@GU?$char_traits@G@std@@V?$allocator@G@2@@std@@QBEPBGXZ 004b0e01 f i libcpmt:wlocale.obj
 0001:000afe0c       ?c_str@?$basic_string@_WU?$char_traits@_W@std@@V?$allocator@_W@2@@std@@QBEPB_WXZ 004b0e0c f i libcpmt:wlocale.obj
 0001:000afe17       ?category@error_code@std@@QBEABVerror_category@2@XZ 004b0e17 f i libcpmt:wlocale.obj
 0001:000afe1b       ?category@error_condition@std@@QBEABVerror_category@2@XZ 004b0e1b f i libcpmt:wlocale.obj
 0001:000afe1f       ?copy@?$_Char_traits@GG@std@@SAPAGQAGQBGI@Z 004b0e1f f i libcpmt:wlocale.obj
 0001:000afe3b       ?copy@?$_Char_traits@_WG@std@@SAPA_WQA_WQB_WI@Z 004b0e3b f i libcpmt:wlocale.obj
 0001:000afe57       ?curr_symbol@?$_Mpunct@G@std@@QBE?AV?$basic_string@GU?$char_traits@G@std@@V?$allocator@G@2@@2@XZ 004b0e57 f i libcpmt:wlocale.obj
 0001:000afe7c       ?curr_symbol@?$_Mpunct@_W@std@@QBE?AV?$basic_string@_WU?$char_traits@_W@std@@V?$allocator@_W@2@@2@XZ 004b0e7c f i libcpmt:wlocale.obj
 0001:000afea1       ?date_order@?$time_get@GV?$istreambuf_iterator@GU?$char_traits@G@std@@@std@@@std@@QBE?AW4dateorder@time_base@2@XZ 004b0ea1 f i libcpmt:wlocale.obj
 0001:000afeb9       ?date_order@?$time_get@_WV?$istreambuf_iterator@_WU?$char_traits@_W@std@@@std@@@std@@QBE?AW4dateorder@time_base@2@XZ 004b0eb9 f i libcpmt:wlocale.obj
 0001:000afed1       ?deallocate@?$allocator@G@std@@QAEXQAGI@Z 004b0ed1 f i libcpmt:wlocale.obj
 0001:000afee8       ?deallocate@?$allocator@_W@std@@QAEXQA_WI@Z 004b0ee8 f i libcpmt:wlocale.obj
 0001:000afeff       ?decimal_point@?$_Mpunct@G@std@@QBEGXZ 004b0eff f i libcpmt:wlocale.obj
 0001:000aff17       ?decimal_point@?$_Mpunct@_W@std@@QBE_WXZ 004b0f17 f i libcpmt:wlocale.obj
 0001:000aff2f       ?decimal_point@?$numpunct@G@std@@QBEGXZ 004b0f2f f i libcpmt:wlocale.obj
 0001:000aff47       ?decimal_point@?$numpunct@_W@std@@QBE_WXZ 004b0f47 f i libcpmt:wlocale.obj
 0001:000aff5f       ?do_always_noconv@?$codecvt@GDU_Mbstatet@@@std@@MBE_NXZ 004b0f5f f i libcpmt:wlocale.obj
 0001:000aff62       ?do_always_noconv@?$codecvt@_WDU_Mbstatet@@@std@@MBE_NXZ 004b0f62 f i libcpmt:wlocale.obj
 0001:000aff65       ?do_close@?$messages@G@std@@MBEXH@Z 004b0f65 f i libcpmt:wlocale.obj
 0001:000aff68       ?do_close@?$messages@_W@std@@MBEXH@Z 004b0f68 f i libcpmt:wlocale.obj
 0001:000aff6b       ?do_compare@?$collate@G@std@@MBEHPBG000@Z 004b0f6b f i libcpmt:wlocale.obj
 0001:000aff9c       ?do_compare@?$collate@_W@std@@MBEHPB_W000@Z 004b0f9c f i libcpmt:wlocale.obj
 0001:000affcd       ?do_curr_symbol@?$_Mpunct@G@std@@MBE?AV?$basic_string@GU?$char_traits@G@std@@V?$allocator@G@2@@2@XZ 004b0fcd f i libcpmt:wlocale.obj
 0001:000affe3       ?do_curr_symbol@?$_Mpunct@_W@std@@MBE?AV?$basic_string@_WU?$char_traits@_W@std@@V?$allocator@_W@2@@2@XZ 004b0fe3 f i libcpmt:wlocale.obj
 0001:000afff9       ?do_date_order@?$time_get@GV?$istreambuf_iterator@GU?$char_traits@G@std@@@std@@@std@@MBE?AW4dateorder@time_base@2@XZ 004b0ff9 f i libcpmt:wlocale.obj
 0001:000afffd       ?do_date_order@?$time_get@_WV?$istreambuf_iterator@_WU?$char_traits@_W@std@@@std@@@std@@MBE?AW4dateorder@time_base@2@XZ 004b0ffd f i libcpmt:wlocale.obj
 0001:000b0001       ?do_decimal_point@?$_Mpunct@G@std@@MBEGXZ 004b1001 f i libcpmt:wlocale.obj
 0001:000b0006       ?do_decimal_point@?$_Mpunct@_W@std@@MBE_WXZ 004b1006 f i libcpmt:wlocale.obj
 0001:000b000b       ?do_decimal_point@?$numpunct@G@std@@MBEGXZ 004b100b f i libcpmt:wlocale.obj
 0001:000b0010       ?do_decimal_point@?$numpunct@_W@std@@MBE_WXZ 004b1010 f i libcpmt:wlocale.obj
 0001:000b0015       ?do_encoding@?$codecvt@GDU_Mbstatet@@@std@@MBEHXZ 004b1015 f i libcpmt:wlocale.obj
 0001:000b001f       ?do_encoding@?$codecvt@_WDU_Mbstatet@@@std@@MBEHXZ 004b101f f i libcpmt:wlocale.obj
 0001:000b0029       ?do_falsename@?$numpunct@G@std@@MBE?AV?$basic_string@GU?$char_traits@G@std@@V?$allocator@G@2@@2@XZ 004b1029 f i libcpmt:wlocale.obj
 0001:000b003f       ?do_falsename@?$numpunct@_W@std@@MBE?AV?$basic_string@_WU?$char_traits@_W@std@@V?$allocator@_W@2@@2@XZ 004b103f f i libcpmt:wlocale.obj
 0001:000b0055       ?do_frac_digits@?$_Mpunct@G@std@@MBEHXZ 004b1055 f i libcpmt:wlocale.obj
 0001:000b0059       ?do_frac_digits@?$_Mpunct@_W@std@@MBEHXZ 004b1059 f i libcpmt:wlocale.obj
 0001:000b005d       ?do_get@?$messages@G@std@@MBE?AV?$basic_string@GU?$char_traits@G@std@@V?$allocator@G@2@@2@HHHABV32@@Z 004b105d f i libcpmt:wlocale.obj
 0001:000b0073       ?do_get@?$messages@_W@std@@MBE?AV?$basic_string@_WU?$char_traits@_W@std@@V?$allocator@_W@2@@2@HHHABV32@@Z 004b1073 f i libcpmt:wlocale.obj
 0001:000b0089       ?do_get@?$money_get@GV?$istreambuf_iterator@GU?$char_traits@G@std@@@std@@@std@@MBE?AV?$istreambuf_iterator@GU?$char_traits@G@std@@@2@V32@0_NAAVios_base@2@AAHAAO@Z 004b1089 f i libcpmt:wlocale.obj
 0001:000b0131       ?do_get@?$money_get@GV?$istreambuf_iterator@GU?$char_traits@G@std@@@std@@@std@@MBE?AV?$istreambuf_iterator@GU?$char_traits@G@std@@@2@V32@0_NAAVios_base@2@AAHAAV?$basic_string@GU?$char_traits@G@std@@V?$allocator@G@2@@2@@Z 004b1131 f i libcpmt:wlocale.obj
 0001:000b020b       ?do_get@?$money_get@_WV?$istreambuf_iterator@_WU?$char_traits@_W@std@@@std@@@std@@MBE?AV?$istreambuf_iterator@_WU?$char_traits@_W@std@@@2@V32@0_NAAVios_base@2@AAHAAO@Z 004b120b f i libcpmt:wlocale.obj
 0001:000b02b3       ?do_get@?$money_get@_WV?$istreambuf_iterator@_WU?$char_traits@_W@std@@@std@@@std@@MBE?AV?$istreambuf_iterator@_WU?$char_traits@_W@std@@@2@V32@0_NAAVios_base@2@AAHAAV?$basic_string@_WU?$char_traits@_W@std@@V?$allocator@_W@2@@2@@Z 004b12b3 f i libcpmt:wlocale.obj
 0001:000b038d       ?do_get@?$num_get@GV?$istreambuf_iterator@GU?$char_traits@G@std@@@std@@@std@@MBE?AV?$istreambuf_iterator@GU?$char_traits@G@std@@@2@V32@0AAVios_base@2@AAHAAG@Z 004b138d f i libcpmt:wlocale.obj
 0001:000b047b       ?do_get@?$num_get@GV?$istreambuf_iterator@GU?$char_traits@G@std@@@std@@@std@@MBE?AV?$istreambuf_iterator@GU?$char_traits@G@std@@@2@V32@0AAVios_base@2@AAHAAI@Z 004b147b f i libcpmt:wlocale.obj
 0001:000b04bb       ?do_get@?$num_get@GV?$istreambuf_iterator@GU?$char_traits@G@std@@@std@@@std@@MBE?AV?$istreambuf_iterator@GU?$char_traits@G@std@@@2@V32@0AAVios_base@2@AAHAAJ@Z 004b14bb f i libcpmt:wlocale.obj
 0001:000b057f       ?do_get@?$num_get@GV?$istreambuf_iterator@GU?$char_traits@G@std@@@std@@@std@@MBE?AV?$istreambuf_iterator@GU?$char_traits@G@std@@@2@V32@0AAVios_base@2@AAHAAK@Z 004b157f f i libcpmt:wlocale.obj
 0001:000b0643       ?do_get@?$num_get@GV?$istreambuf_iterator@GU?$char_traits@G@std@@@std@@@std@@MBE?AV?$istreambuf_iterator@GU?$char_traits@G@std@@@2@V32@0AAVios_base@2@AAHAAM@Z 004b1643 f i libcpmt:wlocale.obj
 0001:000b073e       ?do_get@?$num_get@GV?$istreambuf_iterator@GU?$char_traits@G@std@@@std@@@std@@MBE?AV?$istreambuf_iterator@GU?$char_traits@G@std@@@2@V32@0AAVios_base@2@AAHAAN@Z 004b173e f i libcpmt:wlocale.obj
 0001:000b082f       ?do_get@?$num_get@GV?$istreambuf_iterator@GU?$char_traits@G@std@@@std@@@std@@MBE?AV?$istreambuf_iterator@GU?$char_traits@G@std@@@2@V32@0AAVios_base@2@AAHAAO@Z 004b182f f i libcpmt:wlocale.obj
 0001:000b086d       ?do_get@?$num_get@GV?$istreambuf_iterator@GU?$char_traits@G@std@@@std@@@std@@MBE?AV?$istreambuf_iterator@GU?$char_traits@G@std@@@2@V32@0AAVios_base@2@AAHAAPAX@Z 004b186d f i libcpmt:wlocale.obj
 0001:000b0929       ?do_get@?$num_get@GV?$istreambuf_iterator@GU?$char_traits@G@std@@@std@@@std@@MBE?AV?$istreambuf_iterator@GU?$char_traits@G@std@@@2@V32@0AAVios_base@2@AAHAA_J@Z 004b1929 f i libcpmt:wlocale.obj
 0001:000b09f4       ?do_get@?$num_get@GV?$istreambuf_iterator@GU?$char_traits@G@std@@@std@@@std@@MBE?AV?$istreambuf_iterator@GU?$char_traits@G@std@@@2@V32@0AAVios_base@2@AAHAA_K@Z 004b19f4 f i libcpmt:wlocale.obj
 0001:000b0abf       ?do_get@?$num_get@GV?$istreambuf_iterator@GU?$char_traits@G@std@@@std@@@std@@MBE?AV?$istreambuf_iterator@GU?$char_traits@G@std@@@2@V32@0AAVios_base@2@AAHAA_N@Z 004b1abf f i libcpmt:wlocale.obj
 0001:000b0d1d       ?do_get@?$num_get@_WV?$istreambuf_iterator@_WU?$char_traits@_W@std@@@std@@@std@@MBE?AV?$istreambuf_iterator@_WU?$char_traits@_W@std@@@2@V32@0AAVios_base@2@AAHAAG@Z 004b1d1d f i libcpmt:wlocale.obj
 0001:000b0e0b       ?do_get@?$num_get@_WV?$istreambuf_iterator@_WU?$char_traits@_W@std@@@std@@@std@@MBE?AV?$istreambuf_iterator@_WU?$char_traits@_W@std@@@2@V32@0AAVios_base@2@AAHAAI@Z 004b1e0b f i libcpmt:wlocale.obj
 0001:000b0e4b       ?do_get@?$num_get@_WV?$istreambuf_iterator@_WU?$char_traits@_W@std@@@std@@@std@@MBE?AV?$istreambuf_iterator@_WU?$char_traits@_W@std@@@2@V32@0AAVios_base@2@AAHAAJ@Z 004b1e4b f i libcpmt:wlocale.obj
 0001:000b0f0f       ?do_get@?$num_get@_WV?$istreambuf_iterator@_WU?$char_traits@_W@std@@@std@@@std@@MBE?AV?$istreambuf_iterator@_WU?$char_traits@_W@std@@@2@V32@0AAVios_base@2@AAHAAK@Z 004b1f0f f i libcpmt:wlocale.obj
 0001:000b0fd3       ?do_get@?$num_get@_WV?$istreambuf_iterator@_WU?$char_traits@_W@std@@@std@@@std@@MBE?AV?$istreambuf_iterator@_WU?$char_traits@_W@std@@@2@V32@0AAVios_base@2@AAHAAM@Z 004b1fd3 f i libcpmt:wlocale.obj
 0001:000b10ce       ?do_get@?$num_get@_WV?$istreambuf_iterator@_WU?$char_traits@_W@std@@@std@@@std@@MBE?AV?$istreambuf_iterator@_WU?$char_traits@_W@std@@@2@V32@0AAVios_base@2@AAHAAN@Z 004b20ce f i libcpmt:wlocale.obj
 0001:000b11bf       ?do_get@?$num_get@_WV?$istreambuf_iterator@_WU?$char_traits@_W@std@@@std@@@std@@MBE?AV?$istreambuf_iterator@_WU?$char_traits@_W@std@@@2@V32@0AAVios_base@2@AAHAAO@Z 004b21bf f i libcpmt:wlocale.obj
 0001:000b11fd       ?do_get@?$num_get@_WV?$istreambuf_iterator@_WU?$char_traits@_W@std@@@std@@@std@@MBE?AV?$istreambuf_iterator@_WU?$char_traits@_W@std@@@2@V32@0AAVios_base@2@AAHAAPAX@Z 004b21fd f i libcpmt:wlocale.obj
 0001:000b12b9       ?do_get@?$num_get@_WV?$istreambuf_iterator@_WU?$char_traits@_W@std@@@std@@@std@@MBE?AV?$istreambuf_iterator@_WU?$char_traits@_W@std@@@2@V32@0AAVios_base@2@AAHAA_J@Z 004b22b9 f i libcpmt:wlocale.obj
 0001:000b1384       ?do_get@?$num_get@_WV?$istreambuf_iterator@_WU?$char_traits@_W@std@@@std@@@std@@MBE?AV?$istreambuf_iterator@_WU?$char_traits@_W@std@@@2@V32@0AAVios_base@2@AAHAA_K@Z 004b2384 f i libcpmt:wlocale.obj
 0001:000b144f       ?do_get@?$num_get@_WV?$istreambuf_iterator@_WU?$char_traits@_W@std@@@std@@@std@@MBE?AV?$istreambuf_iterator@_WU?$char_traits@_W@std@@@2@V32@0AAVios_base@2@AAHAA_N@Z 004b244f f i libcpmt:wlocale.obj
 0001:000b16ad       ?do_get@?$time_get@GV?$istreambuf_iterator@GU?$char_traits@G@std@@@std@@@std@@MBE?AV?$istreambuf_iterator@GU?$char_traits@G@std@@@2@V32@0AAVios_base@2@AAHPAUtm@@DD@Z 004b26ad f i libcpmt:wlocale.obj
 0001:000b1a9d       ?do_get@?$time_get@_WV?$istreambuf_iterator@_WU?$char_traits@_W@std@@@std@@@std@@MBE?AV?$istreambuf_iterator@_WU?$char_traits@_W@std@@@2@V32@0AAVios_base@2@AAHPAUtm@@DD@Z 004b2a9d f i libcpmt:wlocale.obj
 0001:000b1e8d       ?do_get_date@?$time_get@GV?$istreambuf_iterator@GU?$char_traits@G@std@@@std@@@std@@MBE?AV?$istreambuf_iterator@GU?$char_traits@G@std@@@2@V32@0AAVios_base@2@AAHPAUtm@@@Z 004b2e8d f i libcpmt:wlocale.obj
 0001:000b239a       ?do_get_date@?$time_get@_WV?$istreambuf_iterator@_WU?$char_traits@_W@std@@@std@@@std@@MBE?AV?$istreambuf_iterator@_WU?$char_traits@_W@std@@@2@V32@0AAVios_base@2@AAHPAUtm@@@Z 004b339a f i libcpmt:wlocale.obj
 0001:000b28a7       ?do_get_monthname@?$time_get@GV?$istreambuf_iterator@GU?$char_traits@G@std@@@std@@@std@@MBE?AV?$istreambuf_iterator@GU?$char_traits@G@std@@@2@V32@0AAVios_base@2@AAHPAUtm@@@Z 004b38a7 f i libcpmt:wlocale.obj
 0001:000b28e9       ?do_get_monthname@?$time_get@_WV?$istreambuf_iterator@_WU?$char_traits@_W@std@@@std@@@std@@MBE?AV?$istreambuf_iterator@_WU?$char_traits@_W@std@@@2@V32@0AAVios_base@2@AAHPAUtm@@@Z 004b38e9 f i libcpmt:wlocale.obj
 0001:000b292b       ?do_get_time@?$time_get@GV?$istreambuf_iterator@GU?$char_traits@G@std@@@std@@@std@@MBE?AV?$istreambuf_iterator@GU?$char_traits@G@std@@@2@V32@0AAVios_base@2@AAHPAUtm@@@Z 004b392b f i libcpmt:wlocale.obj
 0001:000b2a4d       ?do_get_time@?$time_get@_WV?$istreambuf_iterator@_WU?$char_traits@_W@std@@@std@@@std@@MBE?AV?$istreambuf_iterator@_WU?$char_traits@_W@std@@@2@V32@0AAVios_base@2@AAHPAUtm@@@Z 004b3a4d f i libcpmt:wlocale.obj
 0001:000b2b6f       ?do_get_weekday@?$time_get@GV?$istreambuf_iterator@GU?$char_traits@G@std@@@std@@@std@@MBE?AV?$istreambuf_iterator@GU?$char_traits@G@std@@@2@V32@0AAVios_base@2@AAHPAUtm@@@Z 004b3b6f f i libcpmt:wlocale.obj
 0001:000b2bb1       ?do_get_weekday@?$time_get@_WV?$istreambuf_iterator@_WU?$char_traits@_W@std@@@std@@@std@@MBE?AV?$istreambuf_iterator@_WU?$char_traits@_W@std@@@2@V32@0AAVios_base@2@AAHPAUtm@@@Z 004b3bb1 f i libcpmt:wlocale.obj
 0001:000b2bf3       ?do_get_year@?$time_get@GV?$istreambuf_iterator@GU?$char_traits@G@std@@@std@@@std@@MBE?AV?$istreambuf_iterator@GU?$char_traits@G@std@@@2@V32@0AAVios_base@2@AAHPAUtm@@@Z 004b3bf3 f i libcpmt:wlocale.obj
 0001:000b2c92       ?do_get_year@?$time_get@_WV?$istreambuf_iterator@_WU?$char_traits@_W@std@@@std@@@std@@MBE?AV?$istreambuf_iterator@_WU?$char_traits@_W@std@@@2@V32@0AAVios_base@2@AAHPAUtm@@@Z 004b3c92 f i libcpmt:wlocale.obj
 0001:000b2d31       ?do_grouping@?$_Mpunct@G@std@@MBE?AV?$basic_string@DU?$char_traits@D@std@@V?$allocator@D@2@@2@XZ 004b3d31 f i libcpmt:wlocale.obj
 0001:000b2d47       ?do_grouping@?$_Mpunct@_W@std@@MBE?AV?$basic_string@DU?$char_traits@D@std@@V?$allocator@D@2@@2@XZ 004b3d47 f i libcpmt:wlocale.obj
 0001:000b2d5d       ?do_grouping@?$numpunct@G@std@@MBE?AV?$basic_string@DU?$char_traits@D@std@@V?$allocator@D@2@@2@XZ 004b3d5d f i libcpmt:wlocale.obj
 0001:000b2d73       ?do_grouping@?$numpunct@_W@std@@MBE?AV?$basic_string@DU?$char_traits@D@std@@V?$allocator@D@2@@2@XZ 004b3d73 f i libcpmt:wlocale.obj
 0001:000b2d89       ?do_hash@?$collate@G@std@@MBEJPBG0@Z 004b3d89 f i libcpmt:wlocale.obj
 0001:000b2daa       ?do_hash@?$collate@_W@std@@MBEJPB_W0@Z 004b3daa f i libcpmt:wlocale.obj
 0001:000b2dcb       ?do_in@?$codecvt@GDU_Mbstatet@@@std@@MBEHAAU_Mbstatet@@PBD1AAPBDPAG3AAPAG@Z 004b3dcb f i libcpmt:wlocale.obj
 0001:000b2e3c       ?do_in@?$codecvt@_WDU_Mbstatet@@@std@@MBEHAAU_Mbstatet@@PBD1AAPBDPA_W3AAPA_W@Z 004b3e3c f i libcpmt:wlocale.obj
 0001:000b2ead       ?do_is@?$ctype@G@std@@MBEPBGPBG0PAF@Z 004b3ead f i libcpmt:wlocale.obj
 0001:000b2ec9       ?do_is@?$ctype@G@std@@MBE_NFG@Z 004b3ec9 f i libcpmt:wlocale.obj
 0001:000b2ee5       ?do_is@?$ctype@_W@std@@MBEPB_WPB_W0PAF@Z 004b3ee5 f i libcpmt:wlocale.obj
 0001:000b2f01       ?do_is@?$ctype@_W@std@@MBE_NF_W@Z 004b3f01 f i libcpmt:wlocale.obj
 0001:000b2f1d       ?do_length@?$codecvt@GDU_Mbstatet@@@std@@MBEHAAU_Mbstatet@@PBD1I@Z 004b3f1d f i libcpmt:wlocale.obj
 0001:000b2f73       ?do_length@?$codecvt@_WDU_Mbstatet@@@std@@MBEHAAU_Mbstatet@@PBD1I@Z 004b3f73 f i libcpmt:wlocale.obj
 0001:000b2fc9       ?do_max_length@?$codecvt@GDU_Mbstatet@@@std@@MBEHXZ 004b3fc9 f i libcpmt:wlocale.obj
 0001:000b2fcd       ?do_max_length@?$codecvt@_WDU_Mbstatet@@@std@@MBEHXZ 004b3fcd f i libcpmt:wlocale.obj
 0001:000b2fd1       ?do_narrow@?$ctype@G@std@@MBEDGD@Z 004b3fd1 f i libcpmt:wlocale.obj
 0001:000b2fda       ?do_narrow@?$ctype@G@std@@MBEPBGPBG0DPAD@Z 004b3fda f i libcpmt:wlocale.obj
 0001:000b300f       ?do_narrow@?$ctype@_W@std@@MBED_WD@Z 004b400f f i libcpmt:wlocale.obj
 0001:000b3018       ?do_narrow@?$ctype@_W@std@@MBEPB_WPB_W0DPAD@Z 004b4018 f i libcpmt:wlocale.obj
 0001:000b304d       ?do_neg_format@?$_Mpunct@G@std@@MBE?AUpattern@money_base@2@XZ 004b404d f i libcpmt:wlocale.obj
 0001:000b305c       ?do_neg_format@?$_Mpunct@_W@std@@MBE?AUpattern@money_base@2@XZ 004b405c f i libcpmt:wlocale.obj
 0001:000b306b       ?do_negative_sign@?$_Mpunct@G@std@@MBE?AV?$basic_string@GU?$char_traits@G@std@@V?$allocator@G@2@@2@XZ 004b406b f i libcpmt:wlocale.obj
 0001:000b3081       ?do_negative_sign@?$_Mpunct@_W@std@@MBE?AV?$basic_string@_WU?$char_traits@_W@std@@V?$allocator@_W@2@@2@XZ 004b4081 f i libcpmt:wlocale.obj
 0001:000b3097       ?do_open@?$messages@G@std@@MBEHABV?$basic_string@DU?$char_traits@D@std@@V?$allocator@D@2@@2@ABVlocale@2@@Z 004b4097 f i libcpmt:wlocale.obj
 0001:000b309d       ?do_open@?$messages@_W@std@@MBEHABV?$basic_string@DU?$char_traits@D@std@@V?$allocator@D@2@@2@ABVlocale@2@@Z 004b409d f i libcpmt:wlocale.obj
 0001:000b30a3       ?do_out@?$codecvt@GDU_Mbstatet@@@std@@MBEHAAU_Mbstatet@@PBG1AAPBGPAD3AAPAD@Z 004b40a3 f i libcpmt:wlocale.obj
 0001:000b3189       ?do_out@?$codecvt@_WDU_Mbstatet@@@std@@MBEHAAU_Mbstatet@@PB_W1AAPB_WPAD3AAPAD@Z 004b4189 f i libcpmt:wlocale.obj
 0001:000b326f       ?do_pos_format@?$_Mpunct@G@std@@MBE?AUpattern@money_base@2@XZ 004b426f f i libcpmt:wlocale.obj
 0001:000b327e       ?do_pos_format@?$_Mpunct@_W@std@@MBE?AUpattern@money_base@2@XZ 004b427e f i libcpmt:wlocale.obj
 0001:000b328d       ?do_positive_sign@?$_Mpunct@G@std@@MBE?AV?$basic_string@GU?$char_traits@G@std@@V?$allocator@G@2@@2@XZ 004b428d f i libcpmt:wlocale.obj
 0001:000b32a3       ?do_positive_sign@?$_Mpunct@_W@std@@MBE?AV?$basic_string@_WU?$char_traits@_W@std@@V?$allocator@_W@2@@2@XZ 004b42a3 f i libcpmt:wlocale.obj
 0001:000b32b9       ?do_put@?$money_put@GV?$ostreambuf_iterator@GU?$char_traits@G@std@@@std@@@std@@MBE?AV?$ostreambuf_iterator@GU?$char_traits@G@std@@@2@V32@_NAAVios_base@2@GABV?$basic_string@GU?$char_traits@G@std@@V?$allocator@G@2@@2@@Z 004b42b9 f i libcpmt:wlocale.obj
 0001:000b33e7       ?do_put@?$money_put@GV?$ostreambuf_iterator@GU?$char_traits@G@std@@@std@@@std@@MBE?AV?$ostreambuf_iterator@GU?$char_traits@G@std@@@2@V32@_NAAVios_base@2@GO@Z 004b43e7 f i libcpmt:wlocale.obj
 0001:000b359d       ?do_put@?$money_put@_WV?$ostreambuf_iterator@_WU?$char_traits@_W@std@@@std@@@std@@MBE?AV?$ostreambuf_iterator@_WU?$char_traits@_W@std@@@2@V32@_NAAVios_base@2@_WABV?$basic_string@_WU?$char_traits@_W@std@@V?$allocator@_W@2@@2@@Z 004b459d f i libcpmt:wlocale.obj
 0001:000b36cb       ?do_put@?$money_put@_WV?$ostreambuf_iterator@_WU?$char_traits@_W@std@@@std@@@std@@MBE?AV?$ostreambuf_iterator@_WU?$char_traits@_W@std@@@2@V32@_NAAVios_base@2@_WO@Z 004b46cb f i libcpmt:wlocale.obj
 0001:000b3881       ?do_put@?$num_put@GV?$ostreambuf_iterator@GU?$char_traits@G@std@@@std@@@std@@MBE?AV?$ostreambuf_iterator@GU?$char_traits@G@std@@@2@V32@AAVios_base@2@GJ@Z 004b4881 f i libcpmt:wlocale.obj
 0001:000b38ec       ?do_put@?$num_put@GV?$ostreambuf_iterator@GU?$char_traits@G@std@@@std@@@std@@MBE?AV?$ostreambuf_iterator@GU?$char_traits@G@std@@@2@V32@AAVios_base@2@GK@Z 004b48ec f i libcpmt:wlocale.obj
 0001:000b3957       ?do_put@?$num_put@GV?$ostreambuf_iterator@GU?$char_traits@G@std@@@std@@@std@@MBE?AV?$ostreambuf_iterator@GU?$char_traits@G@std@@@2@V32@AAVios_base@2@GN@Z 004b4957 f i libcpmt:wlocale.obj
 0001:000b3aae       ?do_put@?$num_put@GV?$ostreambuf_iterator@GU?$char_traits@G@std@@@std@@@std@@MBE?AV?$ostreambuf_iterator@GU?$char_traits@G@std@@@2@V32@AAVios_base@2@GO@Z 004b4aae f i libcpmt:wlocale.obj
 0001:000b3c05       ?do_put@?$num_put@GV?$ostreambuf_iterator@GU?$char_traits@G@std@@@std@@@std@@MBE?AV?$ostreambuf_iterator@GU?$char_traits@G@std@@@2@V32@AAVios_base@2@GPBX@Z 004b4c05 f i libcpmt:wlocale.obj
 0001:000b3c60       ?do_put@?$num_put@GV?$ostreambuf_iterator@GU?$char_traits@G@std@@@std@@@std@@MBE?AV?$ostreambuf_iterator@GU?$char_traits@G@std@@@2@V32@AAVios_base@2@G_J@Z 004b4c60 f i libcpmt:wlocale.obj
 0001:000b3cce       ?do_put@?$num_put@GV?$ostreambuf_iterator@GU?$char_traits@G@std@@@std@@@std@@MBE?AV?$ostreambuf_iterator@GU?$char_traits@G@std@@@2@V32@AAVios_base@2@G_K@Z 004b4cce f i libcpmt:wlocale.obj
 0001:000b3d3c       ?do_put@?$num_put@GV?$ostreambuf_iterator@GU?$char_traits@G@std@@@std@@@std@@MBE?AV?$ostreambuf_iterator@GU?$char_traits@G@std@@@2@V32@AAVios_base@2@G_N@Z 004b4d3c f i libcpmt:wlocale.obj
 0001:000b3ef2       ?do_put@?$num_put@_WV?$ostreambuf_iterator@_WU?$char_traits@_W@std@@@std@@@std@@MBE?AV?$ostreambuf_iterator@_WU?$char_traits@_W@std@@@2@V32@AAVios_base@2@_WJ@Z 004b4ef2 f i libcpmt:wlocale.obj
 0001:000b3f5d       ?do_put@?$num_put@_WV?$ostreambuf_iterator@_WU?$char_traits@_W@std@@@std@@@std@@MBE?AV?$ostreambuf_iterator@_WU?$char_traits@_W@std@@@2@V32@AAVios_base@2@_WK@Z 004b4f5d f i libcpmt:wlocale.obj
 0001:000b3fc8       ?do_put@?$num_put@_WV?$ostreambuf_iterator@_WU?$char_traits@_W@std@@@std@@@std@@MBE?AV?$ostreambuf_iterator@_WU?$char_traits@_W@std@@@2@V32@AAVios_base@2@_WN@Z 004b4fc8 f i libcpmt:wlocale.obj
 0001:000b411f       ?do_put@?$num_put@_WV?$ostreambuf_iterator@_WU?$char_traits@_W@std@@@std@@@std@@MBE?AV?$ostreambuf_iterator@_WU?$char_traits@_W@std@@@2@V32@AAVios_base@2@_WO@Z 004b511f f i libcpmt:wlocale.obj
 0001:000b4276       ?do_put@?$num_put@_WV?$ostreambuf_iterator@_WU?$char_traits@_W@std@@@std@@@std@@MBE?AV?$ostreambuf_iterator@_WU?$char_traits@_W@std@@@2@V32@AAVios_base@2@_WPBX@Z 004b5276 f i libcpmt:wlocale.obj
 0001:000b42d1       ?do_put@?$num_put@_WV?$ostreambuf_iterator@_WU?$char_traits@_W@std@@@std@@@std@@MBE?AV?$ostreambuf_iterator@_WU?$char_traits@_W@std@@@2@V32@AAVios_base@2@_W_J@Z 004b52d1 f i libcpmt:wlocale.obj
 0001:000b433f       ?do_put@?$num_put@_WV?$ostreambuf_iterator@_WU?$char_traits@_W@std@@@std@@@std@@MBE?AV?$ostreambuf_iterator@_WU?$char_traits@_W@std@@@2@V32@AAVios_base@2@_W_K@Z 004b533f f i libcpmt:wlocale.obj
 0001:000b43ad       ?do_put@?$num_put@_WV?$ostreambuf_iterator@_WU?$char_traits@_W@std@@@std@@@std@@MBE?AV?$ostreambuf_iterator@_WU?$char_traits@_W@std@@@2@V32@AAVios_base@2@_W_N@Z 004b53ad f i libcpmt:wlocale.obj
 0001:000b4563       ?do_put@?$time_put@GV?$ostreambuf_iterator@GU?$char_traits@G@std@@@std@@@std@@MBE?AV?$ostreambuf_iterator@GU?$char_traits@G@std@@@2@V32@AAVios_base@2@GPBUtm@@DD@Z 004b5563 f i libcpmt:wlocale.obj
 0001:000b4676       ?do_put@?$time_put@_WV?$ostreambuf_iterator@_WU?$char_traits@_W@std@@@std@@@std@@MBE?AV?$ostreambuf_iterator@_WU?$char_traits@_W@std@@@2@V32@AAVios_base@2@_WPBUtm@@DD@Z 004b5676 f i libcpmt:wlocale.obj
 0001:000b4789       ?do_scan_is@?$ctype@G@std@@MBEPBGFPBG0@Z 004b5789 f i libcpmt:wlocale.obj
 0001:000b47c6       ?do_scan_is@?$ctype@_W@std@@MBEPB_WFPB_W0@Z 004b57c6 f i libcpmt:wlocale.obj
 0001:000b4803       ?do_scan_not@?$ctype@G@std@@MBEPBGFPBG0@Z 004b5803 f i libcpmt:wlocale.obj
 0001:000b4840       ?do_scan_not@?$ctype@_W@std@@MBEPB_WFPB_W0@Z 004b5840 f i libcpmt:wlocale.obj
 0001:000b487d       ?do_thousands_sep@?$_Mpunct@G@std@@MBEGXZ 004b587d f i libcpmt:wlocale.obj
 0001:000b4882       ?do_thousands_sep@?$_Mpunct@_W@std@@MBE_WXZ 004b5882 f i libcpmt:wlocale.obj
 0001:000b4887       ?do_thousands_sep@?$numpunct@G@std@@MBEGXZ 004b5887 f i libcpmt:wlocale.obj
 0001:000b488c       ?do_thousands_sep@?$numpunct@_W@std@@MBE_WXZ 004b588c f i libcpmt:wlocale.obj
 0001:000b4891       ?do_tolower@?$ctype@G@std@@MBEGG@Z 004b5891 f i libcpmt:wlocale.obj
 0001:000b48a6       ?do_tolower@?$ctype@G@std@@MBEPBGPAGPBG@Z 004b58a6 f i libcpmt:wlocale.obj
 0001:000b48d5       ?do_tolower@?$ctype@_W@std@@MBEPB_WPA_WPB_W@Z 004b58d5 f i libcpmt:wlocale.obj
 0001:000b4904       ?do_tolower@?$ctype@_W@std@@MBE_W_W@Z 004b5904 f i libcpmt:wlocale.obj
 0001:000b4919       ?do_toupper@?$ctype@G@std@@MBEGG@Z 004b5919 f i libcpmt:wlocale.obj
 0001:000b492e       ?do_toupper@?$ctype@G@std@@MBEPBGPAGPBG@Z 004b592e f i libcpmt:wlocale.obj
 0001:000b495d       ?do_toupper@?$ctype@_W@std@@MBEPB_WPA_WPB_W@Z 004b595d f i libcpmt:wlocale.obj
 0001:000b498c       ?do_toupper@?$ctype@_W@std@@MBE_W_W@Z 004b598c f i libcpmt:wlocale.obj
 0001:000b49a1       ?do_transform@?$collate@G@std@@MBE?AV?$basic_string@GU?$char_traits@G@std@@V?$allocator@G@2@@2@PBG0@Z 004b59a1 f i libcpmt:wlocale.obj
 0001:000b4a2f       ?do_transform@?$collate@_W@std@@MBE?AV?$basic_string@_WU?$char_traits@_W@std@@V?$allocator@_W@2@@2@PB_W0@Z 004b5a2f f i libcpmt:wlocale.obj
 0001:000b4abd       ?do_truename@?$numpunct@G@std@@MBE?AV?$basic_string@GU?$char_traits@G@std@@V?$allocator@G@2@@2@XZ 004b5abd f i libcpmt:wlocale.obj
 0001:000b4ad3       ?do_truename@?$numpunct@_W@std@@MBE?AV?$basic_string@_WU?$char_traits@_W@std@@V?$allocator@_W@2@@2@XZ 004b5ad3 f i libcpmt:wlocale.obj
 0001:000b4ae9       ?do_unshift@?$codecvt@GDU_Mbstatet@@@std@@MBEHAAU_Mbstatet@@PAD1AAPAD@Z 004b5ae9 f i libcpmt:wlocale.obj
 0001:000b4b79       ?do_unshift@?$codecvt@_WDU_Mbstatet@@@std@@MBEHAAU_Mbstatet@@PAD1AAPAD@Z 004b5b79 f i libcpmt:wlocale.obj
 0001:000b4c09       ?do_widen@?$ctype@G@std@@MBEGD@Z 004b5c09 f i libcpmt:wlocale.obj
 0001:000b4c12       ?do_widen@?$ctype@G@std@@MBEPBDPBD0PAG@Z 004b5c12 f i libcpmt:wlocale.obj
 0001:000b4c45       ?do_widen@?$ctype@_W@std@@MBEPBDPBD0PA_W@Z 004b5c45 f i libcpmt:wlocale.obj
 0001:000b4c78       ?do_widen@?$ctype@_W@std@@MBE_WD@Z 004b5c78 f i libcpmt:wlocale.obj
 0001:000b4c81       ?empty@?$basic_string@GU?$char_traits@G@std@@V?$allocator@G@2@@std@@QBE_NXZ 004b5c81 f i libcpmt:wlocale.obj
 0001:000b4c89       ?empty@?$basic_string@_WU?$char_traits@_W@std@@V?$allocator@_W@2@@std@@QBE_NXZ 004b5c89 f i libcpmt:wlocale.obj
 0001:000b4c91       ?end@?$basic_string@GU?$char_traits@G@std@@V?$allocator@G@2@@std@@QAE?AV?$_String_iterator@V?$_String_val@U?$_Simple_types@G@std@@@std@@@2@XZ 004b5c91 f i libcpmt:wlocale.obj
 0001:000b4cad       ?end@?$basic_string@_WU?$char_traits@_W@std@@V?$allocator@_W@2@@std@@QAE?AV?$_String_iterator@V?$_String_val@U?$_Simple_types@_W@std@@@std@@@2@XZ 004b5cad f i libcpmt:wlocale.obj
 0001:000b4cc9       ?eof@?$_WChar_traits@G@std@@SAGXZ 004b5cc9 f i libcpmt:wlocale.obj
 0001:000b4ccf       ?eof@?$_WChar_traits@_W@std@@SAGXZ 004b5ccf f i libcpmt:wlocale.obj
 0001:000b4cd5       ?eq_int_type@?$_WChar_traits@G@std@@SA_NABG0@Z 004b5cd5 f i libcpmt:wlocale.obj
 0001:000b4ce9       ?eq_int_type@?$_WChar_traits@_W@std@@SA_NABG0@Z 004b5ce9 f i libcpmt:wlocale.obj
 0001:000b4cfd       ?equal@?$istreambuf_iterator@GU?$char_traits@G@std@@@std@@QBE_NABV12@@Z 004b5cfd f i libcpmt:wlocale.obj
 0001:000b4d37       ?equal@?$istreambuf_iterator@_WU?$char_traits@_W@std@@@std@@QBE_NABV12@@Z 004b5d37 f i libcpmt:wlocale.obj
 0001:000b4d71       ?erase@?$basic_string@DU?$char_traits@D@std@@V?$allocator@D@2@@std@@QAEAAV12@I@Z 004b5d71 f i libcpmt:wlocale.obj
 0001:000b4d99       ?erase@?$basic_string@GU?$char_traits@G@std@@V?$allocator@G@2@@std@@QAEAAV12@I@Z 004b5d99 f i libcpmt:wlocale.obj
 0001:000b4dba       ?erase@?$basic_string@_WU?$char_traits@_W@std@@V?$allocator@_W@2@@std@@QAEAAV12@I@Z 004b5dba f i libcpmt:wlocale.obj
 0001:000b4ddb       ?falsename@?$numpunct@G@std@@QBE?AV?$basic_string@GU?$char_traits@G@std@@V?$allocator@G@2@@2@XZ 004b5ddb f i libcpmt:wlocale.obj
 0001:000b4e00       ?falsename@?$numpunct@_W@std@@QBE?AV?$basic_string@_WU?$char_traits@_W@std@@V?$allocator@_W@2@@2@XZ 004b5e00 f i libcpmt:wlocale.obj
 0001:000b4e25       ?frac_digits@?$_Mpunct@G@std@@QBEHXZ 004b5e25 f i libcpmt:wlocale.obj
 0001:000b4e3d       ?frac_digits@?$_Mpunct@_W@std@@QBEHXZ 004b5e3d f i libcpmt:wlocale.obj
 0001:000b4e55       ?get_monthname@?$time_get@GV?$istreambuf_iterator@GU?$char_traits@G@std@@@std@@@std@@QBE?AV?$istreambuf_iterator@GU?$char_traits@G@std@@@2@V32@0AAVios_base@2@AAHPAUtm@@@Z 004b5e55 f i libcpmt:wlocale.obj
 0001:000b4e8d       ?get_monthname@?$time_get@_WV?$istreambuf_iterator@_WU?$char_traits@_W@std@@@std@@@std@@QBE?AV?$istreambuf_iterator@_WU?$char_traits@_W@std@@@2@V32@0AAVios_base@2@AAHPAUtm@@@Z 004b5e8d f i libcpmt:wlocale.obj
 0001:000b4ec5       ?get_weekday@?$time_get@GV?$istreambuf_iterator@GU?$char_traits@G@std@@@std@@@std@@QBE?AV?$istreambuf_iterator@GU?$char_traits@G@std@@@2@V32@0AAVios_base@2@AAHPAUtm@@@Z 004b5ec5 f i libcpmt:wlocale.obj
 0001:000b4efd       ?get_weekday@?$time_get@_WV?$istreambuf_iterator@_WU?$char_traits@_W@std@@@std@@@std@@QBE?AV?$istreambuf_iterator@_WU?$char_traits@_W@std@@@2@V32@0AAVios_base@2@AAHPAUtm@@@Z 004b5efd f i libcpmt:wlocale.obj
 0001:000b4f35       ?get_year@?$time_get@GV?$istreambuf_iterator@GU?$char_traits@G@std@@@std@@@std@@QBE?AV?$istreambuf_iterator@GU?$char_traits@G@std@@@2@V32@0AAVios_base@2@AAHPAUtm@@@Z 004b5f35 f i libcpmt:wlocale.obj
 0001:000b4f6d       ?get_year@?$time_get@_WV?$istreambuf_iterator@_WU?$char_traits@_W@std@@@std@@@std@@QBE?AV?$istreambuf_iterator@_WU?$char_traits@_W@std@@@2@V32@0AAVios_base@2@AAHPAUtm@@@Z 004b5f6d f i libcpmt:wlocale.obj
 0001:000b4fa5       ?gptr@?$basic_streambuf@GU?$char_traits@G@std@@@std@@IBEPAGXZ 004b5fa5 f i libcpmt:wlocale.obj
 0001:000b4fab       ?gptr@?$basic_streambuf@_WU?$char_traits@_W@std@@@std@@IBEPA_WXZ 004b5fab f i libcpmt:wlocale.obj
 0001:000b4fb1       ?grouping@?$_Mpunct@G@std@@QBE?AV?$basic_string@DU?$char_traits@D@std@@V?$allocator@D@2@@2@XZ 004b5fb1 f i libcpmt:wlocale.obj
 0001:000b4fd6       ?grouping@?$_Mpunct@_W@std@@QBE?AV?$basic_string@DU?$char_traits@D@std@@V?$allocator@D@2@@2@XZ 004b5fd6 f i libcpmt:wlocale.obj
 0001:000b4ffb       ?grouping@?$numpunct@G@std@@QBE?AV?$basic_string@DU?$char_traits@D@std@@V?$allocator@D@2@@2@XZ 004b5ffb f i libcpmt:wlocale.obj
 0001:000b5020       ?grouping@?$numpunct@_W@std@@QBE?AV?$basic_string@DU?$char_traits@D@std@@V?$allocator@D@2@@2@XZ 004b6020 f i libcpmt:wlocale.obj
 0001:000b5045       ?insert@?$basic_string@GU?$char_traits@G@std@@V?$allocator@G@2@@std@@QAEAAV12@IIG@Z 004b6045 f i libcpmt:wlocale.obj
 0001:000b50bb       ?insert@?$basic_string@_WU?$char_traits@_W@std@@V?$allocator@_W@2@@std@@QAEAAV12@II_W@Z 004b60bb f i libcpmt:wlocale.obj
 0001:000b5131       ?iostream_category@std@@YAABVerror_category@1@XZ 004b6131 f i libcpmt:wlocale.obj
 0001:000b5137       ?is@?$ctype@G@std@@QBE_NFG@Z 004b6137 f i libcpmt:wlocale.obj
 0001:000b515b       ?is@?$ctype@_W@std@@QBE_NF_W@Z 004b615b f i libcpmt:wlocale.obj
 0001:000b517f       ?length@?$_Char_traits@GG@std@@SAIPBG@Z 004b617f f i libcpmt:wlocale.obj
 0001:000b5196       ?length@?$_WChar_traits@G@std@@SAIPBG@Z 004b6196 f i libcpmt:wlocale.obj
 0001:000b51ad       ?length@?$_WChar_traits@_W@std@@SAIPB_W@Z 004b61ad f i libcpmt:wlocale.obj
 0001:000b51c7       ?max_size@?$_Default_allocator_traits@V?$allocator@G@std@@@std@@SAIABV?$allocator@G@2@@Z 004b61c7 f i libcpmt:wlocale.obj
 0001:000b51cd       ?max_size@?$_Default_allocator_traits@V?$allocator@_W@std@@@std@@SAIABV?$allocator@_W@2@@Z 004b61cd f i libcpmt:wlocale.obj
 0001:000b51d3       ?max_size@?$basic_string@GU?$char_traits@G@std@@V?$allocator@G@2@@std@@QBEIXZ 004b61d3 f i libcpmt:wlocale.obj
 0001:000b51d9       ?max_size@?$basic_string@_WU?$char_traits@_W@std@@V?$allocator@_W@2@@std@@QBEIXZ 004b61d9 f i libcpmt:wlocale.obj
 0001:000b51df       ?message@error_code@std@@QBE?AV?$basic_string@DU?$char_traits@D@std@@V?$allocator@D@2@@2@XZ 004b61df f i libcpmt:wlocale.obj
 0001:000b5207       ?move@?$_Char_traits@GG@std@@SAPAGQAGQBGI@Z 004b6207 f i libcpmt:wlocale.obj
 0001:000b5223       ?move@?$_Char_traits@_WG@std@@SAPA_WQA_WQB_WI@Z 004b6223 f i libcpmt:wlocale.obj
 0001:000b523f       ?name@locale@std@@QBE?AV?$basic_string@DU?$char_traits@D@std@@V?$allocator@D@2@@2@XZ 004b623f f i libcpmt:wlocale.obj
 0001:000b52f9       ?narrow@?$ctype@G@std@@QBEDGD@Z 004b62f9 f i libcpmt:wlocale.obj
 0001:000b531d       ?narrow@?$ctype@_W@std@@QBED_WD@Z 004b631d f i libcpmt:wlocale.obj
 0001:000b5341       ?neg_format@?$_Mpunct@G@std@@QBE?AUpattern@money_base@2@XZ 004b6341 f i libcpmt:wlocale.obj
 0001:000b5365       ?neg_format@?$_Mpunct@_W@std@@QBE?AUpattern@money_base@2@XZ 004b6365 f i libcpmt:wlocale.obj
 0001:000b5389       ?negative_sign@?$_Mpunct@G@std@@QBE?AV?$basic_string@GU?$char_traits@G@std@@V?$allocator@G@2@@2@XZ 004b6389 f i libcpmt:wlocale.obj
 0001:000b53ae       ?negative_sign@?$_Mpunct@_W@std@@QBE?AV?$basic_string@_WU?$char_traits@_W@std@@V?$allocator@_W@2@@2@XZ 004b63ae f i libcpmt:wlocale.obj
 0001:000b53d3       ?pos_format@?$_Mpunct@G@std@@QBE?AUpattern@money_base@2@XZ 004b63d3 f i libcpmt:wlocale.obj
 0001:000b53f7       ?pos_format@?$_Mpunct@_W@std@@QBE?AUpattern@money_base@2@XZ 004b63f7 f i libcpmt:wlocale.obj
 0001:000b541b       ?positive_sign@?$_Mpunct@G@std@@QBE?AV?$basic_string@GU?$char_traits@G@std@@V?$allocator@G@2@@2@XZ 004b641b f i libcpmt:wlocale.obj
 0001:000b5440       ?positive_sign@?$_Mpunct@_W@std@@QBE?AV?$basic_string@_WU?$char_traits@_W@std@@V?$allocator@_W@2@@2@XZ 004b6440 f i libcpmt:wlocale.obj
 0001:000b5465       ?push_back@?$basic_string@GU?$char_traits@G@std@@V?$allocator@G@2@@std@@QAEXG@Z 004b6465 f i libcpmt:wlocale.obj
 0001:000b54a1       ?push_back@?$basic_string@_WU?$char_traits@_W@std@@V?$allocator@_W@2@@std@@QAEX_W@Z 004b64a1 f i libcpmt:wlocale.obj
 0001:000b54dd       ?rdstate@ios_base@std@@QBEHXZ 004b64dd f i libcpmt:wlocale.obj
 0001:000b54e1       ?resize@?$basic_string@GU?$char_traits@G@std@@V?$allocator@G@2@@std@@QAEXIG@Z 004b64e1 f i libcpmt:wlocale.obj
 0001:000b5504       ?resize@?$basic_string@_WU?$char_traits@_W@std@@V?$allocator@_W@2@@std@@QAEXI_W@Z 004b6504 f i libcpmt:wlocale.obj
 0001:000b5527       ?sbumpc@?$basic_streambuf@GU?$char_traits@G@std@@@std@@QAEGXZ 004b6527 f i libcpmt:wlocale.obj
 0001:000b5563       ?sbumpc@?$basic_streambuf@_WU?$char_traits@_W@std@@@std@@QAEGXZ 004b6563 f i libcpmt:wlocale.obj
 0001:000b559f       ?select_on_container_copy_construction@?$_Default_allocator_traits@V?$allocator@D@std@@@std@@SA?AV?$allocator@D@2@ABV32@@Z 004b659f f i libcpmt:wlocale.obj
 0001:000b55a7       ?select_on_container_copy_construction@?$_Default_allocator_traits@V?$allocator@G@std@@@std@@SA?AV?$allocator@G@2@ABV32@@Z 004b65a7 f i libcpmt:wlocale.obj
 0001:000b55af       ?select_on_container_copy_construction@?$_Default_allocator_traits@V?$allocator@_W@std@@@std@@SA?AV?$allocator@_W@2@ABV32@@Z 004b65af f i libcpmt:wlocale.obj
 0001:000b55b7       ?setstate@ios_base@std@@QAEXH@Z 004b65b7 f i libcpmt:wlocale.obj
 0001:000b55cc       ?sgetc@?$basic_streambuf@GU?$char_traits@G@std@@@std@@QAEGXZ 004b65cc f i libcpmt:wlocale.obj
 0001:000b55fd       ?sgetc@?$basic_streambuf@_WU?$char_traits@_W@std@@@std@@QAEGXZ 004b65fd f i libcpmt:wlocale.obj
 0001:000b562e       ?size@?$basic_string@GU?$char_traits@G@std@@V?$allocator@G@2@@std@@QBEIXZ 004b662e f i libcpmt:wlocale.obj
 0001:000b5632       ?size@?$basic_string@_WU?$char_traits@_W@std@@V?$allocator@_W@2@@std@@QBEIXZ 004b6632 f i libcpmt:wlocale.obj
 0001:000b5636       ?sputc@?$basic_streambuf@GU?$char_traits@G@std@@@std@@QAEGG@Z 004b6636 f i libcpmt:wlocale.obj
 0001:000b567e       ?sputc@?$basic_streambuf@_WU?$char_traits@_W@std@@@std@@QAEG_W@Z 004b667e f i libcpmt:wlocale.obj
 0001:000b56c6       ?thousands_sep@?$_Mpunct@G@std@@QBEGXZ 004b66c6 f i libcpmt:wlocale.obj
 0001:000b56de       ?thousands_sep@?$_Mpunct@_W@std@@QBE_WXZ 004b66de f i libcpmt:wlocale.obj
 0001:000b56f6       ?thousands_sep@?$numpunct@G@std@@QBEGXZ 004b66f6 f i libcpmt:wlocale.obj
 0001:000b570e       ?thousands_sep@?$numpunct@_W@std@@QBE_WXZ 004b670e f i libcpmt:wlocale.obj
 0001:000b5726       ?to_char_type@?$_WChar_traits@G@std@@SAGABG@Z 004b6726 f i libcpmt:wlocale.obj
 0001:000b5731       ?to_char_type@?$_WChar_traits@_W@std@@SA_WABG@Z 004b6731 f i libcpmt:wlocale.obj
 0001:000b573c       ?to_int_type@?$_WChar_traits@G@std@@SAGABG@Z 004b673c f i libcpmt:wlocale.obj
 0001:000b5747       ?to_int_type@?$_WChar_traits@_W@std@@SAGAB_W@Z 004b6747 f i libcpmt:wlocale.obj
 0001:000b5752       ?tolower@?$ctype@G@std@@QBEGG@Z 004b6752 f i libcpmt:wlocale.obj
 0001:000b5773       ?tolower@?$ctype@_W@std@@QBE_W_W@Z 004b6773 f i libcpmt:wlocale.obj
 0001:000b5794       ?truename@?$numpunct@G@std@@QBE?AV?$basic_string@GU?$char_traits@G@std@@V?$allocator@G@2@@2@XZ 004b6794 f i libcpmt:wlocale.obj
 0001:000b57b9       ?truename@?$numpunct@_W@std@@QBE?AV?$basic_string@_WU?$char_traits@_W@std@@V?$allocator@_W@2@@2@XZ 004b67b9 f i libcpmt:wlocale.obj
 0001:000b57de       ?value@error_code@std@@QBEHXZ 004b67de f i libcpmt:wlocale.obj
 0001:000b57e1       ?value@error_condition@std@@QBEHXZ 004b67e1 f i libcpmt:wlocale.obj
 0001:000b57e4       ?widen@?$ctype@G@std@@QBEGD@Z 004b67e4 f i libcpmt:wlocale.obj
 0001:000b5805       ?widen@?$ctype@G@std@@QBEPBDPBD0PAG@Z 004b6805 f i libcpmt:wlocale.obj
 0001:000b582c       ?widen@?$ctype@_W@std@@QBEPBDPBD0PA_W@Z 004b682c f i libcpmt:wlocale.obj
 0001:000b5853       ?widen@?$ctype@_W@std@@QBE_WD@Z 004b6853 f i libcpmt:wlocale.obj
 0001:000b5874       _wmemcpy                   004b6874 f i libcpmt:wlocale.obj
 0001:000b588d       _wmemset                   004b688d f i libcpmt:wlocale.obj
 0001:000b58b7       ??$_Copy_unchecked@PADPADV?$ostreambuf_iterator@DU?$char_traits@D@std@@@std@@@std@@YA?AV?$ostreambuf_iterator@DU?$char_traits@D@std@@@0@PAD0V10@@Z 004b68b7 f i libcpmt:xlocale.obj
 0001:000b58e3       ??$_Find_elem@D$0M@@std@@YAIAAY0M@$$CBDD@Z 004b68e3 f i libcpmt:xlocale.obj
 0001:000b58fc       ??$_Get_unwrapped@AAPAD@std@@YA?A_TAAPAD@Z 004b68fc f i libcpmt:xlocale.obj
 0001:000b5906       ??$_Get_unwrapped_n@AAV?$ostreambuf_iterator@DU?$char_traits@D@std@@@std@@H@std@@YA?A_TAAV?$ostreambuf_iterator@DU?$char_traits@D@std@@@0@H@Z 004b6906 f i libcpmt:xlocale.obj
 0001:000b590e       ??$_Getint_v2@V?$istreambuf_iterator@DU?$char_traits@D@std@@@std@@D@std@@YAHAAV?$istreambuf_iterator@DU?$char_traits@D@std@@@0@0HHAAH1ABV?$ctype@D@0@@Z 004b690e f i libcpmt:xlocale.obj
 0001:000b5b60       ??$_Getvals@D@?$_Mpunct@D@std@@IAEXDPBUlconv@@@Z 004b6b60 f i libcpmt:xlocale.obj
 0001:000b5bdc       ??$_Getvals@D@?$time_get@DV?$istreambuf_iterator@DU?$char_traits@D@std@@@std@@@std@@IAEXDABV_Locinfo@1@@Z 004b6bdc f i libcpmt:xlocale.obj
 0001:000b5c47       ??$_Hash_array_representation@D@std@@YAIQBDI@Z 004b6c47 f i libcpmt:xlocale.obj
 0001:000b5c5f       ??$_Idl_distance@PADPAD@std@@YA?A_PABQAD0@Z 004b6c5f f i libcpmt:xlocale.obj
 0001:000b5c6e       ??$_LStrcoll@D@std@@YAHPBD000PBU_Collvec@@@Z 004b6c6e f i libcpmt:xlocale.obj
 0001:000b5c77       ??$_LStrxfrm@D@std@@YAIPAD0PBD1PBU_Collvec@@@Z 004b6c77 f i libcpmt:xlocale.obj
 0001:000b5c80       ??$_Refancy@PAD$0A@@std@@YAPADPAD@Z 004b6c80 f i libcpmt:xlocale.obj
 0001:000b5c88       ??$_Seek_wrapped@V?$ostreambuf_iterator@DU?$char_traits@D@std@@@std@@V12@@std@@YAXAAV?$ostreambuf_iterator@DU?$char_traits@D@std@@@0@$$QAV10@@Z 004b6c88 f i libcpmt:xlocale.obj
 0001:000b5c9d       ??$addressof@$$CBV?$moneypunct@D$00@std@@@std@@YAPBV?$moneypunct@D$00@0@ABV10@@Z 004b6c9d f i libcpmt:xlocale.obj
 0001:000b5ca5       ??$addressof@$$CBV?$moneypunct@D$0A@@std@@@std@@YAPBV?$moneypunct@D$0A@@0@ABV10@@Z 004b6ca5 f i libcpmt:xlocale.obj
 0001:000b5cad       ??$copy@PADV?$ostreambuf_iterator@DU?$char_traits@D@std@@@std@@@std@@YA?AV?$ostreambuf_iterator@DU?$char_traits@D@std@@@0@PAD0V10@@Z 004b6cad f i libcpmt:xlocale.obj
 0001:000b5cd9       ??$forward@V?$ostreambuf_iterator@DU?$char_traits@D@std@@@std@@@std@@YA$$QAV?$ostreambuf_iterator@DU?$char_traits@D@std@@@0@AAV10@@Z 004b6cd9 f i libcpmt:xlocale.obj
 0001:000b5ce1       ??$use_facet@V?$collate@D@std@@@std@@YAABV?$collate@D@0@ABVlocale@0@@Z 004b6ce1 f i libcpmt:xlocale.obj
 0001:000b5d76       ??$use_facet@V?$messages@D@std@@@std@@YAABV?$messages@D@0@ABVlocale@0@@Z 004b6d76 f i libcpmt:xlocale.obj
 0001:000b5e0b       ??$use_facet@V?$money_get@DV?$istreambuf_iterator@DU?$char_traits@D@std@@@std@@@std@@@std@@YAABV?$money_get@DV?$istreambuf_iterator@DU?$char_traits@D@std@@@std@@@0@ABVlocale@0@@Z 004b6e0b f i libcpmt:xlocale.obj
 0001:000b5ea0       ??$use_facet@V?$money_put@DV?$ostreambuf_iterator@DU?$char_traits@D@std@@@std@@@std@@@std@@YAABV?$money_put@DV?$ostreambuf_iterator@DU?$char_traits@D@std@@@std@@@0@ABVlocale@0@@Z 004b6ea0 f i libcpmt:xlocale.obj
 0001:000b5f35       ??$use_facet@V?$moneypunct@D$00@std@@@std@@YAABV?$moneypunct@D$00@0@ABVlocale@0@@Z 004b6f35 f i libcpmt:xlocale.obj
 0001:000b5fca       ??$use_facet@V?$moneypunct@D$0A@@std@@@std@@YAABV?$moneypunct@D$0A@@0@ABVlocale@0@@Z 004b6fca f i libcpmt:xlocale.obj
 0001:000b605f       ??$use_facet@V?$time_get@DV?$istreambuf_iterator@DU?$char_traits@D@std@@@std@@@std@@@std@@YAABV?$time_get@DV?$istreambuf_iterator@DU?$char_traits@D@std@@@std@@@0@ABVlocale@0@@Z 004b705f f i libcpmt:xlocale.obj
 0001:000b60f4       ??$use_facet@V?$time_put@DV?$ostreambuf_iterator@DU?$char_traits@D@std@@@std@@@std@@@std@@YAABV?$time_put@DV?$ostreambuf_iterator@DU?$char_traits@D@std@@@std@@@0@ABVlocale@0@@Z 004b70f4 f i libcpmt:xlocale.obj
 0001:000b6189       ??0?$_Mpunct@D@std@@QAE@ABV_Locinfo@1@I_N1@Z 004b7189 f i libcpmt:xlocale.obj
 0001:000b61c5       ??0?$_String_const_iterator@V?$_String_val@U?$_Simple_types@D@std@@@std@@@std@@QAE@PBDPBU_Container_base0@1@@Z 004b71c5 f i libcpmt:xlocale.obj
 0001:000b61d3       ??0?$_String_const_iterator@V?$_String_val@U?$_Simple_types@D@std@@@std@@@std@@QAE@XZ 004b71d3 f i libcpmt:xlocale.obj
 0001:000b61d9       ??0?$_String_iterator@V?$_String_val@U?$_Simple_types@D@std@@@std@@@std@@QAE@PBDPBU_Container_base0@1@@Z 004b71d9 f i libcpmt:xlocale.obj
 0001:000b61e7       ??0?$collate@D@std@@QAE@ABV_Locinfo@1@I@Z 004b71e7 f i libcpmt:xlocale.obj
 0001:000b620f       ??0?$messages@D@std@@QAE@ABV_Locinfo@1@I@Z 004b720f f i libcpmt:xlocale.obj
 0001:000b6228       ??0?$money_get@DV?$istreambuf_iterator@DU?$char_traits@D@std@@@std@@@std@@QAE@ABV_Locinfo@1@I@Z 004b7228 f i libcpmt:xlocale.obj
 0001:000b6241       ??0?$money_put@DV?$ostreambuf_iterator@DU?$char_traits@D@std@@@std@@@std@@QAE@ABV_Locinfo@1@I@Z 004b7241 f i libcpmt:xlocale.obj
 0001:000b625a       ??0?$moneypunct@D$00@std@@QAE@ABV_Locinfo@1@I_N@Z 004b725a f i libcpmt:xlocale.obj
 0001:000b6281       ??0?$moneypunct@D$0A@@std@@QAE@ABV_Locinfo@1@I_N@Z 004b7281 f i libcpmt:xlocale.obj
 0001:000b62a8       ??0?$time_get@DV?$istreambuf_iterator@DU?$char_traits@D@std@@@std@@@std@@QAE@ABV_Locinfo@1@I@Z 004b72a8 f i libcpmt:xlocale.obj
 0001:000b62db       ??0?$time_put@DV?$ostreambuf_iterator@DU?$char_traits@D@std@@@std@@@std@@QAE@ABV_Locinfo@1@I@Z 004b72db f i libcpmt:xlocale.obj
 0001:000b6304       ??1?$_Mpunct@D@std@@MAE@XZ 004b7304 f i libcpmt:xlocale.obj
 0001:000b631a       ??1?$_Tidy_guard@V?$_Mpunct@D@std@@@std@@QAE@XZ 004b731a f i libcpmt:xlocale.obj
 0001:000b6325       ??1?$_Tidy_guard@V?$time_get@DV?$istreambuf_iterator@DU?$char_traits@D@std@@@std@@@std@@@std@@QAE@XZ 004b7325 f i libcpmt:xlocale.obj
 0001:000b6330       ??1?$collate@D@std@@MAE@XZ 004b7330 f i libcpmt:xlocale.obj
 0001:000b634a       ??1?$messages@D@std@@MAE@XZ 004b734a f i libcpmt:xlocale.obj
 0001:000b6351       ??1?$money_get@DV?$istreambuf_iterator@DU?$char_traits@D@std@@@std@@@std@@MAE@XZ 004b7351 f i libcpmt:xlocale.obj
 0001:000b6358       ??1?$money_put@DV?$ostreambuf_iterator@DU?$char_traits@D@std@@@std@@@std@@MAE@XZ 004b7358 f i libcpmt:xlocale.obj
 0001:000b635f       ??1?$moneypunct@D$00@std@@MAE@XZ 004b735f f i libcpmt:xlocale.obj
 0001:000b6375       ??1?$moneypunct@D$0A@@std@@MAE@XZ 004b7375 f i libcpmt:xlocale.obj
 0001:000b638b       ??1?$time_get@DV?$istreambuf_iterator@DU?$char_traits@D@std@@@std@@@std@@MAE@XZ 004b738b f i libcpmt:xlocale.obj
 0001:000b63a1       ??1?$time_put@DV?$ostreambuf_iterator@DU?$char_traits@D@std@@@std@@@std@@MAE@XZ 004b73a1 f i libcpmt:xlocale.obj
 0001:000b63bb       ??8?$_String_const_iterator@V?$_String_val@U?$_Simple_types@D@std@@@std@@@std@@QBE_NABV01@@Z 004b73bb f i libcpmt:xlocale.obj
 0001:000b63cc       ??D?$_String_const_iterator@V?$_String_val@U?$_Simple_types@D@std@@@std@@@std@@QBEABDXZ 004b73cc f i libcpmt:xlocale.obj
 0001:000b63cf       ??D?$_String_iterator@V?$_String_val@U?$_Simple_types@D@std@@@std@@@std@@QBEAADXZ 004b73cf f i libcpmt:xlocale.obj
 0001:000b63d2       ??E?$_String_const_iterator@V?$_String_val@U?$_Simple_types@D@std@@@std@@@std@@QAEAAV01@XZ 004b73d2 f i libcpmt:xlocale.obj
 0001:000b63d7       ??E?$_String_iterator@V?$_String_val@U?$_Simple_types@D@std@@@std@@@std@@QAEAAV01@XZ 004b73d7 f i libcpmt:xlocale.obj
 0001:000b63dc       ??E?$ostreambuf_iterator@DU?$char_traits@D@std@@@std@@QAEAAV01@H@Z 004b73dc f i libcpmt:xlocale.obj
 0001:000b63e1       ??G?$_String_iterator@V?$_String_val@U?$_Simple_types@D@std@@@std@@@std@@QBE?AV01@H@Z 004b73e1 f i libcpmt:xlocale.obj
 0001:000b63f2       ??H?$_String_iterator@V?$_String_val@U?$_Simple_types@D@std@@@std@@@std@@QBE?AV01@H@Z 004b73f2 f i libcpmt:xlocale.obj
 0001:000b6403       ??Y?$_String_const_iterator@V?$_String_val@U?$_Simple_types@D@std@@@std@@@std@@QAEAAV01@H@Z 004b7403 f i libcpmt:xlocale.obj
 0001:000b6411       ??Y?$_String_iterator@V?$_String_val@U?$_Simple_types@D@std@@@std@@@std@@QAEAAV01@H@Z 004b7411 f i libcpmt:xlocale.obj
 0001:000b641f       ??Z?$_String_const_iterator@V?$_String_val@U?$_Simple_types@D@std@@@std@@@std@@QAEAAV01@H@Z 004b741f f i libcpmt:xlocale.obj
 0001:000b642d       ??Z?$_String_iterator@V?$_String_val@U?$_Simple_types@D@std@@@std@@@std@@QAEAAV01@H@Z 004b742d f i libcpmt:xlocale.obj
 0001:000b643b       ??_E?$_Mpunct@D@std@@MAEPAXI@Z 004b743b f i libcpmt:xlocale.obj
 0001:000b643b       ??_G?$_Mpunct@D@std@@MAEPAXI@Z 004b743b f i libcpmt:xlocale.obj
 0001:000b6469       ??_E?$collate@D@std@@MAEPAXI@Z 004b7469 f i libcpmt:xlocale.obj
 0001:000b6469       ??_G?$collate@D@std@@MAEPAXI@Z 004b7469 f i libcpmt:xlocale.obj
 0001:000b648b       ??_E?$messages@D@std@@MAEPAXI@Z 004b748b f i libcpmt:xlocale.obj
 0001:000b648b       ??_G?$messages@D@std@@MAEPAXI@Z 004b748b f i libcpmt:xlocale.obj
 0001:000b64ae       ??_E?$money_get@DV?$istreambuf_iterator@DU?$char_traits@D@std@@@std@@@std@@MAEPAXI@Z 004b74ae f i libcpmt:xlocale.obj
 0001:000b64ae       ??_G?$money_get@DV?$istreambuf_iterator@DU?$char_traits@D@std@@@std@@@std@@MAEPAXI@Z 004b74ae f i libcpmt:xlocale.obj
 0001:000b64d1       ??_E?$money_put@DV?$ostreambuf_iterator@DU?$char_traits@D@std@@@std@@@std@@MAEPAXI@Z 004b74d1 f i libcpmt:xlocale.obj
 0001:000b64d1       ??_G?$money_put@DV?$ostreambuf_iterator@DU?$char_traits@D@std@@@std@@@std@@MAEPAXI@Z 004b74d1 f i libcpmt:xlocale.obj
 0001:000b64f4       ??_E?$moneypunct@D$00@std@@MAEPAXI@Z 004b74f4 f i libcpmt:xlocale.obj
 0001:000b64f4       ??_G?$moneypunct@D$00@std@@MAEPAXI@Z 004b74f4 f i libcpmt:xlocale.obj
 0001:000b6522       ??_E?$moneypunct@D$0A@@std@@MAEPAXI@Z 004b7522 f i libcpmt:xlocale.obj
 0001:000b6522       ??_G?$moneypunct@D$0A@@std@@MAEPAXI@Z 004b7522 f i libcpmt:xlocale.obj
 0001:000b6550       ??_E?$time_get@DV?$istreambuf_iterator@DU?$char_traits@D@std@@@std@@@std@@MAEPAXI@Z 004b7550 f i libcpmt:xlocale.obj
 0001:000b6550       ??_G?$time_get@DV?$istreambuf_iterator@DU?$char_traits@D@std@@@std@@@std@@MAEPAXI@Z 004b7550 f i libcpmt:xlocale.obj
 0001:000b657e       ??_E?$time_put@DV?$ostreambuf_iterator@DU?$char_traits@D@std@@@std@@@std@@MAEPAXI@Z 004b757e f i libcpmt:xlocale.obj
 0001:000b657e       ??_G?$time_put@DV?$ostreambuf_iterator@DU?$char_traits@D@std@@@std@@@std@@MAEPAXI@Z 004b757e f i libcpmt:xlocale.obj
 0001:000b65a0       ?_Compat@?$_String_const_iterator@V?$_String_val@U?$_Simple_types@D@std@@@std@@@std@@QBEXABV12@@Z 004b75a0 f i libcpmt:xlocale.obj
 0001:000b65a3       ?_Getcat@?$collate@D@std@@SAIPAPBVfacet@locale@2@PBV42@@Z 004b75a3 f i libcpmt:xlocale.obj
 0001:000b6645       ?_Getcat@?$messages@D@std@@SAIPAPBVfacet@locale@2@PBV42@@Z 004b7645 f i libcpmt:xlocale.obj
 0001:000b66ad       ?_Getcat@?$money_get@DV?$istreambuf_iterator@DU?$char_traits@D@std@@@std@@@std@@SAIPAPBVfacet@locale@2@PBV42@@Z 004b76ad f i libcpmt:xlocale.obj
 0001:000b6715       ?_Getcat@?$money_put@DV?$ostreambuf_iterator@DU?$char_traits@D@std@@@std@@@std@@SAIPAPBVfacet@locale@2@PBV42@@Z 004b7715 f i libcpmt:xlocale.obj
 0001:000b677d       ?_Getcat@?$moneypunct@D$00@std@@SAIPAPBVfacet@locale@2@PBV42@@Z 004b777d f i libcpmt:xlocale.obj
 0001:000b6801       ?_Getcat@?$moneypunct@D$0A@@std@@SAIPAPBVfacet@locale@2@PBV42@@Z 004b7801 f i libcpmt:xlocale.obj
 0001:000b6886       ?_Getcat@?$time_get@DV?$istreambuf_iterator@DU?$char_traits@D@std@@@std@@@std@@SAIPAPBVfacet@locale@2@PBV42@@Z 004b7886 f i libcpmt:xlocale.obj
 0001:000b68f2       ?_Getcat@?$time_put@DV?$ostreambuf_iterator@DU?$char_traits@D@std@@@std@@@std@@SAIPAPBVfacet@locale@2@PBV42@@Z 004b78f2 f i libcpmt:xlocale.obj
 0001:000b6966       ?_Getfmt@?$time_get@DV?$istreambuf_iterator@DU?$char_traits@D@std@@@std@@@std@@IBE?AV?$istreambuf_iterator@DU?$char_traits@D@std@@@2@V32@0AAVios_base@2@AAHPAUtm@@PBD@Z 004b7966 f i libcpmt:xlocale.obj
 0001:000b6aac       ?_Getint@?$time_get@DV?$istreambuf_iterator@DU?$char_traits@D@std@@@std@@@std@@ABAHAAV?$istreambuf_iterator@DU?$char_traits@D@std@@@2@0HHAAHABV?$ctype@D@2@@Z 004b7aac f i libcpmt:xlocale.obj
 0001:000b6ad0       ?_Getmfld@?$money_get@DV?$istreambuf_iterator@DU?$char_traits@D@std@@@std@@@std@@ABE?AV?$basic_string@DU?$char_traits@D@std@@V?$allocator@D@2@@2@AAV?$istreambuf_iterator@DU?$char_traits@D@std@@@2@0_NAAVios_base@2@AAY0M@D@Z 004b7ad0 f i libcpmt:xlocale.obj
 0001:000b754b       ?_Gettnames@_Locinfo@std@@QBE?AV_Timevec@2@XZ 004b854b f i libcpmt:xlocale.obj
 0001:000b755f       ?_Init@?$_Mpunct@D@std@@IAEXABV_Locinfo@2@_N@Z 004b855f f i libcpmt:xlocale.obj
 0001:000b762a       ?_Init@?$collate@D@std@@IAEXABV_Locinfo@2@@Z 004b862a f i libcpmt:xlocale.obj
 0001:000b763c       ?_Init@?$messages@D@std@@IAEXABV_Locinfo@2@@Z 004b863c f i libcpmt:xlocale.obj
 0001:000b763f       ?_Init@?$money_get@DV?$istreambuf_iterator@DU?$char_traits@D@std@@@std@@@std@@IAEXABV_Locinfo@2@@Z 004b863f f i libcpmt:xlocale.obj
 0001:000b7642       ?_Init@?$money_put@DV?$ostreambuf_iterator@DU?$char_traits@D@std@@@std@@@std@@IAEXABV_Locinfo@2@@Z 004b8642 f i libcpmt:xlocale.obj
 0001:000b7645       ?_Init@?$time_get@DV?$istreambuf_iterator@DU?$char_traits@D@std@@@std@@@std@@IAEXABV_Locinfo@2@@Z 004b8645 f i libcpmt:xlocale.obj
 0001:000b767d       ?_Init@?$time_put@DV?$ostreambuf_iterator@DU?$char_traits@D@std@@@std@@@std@@IAEXABV_Locinfo@2@@Z 004b867d f i libcpmt:xlocale.obj
 0001:000b76a6       ?_Makexloc@_Locimp@locale@std@@CAXABV_Locinfo@3@HPAV123@PBV23@@Z 004b86a6 f   libcpmt:xlocale.obj
 0001:000b79b2       ?_Makpat@?$_Mpunct@D@std@@AAEXAAUpattern@money_base@2@III@Z 004b89b2 f i libcpmt:xlocale.obj
 0001:000b79f3       ?_Put@?$money_put@DV?$ostreambuf_iterator@DU?$char_traits@D@std@@@std@@@std@@CA?AV?$ostreambuf_iterator@DU?$char_traits@D@std@@@2@V32@V?$_String_const_iterator@V?$_String_val@U?$_Simple_types@D@std@@@std@@@2@I@Z 004b89f3 f i libcpmt:xlocale.obj
 0001:000b7a2a       ?_Putmfld@?$money_put@DV?$ostreambuf_iterator@DU?$char_traits@D@std@@@std@@@std@@ABE?AV?$ostreambuf_iterator@DU?$char_traits@D@std@@@2@V32@_NAAVios_base@2@D1V?$basic_string@DU?$char_traits@D@std@@V?$allocator@D@2@@2@D@Z 004b8a2a f i libcpmt:xlocale.obj
 0001:000b7fbc       ?_Rep@?$money_put@DV?$ostreambuf_iterator@DU?$char_traits@D@std@@@std@@@std@@CA?AV?$ostreambuf_iterator@DU?$char_traits@D@std@@@2@V32@DI@Z 004b8fbc f i libcpmt:xlocale.obj
 0001:000b7fe8       ?_Tidy@?$_Mpunct@D@std@@AAEXXZ 004b8fe8 f i libcpmt:xlocale.obj
 0001:000b8010       ?_Tidy@?$time_get@DV?$istreambuf_iterator@DU?$char_traits@D@std@@@std@@@std@@AAEXXZ 004b9010 f i libcpmt:xlocale.obj
 0001:000b8030       ?begin@?$basic_string@DU?$char_traits@D@std@@V?$allocator@D@2@@std@@QAE?AV?$_String_iterator@V?$_String_val@U?$_Simple_types@D@std@@@std@@@2@XZ 004b9030 f i libcpmt:xlocale.obj
 0001:000b8044       ?curr_symbol@?$_Mpunct@D@std@@QBE?AV?$basic_string@DU?$char_traits@D@std@@V?$allocator@D@2@@2@XZ 004b9044 f i libcpmt:xlocale.obj
 0001:000b8069       ?date_order@?$time_get@DV?$istreambuf_iterator@DU?$char_traits@D@std@@@std@@@std@@QBE?AW4dateorder@time_base@2@XZ 004b9069 f i libcpmt:xlocale.obj
 0001:000b8081       ?decimal_point@?$_Mpunct@D@std@@QBEDXZ 004b9081 f i libcpmt:xlocale.obj
 0001:000b8099       ?do_close@?$messages@D@std@@MBEXH@Z 004b9099 f i libcpmt:xlocale.obj
 0001:000b809c       ?do_compare@?$collate@D@std@@MBEHPBD000@Z 004b909c f i libcpmt:xlocale.obj
 0001:000b80cd       ?do_curr_symbol@?$_Mpunct@D@std@@MBE?AV?$basic_string@DU?$char_traits@D@std@@V?$allocator@D@2@@2@XZ 004b90cd f i libcpmt:xlocale.obj
 0001:000b80e3       ?do_date_order@?$time_get@DV?$istreambuf_iterator@DU?$char_traits@D@std@@@std@@@std@@MBE?AW4dateorder@time_base@2@XZ 004b90e3 f i libcpmt:xlocale.obj
 0001:000b80e7       ?do_decimal_point@?$_Mpunct@D@std@@MBEDXZ 004b90e7 f i libcpmt:xlocale.obj
 0001:000b80eb       ?do_frac_digits@?$_Mpunct@D@std@@MBEHXZ 004b90eb f i libcpmt:xlocale.obj
 0001:000b80ef       ?do_get@?$messages@D@std@@MBE?AV?$basic_string@DU?$char_traits@D@std@@V?$allocator@D@2@@2@HHHABV32@@Z 004b90ef f i libcpmt:xlocale.obj
 0001:000b8105       ?do_get@?$money_get@DV?$istreambuf_iterator@DU?$char_traits@D@std@@@std@@@std@@MBE?AV?$istreambuf_iterator@DU?$char_traits@D@std@@@2@V32@0_NAAVios_base@2@AAHAAO@Z 004b9105 f i libcpmt:xlocale.obj
 0001:000b81ad       ?do_get@?$money_get@DV?$istreambuf_iterator@DU?$char_traits@D@std@@@std@@@std@@MBE?AV?$istreambuf_iterator@DU?$char_traits@D@std@@@2@V32@0_NAAVios_base@2@AAHAAV?$basic_string@DU?$char_traits@D@std@@V?$allocator@D@2@@2@@Z 004b91ad f i libcpmt:xlocale.obj
 0001:000b827f       ?do_get@?$time_get@DV?$istreambuf_iterator@DU?$char_traits@D@std@@@std@@@std@@MBE?AV?$istreambuf_iterator@DU?$char_traits@D@std@@@2@V32@0AAVios_base@2@AAHPAUtm@@DD@Z 004b927f f i libcpmt:xlocale.obj
 0001:000b866f       ?do_get_date@?$time_get@DV?$istreambuf_iterator@DU?$char_traits@D@std@@@std@@@std@@MBE?AV?$istreambuf_iterator@DU?$char_traits@D@std@@@2@V32@0AAVios_base@2@AAHPAUtm@@@Z 004b966f f i libcpmt:xlocale.obj
 0001:000b8aff       ?do_get_monthname@?$time_get@DV?$istreambuf_iterator@DU?$char_traits@D@std@@@std@@@std@@MBE?AV?$istreambuf_iterator@DU?$char_traits@D@std@@@2@V32@0AAVios_base@2@AAHPAUtm@@@Z 004b9aff f i libcpmt:xlocale.obj
 0001:000b8b41       ?do_get_time@?$time_get@DV?$istreambuf_iterator@DU?$char_traits@D@std@@@std@@@std@@MBE?AV?$istreambuf_iterator@DU?$char_traits@D@std@@@2@V32@0AAVios_base@2@AAHPAUtm@@@Z 004b9b41 f i libcpmt:xlocale.obj
 0001:000b8c63       ?do_get_weekday@?$time_get@DV?$istreambuf_iterator@DU?$char_traits@D@std@@@std@@@std@@MBE?AV?$istreambuf_iterator@DU?$char_traits@D@std@@@2@V32@0AAVios_base@2@AAHPAUtm@@@Z 004b9c63 f i libcpmt:xlocale.obj
 0001:000b8ca5       ?do_get_year@?$time_get@DV?$istreambuf_iterator@DU?$char_traits@D@std@@@std@@@std@@MBE?AV?$istreambuf_iterator@DU?$char_traits@D@std@@@2@V32@0AAVios_base@2@AAHPAUtm@@@Z 004b9ca5 f i libcpmt:xlocale.obj
 0001:000b8d44       ?do_grouping@?$_Mpunct@D@std@@MBE?AV?$basic_string@DU?$char_traits@D@std@@V?$allocator@D@2@@2@XZ 004b9d44 f i libcpmt:xlocale.obj
 0001:000b8d5a       ?do_hash@?$collate@D@std@@MBEJPBD0@Z 004b9d5a f i libcpmt:xlocale.obj
 0001:000b8d78       ?do_neg_format@?$_Mpunct@D@std@@MBE?AUpattern@money_base@2@XZ 004b9d78 f i libcpmt:xlocale.obj
 0001:000b8d87       ?do_negative_sign@?$_Mpunct@D@std@@MBE?AV?$basic_string@DU?$char_traits@D@std@@V?$allocator@D@2@@2@XZ 004b9d87 f i libcpmt:xlocale.obj
 0001:000b8d9d       ?do_open@?$messages@D@std@@MBEHABV?$basic_string@DU?$char_traits@D@std@@V?$allocator@D@2@@2@ABVlocale@2@@Z 004b9d9d f i libcpmt:xlocale.obj
 0001:000b8da3       ?do_pos_format@?$_Mpunct@D@std@@MBE?AUpattern@money_base@2@XZ 004b9da3 f i libcpmt:xlocale.obj
 0001:000b8db2       ?do_positive_sign@?$_Mpunct@D@std@@MBE?AV?$basic_string@DU?$char_traits@D@std@@V?$allocator@D@2@@2@XZ 004b9db2 f i libcpmt:xlocale.obj
 0001:000b8dc8       ?do_put@?$money_put@DV?$ostreambuf_iterator@DU?$char_traits@D@std@@@std@@@std@@MBE?AV?$ostreambuf_iterator@DU?$char_traits@D@std@@@2@V32@_NAAVios_base@2@DABV?$basic_string@DU?$char_traits@D@std@@V?$allocator@D@2@@2@@Z 004b9dc8 f i libcpmt:xlocale.obj
 0001:000b8ef4       ?do_put@?$money_put@DV?$ostreambuf_iterator@DU?$char_traits@D@std@@@std@@@std@@MBE?AV?$ostreambuf_iterator@DU?$char_traits@D@std@@@2@V32@_NAAVios_base@2@DO@Z 004b9ef4 f i libcpmt:xlocale.obj
 0001:000b90a2       ?do_put@?$time_put@DV?$ostreambuf_iterator@DU?$char_traits@D@std@@@std@@@std@@MBE?AV?$ostreambuf_iterator@DU?$char_traits@D@std@@@2@V32@AAVios_base@2@DPBUtm@@DD@Z 004ba0a2 f i libcpmt:xlocale.obj
 0001:000b91b4       ?do_thousands_sep@?$_Mpunct@D@std@@MBEDXZ 004ba1b4 f i libcpmt:xlocale.obj
 0001:000b91b8       ?do_transform@?$collate@D@std@@MBE?AV?$basic_string@DU?$char_traits@D@std@@V?$allocator@D@2@@2@PBD0@Z 004ba1b8 f i libcpmt:xlocale.obj
 0001:000b9244       ?end@?$basic_string@DU?$char_traits@D@std@@V?$allocator@D@2@@std@@QAE?AV?$_String_iterator@V?$_String_val@U?$_Simple_types@D@std@@@std@@@2@XZ 004ba244 f i libcpmt:xlocale.obj
 0001:000b925f       ?frac_digits@?$_Mpunct@D@std@@QBEHXZ 004ba25f f i libcpmt:xlocale.obj
 0001:000b9277       ?get_monthname@?$time_get@DV?$istreambuf_iterator@DU?$char_traits@D@std@@@std@@@std@@QBE?AV?$istreambuf_iterator@DU?$char_traits@D@std@@@2@V32@0AAVios_base@2@AAHPAUtm@@@Z 004ba277 f i libcpmt:xlocale.obj
 0001:000b92af       ?get_weekday@?$time_get@DV?$istreambuf_iterator@DU?$char_traits@D@std@@@std@@@std@@QBE?AV?$istreambuf_iterator@DU?$char_traits@D@std@@@2@V32@0AAVios_base@2@AAHPAUtm@@@Z 004ba2af f i libcpmt:xlocale.obj
 0001:000b92e7       ?get_year@?$time_get@DV?$istreambuf_iterator@DU?$char_traits@D@std@@@std@@@std@@QBE?AV?$istreambuf_iterator@DU?$char_traits@D@std@@@2@V32@0AAVios_base@2@AAHPAUtm@@@Z 004ba2e7 f i libcpmt:xlocale.obj
 0001:000b931f       ?grouping@?$_Mpunct@D@std@@QBE?AV?$basic_string@DU?$char_traits@D@std@@V?$allocator@D@2@@2@XZ 004ba31f f i libcpmt:xlocale.obj
 0001:000b9344       ?is@?$ctype@D@std@@QBE_NFD@Z 004ba344 f i libcpmt:xlocale.obj
 0001:000b935d       ?narrow@?$ctype@D@std@@QBEDDD@Z 004ba35d f i libcpmt:xlocale.obj
 0001:000b9381       ?neg_format@?$_Mpunct@D@std@@QBE?AUpattern@money_base@2@XZ 004ba381 f i libcpmt:xlocale.obj
 0001:000b93a5       ?negative_sign@?$_Mpunct@D@std@@QBE?AV?$basic_string@DU?$char_traits@D@std@@V?$allocator@D@2@@2@XZ 004ba3a5 f i libcpmt:xlocale.obj
 0001:000b93ca       ?pos_format@?$_Mpunct@D@std@@QBE?AUpattern@money_base@2@XZ 004ba3ca f i libcpmt:xlocale.obj
 0001:000b93ee       ?positive_sign@?$_Mpunct@D@std@@QBE?AV?$basic_string@DU?$char_traits@D@std@@V?$allocator@D@2@@2@XZ 004ba3ee f i libcpmt:xlocale.obj
 0001:000b9413       ?thousands_sep@?$_Mpunct@D@std@@QBEDXZ 004ba413 f i libcpmt:xlocale.obj
 0001:000b942b       ?widen@?$ctype@D@std@@QBEDD@Z 004ba42b f i libcpmt:xlocale.obj
 0001:000b944c       __Stolx                    004ba44c f   libcpmt:xstol.obj
 0001:000b94f0       __Stoul                    004ba4f0 f   libcpmt:xstoul.obj
 0001:000b9508       __Stoulx                   004ba508 f   libcpmt:xstoul.obj
 0001:000b967a       __Stoll                    004ba67a f   libcpmt:xstoll.obj
 0001:000b9692       __Stollx                   004ba692 f   libcpmt:xstoll.obj
 0001:000b975d       __Stoull                   004ba75d f   libcpmt:xstoull.obj
 0001:000b9775       __Stoullx                  004ba775 f   libcpmt:xstoull.obj
 0001:000b9938       __Getcoll                  004ba938 f   libcpmt:xstrcoll.obj
 0001:000b9959       __Strcoll                  004ba959 f   libcpmt:xstrcoll.obj
 0001:000b99ec       ??$size@_W$01@std@@YAIAAY01$$CB_W@Z 004ba9ec f i libcpmt:xdateord.obj
 0001:000b99f0       __Getdateorder             004ba9f0 f   libcpmt:xdateord.obj
 0001:000b9a5d       __Mbrtowc                  004baa5d f   libcpmt:xmbtowc.obj
 0001:000b9be6       __Wcscoll                  004babe6 f   libcpmt:xwcscoll.obj
 0001:000b9c6e       _wmemcmp                   004bac6e f i libcpmt:xwcscoll.obj
 0001:000b9cab       ??$?RE@__crt_internal_free_policy@@QBEXQBE@Z 004bacab f i libcpmt:xwcsxfrm.obj
 0001:000b9cbb       ??0?$__crt_unique_heap_ptr@EU__crt_internal_free_policy@@@@QAE@QAE@Z 004bacbb f i libcpmt:xwcsxfrm.obj
 0001:000b9cc9       ??1?$__crt_unique_heap_ptr@EU__crt_internal_free_policy@@@@QAE@XZ 004bacc9 f i libcpmt:xwcsxfrm.obj
 0001:000b9cd9       ??B?$__crt_unique_heap_ptr@EU__crt_internal_free_policy@@@@QBE_NXZ 004bacd9 f i libcpmt:xwcsxfrm.obj
 0001:000b9ce0       ?get@?$__crt_unique_heap_ptr@EU__crt_internal_free_policy@@@@QBEPAEXZ 004bace0 f i libcpmt:xwcsxfrm.obj
 0001:000b9ce3       ?is_valid@?$__crt_unique_heap_ptr@EU__crt_internal_free_policy@@@@QBE_NXZ 004bace3 f i libcpmt:xwcsxfrm.obj
 0001:000b9cea       ?release@?$__crt_unique_heap_ptr@EU__crt_internal_free_policy@@@@QAEXXZ 004bacea f i libcpmt:xwcsxfrm.obj
 0001:000b9cfa       __Wcsxfrm                  004bacfa f   libcpmt:xwcsxfrm.obj
 0001:000b9dc4       __Getwctype                004badc4 f   libcpmt:xgetwctype.obj
 0001:000b9de4       __Getwctypes               004bade4 f   libcpmt:xgetwctype.obj
 0001:000b9e03       __Towlower                 004bae03 f   libcpmt:xtowlower.obj
 0001:000b9e63       __Towupper                 004bae63 f   libcpmt:xtowupper.obj
 0001:000b9ec7       __Strxfrm                  004baec7 f   libcpmt:xstrxfrm.obj
 0001:000b9f73       ___crtCompareStringA       004baf73 f   libcpmt:StlCompareStringA.obj
 0001:000ba1d9       ___crtCompareStringW       004bb1d9 f   libcpmt:StlCompareStringW.obj
 0001:000ba23d       ___crtLCMapStringW         004bb23d f   libcpmt:StlLCMapStringW.obj
 0001:000ba27a       ??$__crt_interlocked_exchange_pointer@$$A6AXXZP6AXXZ@@YAP6AXXZPDS6AXXZQ6AXXZ@Z 004bb27a f i libvcruntime:purevirt.obj
 0001:000ba287       ??$__crt_interlocked_read_pointer@$$A6AXXZ@@YAP6AXXZPDS6AXXZ@Z 004bb287 f i libvcruntime:purevirt.obj
 0001:000ba292       ?__crt_interlocked_read_32@@YAHPDH@Z 004bb292 f i libvcruntime:purevirt.obj
 0001:000ba29d       __get_purecall_handler     004bb29d f   libvcruntime:purevirt.obj
 0001:000ba2a4       __purecall                 004bb2a4 f   libvcruntime:purevirt.obj
 0001:000ba2c0       __set_purecall_handler     004bb2c0 f   libvcruntime:purevirt.obj
 0001:000ba2cf       ??$?RD@__crt_public_free_policy@@QBEXQBD@Z 004bb2cf f i libvcruntime:std_exception.obj
 0001:000ba2df       ??0?$__crt_unique_heap_ptr@DU__crt_public_free_policy@@@@QAE@QAD@Z 004bb2df f i libvcruntime:std_exception.obj
 0001:000ba2ed       ??1?$__crt_unique_heap_ptr@DU__crt_public_free_policy@@@@QAE@XZ 004bb2ed f i libvcruntime:std_exception.obj
 0001:000ba2fd       ??B?$__crt_unique_heap_ptr@DU__crt_public_free_policy@@@@QBE_NXZ 004bb2fd f i libvcruntime:std_exception.obj
 0001:000ba304       ?detach@?$__crt_unique_heap_ptr@DU__crt_public_free_policy@@@@QAEPADXZ 004bb304 f i libvcruntime:std_exception.obj
 0001:000ba30a       ?get@?$__crt_unique_heap_ptr@DU__crt_public_free_policy@@@@QBEPADXZ 004bb30a f i libvcruntime:std_exception.obj
 0001:000ba30d       ?is_valid@?$__crt_unique_heap_ptr@DU__crt_public_free_policy@@@@QBE_NXZ 004bb30d f i libvcruntime:std_exception.obj
 0001:000ba314       ?release@?$__crt_unique_heap_ptr@DU__crt_public_free_policy@@@@QAEXXZ 004bb314 f i libvcruntime:std_exception.obj
 0001:000ba324       ___std_exception_copy      004bb324 f   libvcruntime:std_exception.obj
 0001:000ba387       ___std_exception_destroy   004bb387 f   libvcruntime:std_exception.obj
 0001:000ba3a6       __CxxThrowException@8      004bb3a6 f   libvcruntime:throw.obj
 0001:000ba420       _memcpy                    004bb420 f   libvcruntime:memcpy.obj
 0001:000ba9a0       _memmove                   004bb9a0 f   libvcruntime:memmove.obj
 0001:000baf20       _strstr                    004bbf20 f   libvcruntime:strstr.obj
 0001:000bb190       _strrchr                   004bc190 f   libvcruntime:strrchr.obj
 0001:000bb2d0       _memset                    004bc2d0 f   libvcruntime:memset.obj
