 studiomdl

 Timestamp is 6492e45d (Wed Jun 21 04:51:57 2023)

 Preferred load address is 00400000

 Start         Length     Name                   Class
 0001:00000000 000005a0H .text                   CODE
 0001:000005a0 00000310H .text$di                CODE
 0001:000008b0 000eb5b0H .text$mn                CODE
 0001:000ebe60 00000a20H .text$x                 CODE
 0001:000ec880 000000a0H .text$yc                CODE
 0001:000ec920 000006aaH .text$yd                CODE
 0002:00000000 00000244H .idata$5                DATA
 0002:00000244 0000000cH .00cfg                  DATA
 0002:00000250 00000004H .CRT$XCA                DATA
 0002:00000254 00000004H .CRT$XCAA               DATA
 0002:00000258 00000070H .CRT$XCU                DATA
 0002:000002c8 00000004H .CRT$XCZ                DATA
 0002:000002cc 00000004H .CRT$XIA                DATA
 0002:000002d0 00000004H .CRT$XIAA               DATA
 0002:000002d4 00000004H .CRT$XIAC               DATA
 0002:000002d8 00000018H .CRT$XIC                DATA
 0002:000002f0 00000004H .CRT$XIZ                DATA
 0002:000002f4 00000004H .CRT$XLA                DATA
 0002:000002f8 00000004H .CRT$XLZ                DATA
 0002:000002fc 00000004H .CRT$XPA                DATA
 0002:00000300 0000000cH .CRT$XPX                DATA
 0002:0000030c 00000004H .CRT$XPXA               DATA
 0002:00000310 00000004H .CRT$XPZ                DATA
 0002:00000314 00000004H .CRT$XTA                DATA
 0002:00000318 00000008H .CRT$XTZ                DATA
 0002:0000031c 00000000H .gfids$y                DATA
 0002:00000320 000172a0H .rdata                  DATA
 0002:000175c0 00000040H .rdata$CastGuardVftablesA DATA
 0002:00017600 00000040H .rdata$CastGuardVftablesC DATA
 0002:00017640 00000018H .rdata$T                DATA
 0002:00017658 00000948H .rdata$r                DATA
 0002:00017fa0 00000114H .rdata$sxdata           DATA
 0002:000180b4 00000150H .rdata$voltmd           DATA
 0002:00018204 000004b0H .rdata$zzzdbg           DATA
 0002:000186b4 00000004H .rtc$IAA                DATA
 0002:000186b8 00000004H .rtc$IMZ                DATA
 0002:000186bc 00000004H .rtc$IZZ                DATA
 0002:000186c0 00000004H .rtc$TAA                DATA
 0002:000186c4 00000004H .rtc$TMZ                DATA
 0002:000186c8 00000004H .rtc$TZZ                DATA
 0002:000186cc 00000004H .tls                    DATA
 0002:000186d0 00000004H .tls$                   DATA
 0002:000186d4 00000004H .tls$ZZZ                DATA
 0002:000186d8 00001a98H .xdata$x                DATA
 0002:0001a170 00000050H .edata                  DATA
 0002:0001a1c0 00000050H .idata$2                DATA
 0002:0001a210 00000014H .idata$3                DATA
 0002:0001a224 00000244H .idata$4                DATA
 0002:0001a468 00000adcH .idata$6                DATA
 0003:00000000 00001dd0H .data                   DATA
 0003:00001dd0 00000190H .data$r                 DATA
 0003:00001f60 00000290H .data$rs                DATA
 0003:000021f0 023a0c5cH .bss                    DATA
 0004:00000000 00000060H .rsrc$01                DATA
 0004:00000060 00000180H .rsrc$02                DATA

  Address         Publics by Value              Rva+Base       Lib:Object

 0000:00000000       ___AbsoluteZero            00000000     <absolute>
 0000:00000000       ___arm64x_extra_rfe_table  00000000     <absolute>
 0000:00000000       ___arm64x_extra_rfe_table_size 00000000     <absolute>
 0000:00000000       ___arm64x_native_entrypoint 00000000     <absolute>
 0000:00000000       ___arm64x_redirection_metadata 00000000     <absolute>
 0000:00000000       ___arm64x_redirection_metadata_count 00000000     <absolute>
 0000:00000000       ___dynamic_value_reloc_table 00000000     <absolute>
 0000:00000000       ___enclave_config          00000000     <absolute>
 0000:00000000       ___guard_check_icall_a64n_fptr 00000000     <absolute>
 0000:00000000       ___guard_eh_cont_count     00000000     <absolute>
 0000:00000000       ___guard_eh_cont_table     00000000     <absolute>
 0000:00000000       ___guard_fids_count        00000000     <absolute>
 0000:00000000       ___guard_fids_table        00000000     <absolute>
 0000:00000000       ___guard_iat_count         00000000     <absolute>
 0000:00000000       ___guard_iat_table         00000000     <absolute>
 0000:00000000       ___guard_longjmp_count     00000000     <absolute>
 0000:00000000       ___guard_longjmp_table     00000000     <absolute>
 0000:00000000       ___hybrid_auxiliary_iat    00000000     <absolute>
 0000:00000000       ___hybrid_auxiliary_iat_copy 00000000     <absolute>
 0000:00000000       ___hybrid_code_map         00000000     <absolute>
 0000:00000000       ___hybrid_code_map_count   00000000     <absolute>
 0000:00000000       ___x64_code_ranges_to_entry_points 00000000     <absolute>
 0000:00000000       ___x64_code_ranges_to_entry_points_count 00000000     <absolute>
 0000:00000000       __except_list              00000000     <absolute>
 0000:0000002c       __tls_array                0000002c     <absolute>
 0000:00000045       ___safe_se_handler_count   00000045     <absolute>
 0000:00000100       ___guard_flags             00000100     <absolute>
 0000:00000000       ___ImageBase               00400000     <linker-defined>
 0001:00000000       ??_H@YGXPAXIHP6EPAX0@Z@Z   00401000 f i tier2:tier2.obj
 0001:00000060       ?ConnectTier2Libraries@@YAXPAP6APAXPBDPAH@ZH@Z 00401060 f   tier2:tier2.obj
 0001:000002e0       ?DisconnectTier2Libraries@@YAXXZ 004012e0 f   tier2:tier2.obj
 0001:00000360       ??0Vector2D@@QAE@MM@Z      00401360 f i tier2:tier2.obj
 0001:00000480       ?IsValid@Vector2D@@QBE_NXZ 00401480 f i tier2:tier2.obj
 0001:00000510       ?IsFinite@@YA_NM@Z         00401510 f i tier2:tier2.obj
 0001:00000570       ?FloatBits@@YAAAKAAM@Z     00401570 f i tier2:tier2.obj
 0001:000008b0       ?DestroyResourceStorage@?$CDataManager@VCBoneCache@@Ubonecacheparams_t@@PAV1@@@EAEXPAX@Z 004018b0 f i bone_setup.obj
 0001:000008c0       ?GetRealSize@?$CDataManager@VCBoneCache@@Ubonecacheparams_t@@PAV1@@@EAEIPAX@Z 004018c0 f i bone_setup.obj
 0001:000008d0       ??_E?$CDataManager@VCBoneCache@@Ubonecacheparams_t@@PAV1@@@UAEPAXI@Z 004018d0 f i bone_setup.obj
 0001:000008d0       ??_G?$CDataManager@VCBoneCache@@Ubonecacheparams_t@@PAV1@@@UAEPAXI@Z 004018d0 f i bone_setup.obj
 0001:00000900       ??0?$CUtlMemory@H@@QAE@HH@Z 00401900 f i bone_setup.obj
 0001:00000940       ??0?$CUtlMemory@Uikcontextikrule_t@@@@QAE@HH@Z 00401940 f i bone_setup.obj
 0001:00000980       ??0?$CUtlMemory@V?$CUtlVector@Uikcontextikrule_t@@V?$CUtlMemory@Uikcontextikrule_t@@@@@@@@QAE@HH@Z 00401980 f i bone_setup.obj
 0001:000009c0       ??0?$CUtlMemory@VCIKTarget@@@@QAE@HH@Z 004019c0 f i bone_setup.obj
 0001:00000a00       ??0CBoneCache@@QAE@XZ      00401a00 f   bone_setup.obj
 0001:00000a10       ??0CIKContext@@QAE@XZ      00401a10 f   bone_setup.obj
 0001:00000ad0       ??0Quaternion@@QAE@XZ      00401ad0 f i bone_setup.obj
 0001:00000ae0       ??0Vector@@QAE@XZ          00401ae0 f i bone_setup.obj
 0001:00000af0       ??0ikchainresult_t@@QAE@XZ 00401af0 f i bone_setup.obj
 0001:00000b00       ??0matrix3x4_t@@QAE@XZ     00401b00 f i bone_setup.obj
 0001:00000b10       ??1?$CUtlMemory@H@@QAE@XZ  00401b10 f i bone_setup.obj
 0001:00000b40       ??1?$CUtlMemory@Uikcontextikrule_t@@@@QAE@XZ 00401b40 f i bone_setup.obj
 0001:00000b70       ??1?$CUtlMemory@V?$CUtlVector@Uikcontextikrule_t@@V?$CUtlMemory@Uikcontextikrule_t@@@@@@@@QAE@XZ 00401b70 f i bone_setup.obj
 0001:00000ba0       ??1?$CUtlMemory@VCIKTarget@@@@QAE@XZ 00401ba0 f i bone_setup.obj
 0001:00000bd0       ??1?$CUtlVector@Uikcontextikrule_t@@V?$CUtlMemory@Uikcontextikrule_t@@@@@@QAE@XZ 00401bd0 f i bone_setup.obj
 0001:00000c30       ??1?$CUtlVector@V?$CUtlVector@Uikcontextikrule_t@@V?$CUtlMemory@Uikcontextikrule_t@@@@@@V?$CUtlMemory@V?$CUtlVector@Uikcontextikrule_t@@V?$CUtlMemory@Uikcontextikrule_t@@@@@@@@@@QAE@XZ 00401c30 f i bone_setup.obj
 0001:00000cb0       ??1?$CUtlVector@VCIKTarget@@V?$CUtlMemory@VCIKTarget@@@@@@QAE@XZ 00401cb0 f i bone_setup.obj
 0001:00000d10       ??4ikcontextikrule_t@@QAEAAU0@ABU0@@Z 00401d10 f i bone_setup.obj
 0001:00000dd0       ??BQuaternion32@@QAE?AVQuaternion@@XZ 00401dd0 f i bone_setup.obj
 0001:00000ed0       ??_H@YGXPAXIIP6EPAX0@Z@Z   00401ed0 f i bone_setup.obj
 0001:00000f00       ?AccumulatePose@@YAXPBVCStudioHdr@@PAVCIKContext@@QAVVector@@QAVQuaternion@@HMQBMHMM@Z 00401f00 f   bone_setup.obj
 0001:00001150       ?AddAutoplayLocks@CIKContext@@QAEXQAVVector@@QAVQuaternion@@@Z 00402150 f   bone_setup.obj
 0001:00001310       ?AddDependencies@CIKContext@@QAEXAAUmstudioseqdesc_t@@HMQBMM@Z 00402310 f   bone_setup.obj
 0001:000015b0       ?AddLocalLayers@@YAXPBVCStudioHdr@@PAVCIKContext@@QAVVector@@QAVQuaternion@@AAUmstudioseqdesc_t@@HMQBMHMM@Z 004025b0 f   bone_setup.obj
 0001:00001790       ?AddMultipleToTail@?$CUtlVector@Uikcontextikrule_t@@V?$CUtlMemory@Uikcontextikrule_t@@@@@@QAEHHPBUikcontextikrule_t@@@Z 00402790 f i bone_setup.obj
 0001:00001900       ?AddSequenceLayers@@YAXPBVCStudioHdr@@PAVCIKContext@@QAVVector@@QAVQuaternion@@AAUmstudioseqdesc_t@@HMQBMHMM@Z 00402900 f   bone_setup.obj
 0001:00001b20       ?AddSequenceLocks@CIKContext@@QAEXAAUmstudioseqdesc_t@@QAVVector@@QAVQuaternion@@@Z 00402b20 f   bone_setup.obj
 0001:00001cc0       ?AutoIKRelease@CIKContext@@QAEXXZ 00402cc0 f   bone_setup.obj
 0001:00001f80       ?BlendBones@@YAXPBVCStudioHdr@@QAVQuaternion@@QAVVector@@AAUmstudioseqdesc_t@@HQBV2@QBV3@MH@Z 00402f80 f   bone_setup.obj
 0001:000021f0       ?BoneArray@CBoneCache@@AAEPAUmatrix3x4_t@@XZ 004031f0 f   bone_setup.obj
 0001:00002200       ?BuildBoneChain@@YAXPBVCStudioHdr@@ABUmatrix3x4_t@@QBVVector@@QBVQuaternion@@HPAU2@@Z 00403200 f   bone_setup.obj
 0001:00002250       ?BuildBoneChain@@YAXPBVCStudioHdr@@ABUmatrix3x4_t@@QBVVector@@QBVQuaternion@@HPAU2@AAVCBoneBitList@@@Z 00403250 f   bone_setup.obj
 0001:00002310       ?BuildBoneChain@CIKContext@@AAEXQBVVector@@QBVQuaternion@@HPAUmatrix3x4_t@@AAVCBoneBitList@@@Z 00403310 f   bone_setup.obj
 0001:00002340       ?CachedToStudio@CBoneCache@@AAEPAFXZ 00403340 f   bone_setup.obj
 0001:00002700       ?CalcAutoplaySequences@@YAXPBVCStudioHdr@@PAVCIKContext@@QAVVector@@QAVQuaternion@@QBMHM@Z 00403700 f   bone_setup.obj
 0001:000027d0       ?CalcBoneAdj@@YAXPBVCStudioHdr@@QAVVector@@QAVQuaternion@@QBMH@Z 004037d0 f   bone_setup.obj
 0001:00002a90       ?CalcBoneDerivatives@@YAXAAVVector@@0ABUmatrix3x4_t@@1M@Z 00403a90 f   bone_setup.obj
 0001:00002b90       ?CalcBonePosition@@YAXHMPBUmstudiobone_t@@PBUmstudioanim_t@@AAVVector@@@Z 00403b90 f   bone_setup.obj
 0001:00002d40       ?CalcBoneQuaternion@@YAXHMPBUmstudiobone_t@@PBUmstudioanim_t@@AAVQuaternion@@@Z 00403d40 f   bone_setup.obj
 0001:00003040       ?CalcBoneVelocityFromDerivative@@YAXABVQAngle@@AAVVector@@1ABUmatrix3x4_t@@@Z 00404040 f   bone_setup.obj
 0001:000030d0       ?CalcPose@@YAXPBVCStudioHdr@@PAVCIKContext@@QAVVector@@QAVQuaternion@@HMQBMHMM@Z 004040d0 f   bone_setup.obj
 0001:00003210       ?CalcPoseSingle@@YA_NPBVCStudioHdr@@QAVVector@@QAVQuaternion@@AAUmstudioseqdesc_t@@HMQBMHM@Z 00404210 f   bone_setup.obj
 0001:00003b10       ?CalcProceduralBone@@YA_NPBVCStudioHdr@@HAAVCBoneAccessor@@@Z 00404b10 f   bone_setup.obj
 0001:00003fc0       ?ClearOwner@CIKTarget@@QAEXXZ 00404fc0 f   bone_setup.obj
 0001:00003fd0       ?ClearTargets@CIKContext@@QAEXXZ 00404fd0 f   bone_setup.obj
 0001:00004380       ?CopyArray@?$CUtlVector@Uikcontextikrule_t@@V?$CUtlMemory@Uikcontextikrule_t@@@@@@QAEXPBUikcontextikrule_t@@H@Z 00405380 f i bone_setup.obj
 0001:00004490       ?CreateResource@CBoneCache@@SAPAV1@ABUbonecacheparams_t@@@Z 00405490 f   bone_setup.obj
 0001:000045f0       ?DestroyResource@CBoneCache@@QAEXXZ 004055f0 f   bone_setup.obj
 0001:00004600       ?DoAimAtBone@@YAXPAUmstudiobone_t@@HAAVCBoneAccessor@@PBVCStudioHdr@@@Z 00405600 f   bone_setup.obj
 0001:00004a20       ?DoAxisInterpBone@@YAXPAUmstudiobone_t@@HAAVCBoneAccessor@@@Z 00405a20 f   bone_setup.obj
 0001:00004d00       ?DoQuatInterpBone@@YAXPAUmstudiobone_t@@HAAVCBoneAccessor@@@Z 00405d00 f   bone_setup.obj
 0001:00005050       ?EnsureCapacity@?$CUtlVector@VCIKTarget@@V?$CUtlMemory@VCIKTarget@@@@@@QAEXH@Z 00406050 f i bone_setup.obj
 0001:000050a0       ?EstimatedSize@CBoneCache@@SAIABUbonecacheparams_t@@@Z 004060a0 f   bone_setup.obj
 0001:000050c0       ?ExtractAnimValue@@YAXHPATmstudioanimvalue_t@@MAAM1@Z 004060c0 f   bone_setup.obj
 0001:00005200       ?GetCachedBone@CBoneCache@@QAEPAUmatrix3x4_t@@H@Z 00406200 f   bone_setup.obj
 0001:00005230       ?GetFloat@float16@@QBEMXZ  00406230 f i bone_setup.obj
 0001:00005370       ?GetOwner@CIKTarget@@QAEHXZ 00406370 f   bone_setup.obj
 0001:00005380       ?Grow@?$CUtlMemory@H@@QAEXH@Z 00406380 f i bone_setup.obj
 0001:000053f0       ?Grow@?$CUtlMemory@Uikcontextikrule_t@@@@QAEXH@Z 004063f0 f i bone_setup.obj
 0001:00005460       ?Grow@?$CUtlMemory@V?$CUtlVector@Uikcontextikrule_t@@V?$CUtlMemory@Uikcontextikrule_t@@@@@@@@QAEXH@Z 00406460 f i bone_setup.obj
 0001:000054d0       ?Grow@?$CUtlMemory@VCIKTarget@@@@QAEXH@Z 004064d0 f i bone_setup.obj
 0001:00005540       ?GrowVector@?$CUtlVector@HV?$CUtlMemory@H@@@@IAEXH@Z 00406540 f i bone_setup.obj
 0001:000055d0       ?GrowVector@?$CUtlVector@Uikcontextikrule_t@@V?$CUtlMemory@Uikcontextikrule_t@@@@@@IAEXH@Z 004065d0 f i bone_setup.obj
 0001:00005660       ?GrowVector@?$CUtlVector@V?$CUtlVector@Uikcontextikrule_t@@V?$CUtlMemory@Uikcontextikrule_t@@@@@@V?$CUtlMemory@V?$CUtlVector@Uikcontextikrule_t@@V?$CUtlMemory@Uikcontextikrule_t@@@@@@@@@@IAEXH@Z 00406660 f i bone_setup.obj
 0001:000056f0       ?GrowVector@?$CUtlVector@VCIKTarget@@V?$CUtlMemory@VCIKTarget@@@@@@IAEXH@Z 004066f0 f i bone_setup.obj
 0001:00005780       ?IKFailed@CIKTarget@@QAEXXZ 00406780 f   bone_setup.obj
 0001:00005800       ?Init@CBoneCache@@QAEXABUbonecacheparams_t@@IPAF1H@Z 00406800 f   bone_setup.obj
 0001:000058d0       ?Init@CIKContext@@QAEXPBVCStudioHdr@@ABVQAngle@@ABVVector@@MHH@Z 004068d0 f   bone_setup.obj
 0001:000059c0       ?InitPose@@YAXPBVCStudioHdr@@QAVVector@@QAVQuaternion@@@Z 004069c0 f   bone_setup.obj
 0001:00005a30       ?InsertBefore@?$CUtlVector@HV?$CUtlMemory@H@@@@QAEHHABH@Z 00406a30 f i bone_setup.obj
 0001:00005a80       ?InsertBefore@?$CUtlVector@Uikcontextikrule_t@@V?$CUtlMemory@Uikcontextikrule_t@@@@@@QAEHH@Z 00406a80 f i bone_setup.obj
 0001:00005ac0       ?InsertMultipleBefore@?$CUtlVector@V?$CUtlVector@Uikcontextikrule_t@@V?$CUtlMemory@Uikcontextikrule_t@@@@@@V?$CUtlMemory@V?$CUtlVector@Uikcontextikrule_t@@V?$CUtlMemory@Uikcontextikrule_t@@@@@@@@@@QAEHHHPBV?$CUtlVector@Uikcontextikrule_t@@V?$CUtlMemory@Uikcontextikrule_t@@@@@@@Z 00406ac0 f i bone_setup.obj
 0001:00005d40       ?IsActive@CIKTarget@@QAE_NXZ 00406d40 f   bone_setup.obj
 0001:00005d50       ?IsExternallyAllocated@?$CUtlMemory@H@@QBE_NXZ 00406d50 f i bone_setup.obj
 0001:00005d60       ?IsExternallyAllocated@?$CUtlMemory@Uikcontextikrule_t@@@@QBE_NXZ 00406d60 f i bone_setup.obj
 0001:00005d70       ?IsExternallyAllocated@?$CUtlMemory@V?$CUtlVector@Uikcontextikrule_t@@V?$CUtlMemory@Uikcontextikrule_t@@@@@@@@QBE_NXZ 00406d70 f i bone_setup.obj
 0001:00005d80       ?IsExternallyAllocated@?$CUtlMemory@VCIKTarget@@@@QBE_NXZ 00406d80 f i bone_setup.obj
 0001:00005d90       ?IsValid@CBoneCache@@QAE_NMM@Z 00406d90 f   bone_setup.obj
 0001:00005db0       ?PoseIsAllZeros@@YA_NPBVCStudioHdr@@HAAUmstudioseqdesc_t@@HH@Z 00406db0 f i bone_setup.obj
 0001:00005e10       ?Purge@?$CUtlMemory@H@@QAEXXZ 00406e10 f i bone_setup.obj
 0001:00005e40       ?Purge@?$CUtlMemory@Uikcontextikrule_t@@@@QAEXXZ 00406e40 f i bone_setup.obj
 0001:00005e70       ?Purge@?$CUtlMemory@V?$CUtlVector@Uikcontextikrule_t@@V?$CUtlMemory@Uikcontextikrule_t@@@@@@@@QAEXXZ 00406e70 f i bone_setup.obj
 0001:00005ea0       ?Purge@?$CUtlMemory@VCIKTarget@@@@QAEXXZ 00406ea0 f i bone_setup.obj
 0001:00005ed0       ?QuaternionAccumulate@@YAXABVQuaternion@@M0AAV1@@Z 00406ed0 f   bone_setup.obj
 0001:00005f50       ?QuaternionMA@@YAXABVQuaternion@@M0AAV1@@Z 00406f50 f   bone_setup.obj
 0001:00005fa0       ?QuaternionSM@@YAXMABVQuaternion@@0AAV1@@Z 00406fa0 f   bone_setup.obj
 0001:00005ff0       ?ReadCachedBonePointers@CBoneCache@@QAEXPAPAUmatrix3x4_t@@H@Z 00406ff0 f   bone_setup.obj
 0001:00006050       ?ReadCachedBones@CBoneCache@@QAEXPAUmatrix3x4_t@@@Z 00407050 f   bone_setup.obj
 0001:000060b0       ?RemoveAll@?$CUtlVector@HV?$CUtlMemory@H@@@@QAEXXZ 004070b0 f i bone_setup.obj
 0001:000060c0       ?RemoveAll@?$CUtlVector@Uikcontextikrule_t@@V?$CUtlMemory@Uikcontextikrule_t@@@@@@QAEXXZ 004070c0 f i bone_setup.obj
 0001:000060d0       ?RemoveAll@?$CUtlVector@V?$CUtlVector@Uikcontextikrule_t@@V?$CUtlMemory@Uikcontextikrule_t@@@@@@V?$CUtlMemory@V?$CUtlVector@Uikcontextikrule_t@@V?$CUtlMemory@Uikcontextikrule_t@@@@@@@@@@QAEXXZ 004070d0 f i bone_setup.obj
 0001:00006100       ?RemoveAll@?$CUtlVector@VCIKTarget@@V?$CUtlMemory@VCIKTarget@@@@@@QAEXXZ 00407100 f i bone_setup.obj
 0001:00006110       ?ScaleBones@@YAXPBVCStudioHdr@@QAVQuaternion@@QAVVector@@HMH@Z 00407110 f   bone_setup.obj
 0001:00006240       ?SetAngles@CIKTarget@@QAEXABVQAngle@@@Z 00407240 f   bone_setup.obj
 0001:00006260       ?SetCount@?$CUtlVector@Uikcontextikrule_t@@V?$CUtlMemory@Uikcontextikrule_t@@@@@@QAEXH@Z 00407260 f i bone_setup.obj
 0001:00006280       ?SetCount@?$CUtlVector@V?$CUtlVector@Uikcontextikrule_t@@V?$CUtlMemory@Uikcontextikrule_t@@@@@@V?$CUtlMemory@V?$CUtlVector@Uikcontextikrule_t@@V?$CUtlMemory@Uikcontextikrule_t@@@@@@@@@@QAEXH@Z 00407280 f i bone_setup.obj
 0001:000062d0       ?SetCount@?$CUtlVector@VCIKTarget@@V?$CUtlMemory@VCIKTarget@@@@@@QAEXH@Z 004072d0 f i bone_setup.obj
 0001:00006380       ?SetNormal@CIKTarget@@QAEXABVVector@@@Z 00407380 f   bone_setup.obj
 0001:00006480       ?SetOwner@CIKTarget@@QAEXHABVVector@@ABVQAngle@@@Z 00407480 f   bone_setup.obj
 0001:000064d0       ?SetPos@CIKTarget@@QAEXABVVector@@@Z 004074d0 f   bone_setup.obj
 0001:000064f0       ?SetPosWithNormalOffset@CIKTarget@@QAEXABVVector@@0@Z 004074f0 f   bone_setup.obj
 0001:000065a0       ?SetQuaternion@CIKTarget@@QAEXABVQuaternion@@@Z 004075a0 f   bone_setup.obj
 0001:000065c0       ?SetSize@?$CUtlVector@VCIKTarget@@V?$CUtlMemory@VCIKTarget@@@@@@QAEXH@Z 004075c0 f i bone_setup.obj
 0001:00006670       ?SetupSingleBoneMatrix@@YAXPAVCStudioHdr@@HHHAAUmatrix3x4_t@@@Z 00407670 f   bone_setup.obj
 0001:000067b0       ?ShiftElementsRight@?$CUtlVector@HV?$CUtlMemory@H@@@@IAEXHH@Z 004077b0 f i bone_setup.obj
 0001:000067f0       ?ShiftElementsRight@?$CUtlVector@Uikcontextikrule_t@@V?$CUtlMemory@Uikcontextikrule_t@@@@@@IAEXHH@Z 004077f0 f i bone_setup.obj
 0001:00006830       ?ShiftElementsRight@?$CUtlVector@V?$CUtlVector@Uikcontextikrule_t@@V?$CUtlMemory@Uikcontextikrule_t@@@@@@V?$CUtlMemory@V?$CUtlVector@Uikcontextikrule_t@@V?$CUtlMemory@Uikcontextikrule_t@@@@@@@@@@IAEXHH@Z 00407830 f i bone_setup.obj
 0001:00006870       ?ShiftElementsRight@?$CUtlVector@VCIKTarget@@V?$CUtlMemory@VCIKTarget@@@@@@IAEXHH@Z 00407870 f i bone_setup.obj
 0001:000068c0       ?SlerpBones@@YAXPBVCStudioHdr@@QAVQuaternion@@QAVVector@@AAUmstudioseqdesc_t@@HQBV2@QBV3@MH@Z 004078c0 f   bone_setup.obj
 0001:00006cb0       ?SolveAutoplayLocks@CIKContext@@QAEXQAVVector@@QAVQuaternion@@@Z 00407cb0 f   bone_setup.obj
 0001:00007000       ?SolveBone@@YAXPBVCStudioHdr@@HPAUmatrix3x4_t@@QAVVector@@QAVQuaternion@@@Z 00408000 f   bone_setup.obj
 0001:00007070       ?SolveDependencies@CIKContext@@QAEXQAVVector@@QAVQuaternion@@QAUmatrix3x4_t@@AAVCBoneBitList@@@Z 00408070 f   bone_setup.obj
 0001:00007870       ?SolveSequenceLocks@CIKContext@@QAEXAAUmstudioseqdesc_t@@QAVVector@@QAVQuaternion@@@Z 00408870 f   bone_setup.obj
 0001:00007bf0       ?StudioToCached@CBoneCache@@AAEPAFXZ 00408bf0 f   bone_setup.obj
 0001:00007c00       ?Studio_AlignIKMatrix@@YAXAAUmatrix3x4_t@@ABVVector@@@Z 00408c00 f   bone_setup.obj
 0001:00007d20       ?Studio_AnimMovement@@YA_NPAUmstudioanimdesc_t@@MMAAVVector@@AAVQAngle@@@Z 00408d20 f   bone_setup.obj
 0001:00007de0       ?Studio_AnimPosition@@YA_NPAUmstudioanimdesc_t@@MAAVVector@@AAVQAngle@@@Z 00408de0 f   bone_setup.obj
 0001:00007fa0       ?Studio_AnimVelocity@@YA_NPAUmstudioanimdesc_t@@MAAVVector@@@Z 00408fa0 f   bone_setup.obj
 0001:00008060       ?Studio_BoneIndexByName@@YAHPBVCStudioHdr@@PBD@Z 00409060 f   bone_setup.obj
 0001:000080f0       ?Studio_BuildMatrices@@YAXPBVCStudioHdr@@ABVQAngle@@ABVVector@@QBV3@QBVQuaternion@@HQAUmatrix3x4_t@@H@Z 004090f0 f   bone_setup.obj
 0001:00008210       ?Studio_CPS@@YAMPBVCStudioHdr@@AAUmstudioseqdesc_t@@HQBM@Z 00409210 f   bone_setup.obj
 0001:00008310       ?Studio_CalcBoneToBoneTransform@@YAXPBVCStudioHdr@@HHAAUmatrix3x4_t@@@Z 00409310 f   bone_setup.obj
 0001:00008370       ?Studio_CreateBoneCache@@YAPAUmemhandle_t__@@AAUbonecacheparams_t@@@Z 00409370 f   bone_setup.obj
 0001:000083c0       ?Studio_DestroyBoneCache@@YAXPAUmemhandle_t__@@@Z 004093c0 f   bone_setup.obj
 0001:000083e0       ?Studio_Duration@@YAMPBVCStudioHdr@@HQBM@Z 004093e0 f   bone_setup.obj
 0001:00008430       ?Studio_FPS@@YAMPBVCStudioHdr@@HQBM@Z 00409430 f   bone_setup.obj
 0001:000084e0       ?Studio_FindAnimDistance@@YAMPAUmstudioanimdesc_t@@M@Z 004094e0 f   bone_setup.obj
 0001:000085f0       ?Studio_FindAttachment@@YAHPBVCStudioHdr@@PBD@Z 004095f0 f   bone_setup.obj
 0001:00008650       ?Studio_FindRandomAttachment@@YAHPBVCStudioHdr@@PBD@Z 00409650 f   bone_setup.obj
 0001:00008780       ?Studio_FindSeqDistance@@YAMPBVCStudioHdr@@HQBMM@Z 00409780 f   bone_setup.obj
 0001:00008920       ?Studio_GetBoneCache@@YAPAVCBoneCache@@PAUmemhandle_t__@@@Z 00409920 f   bone_setup.obj
 0001:00008940       ?Studio_GetController@@YAMPBVCStudioHdr@@HM@Z 00409940 f   bone_setup.obj
 0001:00008980       ?Studio_GetDefaultSurfaceProps@@YAPBDPAVCStudioHdr@@@Z 00409980 f   bone_setup.obj
 0001:000089a0       ?Studio_GetKeyValueText@@YAPBDPBVCStudioHdr@@H@Z 004099a0 f   bone_setup.obj
 0001:000089f0       ?Studio_GetMass@@YAMPAVCStudioHdr@@@Z 004099f0 f   bone_setup.obj
 0001:00008a00       ?Studio_GetPoseParameter@@YAMPBVCStudioHdr@@HM@Z 00409a00 f   bone_setup.obj
 0001:00008a50       ?Studio_IKAnimationError@@YA_NPBVCStudioHdr@@PAUmstudioikrule_t@@PBUmstudioanimdesc_t@@MAAVVector@@AAVQuaternion@@AAM@Z 00409a50 f   bone_setup.obj
 0001:00008ea0       ?Studio_IKRuleWeight@@YAMAAUikcontextikrule_t@@M@Z 00409ea0 f   bone_setup.obj
 0001:00008f50       ?Studio_IKRuleWeight@@YAMAAUmstudioikrule_t@@PBUmstudioanimdesc_t@@MAAHAAM@Z 00409f50 f   bone_setup.obj
 0001:000090a0       ?Studio_IKSequenceError@@YA_NPBVCStudioHdr@@AAUmstudioseqdesc_t@@HMHQBMQAPAUmstudioanimdesc_t@@QAMAAUikcontextikrule_t@@@Z 0040a0a0 f   bone_setup.obj
 0001:000096d0       ?Studio_IKShouldLatch@@YA_NAAUikcontextikrule_t@@M@Z 0040a6d0 f   bone_setup.obj
 0001:00009720       ?Studio_IKTail@@YAMAAUikcontextikrule_t@@M@Z 0040a720 f   bone_setup.obj
 0001:00009780       ?Studio_InvalidateBoneCache@@YAXPAUmemhandle_t__@@@Z 0040a780 f   bone_setup.obj
 0001:000097a0       ?Studio_LocalPoseParameter@@YAXPBVCStudioHdr@@QBMAAUmstudioseqdesc_t@@HHAAMAAH@Z 0040a7a0 f   bone_setup.obj
 0001:00009a20       ?Studio_MaxFrame@@YAHPBVCStudioHdr@@HQBM@Z 0040aa20 f   bone_setup.obj
 0001:00009af0       ?Studio_PrefetchSequence@@YA_NPBVCStudioHdr@@H@Z 0040aaf0 f   bone_setup.obj
 0001:00009b90       ?Studio_SeqAnims@@YAXPBVCStudioHdr@@AAUmstudioseqdesc_t@@HQBMQAPAUmstudioanimdesc_t@@PAM@Z 0040ab90 f   bone_setup.obj
 0001:00009db0       ?Studio_SeqMovement@@YA_NPBVCStudioHdr@@HMMQBMAAVVector@@AAVQAngle@@@Z 0040adb0 f   bone_setup.obj
 0001:00009f90       ?Studio_SeqVelocity@@YA_NPBVCStudioHdr@@HMQBMAAVVector@@@Z 0040af90 f   bone_setup.obj
 0001:0000a0e0       ?Studio_SetController@@YAMPBVCStudioHdr@@HMAAM@Z 0040b0e0 f   bone_setup.obj
 0001:0000a2a0       ?Studio_SetPoseParameter@@YAMPBVCStudioHdr@@HMAAM@Z 0040b2a0 f   bone_setup.obj
 0001:0000a3e0       ?Studio_SolveIK@@YA_NHHHAAVVector@@00PAUmatrix3x4_t@@@Z 0040b3e0 f   bone_setup.obj
 0001:0000a7f0       ?Studio_SolveIK@@YA_NHHHAAVVector@@PAUmatrix3x4_t@@@Z 0040b7f0 f   bone_setup.obj
 0001:0000a9e0       ?Studio_SolveIK@@YA_NPAUmstudioikchain_t@@AAVVector@@PAUmatrix3x4_t@@@Z 0040b9e0 f   bone_setup.obj
 0001:0000ac70       ?SweepBoxToStudio@@YA_NABURay_t@@PAVCStudioHdr@@PAUmstudiohitboxset_t@@PAPAUmatrix3x4_t@@HAAVCGameTrace@@@Z 0040bc70 f   bone_setup.obj
 0001:0000ae50       ?TraceToStudio@@YA_NABURay_t@@PAVCStudioHdr@@PAUmstudiohitboxset_t@@PAPAUmatrix3x4_t@@HAAVCGameTrace@@@Z 0040be50 f   bone_setup.obj
 0001:0000b030       ?UpdateBones@CBoneCache@@QAEXPBUmatrix3x4_t@@HM@Z 0040c030 f   bone_setup.obj
 0001:0000b090       ?UpdateOwner@CIKTarget@@QAEXHABVVector@@ABVQAngle@@@Z 0040c090 f   bone_setup.obj
 0001:0000b190       ?UpdateTargets@CIKContext@@QAEXQAVVector@@QAVQuaternion@@QAUmatrix3x4_t@@AAVCBoneBitList@@@Z 0040c190 f   bone_setup.obj
 0001:0000bcf0       ?WorldSpaceSlerp@@YAXPBVCStudioHdr@@QAVQuaternion@@QAVVector@@AAUmstudioseqdesc_t@@HQBV2@QBV3@MH@Z 0040ccf0 f   bone_setup.obj
 0001:0000c070       ?anim@mstudioseqdesc_t@@QBEHHH@Z 0040d070 f i bone_setup.obj
 0001:0000c0b0       ?solve@ik@@SA_NMMQBM0QAM@Z 0040d0b0 f i bone_setup.obj
 0001:0000c500       ??0Vector2D@@QAE@XZ        0040d500 f i CollisionUtils.obj
 0001:0000c510       ?AxisTestEdgeCrossX2@@YA_NMMMMABVVector@@00M@Z 0040d510 f i CollisionUtils.obj
 0001:0000c5a0       ?AxisTestEdgeCrossY2@@YA_NMMMMABVVector@@00M@Z 0040d5a0 f i CollisionUtils.obj
 0001:0000c630       ?AxisTestEdgeCrossZ1@@YA_NMMMMABVVector@@00M@Z 0040d630 f i CollisionUtils.obj
 0001:0000c820       ?ComputeIntersectionBarycentricCoordinates@@YA_NABURay_t@@ABVVector@@11AAM2PAM@Z 0040d820 f   CollisionUtils.obj
 0001:0000ca60       ?ComputePointFromBarycentric@@YAXABVVector2D@@00MMAAV1@@Z 0040da60 f   CollisionUtils.obj
 0001:0000cae0       ?ComputePointFromBarycentric@@YAXABVVector@@00MMAAV1@@Z 0040dae0 f   CollisionUtils.obj
 0001:0000d430       ?ComputeSeparatingPlane@@YA_NABVVector@@ABVQAngle@@000100MPAUcplane_t@@@Z 0040e430 f   CollisionUtils.obj
 0001:0000d620       ?DotProductAbs@@YAMABVVector@@0@Z 0040e620 f i CollisionUtils.obj
 0001:0000d680       ?GetNonMajorAxes@@YAXABVVector@@AAVVector2D@@@Z 0040e680 f   CollisionUtils.obj
 0001:0000d740       ?IntersectInfiniteRayWithSphere@@YA_NABVVector@@00MPAM1@Z 0040e740 f   CollisionUtils.obj
 0001:0000d8b0       ?IntersectRayWithAAPlane@@YAMABVVector@@0HMM@Z 0040e8b0 f   CollisionUtils.obj
 0001:0000d910       ?IntersectRayWithBox@@YA_NABURay_t@@ABVVector@@1MPAVCBaseTrace@@@Z 0040e910 f   CollisionUtils.obj
 0001:0000da30       ?IntersectRayWithBox@@YA_NABVVector@@000MPAUBoxTraceInfo_t@@@Z 0040ea30 f   CollisionUtils.obj
 0001:0000db60       ?IntersectRayWithBox@@YA_NABVVector@@000MPAVCBaseTrace@@@Z 0040eb60 f   CollisionUtils.obj
 0001:0000dd40       ?IntersectRayWithOBB@@YA_NABURay_t@@ABUmatrix3x4_t@@ABVVector@@2MPAVCBaseTrace@@@Z 0040ed40 f   CollisionUtils.obj
 0001:0000e840       ?IntersectRayWithOBB@@YA_NABURay_t@@ABVVector@@ABVQAngle@@11MPAVCBaseTrace@@@Z 0040f840 f   CollisionUtils.obj
 0001:0000eaf0       ?IntersectRayWithOBB@@YA_NABVVector@@00ABVQAngle@@00MPAVCBaseTrace@@@Z 0040faf0 f   CollisionUtils.obj
 0001:0000ec00       ?IntersectRayWithOBB@@YA_NABVVector@@0ABUmatrix3x4_t@@00MPAUBoxTraceInfo_t@@@Z 0040fc00 f   CollisionUtils.obj
 0001:0000ec50       ?IntersectRayWithOBB@@YA_NABVVector@@0ABUmatrix3x4_t@@00MPAVCBaseTrace@@@Z 0040fc50 f   CollisionUtils.obj
 0001:0000f000       ?IntersectRayWithPlane@@YAMABURay_t@@ABUcplane_t@@@Z 00410000 f   CollisionUtils.obj
 0001:0000f090       ?IntersectRayWithPlane@@YAMABVVector@@00M@Z 00410090 f   CollisionUtils.obj
 0001:0000f120       ?IntersectRayWithPlane@@YAMABVVector@@0ABUcplane_t@@@Z 00410120 f   CollisionUtils.obj
 0001:0000f1b0       ?IntersectRayWithRay@@YA_NABURay_t@@0AAM1@Z 004101b0 f   CollisionUtils.obj
 0001:0000f3f0       ?IntersectRayWithSphere@@YA_NABVVector@@00MPAM1@Z 004103f0 f   CollisionUtils.obj
 0001:0000f5a0       ?IntersectRayWithTriangle@@YAMABURay_t@@ABVVector@@11_N@Z 004105a0 f   CollisionUtils.obj
 0001:0000f860       ?IntersectTriangleWithPlaneBarycentric@@YAHABVVector@@00ABVVector4D@@PAVVector2D@@@Z 00410860 f   CollisionUtils.obj
 0001:0000f9a0       ?IsBoxIntersectingBox@@YA_NABVVector@@000@Z 004109a0 f   CollisionUtils.obj
 0001:0000fa00       ?IsBoxIntersectingBoxExtents@@YA_NABVVector@@000@Z 00410a00 f   CollisionUtils.obj
 0001:0000faa0       ?IsBoxIntersectingRay@@YI_NABVVector@@0000M@Z 00410aa0 f   CollisionUtils.obj
 0001:0000fba0       ?IsBoxIntersectingRay@@YI_NABVVector@@000M@Z 00410ba0 f   CollisionUtils.obj
 0001:0000fcb0       ?IsBoxIntersectingRay@@YI_NABVVector@@0ABURay_t@@M@Z 00410cb0 f   CollisionUtils.obj
 0001:0000fec0       ?IsBoxIntersectingSphere@@YA_NABVVector@@00M@Z 00410ec0 f   CollisionUtils.obj
 0001:0000ff90       ?IsBoxIntersectingSphereExtents@@YA_NABVVector@@00M@Z 00410f90 f   CollisionUtils.obj
 0001:00010050       ?IsBoxIntersectingTriangle@@YA_NABVVector@@0000ABUcplane_t@@M@Z 00411050 f   CollisionUtils.obj
 0001:000106b0       ?IsCircleIntersectingRectangle@@YA_NABVVector2D@@00M@Z 004116b0 f   CollisionUtils.obj
 0001:00010750       ?IsOBBIntersectingOBB@@YA_NABVVector@@ABVQAngle@@000100M@Z 00411750 f   CollisionUtils.obj
 0001:00010790       ?IsPointInBox@@YA_NABVVector@@00@Z 00411790 f   CollisionUtils.obj
 0001:000107e0       ?IsPointInCone@@YA_NABVVector@@00MM@Z 004117e0 f   CollisionUtils.obj
 0001:00010870       ?IsRayIntersectingOBB@@YA_NABURay_t@@ABVVector@@ABVQAngle@@11@Z 00411870 f   CollisionUtils.obj
 0001:00010ed0       ?IsRayIntersectingSphere@@YA_NABVVector@@00MM@Z 00411ed0 f   CollisionUtils.obj
 0001:00010fc0       ?IsSphereIntersectingSphere@@YA_NABVVector@@M0M@Z 00411fc0 f   CollisionUtils.obj
 0001:00011010       ?PointInQuadFromBarycentric@@YAXABVVector@@000ABVVector2D@@AAV1@@Z 00412010 f   CollisionUtils.obj
 0001:000110f0       ?PointInQuadToBarycentric@@YA?AW4QuadBarycentricRetval_t@@ABVVector@@0000AAVVector2D@@@Z 004120f0 f   CollisionUtils.obj
 0001:00011a90       ?QuadWithParallelEdges@@YA?AW4QuadBarycentricRetval_t@@ABVVector@@0M0M0AAVVector2D@@@Z 00412a90 f   CollisionUtils.obj
 0001:00011c10       ?ResolveQuadratic@@YAXNNVVector@@00000HAAN1@Z 00412c10 f   CollisionUtils.obj
 0001:00011e40       ?TexCoordInQuadFromBarycentric@@YAXABVVector2D@@0000AAV1@@Z 00412e40 f   CollisionUtils.obj
 0001:00011ed0       ?ParseFile@@YAPADPAD0PA_N@Z 00412ed0 f   filesystem_helpers.obj
 0001:00011ef0       ?ParseFile@@YAPBDPBDPADPA_NPAUcharacterset_s@@@Z 00412ef0 f   filesystem_helpers.obj
 0001:00012040       ??0?$CUtlMemory@D@@QAE@HH@Z 00413040 f i filesystem_init.obj
 0001:00012080       ??0CFSLoadModuleInfo@@QAE@XZ 00413080 f   filesystem_init.obj
 0001:000120c0       ??0CFSMountContentInfo@@QAE@XZ 004130c0 f   filesystem_init.obj
 0001:000120e0       ??0CFSSearchPathsInit@@QAE@XZ 004130e0 f   filesystem_init.obj
 0001:00012100       ??0CFSSteamSetupInfo@@QAE@XZ 00413100 f   filesystem_init.obj
 0001:00012120       ??0CTempEnvVar@@QAE@PBD@Z  00413120 f i filesystem_init.obj
 0001:00012280       ??1?$CUtlMemory@D@@QAE@XZ  00413280 f i filesystem_init.obj
 0001:000122b0       ??1?$CUtlVector@DV?$CUtlMemory@D@@@@QAE@XZ 004132b0 f i filesystem_init.obj
 0001:00012310       ??1CSteamEnvVars@@QAE@XZ   00413310 f i filesystem_init.obj
 0001:00012340       ??1CTempEnvVar@@QAE@XZ     00413340 f i filesystem_init.obj
 0001:000123b0       ?AddGameBinDir@@YAXPAVIFileSystem@@PBD@Z 004133b0 f   filesystem_init.obj
 0001:00012400       ?AddLanguageGameDir@@YAXPAVIFileSystem@@PBD1@Z 00413400 f   filesystem_init.obj
 0001:000124d0       ?DoesFileExistIn@@YA_NPBD0@Z 004134d0 f   filesystem_init.obj
 0001:00012540       ?DoesPathExistAlready@@YA_NPBD0@Z 00413540 f   filesystem_init.obj
 0001:00012640       ?FileSystem_AddSearchPath_Platform@@YAXPAVIFileSystem@@PBD@Z 00413640 f   filesystem_init.obj
 0001:000126d0       ?FileSystem_ClearSteamEnvVars@@YAXXZ 004136d0 f   filesystem_init.obj
 0001:00012860       ?FileSystem_GetExecutableDir@@YA_NPADH@Z 00413860 f   filesystem_init.obj
 0001:00012900       ?FileSystem_GetFileSystemDLLName@@YA?AW4FSReturnCode_t@@PADHAA_N@Z 00413900 f   filesystem_init.obj
 0001:000129c0       ?FileSystem_GetLastErrorString@@YAPBDXZ 004139c0 f   filesystem_init.obj
 0001:000129d0       ?FileSystem_LoadFileSystemModule@@YA?AW4FSReturnCode_t@@AAVCFSLoadModuleInfo@@@Z 004139d0 f   filesystem_init.obj
 0001:00012b90       ?FileSystem_LoadSearchPaths@@YA?AW4FSReturnCode_t@@AAVCFSSearchPathsInit@@@Z 00413b90 f   filesystem_init.obj
 0001:00012fa0       ?FileSystem_MountContent@@YA?AW4FSReturnCode_t@@AAVCFSMountContentInfo@@@Z 00413fa0 f   filesystem_init.obj
 0001:00013120       ?FileSystem_SetBasePaths@@YA?AW4FSReturnCode_t@@PAVIFileSystem@@@Z 00414120 f   filesystem_init.obj
 0001:00013190       ?FileSystem_SetErrorMode@@YAXW4FSErrorMode_t@@@Z 00414190 f   filesystem_init.obj
 0001:000131a0       ?FileSystem_SetupSteamEnvironment@@YA?AW4FSReturnCode_t@@AAVCFSSteamSetupInfo@@@Z 004141a0 f   filesystem_init.obj
 0001:000132b0       ?FileSystem_SetupSteamInstallPath@@YA?AW4FSReturnCode_t@@XZ 004142b0 f   filesystem_init.obj
 0001:00013340       ?GetSteamCfgPath@@YA?AW4FSReturnCode_t@@PADH@Z 00414340 f   filesystem_init.obj
 0001:00013480       ?GetSteamExtraAppId@@YA?AW4FSReturnCode_t@@PBDPAH@Z 00414480 f   filesystem_init.obj
 0001:000134d0       ?GetVProjectCmdLineValue@@YAPBDXZ 004144d0 f   filesystem_init.obj
 0001:00013500       ?Grow@?$CUtlMemory@D@@QAEXH@Z 00414500 f i filesystem_init.obj
 0001:00013570       ?GrowVector@?$CUtlVector@DV?$CUtlMemory@D@@@@IAEXH@Z 00414570 f i filesystem_init.obj
 0001:00013600       ?IsExternallyAllocated@?$CUtlMemory@D@@QBE_NXZ 00414600 f i filesystem_init.obj
 0001:00013610       ?IsLowViolenceBuild@@YA_NXZ 00414610 f   filesystem_init.obj
 0001:000136e0       ?LaunchVConfig@@YAXXZ      004146e0 f   filesystem_init.obj
 0001:00013760       ?LoadGameInfoFile@@YA?AW4FSReturnCode_t@@PBDAAPAVKeyValues@@11@Z 00414760 f   filesystem_init.obj
 0001:00013850       ?LocateGameInfoFile@@YA?AW4FSReturnCode_t@@ABVCFSSteamSetupInfo@@PADH@Z 00414850 f   filesystem_init.obj
 0001:00013a00       ?Purge@?$CUtlMemory@D@@QAEXXZ 00414a00 f i filesystem_init.obj
 0001:00013a30       ?Q_getwd@@YAXPADH@Z        00414a30 f   filesystem_init.obj
 0001:00013a60       ?ReadKeyValuesFile@@YAPAVKeyValues@@PBD@Z 00414a60 f   filesystem_init.obj
 0001:00013b50       ?RemoveAll@?$CUtlVector@DV?$CUtlMemory@D@@@@QAEXXZ 00414b50 f i filesystem_init.obj
 0001:00013b60       ?SetCount@?$CUtlVector@DV?$CUtlMemory@D@@@@QAEXH@Z 00414b60 f i filesystem_init.obj
 0001:00013c00       ?SetSteamAppId@@YAXPAVKeyValues@@PBDAAVCSteamEnvVars@@@Z 00414c00 f   filesystem_init.obj
 0001:00013c50       ?SetSteamAppUser@@YAXPAVKeyValues@@PBDAAVCSteamEnvVars@@@Z 00414c50 f   filesystem_init.obj
 0001:00013d70       ?SetSteamInstallPath@@YA?AW4FSReturnCode_t@@PADHAAVCSteamEnvVars@@_N@Z 00414d70 f   filesystem_init.obj
 0001:00013f40       ?SetSteamUserPassphrase@@YAXPAVKeyValues@@AAVCSteamEnvVars@@@Z 00414f40 f   filesystem_init.obj
 0001:00013fa0       ?SetValue@CTempEnvVar@@QAAXPBDZZ 00414fa0 f i filesystem_init.obj
 0001:00014000       ?SetupFileSystemError@@YA?AW4FSReturnCode_t@@_NW41@PBDZZ 00415000 f   filesystem_init.obj
 0001:00014130       ?SetupSteamStartupEnvironment@@YA?AW4FSReturnCode_t@@PAVKeyValues@@PBDAAVCSteamEnvVars@@@Z 00415130 f   filesystem_init.obj
 0001:00014350       ?ShiftElementsRight@?$CUtlVector@DV?$CUtlMemory@D@@@@IAEXHH@Z 00415350 f i filesystem_init.obj
 0001:00014390       ??0?$CUtlMemory@PBUstudiohdr_t@@@@QAE@HH@Z 00415390 f i studio.obj
 0001:000143d0       ??0CStudioHdr@@QAE@PAVIMDLCache@@@Z 004153d0 f   studio.obj
 0001:00014430       ??0CStudioHdr@@QAE@PBUstudiohdr_t@@PAVIMDLCache@@@Z 00415430 f   studio.obj
 0001:000144b0       ??0CStudioHdr@@QAE@XZ      004154b0 f   studio.obj
 0001:00014500       ??1?$CUtlMemory@PBUstudiohdr_t@@@@QAE@XZ 00415500 f i studio.obj
 0001:00014530       ?CopyAutoplaySequences@studiohdr_t@@QBEHPAGH@Z 00415530 f   studio.obj
 0001:00014590       ?CountAutoplaySequences@studiohdr_t@@QBEHXZ 00415590 f   studio.obj
 0001:000145e0       ?EntryNode@CStudioHdr@@QBEHH@Z 004155e0 f   studio.obj
 0001:00014630       ?EntryNode@studiohdr_t@@QBEHH@Z 00415630 f   studio.obj
 0001:00014690       ?ExitNode@CStudioHdr@@QBEHH@Z 00415690 f   studio.obj
 0001:000146e0       ?ExitNode@studiohdr_t@@QBEHH@Z 004156e0 f   studio.obj
 0001:00014740       ?GetActivityListVersion@CStudioHdr@@QBEHXZ 00415740 f   studio.obj
 0001:000147c0       ?GetActivityListVersion@studiohdr_t@@QBEHXZ 004157c0 f   studio.obj
 0001:00014830       ?GetAttachmentBone@CStudioHdr@@QBEHH@Z 00415830 f   studio.obj
 0001:000148c0       ?GetAttachmentBone@studiohdr_t@@QBEHH@Z 004158c0 f   studio.obj
 0001:00014910       ?GetEventListVersion@CStudioHdr@@QBEHXZ 00415910 f   studio.obj
 0001:00014990       ?GetNumAttachments@CStudioHdr@@QBEHXZ 00415990 f   studio.obj
 0001:000149b0       ?GetNumAttachments@studiohdr_t@@QBEHXZ 004159b0 f   studio.obj
 0001:000149d0       ?GetNumIKAutoplayLocks@CStudioHdr@@QBEHXZ 004159d0 f   studio.obj
 0001:000149f0       ?GetNumIKAutoplayLocks@studiohdr_t@@QBEHXZ 004159f0 f   studio.obj
 0001:00014a10       ?GetNumPoseParameters@CStudioHdr@@QBEHXZ 00415a10 f   studio.obj
 0001:00014a30       ?GetNumPoseParameters@studiohdr_t@@QBEHXZ 00415a30 f   studio.obj
 0001:00014a50       ?GetNumSeq@CStudioHdr@@QBEHXZ 00415a50 f   studio.obj
 0001:00014a70       ?GetNumSeq@studiohdr_t@@QBEHXZ 00415a70 f   studio.obj
 0001:00014a90       ?GetSharedPoseParameter@CStudioHdr@@QBEHHH@Z 00415a90 f   studio.obj
 0001:00014ae0       ?GetSharedPoseParameter@studiohdr_t@@QBEHHH@Z 00415ae0 f   studio.obj
 0001:00014b30       ?GetTransition@CStudioHdr@@QBEHHH@Z 00415b30 f   studio.obj
 0001:00014b60       ?GetTransition@studiohdr_t@@QBEHHH@Z 00415b60 f   studio.obj
 0001:00014b90       ?GroupStudioHdr@CStudioHdr@@ABEPBUstudiohdr_t@@H@Z 00415b90 f   studio.obj
 0001:00014bd0       ?Grow@?$CUtlMemory@PBUstudiohdr_t@@@@QAEXH@Z 00415bd0 f i studio.obj
 0001:00014c40       ?GrowVector@?$CUtlVector@PBUstudiohdr_t@@V?$CUtlMemory@PBUstudiohdr_t@@@@@@IAEXH@Z 00415c40 f i studio.obj
 0001:00014cd0       ?Init@CStudioHdr@@QAEXPBUstudiohdr_t@@@Z 00415cd0 f   studio.obj
 0001:00014d20       ?IsExternallyAllocated@?$CUtlMemory@PBUstudiohdr_t@@@@QBE_NXZ 00415d20 f i studio.obj
 0001:00014d30       ?Purge@?$CUtlMemory@PBUstudiohdr_t@@@@QAEXXZ 00415d30 f i studio.obj
 0001:00014d60       ?RemapAnimBone@CStudioHdr@@QBEHHH@Z 00415d60 f   studio.obj
 0001:00014d90       ?RemapAnimBone@studiohdr_t@@QBEHHH@Z 00415d90 f   studio.obj
 0001:00014dd0       ?RemapSeqBone@CStudioHdr@@QBEHHH@Z 00415dd0 f   studio.obj
 0001:00014e10       ?RemapSeqBone@studiohdr_t@@QBEHHH@Z 00415e10 f   studio.obj
 0001:00014e50       ?RemoveAll@?$CUtlVector@PBUstudiohdr_t@@V?$CUtlMemory@PBUstudiohdr_t@@@@@@QAEXXZ 00415e50 f i studio.obj
 0001:00014e60       ?ResetVModel@CStudioHdr@@ABEXPBUvirtualmodel_t@@@Z 00415e60 f   studio.obj
 0001:00014f40       ?RunFlexRules@CStudioHdr@@QAEXPBMPAM@Z 00415f40 f   studio.obj
 0001:00015140       ?SequencesAvailable@CStudioHdr@@QBE_NXZ 00416140 f   studio.obj
 0001:00015170       ?SequencesAvailable@studiohdr_t@@QBE_NXZ 00416170 f   studio.obj
 0001:00015190       ?SetActivityListVersion@CStudioHdr@@QAEXH@Z 00416190 f   studio.obj
 0001:00015200       ?SetActivityListVersion@studiohdr_t@@QBEXH@Z 00416200 f   studio.obj
 0001:00015260       ?SetAttachmentBone@CStudioHdr@@QAEXHH@Z 00416260 f   studio.obj
 0001:000152b0       ?SetAttachmentBone@studiohdr_t@@QAEXHH@Z 004162b0 f   studio.obj
 0001:00015300       ?SetCount@?$CUtlVector@PBUstudiohdr_t@@V?$CUtlMemory@PBUstudiohdr_t@@@@@@QAEXH@Z 00416300 f i studio.obj
 0001:000153b0       ?SetEventListVersion@CStudioHdr@@QAEXH@Z 004163b0 f   studio.obj
 0001:00015420       ?SetModelCache@CStudioHdr@@QAEXPAVIMDLCache@@@Z 00416420 f   studio.obj
 0001:00015440       ?ShiftElementsRight@?$CUtlVector@PBUstudiohdr_t@@V?$CUtlMemory@PBUstudiohdr_t@@@@@@IAEXHH@Z 00416440 f i studio.obj
 0001:00015480       ?iRelativeAnim@CStudioHdr@@QBEHHH@Z 00416480 f   studio.obj
 0001:000154c0       ?iRelativeAnim@studiohdr_t@@QBEHHH@Z 004164c0 f   studio.obj
 0001:00015500       ?iRelativeSeq@CStudioHdr@@QBEHHH@Z 00416500 f   studio.obj
 0001:00015540       ?iRelativeSeq@studiohdr_t@@QBEHHH@Z 00416540 f   studio.obj
 0001:00015580       ?pAnim@mstudioanimdesc_t@@QBEPAUmstudioanim_t@@XZ 00416580 f   studio.obj
 0001:000155b0       ?pAnimStudioHdr@CStudioHdr@@QBEPBUstudiohdr_t@@H@Z 004165b0 f   studio.obj
 0001:00015600       ?pAnimdesc@CStudioHdr@@QBEAAUmstudioanimdesc_t@@H@Z 00416600 f   studio.obj
 0001:000156a0       ?pAnimdesc@studiohdr_t@@QBEAAUmstudioanimdesc_t@@H@Z 004166a0 f   studio.obj
 0001:00015720       ?pAttachment@CStudioHdr@@QBEABUmstudioattachment_t@@H@Z 00416720 f   studio.obj
 0001:000157a0       ?pAttachment@studiohdr_t@@QBEABUmstudioattachment_t@@H@Z 004167a0 f   studio.obj
 0001:00015800       ?pIKAutoplayLock@CStudioHdr@@QBEABUmstudioiklock_t@@H@Z 00416800 f   studio.obj
 0001:00015890       ?pIKAutoplayLock@studiohdr_t@@QBEABUmstudioiklock_t@@H@Z 00416890 f   studio.obj
 0001:00015900       ?pIKRule@mstudioanimdesc_t@@QBEPAUmstudioikrule_t@@H@Z 00416900 f   studio.obj
 0001:00015960       ?pPoseParameter@CStudioHdr@@QBEABUmstudioposeparamdesc_t@@H@Z 00416960 f   studio.obj
 0001:00015a00       ?pPoseParameter@studiohdr_t@@QBEABUmstudioposeparamdesc_t@@H@Z 00416a00 f   studio.obj
 0001:00015a90       ?pSeqStudioHdr@CStudioHdr@@QBEPBUstudiohdr_t@@H@Z 00416a90 f   studio.obj
 0001:00015ae0       ?pSeqdesc@CStudioHdr@@QBEAAUmstudioseqdesc_t@@H@Z 00416ae0 f   studio.obj
 0001:00015b80       ?pSeqdesc@studiohdr_t@@QBEAAUmstudioseqdesc_t@@H@Z 00416b80 f   studio.obj
 0001:00015c30       ?pszNodeName@CStudioHdr@@QBEPADH@Z 00416c30 f   studio.obj
 0001:00015cd0       ?pszNodeName@studiohdr_t@@QBEPADH@Z 00416cd0 f   studio.obj
 0001:00015d40       ??0ErrorHandlerRegistrar@@QAE@XZ 00416d40 f   memoverride.obj
 0001:00015d60       ??2@YAPAXI@Z               00416d60 f   memoverride.obj
 0001:00015d90       ??2@YAPAXIHPBDH@Z          00416d90 f   memoverride.obj
 0001:00015db0       ??3@YAXPAX@Z               00416db0 f   memoverride.obj
 0001:00015dd0       ??3@YAXPAXI@Z              00416dd0 f   memoverride.obj
 0001:00015df0       ??_U@YAPAXI@Z              00416df0 f   memoverride.obj
 0001:00015e20       ??_U@YAPAXIHPBDH@Z         00416e20 f   memoverride.obj
 0001:00015e40       ??_V@YAXPAX@Z              00416e40 f   memoverride.obj
 0001:00015e60       ?GetModuleFileNameA@@YAPBDXZ 00416e60 f   memoverride.obj
 0001:00015f50       ?MakeModuleFileName@@YAPBDXZ 00416f50 f   memoverride.obj
 0001:00015fe0       _VInvalidParameterHandler  00416fe0 f   memoverride.obj
 0001:00016000       _VPureCall                 00417000 f   memoverride.obj
 0001:00016020       _WriteMiniDumpOrBreak      00417020 f   memoverride.obj
 0001:00016060       __CrtCheckMemory           00417060 f   memoverride.obj
 0001:00016070       __CrtDbgReport             00417070 f   memoverride.obj
 0001:000160d0       __CrtDoForAllClientObjects 004170d0 f   memoverride.obj
 0001:000160e0       __CrtDumpMemoryLeaks       004170e0 f   memoverride.obj
 0001:000160f0       __CrtGetAllocHook          004170f0 f   memoverride.obj
 0001:00016100       __CrtGetCheckCount         00417100 f   memoverride.obj
 0001:00016110       __CrtGetDumpClient         00417110 f   memoverride.obj
 0001:00016120       __CrtGetReportHook         00417120 f   memoverride.obj
 0001:00016130       __CrtIsMemoryBlock         00417130 f   memoverride.obj
 0001:00016140       __CrtIsValidHeapPointer    00417140 f   memoverride.obj
 0001:00016160       __CrtIsValidPointer        00417160 f   memoverride.obj
 0001:00016180       __CrtMemCheckpoint         00417180 f   memoverride.obj
 0001:000161a0       __CrtMemDifference         004171a0 f   memoverride.obj
 0001:000161b0       __CrtMemDumpAllObjectsSince 004171b0 f   memoverride.obj
 0001:000161c0       __CrtMemDumpStatistics     004171c0 f   memoverride.obj
 0001:000161d0       __CrtReportBlockType       004171d0 f   memoverride.obj
 0001:000161e0       __CrtSetAllocHook          004171e0 f   memoverride.obj
 0001:000161f0       __CrtSetBreakAlloc         004171f0 f   memoverride.obj
 0001:00016210       __CrtSetCheckCount         00417210 f   memoverride.obj
 0001:00016220       __CrtSetDbgBlockType       00417220 f   memoverride.obj
 0001:00016230       __CrtSetDbgFlag            00417230 f   memoverride.obj
 0001:00016250       __CrtSetDumpClient         00417250 f   memoverride.obj
 0001:00016260       __CrtSetReportFile         00417260 f   memoverride.obj
 0001:00016280       __CrtSetReportHook         00417280 f   memoverride.obj
 0001:000162a0       __CrtSetReportMode         004172a0 f   memoverride.obj
 0001:000162c0       ___local_stdio_printf_options 004172c0 f i memoverride.obj
 0001:000162d0       ___p__crtBreakAlloc        004172d0 f   memoverride.obj
 0001:000162e0       ___p__crtDbgFlag           004172e0 f   memoverride.obj
 0001:000162f0       __aligned_free_dbg         004172f0 f   memoverride.obj
 0001:00016300       __aligned_malloc_dbg       00417300 f   memoverride.obj
 0001:00016320       __aligned_offset_malloc_dbg 00417320 f   memoverride.obj
 0001:00016340       __aligned_offset_realloc_dbg 00417340 f   memoverride.obj
 0001:00016360       __aligned_offset_recalloc_dbg 00417360 f   memoverride.obj
 0001:000163b0       __aligned_realloc_dbg      004173b0 f   memoverride.obj
 0001:000163d0       __aligned_recalloc_dbg     004173d0 f   memoverride.obj
 0001:00016420       __calloc_base              00417420 f   memoverride.obj
 0001:00016480       __calloc_crt               00417480 f   memoverride.obj
 0001:000164e0       __calloc_dbg               004174e0 f   memoverride.obj
 0001:00016540       __calloc_dbg_impl          00417540 f   memoverride.obj
 0001:000165a0       __expand                   004175a0 f   memoverride.obj
 0001:000165b0       __expand_base              004175b0 f   memoverride.obj
 0001:000165c0       __expand_dbg               004175c0 f   memoverride.obj
 0001:000165d0       __free_base                004175d0 f   memoverride.obj
 0001:000165f0       __free_dbg                 004175f0 f   memoverride.obj
 0001:00016630       __free_dbg_nolock          00417630 f   memoverride.obj
 0001:00016650       __free_nolock              00417650 f   memoverride.obj
 0001:00016670       __get_sbh_threshold        00417670 f   memoverride.obj
 0001:00016680       __heap_alloc               00417680 f   memoverride.obj
 0001:000166b0       __heap_alloc_base          004176b0 f   memoverride.obj
 0001:000166c0       __heap_alloc_dbg           004176c0 f   memoverride.obj
 0001:000166f0       __heap_init                004176f0 f   memoverride.obj
 0001:00016700       __heap_term                00417700 f   memoverride.obj
 0001:00016710       __heapadd                  00417710 f   memoverride.obj
 0001:00016720       __heapchk                  00417720 f   memoverride.obj
 0001:00016730       __heapmin                  00417730 f   memoverride.obj
 0001:00016740       __heapset                  00417740 f   memoverride.obj
 0001:00016750       __heapused                 00417750 f   memoverride.obj
 0001:00016760       __heapwalk                 00417760 f   memoverride.obj
 0001:00016770       __malloc_base              00417770 f   memoverride.obj
 0001:000167a0       __malloc_crt               004177a0 f   memoverride.obj
 0001:000167d0       __malloc_dbg               004177d0 f   memoverride.obj
 0001:00016830       __msize                    00417830 f   memoverride.obj
 0001:00016850       __msize_base               00417850 f   memoverride.obj
 0001:00016870       __msize_dbg                00417870 f   memoverride.obj
 0001:00016890       __nh_malloc                00417890 f   memoverride.obj
 0001:000168c0       __nh_malloc_dbg            004178c0 f   memoverride.obj
 0001:00016920       __realloc_base             00417920 f   memoverride.obj
 0001:00016950       __realloc_crt              00417950 f   memoverride.obj
 0001:00016980       __realloc_dbg              00417980 f   memoverride.obj
 0001:000169d0       __recalloc                 004179d0 f   memoverride.obj
 0001:00016a20       __recalloc_base            00417a20 f   memoverride.obj
 0001:00016a70       __recalloc_crt             00417a70 f   memoverride.obj
 0001:00016ac0       __recalloc_dbg             00417ac0 f   memoverride.obj
 0001:00016b10       __set_sbh_threshold        00417b10 f   memoverride.obj
 0001:00016b20       _calloc                    00417b20 f   memoverride.obj
 0001:00016b80       _free                      00417b80 f   memoverride.obj
 0001:00016ba0       _free_db                   00417ba0 f   memoverride.obj
 0001:00016bc0       _malloc                    00417bc0 f   memoverride.obj
 0001:00016bf0       _malloc_db                 00417bf0 f   memoverride.obj
 0001:00016c10       _msize                     00417c10 f   memoverride.obj
 0001:00016c30       _realloc                   00417c30 f   memoverride.obj
 0001:00016c60       _realloc_db                00417c60 f   memoverride.obj
 0001:00016c80       ??0?$CUtlLinkedList@P6AXPBD@ZG@@QAE@HH@Z 00417c80 f i cmdlib.obj
 0001:00016ce0       ??0?$CUtlLinkedList@P6AXXZG@@QAE@HH@Z 00417ce0 f i cmdlib.obj
 0001:00016d40       ??0?$CUtlMemory@UListElem_t@?$CUtlLinkedList@P6AXPBD@ZG@@@@QAE@HH@Z 00417d40 f i cmdlib.obj
 0001:00016d80       ??0?$CUtlMemory@UListElem_t@?$CUtlLinkedList@P6AXXZG@@@@QAE@HH@Z 00417d80 f i cmdlib.obj
 0001:00016dc0       ??1?$CUtlLinkedList@P6AXPBD@ZG@@QAE@XZ 00417dc0 f i cmdlib.obj
 0001:00016e40       ??1?$CUtlLinkedList@P6AXXZG@@QAE@XZ 00417e40 f i cmdlib.obj
 0001:00016ec0       ??1?$CUtlMemory@UListElem_t@?$CUtlLinkedList@P6AXPBD@ZG@@@@QAE@XZ 00417ec0 f i cmdlib.obj
 0001:00016ef0       ??1?$CUtlMemory@UListElem_t@?$CUtlLinkedList@P6AXXZG@@@@QAE@XZ 00417ef0 f i cmdlib.obj
 0001:00016f20       ?AllocInternal@?$CUtlLinkedList@P6AXPBD@ZG@@IAEG_N@Z 00417f20 f i cmdlib.obj
 0001:00017010       ?AllocInternal@?$CUtlLinkedList@P6AXXZG@@IAEG_N@Z 00418010 f i cmdlib.obj
 0001:00017100       ?COM_Parse@@YAPADPAD@Z     00418100 f   cmdlib.obj
 0001:00017120       ?CheckParm@@YAHPAD@Z       00418120 f   cmdlib.obj
 0001:00017160       ?CloseSpewFunctionLogFile@@YAXXZ 00418160 f   cmdlib.obj
 0001:00017190       ?CmdLib_AddBasePath@@YAXPBD@Z 00418190 f   cmdlib.obj
 0001:000171e0       ?CmdLib_AllocError@@YAXK@Z 004181e0 f   cmdlib.obj
 0001:00017200       ?CmdLib_AtCleanup@@YAXP6AXXZ@Z 00418200 f   cmdlib.obj
 0001:00017220       ?CmdLib_Cleanup@@YAXXZ     00418220 f   cmdlib.obj
 0001:00017280       ?CmdLib_Exit@@YAXH@Z       00418280 f   cmdlib.obj
 0001:00017290       ?CmdLib_FGets@@YAPADPADHPAX@Z 00418290 f   cmdlib.obj
 0001:000172f0       ?CmdLib_FPrintf@@YAXPAXPBDZZ 004182f0 f   cmdlib.obj
 0001:000174b0       ?CmdLib_GetBasePath@@YAPBDH@Z 004184b0 f   cmdlib.obj
 0001:000174d0       ?CmdLib_GetFileSystemFactory@@YAP6APAXPBDPAH@ZXZ 004184d0 f   cmdlib.obj
 0001:000174e0       ?CmdLib_GetNumBasePaths@@YAHXZ 004184e0 f   cmdlib.obj
 0001:000174f0       ?CmdLib_HasBasePath@@YA_NPBDAAH@Z 004184f0 f   cmdlib.obj
 0001:000175b0       ?CmdLib_InitFileSystem@@YAXPBDH@Z 004185b0 f   cmdlib.obj
 0001:000175e0       ?CmdLib_NewHandler@@YAHI@Z 004185e0 f   cmdlib.obj
 0001:00017600       ?CmdLib_SpewOutputFunc@@YA?AW4SpewRetval_t@@W4SpewType_t@@PBD@Z 00418600 f   cmdlib.obj
 0001:00017850       ?CmdLib_TermFileSystem@@YAXXZ 00418850 f   cmdlib.obj
 0001:00017860       ?ConstructList@?$CUtlLinkedList@P6AXPBD@ZG@@IAEXXZ 00418860 f i cmdlib.obj
 0001:00017880       ?ConstructList@?$CUtlLinkedList@P6AXXZG@@IAEXXZ 00418880 f i cmdlib.obj
 0001:000178a0       ?CreatePath@@YAXPAD@Z      004188a0 f   cmdlib.obj
 0001:00017900       ?ExpandArg@@YAPADPAD@Z     00418900 f   cmdlib.obj
 0001:00017980       ?ExpandPath@@YAPADPAD@Z    00418980 f   cmdlib.obj
 0001:000179c0       ?ExpandWildcards@@YAXPAHPAPAPAD@Z 004189c0 f   cmdlib.obj
 0001:00017b20       ?FileExists@@YAHPAD@Z      00418b20 f   cmdlib.obj
 0001:00017b60       ?FileTime@@YAHPAD@Z        00418b60 f   cmdlib.obj
 0001:00017b90       ?GetHourMinuteSeconds@@YAXHAAH00@Z 00418b90 f   cmdlib.obj
 0001:00017ba0       ?GetHourMinuteSecondsString@@YAXHPADH@Z 00418ba0 f   cmdlib.obj
 0001:00017cb0       ?Grow@?$CUtlMemory@UListElem_t@?$CUtlLinkedList@P6AXPBD@ZG@@@@QAEXH@Z 00418cb0 f i cmdlib.obj
 0001:00017d20       ?Grow@?$CUtlMemory@UListElem_t@?$CUtlLinkedList@P6AXXZG@@@@QAEXH@Z 00418d20 f i cmdlib.obj
 0001:00017d90       ?InsertBefore@?$CUtlLinkedList@P6AXPBD@ZG@@QAEGGABQ6AXPBD@Z@Z 00418d90 f i cmdlib.obj
 0001:00017f20       ?InsertBefore@?$CUtlLinkedList@P6AXXZG@@QAEGGABQ6AXXZ@Z 00418f20 f i cmdlib.obj
 0001:000180b0       ?InstallAllocationFunctions@@YAXXZ 004190b0 f   cmdlib.obj
 0001:000180d0       ?InstallExtraSpewHook@@YAXP6AXPBD@Z@Z 004190d0 f   cmdlib.obj
 0001:000180f0       ?InstallSpewFunction@@YAXXZ 004190f0 f   cmdlib.obj
 0001:000181d0       ?IsExternallyAllocated@?$CUtlMemory@UListElem_t@?$CUtlLinkedList@P6AXPBD@ZG@@@@QBE_NXZ 004191d0 f i cmdlib.obj
 0001:000181e0       ?IsExternallyAllocated@?$CUtlMemory@UListElem_t@?$CUtlLinkedList@P6AXXZG@@@@QBE_NXZ 004191e0 f i cmdlib.obj
 0001:000181f0       ?LinkBefore@?$CUtlLinkedList@P6AXPBD@ZG@@QAEXGG@Z 004191f0 f i cmdlib.obj
 0001:000182e0       ?LinkBefore@?$CUtlLinkedList@P6AXXZG@@QAEXGG@Z 004192e0 f i cmdlib.obj
 0001:000183d0       ?LoadFile@@YAHPADPAPAX@Z   004193d0 f   cmdlib.obj
 0001:00018540       ?ParseHex@@YAHPAD@Z        00419540 f   cmdlib.obj
 0001:000185b0       ?ParseNum@@YAHPAD@Z        004195b0 f   cmdlib.obj
 0001:000185f0       ?Purge@?$CUtlMemory@UListElem_t@?$CUtlLinkedList@P6AXPBD@ZG@@@@QAEXXZ 004195f0 f i cmdlib.obj
 0001:00018620       ?Purge@?$CUtlMemory@UListElem_t@?$CUtlLinkedList@P6AXXZG@@@@QAEXXZ 00419620 f i cmdlib.obj
 0001:00018650       ?QCopyFile@@YAXPAD0@Z      00419650 f   cmdlib.obj
 0001:00018890       ?Q_filelength@@YAHPAX@Z    00419890 f   cmdlib.obj
 0001:000188b0       ?Q_mkdir@@YAXPAD@Z         004198b0 f   cmdlib.obj
 0001:000188e0       ?RemoveAll@?$CUtlLinkedList@P6AXPBD@ZG@@QAEXXZ 004198e0 f i cmdlib.obj
 0001:00018940       ?RemoveAll@?$CUtlLinkedList@P6AXXZG@@QAEXXZ 00419940 f i cmdlib.obj
 0001:000189a0       ?SafeCreatePath@@YAXPAD@Z  004199a0 f   cmdlib.obj
 0001:000189f0       ?SafeOpenRead@@YAPAXPAD@Z  004199f0 f   cmdlib.obj
 0001:00018b00       ?SafeOpenWrite@@YAPAXPAD@Z 00419b00 f   cmdlib.obj
 0001:00018b40       ?SafeRead@@YAXPAX0H@Z      00419b40 f   cmdlib.obj
 0001:00018b70       ?SafeWrite@@YAXPAX0H@Z     00419b70 f   cmdlib.obj
 0001:00018ba0       ?SaveFile@@YAXPADPAXH@Z    00419ba0 f   cmdlib.obj
 0001:00018c10       ?SetSpewFunctionLogFile@@YAXPBD@Z 00419c10 f   cmdlib.obj
 0001:00018c60       ?Unlink@?$CUtlLinkedList@P6AXPBD@ZG@@QAEXG@Z 00419c60 f i cmdlib.obj
 0001:00018ce0       ?Unlink@?$CUtlLinkedList@P6AXXZG@@QAEXG@Z 00419ce0 f i cmdlib.obj
 0001:00018d60       ?copystring@@YAPADPBD@Z    00419d60 f   cmdlib.obj
 0001:00018da0       ?qprintf@@YAXPADZZ         00419da0 f   cmdlib.obj
 0001:00018df0       _printf                    00419df0 f i cmdlib.obj
 0001:00018e20       _sprintf                   00419e20 f i cmdlib.obj
 0001:00018e60       ?FileSystem_GetFactory@@YAP6APAXPBDPAH@ZXZ 00419e60 f   FileSystem_Tools.obj
 0001:00018e70       ?FileSystem_Init@@YA_NPBDHW4FSInitType_t@@_N@Z 00419e70 f   FileSystem_Tools.obj
 0001:00018e90       ?FileSystem_Init_Normal@@YA_NPBDW4FSInitType_t@@_N@Z 00419e90 f   FileSystem_Tools.obj
 0001:000190d0       ?FileSystem_SetGame@@YA_NPBD@Z 0041a0d0 f   FileSystem_Tools.obj
 0001:00019140       ?FileSystem_Term@@YAXXZ    0041a140 f   FileSystem_Tools.obj
 0001:00019180       ??$_Allocate_manually_vector_aligned@U_Default_allocate_traits@std@@@std@@YAPAXI@Z 0041a180 f i mstristrip.obj
 0001:000191b0       ??$_Copy_backward_memmove@PAUSortEntry@@PAU1@@std@@YAPAUSortEntry@@PAU1@00@Z 0041a1b0 f i mstristrip.obj
 0001:000191d0       ??$_Med3_unchecked@PAUSortEntry@@U?$less@X@std@@@std@@YAXPAUSortEntry@@00U?$less@X@0@@Z 0041a1d0 f i mstristrip.obj
 0001:00019240       ??$_Partition_by_median_guess_unchecked@PAUSortEntry@@U?$less@X@std@@@std@@YA?AU?$pair@PAUSortEntry@@PAU1@@0@PAUSortEntry@@0U?$less@X@0@@Z 0041a240 f i mstristrip.obj
 0001:000194c0       ??$_Pop_heap_hole_by_index@PAUSortEntry@@U1@U?$less@X@std@@@std@@YAXPAUSortEntry@@HH$$QAU1@U?$less@X@0@@Z 0041a4c0 f i mstristrip.obj
 0001:00019560       ??$_Sort_unchecked@PAUSortEntry@@U?$less@X@std@@@std@@YAXPAUSortEntry@@0HU?$less@X@0@@Z 0041a560 f i mstristrip.obj
 0001:000197b0       ??$_Zero_range@PAG@std@@YAPAGQAG0@Z 0041a7b0 f i mstristrip.obj
 0001:000197d0       ??0CStripper@@QAE@HPAY02G@Z 0041a7d0 f   mstristrip.obj
 0001:000199e0       ??0bad_alloc@std@@QAE@ABV01@@Z 0041a9e0 f i mstristrip.obj
 0001:00019a20       ??0bad_array_new_length@std@@QAE@ABV01@@Z 0041aa20 f i mstristrip.obj
 0001:00019a60       ??0bad_array_new_length@std@@QAE@XZ 0041aa60 f i mstristrip.obj
 0001:00019a80       ??0exception@std@@QAE@ABV01@@Z 0041aa80 f i mstristrip.obj
 0001:00019ab0       ??1CStripper@@QAE@XZ       0041aab0 f   mstristrip.obj
 0001:00019ae0       ??1bad_array_new_length@std@@UAE@XZ 0041aae0 f i mstristrip.obj
 0001:00019b00       ??1exception@std@@UAE@XZ   0041ab00 f i mstristrip.obj
 0001:00019b20       ??_Ebad_alloc@std@@UAEPAXI@Z 0041ab20 f i mstristrip.obj
 0001:00019b20       ??_Gbad_alloc@std@@UAEPAXI@Z 0041ab20 f i mstristrip.obj
 0001:00019b50       ??_Ebad_array_new_length@std@@UAEPAXI@Z 0041ab50 f i mstristrip.obj
 0001:00019b50       ??_Gbad_array_new_length@std@@UAEPAXI@Z 0041ab50 f i mstristrip.obj
 0001:00019b80       ??_Eexception@std@@UAEPAXI@Z 0041ab80 f i mstristrip.obj
 0001:00019b80       ??_Gexception@std@@UAEPAXI@Z 0041ab80 f i mstristrip.obj
 0001:00019bb0       ?Add@CVertCache@@QAE_NHH@Z 0041abb0 f   mstristrip.obj
 0001:00019c20       ?BuildStrips@CStripper@@QAEXPAV?$list@PAV?$vector@GV?$allocator@G@std@@@std@@V?$allocator@PAV?$vector@GV?$allocator@G@std@@@std@@@2@@std@@H_N@Z 0041ac20 f   mstristrip.obj
 0001:00019f10       ?ComputeVertexPermutation@@YAXHPAGPAHPAPAG@Z 0041af10 f   mstristrip.obj
 0001:0001a050       ?CreateLongStrip@CStripper@@QAEHPAV?$list@PAV?$vector@GV?$allocator@G@std@@@std@@V?$allocator@PAV?$vector@GV?$allocator@G@std@@@std@@@2@@std@@PAPAG@Z 0041b050 f   mstristrip.obj
 0001:0001a3a0       ?CreateManyStrips@CStripper@@QAEHPAV?$list@PAV?$vector@GV?$allocator@G@std@@@std@@V?$allocator@PAV?$vector@GV?$allocator@G@std@@@std@@@2@@std@@PAPAG@Z 0041b3a0 f   mstristrip.obj
 0001:0001a5b0       ?CreateStrip@CStripper@@QAEHHHHPAH_N100@Z 0041b5b0 f   mstristrip.obj
 0001:0001a970       ?EstimateStripCost@@YAHPAV?$list@PAV?$vector@GV?$allocator@G@std@@@std@@V?$allocator@PAV?$vector@GV?$allocator@G@std@@@std@@@2@@std@@@Z 0041b970 f   mstristrip.obj
 0001:0001a9b0       ?FindBestCachedStrip@@YA?AV?$_List_iterator@V?$_List_val@U?$_List_simple_types@PAV?$vector@GV?$allocator@G@std@@@std@@@std@@@std@@@std@@PAV?$list@PAV?$vector@GV?$allocator@G@std@@@std@@V?$allocator@PAV?$vector@GV?$allocator@G@std@@@std@@@2@@2@ABVCVertCache@@@Z 0041b9b0 f   mstristrip.obj
 0001:0001ac10       ?FreeStripListVerts@@YAXPAV?$list@PAV?$vector@GV?$allocator@G@std@@@std@@V?$allocator@PAV?$vector@GV?$allocator@G@std@@@std@@@2@@std@@@Z 0041bc10 f i mstristrip.obj
 0001:0001acb0       ?GetNeighborCount@CStripper@@QAEHH@Z 0041bcb0 f i mstristrip.obj
 0001:0001ad00       ?InitTriangleInfo@CStripper@@QAEXHH@Z 0041bd00 f   mstristrip.obj
 0001:0001ae00       ?Stripify@@YAHHPAGPAHPAPAG@Z 0041be00 f   mstristrip.obj
 0001:0001b110       ?_Throw_bad_array_new_length@std@@YAXXZ 0041c110 f i mstristrip.obj
 0001:0001b130       ?_Xlength@?$vector@GV?$allocator@G@std@@@std@@CAXXZ 0041c130 f i mstristrip.obj
 0001:0001b140       ?what@exception@std@@UBEPBDXZ 0041c140 f i mstristrip.obj
 0001:0001b150       ?GetPhysicsFactory@@YAP6APAXPBDPAH@ZXZ 0041c150 f   physdll.obj
 0001:0001b190       _PhysicsDLLPath            0041c190 f   physdll.obj
 0001:0001b1c0       ?AddMacroToStack@@YA_NPAD@Z 0041c1c0 f   scriplib.obj
 0001:0001b380       ?AddScriptToStack@@YAXPADW4ScriptPathMode_t@@@Z 0041c380 f   scriplib.obj
 0001:0001b430       ?DefineMacro@@YAXPAD@Z     0041c430 f   scriplib.obj
 0001:0001b5f0       ?EndOfScript@@YAHH@Z       0041c5f0 f   scriplib.obj
 0001:0001b6a0       ?ExpandMacroToken@@YA_NAAPAD@Z 0041c6a0 f   scriplib.obj
 0001:0001b7d0       _GetExprToken              0041c7d0 f   scriplib.obj
 0001:0001bb30       _GetToken                  0041cb30 f   scriplib.obj
 0001:0001c170       _GetTokenizerStatus        0041d170 f   scriplib.obj
 0001:0001c1c0       _LoadScriptFile            0041d1c0 f   scriplib.obj
 0001:0001c200       _ParseFromMemory           0041d200 f   scriplib.obj
 0001:0001c270       _TokenAvailable            0041d270 f   scriplib.obj
 0001:0001c2d0       _UnGetToken                0041d2d0 f   scriplib.obj
 0001:0001c2e0       ??0?$CUtlMemory@PAVCPhysConvex@@@@QAE@HH@Z 0041d2e0 f i collisionmodel.obj
 0001:0001c320       ??0?$CUtlMemory@Umergelist_t@@@@QAE@HH@Z 0041d320 f i collisionmodel.obj
 0001:0001c360       ??0CJointedModel@@QAE@XZ   0041d360 f   collisionmodel.obj
 0001:0001c4b0       ??1?$CUtlMemory@PAVCPhysConvex@@@@QAE@XZ 0041d4b0 f i collisionmodel.obj
 0001:0001c4e0       ??1?$CUtlMemory@Umergelist_t@@@@QAE@XZ 0041d4e0 f i collisionmodel.obj
 0001:0001c510       ??1?$CUtlVector@Umergelist_t@@V?$CUtlMemory@Umergelist_t@@@@@@QAE@XZ 0041d510 f i collisionmodel.obj
 0001:0001c570       ?AddConstraint@CJointedModel@@QAEXPBDHW4jointlimit_t@@MMM@Z 0041d570 f   collisionmodel.obj
 0001:0001c5e0       ?AddMergeCommand@CJointedModel@@QAEXPBD0@Z 0041d5e0 f   collisionmodel.obj
 0001:0001c770       ?AddText@CJointedModel@@QAEXPBD@Z 0041d770 f i collisionmodel.obj
 0001:0001c860       ?AddToTail@?$CUtlVector@PAVCPhysConvex@@V?$CUtlMemory@PAVCPhysConvex@@@@@@QAEHABQAVCPhysConvex@@@Z 0041d860 f i collisionmodel.obj
 0001:0001c910       ?AppendCollisionModel@CJointedModel@@QAEXPAVCPhysCollisionModel@@@Z 0041d910 f   collisionmodel.obj
 0001:0001c950       ?AppendCollisionPair@CJointedModel@@QAEXPBD0@Z 0041d950 f   collisionmodel.obj
 0001:0001c9e0       ?BoneIndex@CJointedModel@@QAEHPBD@Z 0041d9e0 f   collisionmodel.obj
 0001:0001ca50       ?BuildRagdollConstraint@@YAXPAVCPhysCollisionModel@@AAUconstraint_ragdollparams_t@@@Z 0041da50 f   collisionmodel.obj
 0001:0001ccd0       ?BuildVertWeldTable@@YAXPAHPAUs_source_t@@@Z 0041dcd0 f   collisionmodel.obj
 0001:0001cda0       ?CCmd_JoinAnimatedFriction@@YAXAAVCJointedModel@@PBD1111@Z 0041dda0 f   collisionmodel.obj
 0001:0001ce60       ?CCmd_JointConstrain@@YAXAAVCJointedModel@@PBD11111@Z 0041de60 f   collisionmodel.obj
 0001:0001d020       ?CCmd_JointMerge@@YAXAAVCJointedModel@@PBD1@Z 0041e020 f   collisionmodel.obj
 0001:0001d080       ?CCmd_JointRoot@@YAXAAVCJointedModel@@PBD@Z 0041e080 f   collisionmodel.obj
 0001:0001d0b0       ?CCmd_JointSkip@@YAXAAVCJointedModel@@PBD@Z 0041e0b0 f   collisionmodel.obj
 0001:0001d0f0       ?CCmd_TotalMass@@YAXAAVCJointedModel@@PBD@Z 0041e0f0 f   collisionmodel.obj
 0001:0001d130       ?Cmd_CollisionText@@YAXXZ  0041e130 f   collisionmodel.obj
 0001:0001d330       ?CollisionIndex@CJointedModel@@QAEHPBD@Z 0041e330 f   collisionmodel.obj
 0001:0001d370       ?CollisionModel_Build@@YAXXZ 0041e370 f   collisionmodel.obj
 0001:0001d530       ?CollisionModel_ExpandBBox@@YAXAAVVector@@0@Z 0041e530 f   collisionmodel.obj
 0001:0001d600       ?CollisionModel_Write@@YAXJ@Z 0041e600 f   collisionmodel.obj
 0001:0001de60       ?ComputeMass@CJointedModel@@QAEXXZ 0041ee60 f   collisionmodel.obj
 0001:0001df30       ?ConvertToBoneSpace@@YAXPAUs_source_t@@HPAVVector@@@Z 0041ef30 f   collisionmodel.obj
 0001:0001dfe0       ?ConvertToWorldSpace@@YAXAAVCJointedModel@@PAUs_source_t@@PAVVector@@@Z 0041efe0 f   collisionmodel.obj
 0001:0001e140       ?CopyFaceVertsByBone@@YAHPAPAVVector@@PAV1@ABVCJointedModel@@H@Z 0041f140 f   collisionmodel.obj
 0001:0001e390       ?CopyVertsByBone@@YAHPAPAVVector@@PAV1@ABVCJointedModel@@H@Z 0041f390 f   collisionmodel.obj
 0001:0001e430       ?CreateCollide@@YAXPAVCPhysCollisionModel@@PAPAVCPhysConvex@@HABUboundingvolume_t@@@Z 0041f430 f   collisionmodel.obj
 0001:0001e610       ?DefaultDamping@CJointedModel@@QAEXM@Z 0041f610 f   collisionmodel.obj
 0001:0001e630       ?DefaultDrag@CJointedModel@@QAEXM@Z 0041f630 f   collisionmodel.obj
 0001:0001e650       ?DefaultInertia@CJointedModel@@QAEXM@Z 0041f650 f   collisionmodel.obj
 0001:0001e670       ?DefaultRotdamping@CJointedModel@@QAEXM@Z 0041f670 f   collisionmodel.obj
 0001:0001e690       ?DoCollisionModel@@YAH_N@Z 0041f690 f   collisionmodel.obj
 0001:0001e950       ?FaceHasVertOnBone@@YA_NABVCJointedModel@@PAUs_source_t@@PAUs_face_t@@H@Z 0041f950 f   collisionmodel.obj
 0001:0001ea40       ?FindBoneInTable@@YAHPBD@Z 0041fa40 f   collisionmodel.obj
 0001:0001ea50       ?FindLocalBoneNamed@@YAHPBUs_source_t@@PBD@Z 0041fa50 f   collisionmodel.obj
 0001:0001eae0       ?FindObjectInList@@YAPAVCPhysCollisionModel@@PAV1@PBD@Z 0041fae0 f   collisionmodel.obj
 0001:0001eb20       ?FixBoneList@@YAXPAHPBUs_source_t@@PAVCPhysCollisionModel@@@Z 0041fb20 f   collisionmodel.obj
 0001:0001ec80       ?FixCollisionHierarchy@@YAXAAVCJointedModel@@@Z 0041fc80 f   collisionmodel.obj
 0001:0001ef30       ?FixParent@@YAPBDPAVCPhysCollisionModel@@PAUs_source_t@@PBD@Z 0041ff30 f   collisionmodel.obj
 0001:0001efb0       ?ForceMassCenter@CJointedModel@@QAEXABVVector@@@Z 0041ffb0 f   collisionmodel.obj
 0001:0001efe0       ?GetCollisionModel@CJointedModel@@QAEPAVCPhysCollisionModel@@PBD@Z 0041ffe0 f   collisionmodel.obj
 0001:0001f020       ?GetCollisionModelMass@@YAMXZ 00420020 f   collisionmodel.obj
 0001:0001f030       ?GlobalFace@@YAXPAUs_face_t@@PAUs_mesh_t@@0@Z 00420030 f   collisionmodel.obj
 0001:0001f060       ?Grow@?$CUtlMemory@PAVCPhysConvex@@@@QAEXH@Z 00420060 f i collisionmodel.obj
 0001:0001f0d0       ?Grow@?$CUtlMemory@Umergelist_t@@@@QAEXH@Z 004200d0 f i collisionmodel.obj
 0001:0001f140       ?GrowVector@?$CUtlVector@PAVCPhysConvex@@V?$CUtlMemory@PAVCPhysConvex@@@@@@IAEXH@Z 00420140 f i collisionmodel.obj
 0001:0001f1d0       ?GrowVector@?$CUtlVector@Umergelist_t@@V?$CUtlMemory@Umergelist_t@@@@@@IAEXH@Z 004201d0 f i collisionmodel.obj
 0001:0001f260       ?InitBoneMap@CJointedModel@@QAEXXZ 00420260 f   collisionmodel.obj
 0001:0001f3d0       ?InsertBefore@?$CUtlVector@PAVCPhysConvex@@V?$CUtlMemory@PAVCPhysConvex@@@@@@QAEHHABQAVCPhysConvex@@@Z 004203d0 f i collisionmodel.obj
 0001:0001f480       ?InsertBefore@?$CUtlVector@Umergelist_t@@V?$CUtlMemory@Umergelist_t@@@@@@QAEHH@Z 00420480 f i collisionmodel.obj
 0001:0001f520       ?IsApproximatelyPlanar@@YA_NPAPAVVector@@HM@Z 00420520 f   collisionmodel.obj
 0001:0001f6f0       ?IsExternallyAllocated@?$CUtlMemory@PAVCPhysConvex@@@@QBE_NXZ 004206f0 f i collisionmodel.obj
 0001:0001f700       ?IsExternallyAllocated@?$CUtlMemory@Umergelist_t@@@@QBE_NXZ 00420700 f i collisionmodel.obj
 0001:0001f710       ?JointDamping@CJointedModel@@QAEXPBDM@Z 00420710 f   collisionmodel.obj
 0001:0001f740       ?JointInertia@CJointedModel@@QAEXPBDM@Z 00420740 f   collisionmodel.obj
 0001:0001f770       ?JointMassBias@CJointedModel@@QAEXPBDM@Z 00420770 f   collisionmodel.obj
 0001:0001f7a0       ?JointRotdamping@CJointedModel@@QAEXPBDM@Z 004207a0 f   collisionmodel.obj
 0001:0001f7d0       ?KeyWriteFloat@@YAXPAU_iobuf@@PBDM@Z 004207d0 f   collisionmodel.obj
 0001:0001f800       ?KeyWriteInt@@YAXPAU_iobuf@@PBDH@Z 00420800 f   collisionmodel.obj
 0001:0001f820       ?KeyWriteIntPair@@YAXPAU_iobuf@@PBDHH@Z 00420820 f   collisionmodel.obj
 0001:0001f840       ?KeyWriteQAngle@@YAXPAU_iobuf@@PBDABVQAngle@@@Z 00420840 f   collisionmodel.obj
 0001:0001f890       ?KeyWriteString@@YAXPAU_iobuf@@PBD1@Z 00420890 f   collisionmodel.obj
 0001:0001f8b0       ?KeyWriteVector3@@YAXPAU_iobuf@@PBDABVVector@@@Z 004208b0 f   collisionmodel.obj
 0001:0001f900       ?LoadSurfacePropsAll@@YAXXZ 00420900 f   collisionmodel.obj
 0001:0001fa40       ?MarkConnectedMeshes@@YAXPAHPAUs_source_t@@0@Z 00420a40 f   collisionmodel.obj
 0001:0001fb90       ?MergeBones@CJointedModel@@QAEXHH@Z 00420b90 f   collisionmodel.obj
 0001:0001fbe0       ?ParseCollisionCommands@@YAXAAVCJointedModel@@@Z 00420be0 f   collisionmodel.obj
 0001:000207d0       ?ProcessJointedModel@@YAHAAVCJointedModel@@@Z 004217d0 f   collisionmodel.obj
 0001:00020b30       ?ProcessSingleBody@@YAHAAVCJointedModel@@@Z 00421b30 f   collisionmodel.obj
 0001:000214b0       ?Purge@?$CUtlMemory@PAVCPhysConvex@@@@QAEXXZ 004224b0 f i collisionmodel.obj
 0001:000214e0       ?Purge@?$CUtlMemory@Umergelist_t@@@@QAEXXZ 004224e0 f i collisionmodel.obj
 0001:00021510       ?ReadArgs@@YAHQAY0BAA@DH@Z 00422510 f   collisionmodel.obj
 0001:00021560       ?RemapBone@CJointedModel@@QBEHH@Z 00422560 f   collisionmodel.obj
 0001:00021580       ?RemoveAll@?$CUtlVector@PAVCPhysConvex@@V?$CUtlMemory@PAVCPhysConvex@@@@@@QAEXXZ 00422580 f i collisionmodel.obj
 0001:00021590       ?RemoveAll@?$CUtlVector@Umergelist_t@@V?$CUtlMemory@Umergelist_t@@@@@@QAEXXZ 00422590 f i collisionmodel.obj
 0001:000215a0       ?SetAutoMass@CJointedModel@@QAEXXZ 004225a0 f   collisionmodel.obj
 0001:000215b0       ?SetCollisionModelDefaults@CJointedModel@@QAEXPAVCPhysCollisionModel@@@Z 004225b0 f   collisionmodel.obj
 0001:000215f0       ?SetNoSelfCollisions@CJointedModel@@QAEXXZ 004225f0 f   collisionmodel.obj
 0001:00021600       ?SetSource@CJointedModel@@QAEXPAUs_source_t@@@Z 00422600 f   collisionmodel.obj
 0001:00021640       ?SetTotalMass@CJointedModel@@QAEXM@Z 00422640 f   collisionmodel.obj
 0001:00021660       ?ShiftElementsRight@?$CUtlVector@PAVCPhysConvex@@V?$CUtlMemory@PAVCPhysConvex@@@@@@IAEXHH@Z 00422660 f i collisionmodel.obj
 0001:000216a0       ?ShiftElementsRight@?$CUtlVector@Umergelist_t@@V?$CUtlMemory@Umergelist_t@@@@@@IAEXHH@Z 004226a0 f i collisionmodel.obj
 0001:000216e0       ?ShouldProcessBone@CJointedModel@@QAE_NH@Z 004226e0 f   collisionmodel.obj
 0001:00021700       ?Simplify@CJointedModel@@QAEXXZ 00422700 f   collisionmodel.obj
 0001:000217a0       ?SkipBone@CJointedModel@@QAEXH@Z 004227a0 f   collisionmodel.obj
 0001:000217c0       ?SortCollisionList@CJointedModel@@QAEXXZ 004227c0 f   collisionmodel.obj
 0001:000218c0       ?TotalVolume@@YAMPAVCPhysCollisionModel@@@Z 004228c0 f   collisionmodel.obj
 0001:00021900       ?UnlinkCollisionModel@CJointedModel@@QAEXPAVCPhysCollisionModel@@@Z 00422900 f   collisionmodel.obj
 0001:00021940       _fprintf                   00422940 f i collisionmodel.obj
 0001:00021970       ??0CHardwareMatrixState@@QAE@XZ 00422970 f   HardwareMatrixState.obj
 0001:00021990       ?AllocateMatrix@CHardwareMatrixState@@QAE_NH@Z 00422990 f   HardwareMatrixState.obj
 0001:00021a20       ?AllocatedMatrixCount@CHardwareMatrixState@@QBEHXZ 00422a20 f   HardwareMatrixState.obj
 0001:00021a30       ?DeallocateAll@CHardwareMatrixState@@QAEXXZ 00422a30 f   HardwareMatrixState.obj
 0001:00021a80       ?DeallocateLRU@CHardwareMatrixState@@QAEXH@Z 00422a80 f   HardwareMatrixState.obj
 0001:00021ae0       ?DeallocateLRU@CHardwareMatrixState@@QAEXXZ 00422ae0 f   HardwareMatrixState.obj
 0001:00021b40       ?DumpState@CHardwareMatrixState@@QAEXXZ 00422b40 f   HardwareMatrixState.obj
 0001:00021b50       ?FindHardwareMatrix@CHardwareMatrixState@@AAEHH@Z 00422b50 f   HardwareMatrixState.obj
 0001:00021b90       ?FindLocalLRUIndex@CHardwareMatrixState@@AAEHXZ 00422b90 f   HardwareMatrixState.obj
 0001:00021be0       ?FreeMatrixCount@CHardwareMatrixState@@QBEHXZ 00422be0 f   HardwareMatrixState.obj
 0001:00021bf0       ?GetNthBoneGlobalID@CHardwareMatrixState@@QBEHH@Z 00422bf0 f   HardwareMatrixState.obj
 0001:00021c50       ?Init@CHardwareMatrixState@@QAEXH@Z 00422c50 f   HardwareMatrixState.obj
 0001:00021ce0       ?IsMatrixAllocated@CHardwareMatrixState@@QBE_NH@Z 00422ce0 f   HardwareMatrixState.obj
 0001:00021d20       ?RestoreState@CHardwareMatrixState@@QAEXXZ 00422d20 f   HardwareMatrixState.obj
 0001:00021d60       ?SaveState@CHardwareMatrixState@@QAEXXZ 00422d60 f   HardwareMatrixState.obj
 0001:00021da0       ??0CHardwareVertexCache@@QAE@XZ 00422da0 f   HardwareVertexCache.obj
 0001:00021dc0       ?Flush@CHardwareVertexCache@@QAEXXZ 00422dc0 f   HardwareVertexCache.obj
 0001:00021dd0       ?Init@CHardwareVertexCache@@QAEXH@Z 00422dd0 f   HardwareVertexCache.obj
 0001:00021e10       ?Insert@CHardwareVertexCache@@QAEXH@Z 00422e10 f   HardwareVertexCache.obj
 0001:00021e50       ?IsPresent@CHardwareVertexCache@@QAE_NH@Z 00422e50 f   HardwareVertexCache.obj
 0001:00021eb0       ?Print@CHardwareVertexCache@@QAEXXZ 00422eb0 f   HardwareVertexCache.obj
 0001:00021ef0       ?InitMaterialSystem@@YAXPBD@Z 00422ef0 f   matsys.obj
 0001:00022030       ?AddToVlist@@YAHHHHHH@Z    00423030 f   mrmsupport.obj
 0001:00022100       ?BuildIndividualMeshes@@YAXPAUs_source_t@@@Z 00423100 f   mrmsupport.obj
 0001:00022700       ?DecrementReferenceVlist@@YAXHH@Z 00423700 f   mrmsupport.obj
 0001:00022760       ?Grab_Faceattriblist@@YAXPAUs_source_t@@@Z 00423760 f   mrmsupport.obj
 0001:000228e0       ?Grab_Facelist@@YAXPAUs_source_t@@@Z 004238e0 f   mrmsupport.obj
 0001:000229c0       ?Grab_MRMFaceupdates@@YAXPAUs_source_t@@@Z 004239c0 f   mrmsupport.obj
 0001:00022a10       ?Grab_Materiallist@@YAXPAUs_source_t@@@Z 00423a10 f   mrmsupport.obj
 0001:00022b30       ?Grab_Normallist@@YAXPAUs_source_t@@@Z 00423b30 f   mrmsupport.obj
 0001:00022c60       ?Grab_Texcoordlist@@YAXPAUs_source_t@@@Z 00423c60 f   mrmsupport.obj
 0001:00022d50       ?Grab_Vertexlist@@YAXPAUs_source_t@@@Z 00423d50 f   mrmsupport.obj
 0001:00022f60       ?IsEnd@@YA_NPBD@Z          00423f60 f   mrmsupport.obj
 0001:00022f90       ?Load_VRM@@YAHPAUs_source_t@@@Z 00423f90 f   mrmsupport.obj
 0001:000239d0       ?SortAndBalanceBones@@YAHHHQAHQAM@Z 004249d0 f   mrmsupport.obj
 0001:00023cd0       ?UnifyIndices@@YAXPAUs_source_t@@@Z 00424cd0 f   mrmsupport.obj
 0001:00023e00       ?closestNormal@@YAHHH@Z    00424e00 f   mrmsupport.obj
 0001:00023ea0       ?faceCompare@@YAHPBX0@Z    00424ea0 f   mrmsupport.obj
 0001:00023ef0       ?vlistCompare@@YAHPBX0@Z   00424ef0 f   mrmsupport.obj
 0001:00023f40       ___local_stdio_scanf_options 00424f40 f i mrmsupport.obj
 0001:00023f50       _sscanf                    00424f50 f i mrmsupport.obj
 0001:00023f80       ?AppendVTAtoOBJ@@YAHPAUs_source_t@@PADH@Z 00424f80 f   objsupport.obj
 0001:00024510       ?Load_OBJ@@YAHPAUs_source_t@@@Z 00425510 f   objsupport.obj
 0001:00024960       ??0?$CUtlMemory@G@@QAE@HH@Z 00425960 f i optimize.obj
 0001:000249a0       ??0?$CUtlMemory@UMesh_t@OptimizedModel@@@@QAE@HH@Z 004259a0 f i optimize.obj
 0001:000249e0       ??0?$CUtlMemory@UModelLOD_t@OptimizedModel@@@@QAE@HH@Z 004259e0 f i optimize.obj
 0001:00024a20       ??0?$CUtlMemory@UModel_t@OptimizedModel@@@@QAE@HH@Z 00425a20 f i optimize.obj
 0001:00024a60       ??0?$CUtlMemory@UStripGroup_t@OptimizedModel@@@@QAE@HH@Z 00425a60 f i optimize.obj
 0001:00024aa0       ??0?$CUtlMemory@UStrip_t@OptimizedModel@@@@QAE@HH@Z 00425aa0 f i optimize.obj
 0001:00024ae0       ??0?$CUtlMemory@UTriangle_t@OptimizedModel@@@@QAE@HH@Z 00425ae0 f i optimize.obj
 0001:00024b20       ??0?$CUtlMemory@UVertex_t@OptimizedModel@@@@QAE@HH@Z 00425b20 f i optimize.obj
 0001:00024b60       ??0?$CUtlMemory@Umstudioiface_t@@@@QAE@HH@Z 00425b60 f i optimize.obj
 0001:00024ba0       ??0?$CUtlMemory@V?$CUtlVector@DV?$CUtlMemory@D@@@@@@QAE@HH@Z 00425ba0 f i optimize.obj
 0001:00024be0       ??0?$CUtlMemory@_N@@QAE@HH@Z 00425be0 f i optimize.obj
 0001:00024c20       ??0?$CUtlVector@GV?$CUtlMemory@G@@@@QAE@HH@Z 00425c20 f i optimize.obj
 0001:00024c70       ??0?$CUtlVector@HV?$CUtlMemory@H@@@@QAE@HH@Z 00425c70 f i optimize.obj
 0001:00024cc0       ??0?$CUtlVector@UModel_t@OptimizedModel@@V?$CUtlMemory@UModel_t@OptimizedModel@@@@@@QAE@HH@Z 00425cc0 f i optimize.obj
 0001:00024d10       ??0?$CUtlVector@UTriangle_t@OptimizedModel@@V?$CUtlMemory@UTriangle_t@OptimizedModel@@@@@@QAE@HH@Z 00425d10 f i optimize.obj
 0001:00024d60       ??0?$CUtlVector@UVertex_t@OptimizedModel@@V?$CUtlMemory@UVertex_t@OptimizedModel@@@@@@QAE@HH@Z 00425d60 f i optimize.obj
 0001:00024db0       ??0?$CUtlVector@Umstudioiface_t@@V?$CUtlMemory@Umstudioiface_t@@@@@@QAE@HH@Z 00425db0 f i optimize.obj
 0001:00024e00       ??0?$CUtlVector@V?$CUtlVector@DV?$CUtlMemory@D@@@@V?$CUtlMemory@V?$CUtlVector@DV?$CUtlMemory@D@@@@@@@@QAE@HH@Z 00425e00 f i optimize.obj
 0001:00024e50       ??0?$CUtlVector@_NV?$CUtlMemory@_N@@@@QAE@HH@Z 00425e50 f i optimize.obj
 0001:00024e90       ??1?$CUtlMemory@G@@QAE@XZ  00425e90 f i optimize.obj
 0001:00024ec0       ??1?$CUtlMemory@UMesh_t@OptimizedModel@@@@QAE@XZ 00425ec0 f i optimize.obj
 0001:00024ef0       ??1?$CUtlMemory@UModelLOD_t@OptimizedModel@@@@QAE@XZ 00425ef0 f i optimize.obj
 0001:00024f20       ??1?$CUtlMemory@UModel_t@OptimizedModel@@@@QAE@XZ 00425f20 f i optimize.obj
 0001:00024f50       ??1?$CUtlMemory@UStripGroup_t@OptimizedModel@@@@QAE@XZ 00425f50 f i optimize.obj
 0001:00024f80       ??1?$CUtlMemory@UStrip_t@OptimizedModel@@@@QAE@XZ 00425f80 f i optimize.obj
 0001:00024fb0       ??1?$CUtlMemory@UTriangle_t@OptimizedModel@@@@QAE@XZ 00425fb0 f i optimize.obj
 0001:00024fe0       ??1?$CUtlMemory@UVertex_t@OptimizedModel@@@@QAE@XZ 00425fe0 f i optimize.obj
 0001:00025010       ??1?$CUtlMemory@Umstudioiface_t@@@@QAE@XZ 00426010 f i optimize.obj
 0001:00025040       ??1?$CUtlMemory@V?$CUtlVector@DV?$CUtlMemory@D@@@@@@QAE@XZ 00426040 f i optimize.obj
 0001:00025070       ??1?$CUtlMemory@_N@@QAE@XZ 00426070 f i optimize.obj
 0001:000250a0       ??1?$CUtlVector@GV?$CUtlMemory@G@@@@QAE@XZ 004260a0 f i optimize.obj
 0001:00025100       ??1?$CUtlVector@HV?$CUtlMemory@H@@@@QAE@XZ 00426100 f i optimize.obj
 0001:00025160       ??1?$CUtlVector@UMesh_t@OptimizedModel@@V?$CUtlMemory@UMesh_t@OptimizedModel@@@@@@QAE@XZ 00426160 f i optimize.obj
 0001:000251e0       ??1?$CUtlVector@UModelLOD_t@OptimizedModel@@V?$CUtlMemory@UModelLOD_t@OptimizedModel@@@@@@QAE@XZ 004261e0 f i optimize.obj
 0001:00025260       ??1?$CUtlVector@UModel_t@OptimizedModel@@V?$CUtlMemory@UModel_t@OptimizedModel@@@@@@QAE@XZ 00426260 f i optimize.obj
 0001:000252e0       ??1?$CUtlVector@UStripGroup_t@OptimizedModel@@V?$CUtlMemory@UStripGroup_t@OptimizedModel@@@@@@QAE@XZ 004262e0 f i optimize.obj
 0001:00025390       ??1?$CUtlVector@UStrip_t@OptimizedModel@@V?$CUtlMemory@UStrip_t@OptimizedModel@@@@@@QAE@XZ 00426390 f i optimize.obj
 0001:00025420       ??1?$CUtlVector@UTriangle_t@OptimizedModel@@V?$CUtlMemory@UTriangle_t@OptimizedModel@@@@@@QAE@XZ 00426420 f i optimize.obj
 0001:00025480       ??1?$CUtlVector@UVertex_t@OptimizedModel@@V?$CUtlMemory@UVertex_t@OptimizedModel@@@@@@QAE@XZ 00426480 f i optimize.obj
 0001:000254e0       ??1?$CUtlVector@Umstudioiface_t@@V?$CUtlMemory@Umstudioiface_t@@@@@@QAE@XZ 004264e0 f i optimize.obj
 0001:00025540       ??1?$CUtlVector@V?$CUtlVector@DV?$CUtlMemory@D@@@@V?$CUtlMemory@V?$CUtlVector@DV?$CUtlMemory@D@@@@@@@@QAE@XZ 00426540 f i optimize.obj
 0001:00025570       ??1?$CUtlVector@_NV?$CUtlMemory@_N@@@@QAE@XZ 00426570 f i optimize.obj
 0001:000255d0       ??2@YAPAXIPAX@Z            004265d0 f i optimize.obj
 0001:000255e0       ??A?$CUtlVector@GV?$CUtlMemory@G@@@@QAEAAGH@Z 004265e0 f i optimize.obj
 0001:000255f0       ??A?$CUtlVector@GV?$CUtlMemory@G@@@@QBEABGH@Z 004265f0 f i optimize.obj
 0001:00025600       ??A?$CUtlVector@HV?$CUtlMemory@H@@@@QAEAAHH@Z 00426600 f i optimize.obj
 0001:00025610       ??A?$CUtlVector@ULodScriptData_t@@V?$CUtlMemory@ULodScriptData_t@@@@@@QAEAAULodScriptData_t@@H@Z 00426610 f i optimize.obj
 0001:00025620       ??A?$CUtlVector@UMesh_t@OptimizedModel@@V?$CUtlMemory@UMesh_t@OptimizedModel@@@@@@QAEAAUMesh_t@OptimizedModel@@H@Z 00426620 f i optimize.obj
 0001:00025640       ??A?$CUtlVector@UModelLOD_t@OptimizedModel@@V?$CUtlMemory@UModelLOD_t@OptimizedModel@@@@@@QAEAAUModelLOD_t@OptimizedModel@@H@Z 00426640 f i optimize.obj
 0001:00025660       ??A?$CUtlVector@UModel_t@OptimizedModel@@V?$CUtlMemory@UModel_t@OptimizedModel@@@@@@QAEAAUModel_t@OptimizedModel@@H@Z 00426660 f i optimize.obj
 0001:00025680       ??A?$CUtlVector@UStripGroup_t@OptimizedModel@@V?$CUtlMemory@UStripGroup_t@OptimizedModel@@@@@@QAEAAUStripGroup_t@OptimizedModel@@H@Z 00426680 f i optimize.obj
 0001:00025690       ??A?$CUtlVector@UStrip_t@OptimizedModel@@V?$CUtlMemory@UStrip_t@OptimizedModel@@@@@@QAEAAUStrip_t@OptimizedModel@@H@Z 00426690 f i optimize.obj
 0001:000256a0       ??A?$CUtlVector@UTriangle_t@OptimizedModel@@V?$CUtlMemory@UTriangle_t@OptimizedModel@@@@@@QAEAAUTriangle_t@OptimizedModel@@H@Z 004266a0 f i optimize.obj
 0001:000256c0       ??A?$CUtlVector@UVertex_t@OptimizedModel@@V?$CUtlMemory@UVertex_t@OptimizedModel@@@@@@QAEAAUVertex_t@OptimizedModel@@H@Z 004266c0 f i optimize.obj
 0001:000256d0       ??A?$CUtlVector@UVertex_t@OptimizedModel@@V?$CUtlMemory@UVertex_t@OptimizedModel@@@@@@QBEABUVertex_t@OptimizedModel@@H@Z 004266d0 f i optimize.obj
 0001:000256e0       ??A?$CUtlVector@Umstudioiface_t@@V?$CUtlMemory@Umstudioiface_t@@@@@@QAEAAUmstudioiface_t@@H@Z 004266e0 f i optimize.obj
 0001:00025700       ??A?$CUtlVector@V?$CUtlVector@DV?$CUtlMemory@D@@@@V?$CUtlMemory@V?$CUtlVector@DV?$CUtlMemory@D@@@@@@@@QAEAAV?$CUtlVector@DV?$CUtlMemory@D@@@@H@Z 00426700 f i optimize.obj
 0001:00025720       ??A?$CUtlVector@VCLodScriptReplacement_t@@V?$CUtlMemory@VCLodScriptReplacement_t@@@@@@QAEAAVCLodScriptReplacement_t@@H@Z 00426720 f i optimize.obj
 0001:00025730       ??A?$CUtlVector@_NV?$CUtlMemory@_N@@@@QAEAA_NH@Z 00426730 f i optimize.obj
 0001:000257e0       ?AddMultipleToTail@?$CUtlVector@DV?$CUtlMemory@D@@@@QAEHHPBD@Z 004267e0 f i optimize.obj
 0001:000258c0       ?AddMultipleToTail@?$CUtlVector@HV?$CUtlMemory@H@@@@QAEHHPBH@Z 004268c0 f i optimize.obj
 0001:000259e0       ?AddMultipleToTail@?$CUtlVector@_NV?$CUtlMemory@_N@@@@QAEHHPB_N@Z 004269e0 f i optimize.obj
 0001:00025ac0       ?AddString@CStringTable@OptimizedModel@@QAEXPBD@Z 00426ac0 f i optimize.obj
 0001:00025b80       ?AddToTail@?$CUtlVector@GV?$CUtlMemory@G@@@@QAEHABG@Z 00426b80 f i optimize.obj
 0001:00025c20       ?AddToTail@?$CUtlVector@UMesh_t@OptimizedModel@@V?$CUtlMemory@UMesh_t@OptimizedModel@@@@@@QAEHXZ 00426c20 f i optimize.obj
 0001:00025cd0       ?AddToTail@?$CUtlVector@UModelLOD_t@OptimizedModel@@V?$CUtlMemory@UModelLOD_t@OptimizedModel@@@@@@QAEHXZ 00426cd0 f i optimize.obj
 0001:00025d80       ?AddToTail@?$CUtlVector@UModel_t@OptimizedModel@@V?$CUtlMemory@UModel_t@OptimizedModel@@@@@@QAEHXZ 00426d80 f i optimize.obj
 0001:00025e30       ?AddToTail@?$CUtlVector@UStripGroup_t@OptimizedModel@@V?$CUtlMemory@UStripGroup_t@OptimizedModel@@@@@@QAEHXZ 00426e30 f i optimize.obj
 0001:00025f20       ?AddToTail@?$CUtlVector@UStrip_t@OptimizedModel@@V?$CUtlMemory@UStrip_t@OptimizedModel@@@@@@QAEHXZ 00426f20 f i optimize.obj
 0001:00025fe0       ?AddToTail@?$CUtlVector@UTriangle_t@OptimizedModel@@V?$CUtlMemory@UTriangle_t@OptimizedModel@@@@@@QAEHXZ 00426fe0 f i optimize.obj
 0001:00026080       ?AddToTail@?$CUtlVector@UVertex_t@OptimizedModel@@V?$CUtlMemory@UVertex_t@OptimizedModel@@@@@@QAEHABUVertex_t@OptimizedModel@@@Z 00427080 f i optimize.obj
 0001:00026120       ?AddToTail@?$CUtlVector@Umstudioiface_t@@V?$CUtlMemory@Umstudioiface_t@@@@@@QAEHXZ 00427120 f i optimize.obj
 0001:000261b0       ?AddToTail@?$CUtlVector@V?$CUtlVector@DV?$CUtlMemory@D@@@@V?$CUtlMemory@V?$CUtlVector@DV?$CUtlMemory@D@@@@@@@@QAEHXZ 004271b0 f i optimize.obj
 0001:00026260       ?AllocateHardwareBonesForTriangle@COptimizedModel@OptimizedModel@@AAE_NPAUTriangle_t@2@@Z 00427260 f   optimize.obj
 0001:000262d0       ?Base@?$CUtlVector@DV?$CUtlMemory@D@@@@QAEPADXZ 004272d0 f i optimize.obj
 0001:000262e0       ?Base@?$CUtlVector@_NV?$CUtlMemory@_N@@@@QAEPA_NXZ 004272e0 f i optimize.obj
 0001:000262f0       ?BuildHWSkinnedStrips@COptimizedModel@OptimizedModel@@AAEXAAV?$CUtlVector@UTriangle_t@OptimizedModel@@V?$CUtlMemory@UTriangle_t@OptimizedModel@@@@@@AAV?$CUtlVector@UVertex_t@OptimizedModel@@V?$CUtlMemory@UVertex_t@OptimizedModel@@@@@@PAUStripGroup_t@2@H@Z 004272f0 f   optimize.obj
 0001:000264c0       ?BuildNeighborInfo@COptimizedModel@OptimizedModel@@AAEXAAV?$CUtlVector@UTriangle_t@OptimizedModel@@V?$CUtlMemory@UTriangle_t@OptimizedModel@@@@@@@Z 004274c0 f   optimize.obj
 0001:000266a0       ?BuildSWSkinnedStrips@COptimizedModel@OptimizedModel@@AAEXAAV?$CUtlVector@UTriangle_t@OptimizedModel@@V?$CUtlMemory@UTriangle_t@OptimizedModel@@@@@@ABV?$CUtlVector@UVertex_t@OptimizedModel@@V?$CUtlMemory@UVertex_t@OptimizedModel@@@@@@PAUStripGroup_t@2@@Z 004276a0 f   optimize.obj
 0001:00026850       ?BuildStripsRecursive@COptimizedModel@OptimizedModel@@AAEXAAV?$CUtlVector@GV?$CUtlMemory@G@@@@AAV?$CUtlVector@UTriangle_t@OptimizedModel@@V?$CUtlMemory@UTriangle_t@OptimizedModel@@@@@@PAUTriangle_t@2@@Z 00427850 f   optimize.obj
 0001:000269a0       ?BuildTriangleBoneData@COptimizedModel@OptimizedModel@@AAEXAAV?$CUtlVector@UVertex_t@OptimizedModel@@V?$CUtlMemory@UVertex_t@OptimizedModel@@@@@@AAUTriangle_t@2@@Z 004279a0 f   optimize.obj
 0001:00026af0       ?CalcSize@CStringTable@OptimizedModel@@QAEHXZ 00427af0 f i optimize.obj
 0001:00026b50       ?CheckAllVerts@COptimizedModel@OptimizedModel@@AAEXHH@Z 00427b50 f   optimize.obj
 0001:00026bb0       ?CheckVert@COptimizedModel@OptimizedModel@@AAEXPAUVertex_t@2@HH@Z 00427bb0 f   optimize.obj
 0001:00026c10       ?CheckVertBoneWeights@COptimizedModel@OptimizedModel@@AAEXPAUVertex_t@2@PAUmstudiomodel_t@@PAUmstudiomesh_t@@@Z 00427c10 f   optimize.obj
 0001:00026c70       ?CleanupEverything@COptimizedModel@OptimizedModel@@AAEXXZ 00427c70 f   optimize.obj
 0001:00026c80       ?ComparePath@OptimizedModel@@YA_NPBD0@Z 00427c80 f   optimize.obj
 0001:00026d90       ?ComputeMeshFlags@COptimizedModel@OptimizedModel@@AAEXPAUMesh_t@2@PAUstudiohdr_t@@PAUmstudiomesh_t@@@Z 00427d90 f   optimize.obj
 0001:00026df0       ?ComputeNewBonesNeeded@COptimizedModel@OptimizedModel@@ABEHABUTriangle_t@2@@Z 00427df0 f i optimize.obj
 0001:00026e50       ?ComputeStripGroupFlags@COptimizedModel@OptimizedModel@@AAEXPAUStripGroup_t@2@_N1@Z 00427e50 f   optimize.obj
 0001:00026eb0       ?Count@?$CUtlVector@VCLodScriptReplacement_t@@V?$CUtlMemory@VCLodScriptReplacement_t@@@@@@QBEHXZ 00427eb0 f i optimize.obj
 0001:00026ec0       ?CountMaxVertBones@COptimizedModel@OptimizedModel@@ABEHHPAUVertex_t@2@@Z 00427ec0 f   optimize.obj
 0001:00026f10       ?CountUniqueBones@COptimizedModel@OptimizedModel@@ABEHHPAUVertex_t@2@@Z 00427f10 f   optimize.obj
 0001:00026fc0       ?CountUniqueBonesInStrip@COptimizedModel@OptimizedModel@@AAEHPAUStripGroup_t@2@PAUStrip_t@2@@Z 00427fc0 f   optimize.obj
 0001:000270c0       ?CreateLODTriangleList@COptimizedModel@OptimizedModel@@AAEXHPAUs_source_t@@PAUmstudiomodel_t@@PAUmstudiomesh_t@@AAV?$CUtlVector@Umstudioiface_t@@V?$CUtlMemory@Umstudioiface_t@@@@@@_N@Z 004280c0 f   optimize.obj
 0001:00027270       ?DrawGLViewTriangle@COptimizedModel@OptimizedModel@@AAEXPAU_iobuf@@AAVVector@@11111@Z 00428270 f   optimize.obj
 0001:00027470       ?EnsureCapacity@?$CUtlVector@GV?$CUtlMemory@G@@@@QAEXH@Z 00428470 f i optimize.obj
 0001:000274c0       ?FastRemove@?$CUtlVector@UStripGroup_t@OptimizedModel@@V?$CUtlMemory@UStripGroup_t@OptimizedModel@@@@@@QAEXH@Z 004284c0 f i optimize.obj
 0001:00027590       ?GLViewDrawBegin@COptimizedModel@OptimizedModel@@AAEXH@Z 00428590 f   optimize.obj
 0001:000275b0       ?GLViewDrawEnd@COptimizedModel@OptimizedModel@@AAEXXZ 004285b0 f   optimize.obj
 0001:000275d0       ?GLViewVert@COptimizedModel@OptimizedModel@@AAEXPAU_iobuf@@UVertex_t@2@HAAVVector@@PAUmstudiomodel_t@@PAUmstudiomesh_t@@_NM@Z 004285d0 f   optimize.obj
 0001:00027870       ?GenerateStripGroupVerticesFromFace@COptimizedModel@OptimizedModel@@AAE_NPAUmstudioiface_t@@PAUmstudiomesh_t@@HPAUVertex_t@2@@Z 00428870 f   optimize.obj
 0001:00027a80       ?GetNextTriangle@COptimizedModel@OptimizedModel@@AAEPAUTriangle_t@2@AAV?$CUtlVector@UTriangle_t@OptimizedModel@@V?$CUtlMemory@UTriangle_t@OptimizedModel@@@@@@_N@Z 00428a80 f   optimize.obj
 0001:00027b10       ?GetNextUntouchedWithLeastBoneStateChanges@COptimizedModel@OptimizedModel@@AAEPAUTriangle_t@2@AAV?$CUtlVector@UTriangle_t@OptimizedModel@@V?$CUtlMemory@UTriangle_t@OptimizedModel@@@@@@@Z 00428b10 f   optimize.obj
 0001:00027bb0       ?GetNextUntouchedWithoutBoneStateChange@COptimizedModel@OptimizedModel@@AAEPAUTriangle_t@2@AAV?$CUtlVector@UTriangle_t@OptimizedModel@@V?$CUtlMemory@UTriangle_t@OptimizedModel@@@@@@@Z 00428bb0 f   optimize.obj
 0001:00027c60       ?GetOrigVertBoneIndex@COptimizedModel@OptimizedModel@@AAEHPAUmstudiomodel_t@@PAUmstudiomesh_t@@PAUVertex_t@2@H@Z 00428c60 f   optimize.obj
 0001:00027ce0       ?GetOrigVertBoneWeight@COptimizedModel@OptimizedModel@@AAEAAUmstudioboneweight_t@@PAUmstudiomodel_t@@PAUmstudiomesh_t@@PAUVertex_t@2@@Z 00428ce0 f   optimize.obj
 0001:00027d50       ?GetOrigVertBoneWeightValue@COptimizedModel@OptimizedModel@@AAEMPAUmstudiomodel_t@@PAUmstudiomesh_t@@PAUVertex_t@2@H@Z 00428d50 f   optimize.obj
 0001:00027dd0       ?GetOrigVertPosition@COptimizedModel@OptimizedModel@@AAEAAVVector@@PAUmstudiomodel_t@@PAUmstudiomesh_t@@PAUVertex_t@2@@Z 00428dd0 f   optimize.obj
 0001:00027e40       ?GetTotalBoneStateChangesForMesh@COptimizedModel@OptimizedModel@@AAEHPAUMesh_t@2@@Z 00428e40 f   optimize.obj
 0001:00027ed0       ?GetTotalIndicesForMesh@COptimizedModel@OptimizedModel@@AAEHPAUMesh_t@2@@Z 00428ed0 f   optimize.obj
 0001:00027f30       ?GetTotalStripGroupsForMesh@COptimizedModel@OptimizedModel@@AAEHPAUMesh_t@2@@Z 00428f30 f   optimize.obj
 0001:00027f50       ?GetTotalStripsForMesh@COptimizedModel@OptimizedModel@@AAEHPAUMesh_t@2@@Z 00428f50 f   optimize.obj
 0001:00027fb0       ?GetTotalVertsForMesh@COptimizedModel@OptimizedModel@@AAEHPAUMesh_t@2@@Z 00428fb0 f   optimize.obj
 0001:00028010       ?Grow@?$CUtlMemory@G@@QAEXH@Z 00429010 f i optimize.obj
 0001:00028060       ?Grow@?$CUtlMemory@UMesh_t@OptimizedModel@@@@QAEXH@Z 00429060 f i optimize.obj
 0001:000280b0       ?Grow@?$CUtlMemory@UModelLOD_t@OptimizedModel@@@@QAEXH@Z 004290b0 f i optimize.obj
 0001:00028100       ?Grow@?$CUtlMemory@UModel_t@OptimizedModel@@@@QAEXH@Z 00429100 f i optimize.obj
 0001:00028150       ?Grow@?$CUtlMemory@UStripGroup_t@OptimizedModel@@@@QAEXH@Z 00429150 f i optimize.obj
 0001:000281b0       ?Grow@?$CUtlMemory@UStrip_t@OptimizedModel@@@@QAEXH@Z 004291b0 f i optimize.obj
 0001:00028210       ?Grow@?$CUtlMemory@UTriangle_t@OptimizedModel@@@@QAEXH@Z 00429210 f i optimize.obj
 0001:00028270       ?Grow@?$CUtlMemory@UVertex_t@OptimizedModel@@@@QAEXH@Z 00429270 f i optimize.obj
 0001:000282c0       ?Grow@?$CUtlMemory@Umstudioiface_t@@@@QAEXH@Z 004292c0 f i optimize.obj
 0001:00028310       ?Grow@?$CUtlMemory@V?$CUtlVector@DV?$CUtlMemory@D@@@@@@QAEXH@Z 00429310 f i optimize.obj
 0001:00028360       ?Grow@?$CUtlMemory@_N@@QAEXH@Z 00429360 f i optimize.obj
 0001:000283c0       ?GrowVector@?$CUtlVector@GV?$CUtlMemory@G@@@@IAEXH@Z 004293c0 f i optimize.obj
 0001:00028430       ?GrowVector@?$CUtlVector@UMesh_t@OptimizedModel@@V?$CUtlMemory@UMesh_t@OptimizedModel@@@@@@IAEXH@Z 00429430 f i optimize.obj
 0001:000284a0       ?GrowVector@?$CUtlVector@UModelLOD_t@OptimizedModel@@V?$CUtlMemory@UModelLOD_t@OptimizedModel@@@@@@IAEXH@Z 004294a0 f i optimize.obj
 0001:00028510       ?GrowVector@?$CUtlVector@UModel_t@OptimizedModel@@V?$CUtlMemory@UModel_t@OptimizedModel@@@@@@IAEXH@Z 00429510 f i optimize.obj
 0001:00028580       ?GrowVector@?$CUtlVector@UStripGroup_t@OptimizedModel@@V?$CUtlMemory@UStripGroup_t@OptimizedModel@@@@@@IAEXH@Z 00429580 f i optimize.obj
 0001:00028600       ?GrowVector@?$CUtlVector@UStrip_t@OptimizedModel@@V?$CUtlMemory@UStrip_t@OptimizedModel@@@@@@IAEXH@Z 00429600 f i optimize.obj
 0001:00028670       ?GrowVector@?$CUtlVector@UTriangle_t@OptimizedModel@@V?$CUtlMemory@UTriangle_t@OptimizedModel@@@@@@IAEXH@Z 00429670 f i optimize.obj
 0001:000286e0       ?GrowVector@?$CUtlVector@UVertex_t@OptimizedModel@@V?$CUtlMemory@UVertex_t@OptimizedModel@@@@@@IAEXH@Z 004296e0 f i optimize.obj
 0001:00028750       ?GrowVector@?$CUtlVector@Umstudioiface_t@@V?$CUtlMemory@Umstudioiface_t@@@@@@IAEXH@Z 00429750 f i optimize.obj
 0001:000287c0       ?GrowVector@?$CUtlVector@V?$CUtlVector@DV?$CUtlMemory@D@@@@V?$CUtlMemory@V?$CUtlVector@DV?$CUtlMemory@D@@@@@@@@IAEXH@Z 004297c0 f i optimize.obj
 0001:00028830       ?GrowVector@?$CUtlVector@_NV?$CUtlMemory@_N@@@@IAEXH@Z 00429830 f i optimize.obj
 0001:000288b0       ?InsertBefore@?$CUtlVector@GV?$CUtlMemory@G@@@@QAEHHABG@Z 004298b0 f i optimize.obj
 0001:00028950       ?InsertBefore@?$CUtlVector@UMesh_t@OptimizedModel@@V?$CUtlMemory@UMesh_t@OptimizedModel@@@@@@QAEHH@Z 00429950 f i optimize.obj
 0001:00028a10       ?InsertBefore@?$CUtlVector@UModelLOD_t@OptimizedModel@@V?$CUtlMemory@UModelLOD_t@OptimizedModel@@@@@@QAEHH@Z 00429a10 f i optimize.obj
 0001:00028ad0       ?InsertBefore@?$CUtlVector@UModel_t@OptimizedModel@@V?$CUtlMemory@UModel_t@OptimizedModel@@@@@@QAEHH@Z 00429ad0 f i optimize.obj
 0001:00028b90       ?InsertBefore@?$CUtlVector@UStripGroup_t@OptimizedModel@@V?$CUtlMemory@UStripGroup_t@OptimizedModel@@@@@@QAEHH@Z 00429b90 f i optimize.obj
 0001:00028c90       ?InsertBefore@?$CUtlVector@UStrip_t@OptimizedModel@@V?$CUtlMemory@UStrip_t@OptimizedModel@@@@@@QAEHH@Z 00429c90 f i optimize.obj
 0001:00028d50       ?InsertBefore@?$CUtlVector@UTriangle_t@OptimizedModel@@V?$CUtlMemory@UTriangle_t@OptimizedModel@@@@@@QAEHH@Z 00429d50 f i optimize.obj
 0001:00028e00       ?InsertBefore@?$CUtlVector@UVertex_t@OptimizedModel@@V?$CUtlMemory@UVertex_t@OptimizedModel@@@@@@QAEHHABUVertex_t@OptimizedModel@@@Z 00429e00 f i optimize.obj
 0001:00028ea0       ?InsertBefore@?$CUtlVector@Umstudioiface_t@@V?$CUtlMemory@Umstudioiface_t@@@@@@QAEHH@Z 00429ea0 f i optimize.obj
 0001:00028f40       ?InsertBefore@?$CUtlVector@V?$CUtlVector@DV?$CUtlMemory@D@@@@V?$CUtlMemory@V?$CUtlVector@DV?$CUtlMemory@D@@@@@@@@QAEHH@Z 00429f40 f i optimize.obj
 0001:00029000       ?IsExternallyAllocated@?$CUtlMemory@G@@QBE_NXZ 0042a000 f i optimize.obj
 0001:00029010       ?IsExternallyAllocated@?$CUtlMemory@UMesh_t@OptimizedModel@@@@QBE_NXZ 0042a010 f i optimize.obj
 0001:00029020       ?IsExternallyAllocated@?$CUtlMemory@UModelLOD_t@OptimizedModel@@@@QBE_NXZ 0042a020 f i optimize.obj
 0001:00029030       ?IsExternallyAllocated@?$CUtlMemory@UModel_t@OptimizedModel@@@@QBE_NXZ 0042a030 f i optimize.obj
 0001:00029040       ?IsExternallyAllocated@?$CUtlMemory@UStripGroup_t@OptimizedModel@@@@QBE_NXZ 0042a040 f i optimize.obj
 0001:00029050       ?IsExternallyAllocated@?$CUtlMemory@UStrip_t@OptimizedModel@@@@QBE_NXZ 0042a050 f i optimize.obj
 0001:00029060       ?IsExternallyAllocated@?$CUtlMemory@UTriangle_t@OptimizedModel@@@@QBE_NXZ 0042a060 f i optimize.obj
 0001:00029070       ?IsExternallyAllocated@?$CUtlMemory@UVertex_t@OptimizedModel@@@@QBE_NXZ 0042a070 f i optimize.obj
 0001:00029080       ?IsExternallyAllocated@?$CUtlMemory@Umstudioiface_t@@@@QBE_NXZ 0042a080 f i optimize.obj
 0001:00029090       ?IsExternallyAllocated@?$CUtlMemory@V?$CUtlVector@DV?$CUtlMemory@D@@@@@@QBE_NXZ 0042a090 f i optimize.obj
 0001:000290a0       ?IsExternallyAllocated@?$CUtlMemory@_N@@QBE_NXZ 0042a0a0 f i optimize.obj
 0001:000290b0       ?IsVertexFlexed@COptimizedModel@OptimizedModel@@ABE_NPAUmstudiomesh_t@@H@Z 0042a0b0 f   optimize.obj
 0001:00029150       ?MapGlobalBonesToHardwareBoneIDsAndSortBones@COptimizedModel@OptimizedModel@@AAEXPAUstudiohdr_t@@@Z 0042a150 f   optimize.obj
 0001:00029770       ?MeshIsTeeth@COptimizedModel@OptimizedModel@@AAE_NPAUstudiohdr_t@@PAUmstudiomesh_t@@@Z 0042a770 f   optimize.obj
 0001:00029800       ?MeshNeedsRemoval@COptimizedModel@OptimizedModel@@AAE_NPAUstudiohdr_t@@PAUmstudiomesh_t@@AAULodScriptData_t@@@Z 0042a800 f   optimize.obj
 0001:000298c0       ?OptimizeFromStudioHdr@COptimizedModel@OptimizedModel@@QAE_NPAUstudiohdr_t@@PAUs_bodypart_t@@H_N22HHHPBD3@Z 0042a8c0 f   optimize.obj
 0001:000299d0       ?OutputMemoryUsage@COptimizedModel@OptimizedModel@@AAEXXZ 0042a9d0 f   optimize.obj
 0001:00029ae0       ?PostProcessStripGroup@COptimizedModel@OptimizedModel@@AAEXPAUmstudiomodel_t@@PAUmstudiomesh_t@@PAUStripGroup_t@2@@Z 0042aae0 f   optimize.obj
 0001:00029ca0       ?PrintBoneStateChanges@COptimizedModel@OptimizedModel@@AAEXPAUstudiohdr_t@@H@Z 0042aca0 f   optimize.obj
 0001:00029ea0       ?PrintVert@COptimizedModel@OptimizedModel@@AAEXPAUVertex_t@2@PAUmstudiomodel_t@@PAUmstudiomesh_t@@@Z 0042aea0 f   optimize.obj
 0001:00029f70       ?PrintVerts@COptimizedModel@OptimizedModel@@AAEXPAUstudiohdr_t@@H@Z 0042af70 f   optimize.obj
 0001:0002a120       ?ProcessMesh@COptimizedModel@OptimizedModel@@AAEXPAUMesh_t@2@PAUstudiohdr_t@@AAV?$CUtlVector@Umstudioiface_t@@V?$CUtlMemory@Umstudioiface_t@@@@@@PAUmstudiomodel_t@@PAUmstudiomesh_t@@_N55@Z 0042b120 f   optimize.obj
 0001:0002a2d0       ?ProcessModel@COptimizedModel@OptimizedModel@@AAEXPAUstudiohdr_t@@PAUs_bodypart_t@@AAUTotalMeshStats_t@2@_N3@Z 0042b2d0 f   optimize.obj
 0001:0002a660       ?ProcessStripGroup@COptimizedModel@OptimizedModel@@AAEXPAUStripGroup_t@2@_N1PAUmstudiomodel_t@@PAUmstudiomesh_t@@AAV?$CUtlVector@Umstudioiface_t@@V?$CUtlMemory@Umstudioiface_t@@@@@@AAV?$CUtlVector@_NV?$CUtlMemory@_N@@@@HHH11@Z 0042b660 f   optimize.obj
 0001:0002a8d0       ?Purge@?$CUtlMemory@G@@QAEXXZ 0042b8d0 f i optimize.obj
 0001:0002a900       ?Purge@?$CUtlMemory@UMesh_t@OptimizedModel@@@@QAEXXZ 0042b900 f i optimize.obj
 0001:0002a930       ?Purge@?$CUtlMemory@UModelLOD_t@OptimizedModel@@@@QAEXXZ 0042b930 f i optimize.obj
 0001:0002a960       ?Purge@?$CUtlMemory@UModel_t@OptimizedModel@@@@QAEXXZ 0042b960 f i optimize.obj
 0001:0002a990       ?Purge@?$CUtlMemory@UStripGroup_t@OptimizedModel@@@@QAEXXZ 0042b990 f i optimize.obj
 0001:0002a9c0       ?Purge@?$CUtlMemory@UStrip_t@OptimizedModel@@@@QAEXXZ 0042b9c0 f i optimize.obj
 0001:0002a9f0       ?Purge@?$CUtlMemory@UTriangle_t@OptimizedModel@@@@QAEXXZ 0042b9f0 f i optimize.obj
 0001:0002aa20       ?Purge@?$CUtlMemory@UVertex_t@OptimizedModel@@@@QAEXXZ 0042ba20 f i optimize.obj
 0001:0002aa50       ?Purge@?$CUtlMemory@Umstudioiface_t@@@@QAEXXZ 0042ba50 f i optimize.obj
 0001:0002aa80       ?Purge@?$CUtlMemory@V?$CUtlVector@DV?$CUtlMemory@D@@@@@@QAEXXZ 0042ba80 f i optimize.obj
 0001:0002aab0       ?Purge@?$CUtlMemory@_N@@QAEXXZ 0042bab0 f i optimize.obj
 0001:0002aae0       ?Purge@?$CUtlVector@V?$CUtlVector@DV?$CUtlMemory@D@@@@V?$CUtlMemory@V?$CUtlVector@DV?$CUtlMemory@D@@@@@@@@QAEXXZ 0042bae0 f i optimize.obj
 0001:0002ac20       ?RemoveAll@?$CUtlVector@GV?$CUtlMemory@G@@@@QAEXXZ 0042bc20 f i optimize.obj
 0001:0002ac30       ?RemoveAll@?$CUtlVector@UMesh_t@OptimizedModel@@V?$CUtlMemory@UMesh_t@OptimizedModel@@@@@@QAEXXZ 0042bc30 f i optimize.obj
 0001:0002ac60       ?RemoveAll@?$CUtlVector@UModelLOD_t@OptimizedModel@@V?$CUtlMemory@UModelLOD_t@OptimizedModel@@@@@@QAEXXZ 0042bc60 f i optimize.obj
 0001:0002ac90       ?RemoveAll@?$CUtlVector@UModel_t@OptimizedModel@@V?$CUtlMemory@UModel_t@OptimizedModel@@@@@@QAEXXZ 0042bc90 f i optimize.obj
 0001:0002acc0       ?RemoveAll@?$CUtlVector@UStripGroup_t@OptimizedModel@@V?$CUtlMemory@UStripGroup_t@OptimizedModel@@@@@@QAEXXZ 0042bcc0 f i optimize.obj
 0001:0002ad20       ?RemoveAll@?$CUtlVector@UStrip_t@OptimizedModel@@V?$CUtlMemory@UStrip_t@OptimizedModel@@@@@@QAEXXZ 0042bd20 f i optimize.obj
 0001:0002ad60       ?RemoveAll@?$CUtlVector@UTriangle_t@OptimizedModel@@V?$CUtlMemory@UTriangle_t@OptimizedModel@@@@@@QAEXXZ 0042bd60 f i optimize.obj
 0001:0002ad70       ?RemoveAll@?$CUtlVector@UVertex_t@OptimizedModel@@V?$CUtlMemory@UVertex_t@OptimizedModel@@@@@@QAEXXZ 0042bd70 f i optimize.obj
 0001:0002ad80       ?RemoveAll@?$CUtlVector@Umstudioiface_t@@V?$CUtlMemory@Umstudioiface_t@@@@@@QAEXXZ 0042bd80 f i optimize.obj
 0001:0002ad90       ?RemoveAll@?$CUtlVector@V?$CUtlVector@DV?$CUtlMemory@D@@@@V?$CUtlMemory@V?$CUtlVector@DV?$CUtlMemory@D@@@@@@@@QAEXXZ 0042bd90 f i optimize.obj
 0001:0002ae30       ?RemoveAll@?$CUtlVector@_NV?$CUtlMemory@_N@@@@QAEXXZ 0042be30 f i optimize.obj
 0001:0002ae40       ?RemoveRedundantBoneStateChanges@COptimizedModel@OptimizedModel@@AAEXXZ 0042be40 f   optimize.obj
 0001:0002b0c0       ?SanityCheckAgainstStudioHDR@COptimizedModel@OptimizedModel@@AAEXPAUstudiohdr_t@@@Z 0042c0c0 f   optimize.obj
 0001:0002b0d0       ?SanityCheckVertBones@COptimizedModel@OptimizedModel@@AAEXABV?$CUtlVector@GV?$CUtlMemory@G@@@@ABV?$CUtlVector@UVertex_t@OptimizedModel@@V?$CUtlMemory@UVertex_t@OptimizedModel@@@@@@@Z 0042c0d0 f   optimize.obj
 0001:0002b0e0       ?SanityCheckVertexBoneLODFlags@COptimizedModel@OptimizedModel@@AAEXPAUstudiohdr_t@@PAUFileHeader_t@2@@Z 0042c0e0 f   optimize.obj
 0001:0002b350       ?SetColorFromNumVertexBones@COptimizedModel@OptimizedModel@@AAEXHAAVVector@@@Z 0042c350 f   optimize.obj
 0001:0002b420       ?SetFlexedAndSkinColor@COptimizedModel@OptimizedModel@@AAEXIIAAVVector@@@Z 0042c420 f   optimize.obj
 0001:0002b6b0       ?SetMeshPropsColor@COptimizedModel@OptimizedModel@@AAEXIAAVVector@@@Z 0042c6b0 f   optimize.obj
 0001:0002b790       ?SetupMeshProcessing@COptimizedModel@OptimizedModel@@AAEXPAUstudiohdr_t@@H_NHHHPBD@Z 0042c790 f   optimize.obj
 0001:0002b820       ?ShiftElementsRight@?$CUtlVector@GV?$CUtlMemory@G@@@@IAEXHH@Z 0042c820 f i optimize.obj
 0001:0002b860       ?ShiftElementsRight@?$CUtlVector@UMesh_t@OptimizedModel@@V?$CUtlMemory@UMesh_t@OptimizedModel@@@@@@IAEXHH@Z 0042c860 f i optimize.obj
 0001:0002b8a0       ?ShiftElementsRight@?$CUtlVector@UModelLOD_t@OptimizedModel@@V?$CUtlMemory@UModelLOD_t@OptimizedModel@@@@@@IAEXHH@Z 0042c8a0 f i optimize.obj
 0001:0002b8e0       ?ShiftElementsRight@?$CUtlVector@UModel_t@OptimizedModel@@V?$CUtlMemory@UModel_t@OptimizedModel@@@@@@IAEXHH@Z 0042c8e0 f i optimize.obj
 0001:0002b920       ?ShiftElementsRight@?$CUtlVector@UStripGroup_t@OptimizedModel@@V?$CUtlMemory@UStripGroup_t@OptimizedModel@@@@@@IAEXHH@Z 0042c920 f i optimize.obj
 0001:0002b960       ?ShiftElementsRight@?$CUtlVector@UStrip_t@OptimizedModel@@V?$CUtlMemory@UStrip_t@OptimizedModel@@@@@@IAEXHH@Z 0042c960 f i optimize.obj
 0001:0002b9b0       ?ShiftElementsRight@?$CUtlVector@UTriangle_t@OptimizedModel@@V?$CUtlMemory@UTriangle_t@OptimizedModel@@@@@@IAEXHH@Z 0042c9b0 f i optimize.obj
 0001:0002ba00       ?ShiftElementsRight@?$CUtlVector@UVertex_t@OptimizedModel@@V?$CUtlMemory@UVertex_t@OptimizedModel@@@@@@IAEXHH@Z 0042ca00 f i optimize.obj
 0001:0002ba40       ?ShiftElementsRight@?$CUtlVector@Umstudioiface_t@@V?$CUtlMemory@Umstudioiface_t@@@@@@IAEXHH@Z 0042ca40 f i optimize.obj
 0001:0002ba80       ?ShiftElementsRight@?$CUtlVector@V?$CUtlVector@DV?$CUtlMemory@D@@@@V?$CUtlMemory@V?$CUtlVector@DV?$CUtlMemory@D@@@@@@@@IAEXHH@Z 0042ca80 f i optimize.obj
 0001:0002bac0       ?ShiftElementsRight@?$CUtlVector@_NV?$CUtlMemory@_N@@@@IAEXHH@Z 0042cac0 f i optimize.obj
 0001:0002bb00       ?ShowStats@COptimizedModel@OptimizedModel@@AAEXXZ 0042cb00 f   optimize.obj
 0001:0002c160       ?ShrinkVerts@COptimizedModel@OptimizedModel@@AAEXM@Z 0042d160 f   optimize.obj
 0001:0002c360       ?Size@?$CUtlVector@DV?$CUtlMemory@D@@@@QBEHXZ 0042d360 f i optimize.obj
 0001:0002c370       ?Size@?$CUtlVector@GV?$CUtlMemory@G@@@@QBEHXZ 0042d370 f i optimize.obj
 0001:0002c380       ?Size@?$CUtlVector@ULodScriptData_t@@V?$CUtlMemory@ULodScriptData_t@@@@@@QBEHXZ 0042d380 f i optimize.obj
 0001:0002c390       ?Size@?$CUtlVector@UMesh_t@OptimizedModel@@V?$CUtlMemory@UMesh_t@OptimizedModel@@@@@@QBEHXZ 0042d390 f i optimize.obj
 0001:0002c3a0       ?Size@?$CUtlVector@UStripGroup_t@OptimizedModel@@V?$CUtlMemory@UStripGroup_t@OptimizedModel@@@@@@QBEHXZ 0042d3a0 f i optimize.obj
 0001:0002c3b0       ?Size@?$CUtlVector@UStrip_t@OptimizedModel@@V?$CUtlMemory@UStrip_t@OptimizedModel@@@@@@QBEHXZ 0042d3b0 f i optimize.obj
 0001:0002c3c0       ?Size@?$CUtlVector@UTriangle_t@OptimizedModel@@V?$CUtlMemory@UTriangle_t@OptimizedModel@@@@@@QBEHXZ 0042d3c0 f i optimize.obj
 0001:0002c3d0       ?Size@?$CUtlVector@UVertex_t@OptimizedModel@@V?$CUtlMemory@UVertex_t@OptimizedModel@@@@@@QBEHXZ 0042d3d0 f i optimize.obj
 0001:0002c3e0       ?Size@?$CUtlVector@Umstudioiface_t@@V?$CUtlMemory@Umstudioiface_t@@@@@@QBEHXZ 0042d3e0 f i optimize.obj
 0001:0002c3f0       ?Size@?$CUtlVector@V?$CUtlVector@DV?$CUtlMemory@D@@@@V?$CUtlMemory@V?$CUtlVector@DV?$CUtlMemory@D@@@@@@@@QBEHXZ 0042d3f0 f i optimize.obj
 0001:0002c400       ?Size@?$CUtlVector@VCLodScriptReplacement_t@@V?$CUtlMemory@VCLodScriptReplacement_t@@@@@@QBEHXZ 0042d400 f i optimize.obj
 0001:0002c410       ?Size@?$CUtlVector@_NV?$CUtlMemory@_N@@@@QBEHXZ 0042d410 f i optimize.obj
 0001:0002c420       ?SortBonesWithinVertex@COptimizedModel@OptimizedModel@@AAEX_NPAUVertex_t@2@PAUmstudiomodel_t@@PAUmstudiomesh_t@@PAH4HH@Z 0042d420 f   optimize.obj
 0001:0002c640       ?SourceMeshToTriangleList@COptimizedModel@OptimizedModel@@AAEXPAUs_model_t@@PAUs_mesh_t@@AAV?$CUtlVector@Umstudioiface_t@@V?$CUtlMemory@Umstudioiface_t@@@@@@@Z 0042d640 f   optimize.obj
 0001:0002c6e0       ?StringPresent@CStringTable@OptimizedModel@@QAE_NPBD@Z 0042d6e0 f i optimize.obj
 0001:0002c740       ?StringTableOffset@CStringTable@OptimizedModel@@QAEHPBD@Z 0042d740 f i optimize.obj
 0001:0002c7c0       ?Stripify@COptimizedModel@OptimizedModel@@AAEXABV?$CUtlVector@GV?$CUtlMemory@G@@@@PAHPAPAG@Z 0042d7c0 f   optimize.obj
 0001:0002c930       ?UtlMemory_CalcNewAllocationCount@@YAHHHHH@Z 0042d930 f i optimize.obj
 0001:0002c980       ?V_memmove@@YAXPAXPBXH@Z   0042d980 f i optimize.obj
 0001:0002c9a0       ?ValidateLODReplacements@OptimizedModel@@YAXPAUstudiohdr_t@@@Z 0042d9a0 f   optimize.obj
 0001:0002cb20       ?WriteBodyPart@COptimizedModel@OptimizedModel@@AAEXHPAUmstudiobodyparts_t@@H@Z 0042db20 f   optimize.obj
 0001:0002cbb0       ?WriteBoneStateChange@COptimizedModel@OptimizedModel@@AAEXHPAUBoneStateChange_t@2@@Z 0042dbb0 f   optimize.obj
 0001:0002cc40       ?WriteGLViewFile@COptimizedModel@OptimizedModel@@AAEXPAUstudiohdr_t@@PBDIM@Z 0042dc40 f   optimize.obj
 0001:0002d150       ?WriteGLViewFiles@COptimizedModel@OptimizedModel@@AAEXPAUstudiohdr_t@@PBD@Z 0042e150 f   optimize.obj
 0001:0002d800       ?WriteHeader@COptimizedModel@OptimizedModel@@AAEXHHHHHJ@Z 0042e800 f   optimize.obj
 0001:0002d8d0       ?WriteIndices@COptimizedModel@OptimizedModel@@AAEHHPAUStripGroup_t@2@@Z 0042e8d0 f   optimize.obj
 0001:0002d950       ?WriteMaterialReplacementLists@COptimizedModel@OptimizedModel@@AAEXHH@Z 0042e950 f   optimize.obj
 0001:0002da70       ?WriteMaterialReplacements@COptimizedModel@OptimizedModel@@AAEXH@Z 0042ea70 f   optimize.obj
 0001:0002db90       ?WriteMesh@COptimizedModel@OptimizedModel@@AAEXHPAUMesh_t@2@H@Z 0042eb90 f   optimize.obj
 0001:0002dc30       ?WriteModel@COptimizedModel@OptimizedModel@@AAEXHPAUmstudiomodel_t@@H@Z 0042ec30 f   optimize.obj
 0001:0002dcc0       ?WriteModelLOD@COptimizedModel@OptimizedModel@@AAEXHPAUModelLOD_t@2@H@Z 0042ecc0 f   optimize.obj
 0001:0002dd60       ?WriteOptimizedFiles@OptimizedModel@@YAXPAUstudiohdr_t@@PAUs_bodypart_t@@@Z 0042ed60 f   optimize.obj
 0001:0002e3d0       ?WriteStringTable@COptimizedModel@OptimizedModel@@AAEXH@Z 0042f3d0 f   optimize.obj
 0001:0002e480       ?WriteStrip@COptimizedModel@OptimizedModel@@AAEXHPAUStrip_t@2@HHH@Z 0042f480 f   optimize.obj
 0001:0002e580       ?WriteStripGroup@COptimizedModel@OptimizedModel@@AAEXHPAUStripGroup_t@2@HHH@Z 0042f580 f   optimize.obj
 0001:0002e680       ?WriteToFile@CFileBuffer@@QAEXPBDH@Z 0042f680 f i optimize.obj
 0001:0002e6f0       ?WriteToMem@CStringTable@OptimizedModel@@QAEXPAD@Z 0042f6f0 f i optimize.obj
 0001:0002e7e0       ?WriteVTXFile@COptimizedModel@OptimizedModel@@AAEXPAUstudiohdr_t@@PBDABUTotalMeshStats_t@2@@Z 0042f7e0 f   optimize.obj
 0001:0002ede0       ?WriteVerts@COptimizedModel@OptimizedModel@@AAEHHPAUStripGroup_t@2@@Z 0042fde0 f   optimize.obj
 0001:0002ee70       ?ZeroNumBones@COptimizedModel@OptimizedModel@@AAEXXZ 0042fe70 f   optimize.obj
 0001:0002f040       ?Connect@?$CBaseAppSystem@VIStudioDataCache@@@@UAE_NP6APAXPBDPAH@Z@Z 00430040 f i perfstats.obj
 0001:0002f050       ?Disconnect@?$CBaseAppSystem@VIStudioDataCache@@@@UAEXXZ 00430050 f i perfstats.obj
 0001:0002f060       ?QueryInterface@?$CBaseAppSystem@VIStudioDataCache@@@@UAEPAXPBD@Z 00430060 f i perfstats.obj
 0001:0002f070       ?Init@?$CBaseAppSystem@VIStudioDataCache@@@@UAE?AW4InitReturnVal_t@@XZ 00430070 f i perfstats.obj
 0001:0002f080       ?Shutdown@?$CBaseAppSystem@VIStudioDataCache@@@@UAEXXZ 00430080 f i perfstats.obj
 0001:0002f090       ?VerifyHeaders@CStudioDataCache@@UAE_NPAUstudiohdr_t@@@Z 00430090 f   perfstats.obj
 0001:0002f0a0       ?CacheVertexData@CStudioDataCache@@UAEPAUvertexFileHeader_t@@PAUstudiohdr_t@@@Z 004300a0 f   perfstats.obj
 0001:0002f0b0       ??0LightDesc_t@@QAE@XZ     004300b0 f i perfstats.obj
 0001:0002f0c0       ??1?$CUtlMemory@E@@QAE@XZ  004300c0 f i perfstats.obj
 0001:0002f0f0       ?InitStudioRender@@YAXXZ   004300f0 f   perfstats.obj
 0001:0002f240       ?IsExternallyAllocated@?$CUtlMemory@E@@QBE_NXZ 00430240 f i perfstats.obj
 0001:0002f250       ?Purge@?$CUtlMemory@E@@QAEXXZ 00430250 f i perfstats.obj
 0001:0002f280       ?RemoveAll@?$CUtlVector@PAVIMaterial@@V?$CUtlMemoryFixed@PAVIMaterial@@$07@@@@QAEXXZ 00430280 f i perfstats.obj
 0001:0002f290       ?ShutdownStudioRender@@YAXXZ 00430290 f   perfstats.obj
 0001:0002f2d0       ?SpewPerfStats@@YAXPAUstudiohdr_t@@PBD@Z 004302d0 f   perfstats.obj
 0001:0002f7b0       ?Studio_LoadVertexes@@YAHPBUvertexFileHeader_t@@PAU1@H_N@Z 004307b0 f i perfstats.obj
 0001:0002f910       ??0?$CUtlMemory@V?$CUtlVector@HV?$CUtlMemory@H@@@@@@QAE@HH@Z 00430910 f i simplify.obj
 0001:0002f950       ??0?$CUtlMemory@VCBoneRenderBounds@@@@QAE@HH@Z 00430950 f i simplify.obj
 0001:0002f990       ??0?$CUtlMemory@VVector@@@@QAE@HH@Z 00430990 f i simplify.obj
 0001:0002f9d0       ??0RadianEuler@@QAE@XZ     004309d0 f i simplify.obj
 0001:0002f9e0       ??0s_bbox_t@@QAE@XZ        004309e0 f i simplify.obj
 0001:0002f9f0       ??0s_bone_t@@QAE@XZ        004309f0 f i simplify.obj
 0001:0002fa00       ??1?$CUtlMemory@V?$CUtlVector@HV?$CUtlMemory@H@@@@@@QAE@XZ 00430a00 f i simplify.obj
 0001:0002fa30       ??1?$CUtlMemory@VCBoneRenderBounds@@@@QAE@XZ 00430a30 f i simplify.obj
 0001:0002fa60       ??1?$CUtlMemory@VVector@@@@QAE@XZ 00430a60 f i simplify.obj
 0001:0002fa90       ?AccumulatePose@@YAXQAVVector@@QAVQuaternion@@HMM@Z 00430a90 f   simplify.obj
 0001:0002fb90       ?AccumulateSeqLayers@@YAXQAVVector@@QAVQuaternion@@HMM@Z 00430b90 f   simplify.obj
 0001:0002fd80       ?AnimationDifferent@@YA_NABVVector@@ABVRadianEuler@@01@Z 00430d80 f   simplify.obj
 0001:0002fe80       ?BoneHasAnimation@@YA_NPBD@Z 00430e80 f   simplify.obj
 0001:000300c0       ?BoneHasAttachments@@YA_NPBD@Z 004310c0 f   simplify.obj
 0001:00030110       ?BoneIsIK@@YA_NPBD@Z       00431110 f   simplify.obj
 0001:00030160       ?BoneIsProcedural@@YA_NPBD@Z 00431160 f   simplify.obj
 0001:00030290       ?BoneShouldCollapse@@YA_NPBD@Z 00431290 f   simplify.obj
 0001:00030430       ?BuildGlobalBoneToPose@@YAXXZ 00431430 f   simplify.obj
 0001:00030490       ?BuildGlobalBonetable@@YAHXZ 00431490 f   simplify.obj
 0001:000309a0       ?BuildRawTransforms@@YAXPBUs_source_t@@HMABVVector@@ABVRadianEuler@@PAUmatrix3x4_t@@@Z 004319a0 f   simplify.obj
 0001:00030b80       ?BuildRawTransforms@@YAXPBUs_source_t@@HPAUmatrix3x4_t@@@Z 00431b80 f   simplify.obj
 0001:00030be0       ?CalcBonePos@@YAXPAUs_animation_t@@HHAAVVector@@@Z 00431be0 f   simplify.obj
 0001:00030c40       ?CalcBoneTransforms@@YAXPAUs_animation_t@@0HPAUmatrix3x4_t@@@Z 00431c40 f   simplify.obj
 0001:00030e30       ?CalcBoneTransforms@@YAXPAUs_animation_t@@HPAUmatrix3x4_t@@@Z 00431e30 f   simplify.obj
 0001:00030e50       ?CalcBoneTransformsCycle@@YAXPAUs_animation_t@@0MPAUmatrix3x4_t@@@Z 00431e50 f   simplify.obj
 0001:00030ff0       ?CalcModelTangentSpaces@@YAXPAUs_source_t@@@Z 00431ff0 f   simplify.obj
 0001:00031cb0       ?CalcPoseSingle@@YAXQAVVector@@QAVQuaternion@@HM@Z 00432cb0 f   simplify.obj
 0001:00031d50       ?CalcSeqTransforms@@YAXHHPAUmatrix3x4_t@@@Z 00432d50 f   simplify.obj
 0001:00031e80       ?CalcSequenceBoundingBoxes@@YAXXZ 00432e80 f   simplify.obj
 0001:000327d0       ?ClearModel@@YAXXZ         004337d0 f   simplify.obj
 0001:000327e0       ?CollapseBones@@YAXXZ      004337e0 f   simplify.obj
 0001:00033a20       ?ConvertAnimation@@YAXPBUs_source_t@@HMABVVector@@ABVRadianEuler@@PAUs_bone_t@@@Z 00434a20 f   simplify.obj
 0001:00033b30       ?ConvertToAnimLocal@@YAXPAUs_animation_t@@AAVVector@@AAVQAngle@@@Z 00434b30 f   simplify.obj
 0001:00033ba0       ?CopyArray@?$CUtlVector@HV?$CUtlMemory@H@@@@QAEXPBHH@Z 00434ba0 f i simplify.obj
 0001:00033c00       ?DumpDefineBones@@YAXXZ    00434c00 f   simplify.obj
 0001:00033dc0       ?EnforceHierarchy@@YAXXZ   00434dc0 f   simplify.obj
 0001:00034730       ?FindNextIKRule@@YAPAUs_ikrule_t@@PAUs_animation_t@@H@Z 00435730 f   simplify.obj
 0001:00034790       ?FindPrevIKRule@@YAPAUs_ikrule_t@@PAUs_animation_t@@H@Z 00435790 f   simplify.obj
 0001:000347f0       ?Grow@?$CUtlMemory@Us_hitboxset@@@@QAEXH@Z 004357f0 f i simplify.obj
 0001:00034860       ?Grow@?$CUtlMemory@V?$CUtlVector@HV?$CUtlMemory@H@@@@@@QAEXH@Z 00435860 f i simplify.obj
 0001:000348d0       ?Grow@?$CUtlMemory@VCBoneRenderBounds@@@@QAEXH@Z 004358d0 f i simplify.obj
 0001:00034940       ?Grow@?$CUtlMemory@VVector@@@@QAEXH@Z 00435940 f i simplify.obj
 0001:000349b0       ?GrowVector@?$CUtlVector@Us_hitboxset@@V?$CUtlMemory@Us_hitboxset@@@@@@IAEXH@Z 004359b0 f i simplify.obj
 0001:00034a40       ?GrowVector@?$CUtlVector@V?$CUtlVector@HV?$CUtlMemory@H@@@@V?$CUtlMemory@V?$CUtlVector@HV?$CUtlMemory@H@@@@@@@@IAEXH@Z 00435a40 f i simplify.obj
 0001:00034ad0       ?GrowVector@?$CUtlVector@VCBoneRenderBounds@@V?$CUtlMemory@VCBoneRenderBounds@@@@@@IAEXH@Z 00435ad0 f i simplify.obj
 0001:00034b60       ?GrowVector@?$CUtlVector@VVector@@V?$CUtlMemory@VVector@@@@@@IAEXH@Z 00435b60 f i simplify.obj
 0001:00034bf0       ?IKRuleWeight@@YAMPAUs_ikrule_t@@M@Z 00435bf0 f   simplify.obj
 0001:00034cd0       ?InsertBefore@?$CUtlVector@Us_hitboxset@@V?$CUtlMemory@Us_hitboxset@@@@@@QAEHH@Z 00435cd0 f i simplify.obj
 0001:00034d70       ?InsertMultipleBefore@?$CUtlVector@V?$CUtlVector@HV?$CUtlMemory@H@@@@V?$CUtlMemory@V?$CUtlVector@HV?$CUtlMemory@H@@@@@@@@QAEHHHPBV?$CUtlVector@HV?$CUtlMemory@H@@@@@Z 00435d70 f i simplify.obj
 0001:00034f70       ?InsertMultipleBefore@?$CUtlVector@VCBoneRenderBounds@@V?$CUtlMemory@VCBoneRenderBounds@@@@@@QAEHHHPBVCBoneRenderBounds@@@Z 00435f70 f i simplify.obj
 0001:00035090       ?InsertMultipleBefore@?$CUtlVector@VVector@@V?$CUtlMemory@VVector@@@@@@QAEHHHPBVVector@@@Z 00436090 f i simplify.obj
 0001:00035260       ?IsExternallyAllocated@?$CUtlMemory@Us_hitboxset@@@@QBE_NXZ 00436260 f i simplify.obj
 0001:00035270       ?IsExternallyAllocated@?$CUtlMemory@V?$CUtlVector@HV?$CUtlMemory@H@@@@@@QBE_NXZ 00436270 f i simplify.obj
 0001:00035280       ?IsExternallyAllocated@?$CUtlMemory@VCBoneRenderBounds@@@@QBE_NXZ 00436280 f i simplify.obj
 0001:00035290       ?IsExternallyAllocated@?$CUtlMemory@VVector@@@@QBE_NXZ 00436290 f i simplify.obj
 0001:000352a0       ?IsGlobalBoneXSI@@YA_NPBD0@Z 004362a0 f   simplify.obj
 0001:00035990       ?MakeStaticProp@@YAXXZ     00436990 f   simplify.obj
 0001:00035ef0       ?MakeTransitions@@YAXXZ    00436ef0 f   simplify.obj
 0001:00036280       ?MapSourcesToGlobalBonetable@@YAHXZ 00437280 f   simplify.obj
 0001:00036440       ?MarkProceduralBoneChain@@YAXXZ 00437440 f   simplify.obj
 0001:00037a50       ?Purge@?$CUtlMemory@V?$CUtlVector@HV?$CUtlMemory@H@@@@@@QAEXXZ 00438a50 f i simplify.obj
 0001:00037a80       ?Purge@?$CUtlMemory@VCBoneRenderBounds@@@@QAEXXZ 00438a80 f i simplify.obj
 0001:00037ab0       ?Purge@?$CUtlMemory@VVector@@@@QAEXXZ 00438ab0 f i simplify.obj
 0001:00037ae0       ?QuaternionMAAngles@@YAXABVQuaternion@@M0AAVRadianEuler@@@Z 00438ae0 f   simplify.obj
 0001:00037b20       ?QuaternionSMAngles@@YAXMABVQuaternion@@0AAVRadianEuler@@@Z 00438b20 f   simplify.obj
 0001:00037b60       ?QuaternionSlerp@@YAXABVRadianEuler@@0MAAV1@@Z 00438b60 f   simplify.obj
 0001:00037bb0       ?RadianEulerCompareEpsilon@@YAHABVRadianEuler@@0M@Z 00438bb0 f   simplify.obj
 0001:00037c70       ?ReLinkAttachments@@YAXXZ  00438c70 f   simplify.obj
 0001:00037da0       ?RealignBones@@YAXXZ       00438da0 f   simplify.obj
 0001:00038640       ?RebuildLocalPose@@YAXXZ   00439640 f   simplify.obj
 0001:00038720       ?RemapAnimations@@YAXXZ    00439720 f   simplify.obj
 0001:000387f0       ?RemapBones@@YAXXZ         004397f0 f   simplify.obj
 0001:00038bc0       ?RemapProceduralBones@@YAXXZ 00439bc0 f   simplify.obj
 0001:00038f00       ?RemapVertexAnimations@@YAXXZ 00439f00 f   simplify.obj
 0001:00039ad0       ?RemapVerticesToGlobalBones@@YAXXZ 0043aad0 f   simplify.obj
 0001:00039e70       ?RemoveAll@?$CUtlVector@V?$CUtlVector@HV?$CUtlMemory@H@@@@V?$CUtlMemory@V?$CUtlVector@HV?$CUtlMemory@H@@@@@@@@QAEXXZ 0043ae70 f i simplify.obj
 0001:00039f10       ?RemoveAll@?$CUtlVector@VCBoneRenderBounds@@V?$CUtlMemory@VCBoneRenderBounds@@@@@@QAEXXZ 0043af10 f i simplify.obj
 0001:00039f20       ?RemoveAll@?$CUtlVector@VVector@@V?$CUtlMemory@VVector@@@@@@QAEXXZ 0043af20 f i simplify.obj
 0001:00039f30       ?RenameBone@@YAPBDPBD@Z    0043af30 f   simplify.obj
 0001:00039f80       ?RenameBones@@YAXXZ        0043af80 f   simplify.obj
 0001:0003a070       ?SetCount@?$CUtlVector@HV?$CUtlMemory@H@@@@QAEXH@Z 0043b070 f i simplify.obj
 0001:0003a0c0       ?SetCount@?$CUtlVector@VCBoneRenderBounds@@V?$CUtlMemory@VCBoneRenderBounds@@@@@@QAEXH@Z 0043b0c0 f i simplify.obj
 0001:0003a0e0       ?SetIlluminationPosition@@YAXXZ 0043b0e0 f   simplify.obj
 0001:0003a1a0       ?SetupFullBoneRenderBounds@@YAXAAV?$CUtlVector@VCBoneRenderBounds@@V?$CUtlMemory@VCBoneRenderBounds@@@@@@@Z 0043b1a0 f   simplify.obj
 0001:0003a300       ?SetupHitBoxes@@YAXXZ      0043b300 f   simplify.obj
 0001:0003aa50       ?ShiftElementsRight@?$CUtlVector@Us_hitboxset@@V?$CUtlMemory@Us_hitboxset@@@@@@IAEXHH@Z 0043ba50 f i simplify.obj
 0001:0003aaa0       ?ShiftElementsRight@?$CUtlVector@V?$CUtlVector@HV?$CUtlMemory@H@@@@V?$CUtlMemory@V?$CUtlVector@HV?$CUtlMemory@H@@@@@@@@IAEXHH@Z 0043baa0 f i simplify.obj
 0001:0003aae0       ?ShiftElementsRight@?$CUtlVector@VCBoneRenderBounds@@V?$CUtlMemory@VCBoneRenderBounds@@@@@@IAEXHH@Z 0043bae0 f i simplify.obj
 0001:0003ab20       ?ShiftElementsRight@?$CUtlVector@VVector@@V?$CUtlMemory@VVector@@@@@@IAEXHH@Z 0043bb20 f i simplify.obj
 0001:0003ab60       ?SimplifyModel@@YAXXZ      0043bb60 f   simplify.obj
 0001:0003b4d0       ?SlerpBones@@YAXQAVQuaternion@@QAVVector@@HQBV1@QBV2@M@Z 0043c4d0 f   simplify.obj
 0001:0003b730       ?TagProceduralBones@@YAXXZ 0043c730 f   simplify.obj
 0001:0003ba80       ?TagUsedBones@@YAXXZ       0043ca80 f   simplify.obj
 0001:0003bea0       ?TagUsedImportedBones@@YAXXZ 0043cea0 f   simplify.obj
 0001:0003bf20       ?TranslateAnimations@@YAXPBUs_source_t@@PBUmatrix3x4_t@@PAU2@@Z 0043cf20 f   simplify.obj
 0001:0003bfd0       ?VectorCompareEpsilon@@YAHABVVector@@0M@Z 0043cfd0 f   simplify.obj
 0001:0003c020       ?addDeltas@@YAXPAUs_animation_t@@HMQAVVector@@QAVQuaternion@@@Z 0043d020 f   simplify.obj
 0001:0003c120       ?buildAnimationWeights@@YAXXZ 0043d120 f   simplify.obj
 0001:0003c390       ?calcMovement@@YA?AVVector@@PAUs_animation_t@@HH@Z 0043d390 f   simplify.obj
 0001:0003c3f0       ?calcPosition@@YA?AVVector@@PAUs_animation_t@@H@Z 0043d3f0 f   simplify.obj
 0001:0003c580       ?clearAnimations@@YAXPAUs_animation_t@@@Z 0043d580 f   simplify.obj
 0001:0003c630       ?counterRotateBone@@YAXPAUs_animation_t@@HVQAngle@@@Z 0043d630 f   simplify.obj
 0001:0003c760       ?createDerivative@@YAXPAUs_animation_t@@M@Z 0043d760 f   simplify.obj
 0001:0003c960       ?drawLine@@YAXABVVector@@0HHH@Z 0043d960 f   simplify.obj
 0001:0003c970       ?extractLinearMotion@@YAXPAUs_animation_t@@HHHH0H@Z 0043d970 f   simplify.obj
 0001:0003d570       ?extractUnusedMotion@@YAXPAUs_animation_t@@@Z 0043e570 f   simplify.obj
 0001:0003d6b0       ?findAnimQuaternionAlignment@@YAXHHAAVQuaternion@@00@Z 0043e6b0 f   simplify.obj
 0001:0003d850       ?findGlobalBone@@YAHPBD@Z  0043e850 f   simplify.obj
 0001:0003d8a0       ?findGlobalBoneXSI@@YAHPBD@Z 0043e8a0 f   simplify.obj
 0001:0003d940       ?fixupIKErrors@@YAXPAUs_animation_t@@PAUs_ikrule_t@@@Z 0043e940 f   simplify.obj
 0001:0003dd10       ?fixupLoopingDiscontinuities@@YAXPAUs_animation_t@@HH@Z 0043ed10 f   simplify.obj
 0001:0003dfb0       ?fixupMissingFrame@@YAXPAUs_animation_t@@@Z 0043efb0 f   simplify.obj
 0001:0003e0d0       ?forceAnimationLoop@@YAXPAUs_animation_t@@@Z 0043f0d0 f   simplify.obj
 0001:0003e1d0       ?forceNumframes@@YAXPAUs_animation_t@@H@Z 0043f1d0 f   simplify.obj
 0001:0003e240       ?limitBoneRotations@@YAXXZ 0043f240 f   simplify.obj
 0001:0003e570       ?limitIKChainLength@@YAXXZ 0043f570 f   simplify.obj
 0001:0003e9a0       ?linearDelta@@YAXPAUs_animation_t@@0HH@Z 0043f9a0 f   simplify.obj
 0001:0003ed90       ?makeAngle@@YAXPAUs_animation_t@@M@Z 0043fd90 f   simplify.obj
 0001:0003efe0       ?matchBlend@@YAXPAUs_animation_t@@0HHHH@Z 0043ffe0 f   simplify.obj
 0001:0003f270       ?processAnimations@@YAXXZ  00440270 f   simplify.obj
 0001:0003fdc0       ?processAutoorigin@@YAXPAUs_animation_t@@0HHHH@Z 00440dc0 f   simplify.obj
 0001:00040150       ?processMatch@@YAXPAUs_animation_t@@0H@Z 00441150 f   simplify.obj
 0001:00040370       ?realignLooping@@YAXPAUs_animation_t@@@Z 00441370 f   simplify.obj
 0001:00040540       ?reencodeAnimation@@YAXPAUs_animation_t@@H@Z 00441540 f   simplify.obj
 0001:00040620       ?setAnimationWeight@@YAXPAUs_animation_t@@H@Z 00441620 f   simplify.obj
 0001:00040680       ?solveBone@@YAXPAUs_animation_t@@HHPAUmatrix3x4_t@@@Z 00441680 f   simplify.obj
 0001:00040710       ?subtractBaseAnimations@@YAXPAUs_animation_t@@0HH@Z 00441710 f   simplify.obj
 0001:00040950       ?worldspaceBlend@@YAXPAUs_animation_t@@0HH@Z 00441950 f   simplify.obj
 0001:00040eb0       ?Cmd_ShadowLOD@@YAXXZ      00441eb0 f   studiomdl.obj
 0001:00040ee0       ?Cmd_PoseParameter@@YAXXZ  00441ee0 f   studiomdl.obj
 0001:00041070       ?Cmd_RenameMaterial@@YAXXZ 00442070 f   studiomdl.obj
 0001:00041140       ?Cmd_Eyeposition@@YAXXZ    00442140 f   studiomdl.obj
 0001:00041210       ?Cmd_Illumposition@@YAXXZ  00442210 f   studiomdl.obj
 0001:000412f0       ?Cmd_Modelname@@YAXXZ      004422f0 f   studiomdl.obj
 0001:00041350       ?Cmd_Autocenter@@YAXXZ     00442350 f   studiomdl.obj
 0001:00041360       ?Cmd_Bodygroup@@YAXXZ      00442360 f   studiomdl.obj
 0001:000415a0       ?Cmd_Body@@YAXXZ           004425a0 f   studiomdl.obj
 0001:00041680       ?Cmd_Origin@@YAXXZ         00442680 f   studiomdl.obj
 0001:00041790       ?Cmd_UpAxis@@YAXXZ         00442790 f   studiomdl.obj
 0001:00041880       ?Cmd_ScaleUp@@YAXXZ        00442880 f   studiomdl.obj
 0001:000418e0       ?Cmd_AnimBlockSize@@YAXXZ  004428e0 f   studiomdl.obj
 0001:00041930       ?Cmd_Cmdlist@@YAXXZ        00442930 f   studiomdl.obj
 0001:00041a20       ?Cmd_Animation@@YAXXZ      00442a20 f   studiomdl.obj
 0001:00041b80       ?Cmd_Sequence@@YAXXZ       00442b80 f   studiomdl.obj
 0001:00041c80       ?Cmd_Append@@YAXXZ         00442c80 f   studiomdl.obj
 0001:00041ce0       ?Cmd_Prepend@@YAXXZ        00442ce0 f   studiomdl.obj
 0001:00041e00       ?Cmd_Continue@@YAXXZ       00442e00 f   studiomdl.obj
 0001:00041e90       ?Cmd_DeclareSequence@@YAXXZ 00442e90 f   studiomdl.obj
 0001:00041f00       ?Cmd_DeclareAnimation@@YAXXZ 00442f00 f   studiomdl.obj
 0001:00041f80       ?Cmd_Weightlist@@YAXXZ     00442f80 f   studiomdl.obj
 0001:00042230       ?Cmd_DefaultWeightlist@@YAXXZ 00443230 f   studiomdl.obj
 0001:00042240       ?Cmd_Model@@YAXXZ          00443240 f   studiomdl.obj
 0001:000429b0       ?Cmd_FakeVTA@@YAXXZ        004439b0 f   studiomdl.obj
 0001:00042b10       ?Cmd_IKChain@@YAXXZ        00443b10 f   studiomdl.obj
 0001:00043000       ?Cmd_IKAutoplayLock@@YAXXZ 00444000 f   studiomdl.obj
 0001:000430d0       ?Cmd_Root@@YAXXZ           004440d0 f   studiomdl.obj
 0001:00043100       ?Cmd_Controller@@YAXXZ     00444100 f   studiomdl.obj
 0001:000432b0       ?Cmd_ScreenAlign@@YAXXZ    004442b0 f   studiomdl.obj
 0001:00043390       ?Cmd_BBox@@YAXXZ           00444390 f   studiomdl.obj
 0001:000434e0       ?Cmd_CBox@@YAXXZ           004444e0 f   studiomdl.obj
 0001:00043630       ?Cmd_Gamma@@YAXXZ          00444630 f   studiomdl.obj
 0001:00043680       ?Cmd_TextureGroup@@YAXXZ   00444680 f   studiomdl.obj
 0001:000437e0       ?Cmd_Hitgroup@@YAXXZ       004447e0 f   studiomdl.obj
 0001:00043860       ?Cmd_Hitbox@@YAXXZ         00444860 f   studiomdl.obj
 0001:00043bf0       ?Cmd_HitboxSet@@YAXXZ      00444bf0 f   studiomdl.obj
 0001:00043c40       ?Cmd_SurfaceProp@@YAXXZ    00444c40 f   studiomdl.obj
 0001:00043c60       ?Cmd_JointSurfaceProp@@YAXXZ 00444c60 f   studiomdl.obj
 0001:00043da0       ?Cmd_Contents@@YAXXZ       00444da0 f   studiomdl.obj
 0001:00043dd0       ?Cmd_JointContents@@YAXXZ  00444dd0 f   studiomdl.obj
 0001:00043f50       ?Cmd_BoneMerge@@YAXXZ      00444f50 f   studiomdl.obj
 0001:00044040       ?Cmd_Attachment@@YAXXZ     00445040 f   studiomdl.obj
 0001:00044520       ?Cmd_Renamebone@@YAXXZ     00445520 f   studiomdl.obj
 0001:00044580       ?Cmd_Skiptransition@@YAXXZ 00445580 f   studiomdl.obj
 0001:00044690       ?Cmd_Opaque@@YAXXZ         00445690 f   studiomdl.obj
 0001:000446b0       ?Cmd_TranslucentTwoPass@@YAXXZ 004456b0 f   studiomdl.obj
 0001:000446d0       ?Cmd_AmbientBoost@@YAXXZ   004456d0 f   studiomdl.obj
 0001:000446e0       ?Cmd_NoForcedFade@@YAXXZ   004456e0 f   studiomdl.obj
 0001:000446f0       ?Cmd_SkipBoneInBBox@@YAXXZ 004456f0 f   studiomdl.obj
 0001:00044700       ?Cmd_ForcePhonemeCrossfade@@YAXXZ 00445700 f   studiomdl.obj
 0001:00044710       ?Cmd_LockBoneLengths@@YAXXZ 00445710 f   studiomdl.obj
 0001:00044720       ?Cmd_LockDefineBones@@YAXXZ 00445720 f   studiomdl.obj
 0001:00044730       ?Cmd_Obsolete@@YAXXZ       00445730 f   studiomdl.obj
 0001:00044740       ?Cmd_ForcedHierarchy@@YAXXZ 00445740 f   studiomdl.obj
 0001:000447a0       ?Cmd_InsertHierarchy@@YAXXZ 004457a0 f   studiomdl.obj
 0001:00044820       ?Cmd_ForceRealign@@YAXXZ   00445820 f   studiomdl.obj
 0001:00044970       ?Cmd_LimitRotation@@YAXXZ  00445970 f   studiomdl.obj
 0001:00044a00       ?Cmd_DefineBone@@YAXXZ     00445a00 f   studiomdl.obj
 0001:00044d60       ?Cmd_IncludeModel@@YAXXZ   00445d60 f   studiomdl.obj
 0001:00044dd0       ?Load_ProceduralBones@@YAXXZ 00445dd0 f   studiomdl.obj
 0001:00044f20       ?Cmd_CD@@YAXXZ             00445f20 f   studiomdl.obj
 0001:00044f90       ?Cmd_CDMaterials@@YAXXZ    00445f90 f   studiomdl.obj
 0001:00045090       ?Cmd_Pushd@@YAXXZ          00446090 f   studiomdl.obj
 0001:00045120       ?Cmd_Popd@@YAXXZ           00446120 f   studiomdl.obj
 0001:00045130       ?Cmd_CollisionModel@@YAXXZ 00446130 f   studiomdl.obj
 0001:00045140       ?Cmd_CollisionJoints@@YAXXZ 00446140 f   studiomdl.obj
 0001:00045150       ?Cmd_ExternalTextures@@YAXXZ 00446150 f   studiomdl.obj
 0001:00045160       ?Cmd_ClipToTextures@@YAXXZ 00446160 f   studiomdl.obj
 0001:00045170       ?Cmd_CollapseBones@@YAXXZ  00446170 f   studiomdl.obj
 0001:00045180       ?Cmd_AlwaysCollapse@@YAXXZ 00446180 f   studiomdl.obj
 0001:00045210       ?Cmd_CalcTransitions@@YAXXZ 00446210 f   studiomdl.obj
 0001:00045220       ?Cmd_StaticProp@@YAXXZ     00446220 f   studiomdl.obj
 0001:00045230       ?Cmd_ZBrush@@YAXXZ         00446230 f   studiomdl.obj
 0001:00045240       ?Cmd_RealignBones@@YAXXZ   00446240 f   studiomdl.obj
 0001:00045250       ?Cmd_BaseLOD@@YAXXZ        00446250 f   studiomdl.obj
 0001:00045260       ?Cmd_KeyValues@@YAXXZ      00446260 f   studiomdl.obj
 0001:00045270       ?Cmd_ConstDirectionalLight@@YAXXZ 00446270 f   studiomdl.obj
 0001:000452e0       ?Cmd_MinLOD@@YAXXZ         004462e0 f   studiomdl.obj
 0001:00045300       ?Cmd_BoneSaveFrame@@YAXXZ  00446300 f   studiomdl.obj
 0001:000453a0       ??0?$CUtlMemory@UContentsName_t@@@@QAE@HH@Z 004463a0 f i studiomdl.obj
 0001:000453e0       ??0?$CUtlMemory@ULodScriptData_t@@@@QAE@HH@Z 004463e0 f i studiomdl.obj
 0001:00045420       ??0?$CUtlMemory@USurfacePropName_t@@@@QAE@HH@Z 00446420 f i studiomdl.obj
 0001:00045460       ??0?$CUtlMemory@Us_bonemerge_t@@@@QAE@HH@Z 00446460 f i studiomdl.obj
 0001:000454a0       ??0?$CUtlMemory@Us_bonesaveframe_t@@@@QAE@HH@Z 004464a0 f i studiomdl.obj
 0001:000454e0       ??0?$CUtlMemory@Us_hitboxset@@@@QAE@HH@Z 004464e0 f i studiomdl.obj
 0001:00045520       ??0?$CUtlMemory@Us_sequence_t@@@@QAE@HH@Z 00446520 f i studiomdl.obj
 0001:00045560       ??0?$CUtlMemory@VCLodScriptReplacement_t@@@@QAE@HH@Z 00446560 f i studiomdl.obj
 0001:000455a0       ??0?$CUtlMemory@VCUtlSymbol@@@@QAE@HH@Z 004465a0 f i studiomdl.obj
 0001:000455e0       ??0s_aimatbone_t@@QAE@XZ   004465e0 f i studiomdl.obj
 0001:000455f0       ??0s_attachment_t@@QAE@XZ  004465f0 f i studiomdl.obj
 0001:00045600       ??0s_axisinterpbone_t@@QAE@XZ 00446600 f i studiomdl.obj
 0001:00045610       ??0s_bonetable_t@@QAE@XZ   00446610 f i studiomdl.obj
 0001:00045620       ??0s_forcedrealign_t@@QAE@XZ 00446620 f i studiomdl.obj
 0001:00045630       ??0s_ikchain_t@@QAE@XZ     00446630 f i studiomdl.obj
 0001:00045640       ??0s_iklink_t@@QAE@XZ      00446640 f i studiomdl.obj
 0001:00045650       ??0s_importbone_t@@QAE@XZ  00446650 f i studiomdl.obj
 0001:00045660       ??0s_mouth_t@@QAE@XZ       00446660 f i studiomdl.obj
 0001:00045670       ??0s_quatinterpbone_t@@QAE@XZ 00446670 f i studiomdl.obj
 0001:00045680       ??0s_vertanim_t@@QAE@XZ    00446680 f i studiomdl.obj
 0001:00045690       ??1?$CUtlMemory@UContentsName_t@@@@QAE@XZ 00446690 f i studiomdl.obj
 0001:000456c0       ??1?$CUtlMemory@ULodScriptData_t@@@@QAE@XZ 004466c0 f i studiomdl.obj
 0001:000456f0       ??1?$CUtlMemory@USurfacePropName_t@@@@QAE@XZ 004466f0 f i studiomdl.obj
 0001:00045720       ??1?$CUtlMemory@Us_bonemerge_t@@@@QAE@XZ 00446720 f i studiomdl.obj
 0001:00045750       ??1?$CUtlMemory@Us_bonesaveframe_t@@@@QAE@XZ 00446750 f i studiomdl.obj
 0001:00045780       ??1?$CUtlMemory@Us_hitboxset@@@@QAE@XZ 00446780 f i studiomdl.obj
 0001:000457b0       ??1?$CUtlMemory@Us_sequence_t@@@@QAE@XZ 004467b0 f i studiomdl.obj
 0001:000457e0       ??1?$CUtlMemory@VCLodScriptReplacement_t@@@@QAE@XZ 004467e0 f i studiomdl.obj
 0001:00045810       ??1?$CUtlMemory@VCUtlSymbol@@@@QAE@XZ 00446810 f i studiomdl.obj
 0001:00045840       ??1?$CUtlVector@VCLodScriptReplacement_t@@V?$CUtlMemory@VCLodScriptReplacement_t@@@@@@QAE@XZ 00446840 f i studiomdl.obj
 0001:000458f0       ?AddToTail@?$CUtlVector@Us_bonesaveframe_t@@V?$CUtlMemory@Us_bonesaveframe_t@@@@@@QAEHABUs_bonesaveframe_t@@@Z 004468f0 f i studiomdl.obj
 0001:000459d0       ?AddToTail@?$CUtlVector@Us_hitboxset@@V?$CUtlMemory@Us_hitboxset@@@@@@QAEHXZ 004469d0 f i studiomdl.obj
 0001:00045a70       ?AddToTail@?$CUtlVector@Us_sequence_t@@V?$CUtlMemory@Us_sequence_t@@@@@@QAEHXZ 00446a70 f i studiomdl.obj
 0001:00045b40       ?AddToTail@?$CUtlVector@VCLodScriptReplacement_t@@V?$CUtlMemory@VCLodScriptReplacement_t@@@@@@QAEHXZ 00446b40 f i studiomdl.obj
 0001:00045bf0       ?Add_Flexdesc@@YAHPBD@Z    00446bf0 f   studiomdl.obj
 0001:00045c70       ?Build_Reference@@YAXPAUs_source_t@@@Z 00446c70 f   studiomdl.obj
 0001:00045d40       ?Cmd_ImpliedAnimation@@YAPAUs_animation_t@@PAUs_sequence_t@@PAD@Z 00446d40 f   studiomdl.obj
 0001:000466b0       ?ConsistencyCheckContents@@YAXXZ 004476b0 f   studiomdl.obj
 0001:00046710       ?ConsistencyCheckSurfaceProp@@YAXXZ 00447710 f   studiomdl.obj
 0001:00046760       ?CopyAnimationSettings@@YAXPAUs_animation_t@@0@Z 00447760 f   studiomdl.obj
 0001:00046840       ?CreateMakefile_AddDependency@@YAXPBD@Z 00447840 f   studiomdl.obj
 0001:00046940       ?CreateMakefile_OutputMakefile@@YAXXZ 00447940 f   studiomdl.obj
 0001:00046b00       ?FastRemove@?$CUtlVector@VCLodScriptReplacement_t@@V?$CUtlMemory@VCLodScriptReplacement_t@@@@@@QAEXH@Z 00447b00 f i studiomdl.obj
 0001:00046c70       ?GetContents@@YAHPBD@Z     00447c70 f   studiomdl.obj
 0001:00046d10       ?GetDefaultContents@@YAHXZ 00447d10 f   studiomdl.obj
 0001:00046d20       ?GetDefaultSurfaceProp@@YAPADXZ 00447d20 f   studiomdl.obj
 0001:00046d30       ?GetSurfaceProp@@YAPADPBD@Z 00447d30 f   studiomdl.obj
 0001:00046dc0       ?Grab_AimAtBones@@YA_NXZ   00447dc0 f   studiomdl.obj
 0001:00046fd0       ?Grab_Animation@@YAXPAUs_source_t@@@Z 00447fd0 f   studiomdl.obj
 0001:00047440       ?Grab_AxisInterpBones@@YAXXZ 00448440 f   studiomdl.obj
 0001:00047660       ?Grab_Nodes@@YAHPAUs_node_t@@@Z 00448660 f   studiomdl.obj
 0001:00047750       ?Grab_QuatInterpBones@@YAXXZ 00448750 f   studiomdl.obj
 0001:00047d40       ?Grab_Vertexanimation@@YAXPAUs_source_t@@@Z 00448d40 f   studiomdl.obj
 0001:00047fc0       ?Grow@?$CUtlMemory@UContentsName_t@@@@QAEXH@Z 00448fc0 f i studiomdl.obj
 0001:00048030       ?Grow@?$CUtlMemory@ULodScriptData_t@@@@QAEXH@Z 00449030 f i studiomdl.obj
 0001:000480a0       ?Grow@?$CUtlMemory@USurfacePropName_t@@@@QAEXH@Z 004490a0 f i studiomdl.obj
 0001:00048110       ?Grow@?$CUtlMemory@Us_bonemerge_t@@@@QAEXH@Z 00449110 f i studiomdl.obj
 0001:00048180       ?Grow@?$CUtlMemory@Us_bonesaveframe_t@@@@QAEXH@Z 00449180 f i studiomdl.obj
 0001:000481f0       ?Grow@?$CUtlMemory@Us_sequence_t@@@@QAEXH@Z 004491f0 f i studiomdl.obj
 0001:00048260       ?Grow@?$CUtlMemory@VCLodScriptReplacement_t@@@@QAEXH@Z 00449260 f i studiomdl.obj
 0001:000482d0       ?Grow@?$CUtlMemory@VCUtlSymbol@@@@QAEXH@Z 004492d0 f i studiomdl.obj
 0001:00048340       ?GrowVector@?$CUtlVector@UContentsName_t@@V?$CUtlMemory@UContentsName_t@@@@@@IAEXH@Z 00449340 f i studiomdl.obj
 0001:000483d0       ?GrowVector@?$CUtlVector@ULodScriptData_t@@V?$CUtlMemory@ULodScriptData_t@@@@@@IAEXH@Z 004493d0 f i studiomdl.obj
 0001:00048460       ?GrowVector@?$CUtlVector@USurfacePropName_t@@V?$CUtlMemory@USurfacePropName_t@@@@@@IAEXH@Z 00449460 f i studiomdl.obj
 0001:000484f0       ?GrowVector@?$CUtlVector@Us_bonemerge_t@@V?$CUtlMemory@Us_bonemerge_t@@@@@@IAEXH@Z 004494f0 f i studiomdl.obj
 0001:00048580       ?GrowVector@?$CUtlVector@Us_bonesaveframe_t@@V?$CUtlMemory@Us_bonesaveframe_t@@@@@@IAEXH@Z 00449580 f i studiomdl.obj
 0001:00048610       ?GrowVector@?$CUtlVector@Us_sequence_t@@V?$CUtlMemory@Us_sequence_t@@@@@@IAEXH@Z 00449610 f i studiomdl.obj
 0001:000486a0       ?GrowVector@?$CUtlVector@VCLodScriptReplacement_t@@V?$CUtlMemory@VCLodScriptReplacement_t@@@@@@IAEXH@Z 004496a0 f i studiomdl.obj
 0001:00048730       ?GrowVector@?$CUtlVector@VCUtlSymbol@@V?$CUtlMemory@VCUtlSymbol@@@@@@IAEXH@Z 00449730 f i studiomdl.obj
 0001:000487c0       ?HandlePrintSurfaceProps@@YA_NAAH@Z 004497c0 f   studiomdl.obj
 0001:00048950       ?InsertBefore@?$CUtlVector@UContentsName_t@@V?$CUtlMemory@UContentsName_t@@@@@@QAEHH@Z 00449950 f i studiomdl.obj
 0001:000489f0       ?InsertBefore@?$CUtlVector@ULodScriptData_t@@V?$CUtlMemory@ULodScriptData_t@@@@@@QAEHH@Z 004499f0 f i studiomdl.obj
 0001:00048b40       ?InsertBefore@?$CUtlVector@USurfacePropName_t@@V?$CUtlMemory@USurfacePropName_t@@@@@@QAEHH@Z 00449b40 f i studiomdl.obj
 0001:00048be0       ?InsertBefore@?$CUtlVector@Us_bonemerge_t@@V?$CUtlMemory@Us_bonemerge_t@@@@@@QAEHH@Z 00449be0 f i studiomdl.obj
 0001:00048c80       ?InsertBefore@?$CUtlVector@Us_bonesaveframe_t@@V?$CUtlMemory@Us_bonesaveframe_t@@@@@@QAEHHABUs_bonesaveframe_t@@@Z 00449c80 f i studiomdl.obj
 0001:00048d60       ?InsertBefore@?$CUtlVector@Us_sequence_t@@V?$CUtlMemory@Us_sequence_t@@@@@@QAEHH@Z 00449d60 f i studiomdl.obj
 0001:00048e30       ?InsertBefore@?$CUtlVector@VCLodScriptReplacement_t@@V?$CUtlMemory@VCLodScriptReplacement_t@@@@@@QAEHH@Z 00449e30 f i studiomdl.obj
 0001:00048ef0       ?InsertBefore@?$CUtlVector@VCUtlSymbol@@V?$CUtlMemory@VCUtlSymbol@@@@@@QAEHHABVCUtlSymbol@@@Z 00449ef0 f i studiomdl.obj
 0001:00048fa0       ?IsExternallyAllocated@?$CUtlMemory@UContentsName_t@@@@QBE_NXZ 00449fa0 f i studiomdl.obj
 0001:00048fb0       ?IsExternallyAllocated@?$CUtlMemory@ULodScriptData_t@@@@QBE_NXZ 00449fb0 f i studiomdl.obj
 0001:00048fc0       ?IsExternallyAllocated@?$CUtlMemory@USurfacePropName_t@@@@QBE_NXZ 00449fc0 f i studiomdl.obj
 0001:00048fd0       ?IsExternallyAllocated@?$CUtlMemory@Us_bonemerge_t@@@@QBE_NXZ 00449fd0 f i studiomdl.obj
 0001:00048fe0       ?IsExternallyAllocated@?$CUtlMemory@Us_bonesaveframe_t@@@@QBE_NXZ 00449fe0 f i studiomdl.obj
 0001:00048ff0       ?IsExternallyAllocated@?$CUtlMemory@Us_sequence_t@@@@QBE_NXZ 00449ff0 f i studiomdl.obj
 0001:00049000       ?IsExternallyAllocated@?$CUtlMemory@VCLodScriptReplacement_t@@@@QBE_NXZ 0044a000 f i studiomdl.obj
 0001:00049010       ?IsExternallyAllocated@?$CUtlMemory@VCUtlSymbol@@@@QBE_NXZ 0044a010 f i studiomdl.obj
 0001:00049020       ?KeyValueText@@YAPBDPAV?$CUtlVector@DV?$CUtlMemory@D@@@@@Z 0044a020 f   studiomdl.obj
 0001:00049030       ?KeyValueTextSize@@YAHPAV?$CUtlVector@DV?$CUtlMemory@D@@@@@Z 0044a030 f   studiomdl.obj
 0001:00049040       ?Load_Source@@YAPAUs_source_t@@PBD0_N1@Z 0044a040 f   studiomdl.obj
 0001:000494c0       ?Load_VTA@@YAHPAUs_source_t@@@Z 0044a4c0 f   studiomdl.obj
 0001:00049710       ?LookupAnimation@@YAPAUs_animation_t@@PAD@Z 0044a710 f   studiomdl.obj
 0001:000497a0       ?LookupAttachment@@YAHPAD@Z 0044a7a0 f   studiomdl.obj
 0001:000497f0       ?LookupPoseParameter@@YAHPAD@Z 0044a7f0 f   studiomdl.obj
 0001:00049860       ?LookupSequence@@YAPAUs_sequence_t@@PAD@Z 0044a860 f   studiomdl.obj
 0001:000498b0       ?LookupXNode@@YAHPAD@Z     0044a8b0 f   studiomdl.obj
 0001:00049960       ?MdlError@@YAXPBDZZ        0044a960 f   studiomdl.obj
 0001:00049ae0       ?MdlExceptionFilter@@YAXK@Z 0044aae0 f   studiomdl.obj
 0001:00049cc0       ?MdlHandleCrash@@YAXPBD_N@Z 0044acc0 f   studiomdl.obj
 0001:00049d00       ?MdlSecondExceptionFilter@@YGJPAU_EXCEPTION_POINTERS@@@Z 0044ad00 f   studiomdl.obj
 0001:00049d20       ?MdlWarning@@YAXPBDZZ      0044ad20 f   studiomdl.obj
 0001:00049da0       ?OpenGlobalFile@@YAHPAD@Z  0044ada0 f   studiomdl.obj
 0001:00049f30       ?Option_Activity@@YAHPAUs_sequence_t@@@Z 0044af30 f   studiomdl.obj
 0001:00049fa0       ?Option_Blank@@YAHXZ       0044afa0 f   studiomdl.obj
 0001:0004a080       ?Option_Event@@YAHPAUs_sequence_t@@@Z 0044b080 f   studiomdl.obj
 0001:0004a170       ?Option_Eyeball@@YAXPAUs_model_t@@@Z 0044b170 f   studiomdl.obj
 0001:0004a620       ?Option_Eyelid@@YAXH@Z     0044b620 f   studiomdl.obj
 0001:0004ace0       ?Option_Flex@@YAXPAD0HM@Z  0044bce0 f   studiomdl.obj
 0001:0004b030       ?Option_Flexcontroller@@YAXPAUs_model_t@@@Z 0044c030 f   studiomdl.obj
 0001:0004b1c0       ?Option_Flexrule@@YAXPAUs_model_t@@PAD@Z 0044c1c0 f   studiomdl.obj
 0001:0004b8b0       ?Option_IKRule@@YAXPAUs_ikrule_t@@@Z 0044c8b0 f   studiomdl.obj
 0001:0004bf60       ?Option_KeyValues@@YAXPAV?$CUtlVector@DV?$CUtlMemory@D@@@@@Z 0044cf60 f   studiomdl.obj
 0001:0004c460       ?Option_Mouth@@YAHPAUs_model_t@@@Z 0044d460 f   studiomdl.obj
 0001:0004c590       ?Option_Spherenormals@@YAXPAUs_source_t@@@Z 0044d590 f   studiomdl.obj
 0001:0004c7d0       ?Option_Studio@@YAXPAUs_model_t@@@Z 0044d7d0 f   studiomdl.obj
 0001:0004c970       ?Option_Weightlist@@YAXPAUs_weightlist_t@@@Z 0044d970 f   studiomdl.obj
 0001:0004cb70       ?ParseAnimation@@YAHPAUs_animation_t@@_N@Z 0044db70 f   studiomdl.obj
 0001:0004cc40       ?ParseAnimationToken@@YAHPAUs_animation_t@@@Z 0044dc40 f   studiomdl.obj
 0001:0004d2b0       ?ParseCmdlistToken@@YAHAAHPAUs_animcmd_t@@@Z 0044e2b0 f   studiomdl.obj
 0001:0004df30       ?ParseEmpty@@YAHXZ         0044ef30 f   studiomdl.obj
 0001:0004dfc0       ?ParseScript@@YAXXZ        0044efc0 f   studiomdl.obj
 0001:0004e040       ?ParseSequence@@YAHPAUs_sequence_t@@_N@Z 0044f040 f   studiomdl.obj
 0001:0004eef0       ?Purge@?$CUtlMemory@UContentsName_t@@@@QAEXXZ 0044fef0 f i studiomdl.obj
 0001:0004ef20       ?Purge@?$CUtlMemory@ULodScriptData_t@@@@QAEXXZ 0044ff20 f i studiomdl.obj
 0001:0004ef50       ?Purge@?$CUtlMemory@USurfacePropName_t@@@@QAEXXZ 0044ff50 f i studiomdl.obj
 0001:0004ef80       ?Purge@?$CUtlMemory@Us_bonemerge_t@@@@QAEXXZ 0044ff80 f i studiomdl.obj
 0001:0004efb0       ?Purge@?$CUtlMemory@Us_bonesaveframe_t@@@@QAEXXZ 0044ffb0 f i studiomdl.obj
 0001:0004efe0       ?Purge@?$CUtlMemory@Us_hitboxset@@@@QAEXXZ 0044ffe0 f i studiomdl.obj
 0001:0004f010       ?Purge@?$CUtlMemory@Us_sequence_t@@@@QAEXXZ 00450010 f i studiomdl.obj
 0001:0004f040       ?Purge@?$CUtlMemory@VCLodScriptReplacement_t@@@@QAEXXZ 00450040 f i studiomdl.obj
 0001:0004f070       ?Purge@?$CUtlMemory@VCUtlSymbol@@@@QAEXXZ 00450070 f i studiomdl.obj
 0001:0004f0a0       ?Purge@?$CUtlVector@ULodScriptData_t@@V?$CUtlMemory@ULodScriptData_t@@@@@@QAEXXZ 004500a0 f i studiomdl.obj
 0001:0004f130       ?RemoveAll@?$CUtlVector@UContentsName_t@@V?$CUtlMemory@UContentsName_t@@@@@@QAEXXZ 00450130 f i studiomdl.obj
 0001:0004f140       ?RemoveAll@?$CUtlVector@ULodScriptData_t@@V?$CUtlMemory@ULodScriptData_t@@@@@@QAEXXZ 00450140 f i studiomdl.obj
 0001:0004f1a0       ?RemoveAll@?$CUtlVector@USurfacePropName_t@@V?$CUtlMemory@USurfacePropName_t@@@@@@QAEXXZ 004501a0 f i studiomdl.obj
 0001:0004f1b0       ?RemoveAll@?$CUtlVector@Us_bonemerge_t@@V?$CUtlMemory@Us_bonemerge_t@@@@@@QAEXXZ 004501b0 f i studiomdl.obj
 0001:0004f1c0       ?RemoveAll@?$CUtlVector@Us_bonesaveframe_t@@V?$CUtlMemory@Us_bonesaveframe_t@@@@@@QAEXXZ 004501c0 f i studiomdl.obj
 0001:0004f1d0       ?RemoveAll@?$CUtlVector@Us_hitboxset@@V?$CUtlMemory@Us_hitboxset@@@@@@QAEXXZ 004501d0 f i studiomdl.obj
 0001:0004f1e0       ?RemoveAll@?$CUtlVector@Us_sequence_t@@V?$CUtlMemory@Us_sequence_t@@@@@@QAEXXZ 004501e0 f i studiomdl.obj
 0001:0004f220       ?RemoveAll@?$CUtlVector@VCLodScriptReplacement_t@@V?$CUtlMemory@VCLodScriptReplacement_t@@@@@@QAEXXZ 00450220 f i studiomdl.obj
 0001:0004f270       ?RemoveAll@?$CUtlVector@VCUtlSymbol@@V?$CUtlMemory@VCUtlSymbol@@@@@@QAEXXZ 00450270 f i studiomdl.obj
 0001:0004f280       ?SetSkinValues@@YAXXZ      00450280 f   studiomdl.obj
 0001:0004f530       ?ShiftElementsRight@?$CUtlVector@UContentsName_t@@V?$CUtlMemory@UContentsName_t@@@@@@IAEXHH@Z 00450530 f i studiomdl.obj
 0001:0004f580       ?ShiftElementsRight@?$CUtlVector@ULodScriptData_t@@V?$CUtlMemory@ULodScriptData_t@@@@@@IAEXHH@Z 00450580 f i studiomdl.obj
 0001:0004f5c0       ?ShiftElementsRight@?$CUtlVector@USurfacePropName_t@@V?$CUtlMemory@USurfacePropName_t@@@@@@IAEXHH@Z 004505c0 f i studiomdl.obj
 0001:0004f600       ?ShiftElementsRight@?$CUtlVector@Us_bonemerge_t@@V?$CUtlMemory@Us_bonemerge_t@@@@@@IAEXHH@Z 00450600 f i studiomdl.obj
 0001:0004f640       ?ShiftElementsRight@?$CUtlVector@Us_bonesaveframe_t@@V?$CUtlMemory@Us_bonesaveframe_t@@@@@@IAEXHH@Z 00450640 f i studiomdl.obj
 0001:0004f690       ?ShiftElementsRight@?$CUtlVector@Us_sequence_t@@V?$CUtlMemory@Us_sequence_t@@@@@@IAEXHH@Z 00450690 f i studiomdl.obj
 0001:0004f6e0       ?ShiftElementsRight@?$CUtlVector@VCLodScriptReplacement_t@@V?$CUtlMemory@VCLodScriptReplacement_t@@@@@@IAEXHH@Z 004506e0 f i studiomdl.obj
 0001:0004f720       ?ShiftElementsRight@?$CUtlVector@VCUtlSymbol@@V?$CUtlMemory@VCUtlSymbol@@@@@@IAEXHH@Z 00450720 f i studiomdl.obj
 0001:0004f760       ?TokenError@@YAXPBDZZ      00450760 f   studiomdl.obj
 0001:0004f7c0       ?UsageAndExit@@YAXXZ       004507c0 f   studiomdl.obj
 0001:0004f7d0       ?VExceptionFilter@@YGJPAU_EXCEPTION_POINTERS@@@Z 004507d0 f   studiomdl.obj
 0001:0004f9c0       ?clip_rotations@@YAXAAVRadianEuler@@@Z 004509c0 f   studiomdl.obj
 0001:0004fa40       ?clip_rotations@@YAXAAVVector@@@Z 00450a40 f   studiomdl.obj
 0001:0004faa0       ?kalloc@@YAPAXHH@Z         00450aa0 f   studiomdl.obj
 0001:0004fad0       ?kmemset@@YAXPAXHH@Z       00450ad0 f   studiomdl.obj
 0001:0004fae0       ?lookupControl@@YAHPAD@Z   00450ae0 f   studiomdl.obj
 0001:0004fc60       ?lookup_texture@@YAHPADH@Z 00450c60 f   studiomdl.obj
 0001:0004fcf0       ?material_to_texture@@YAHH@Z 00450cf0 f   studiomdl.obj
 0001:0004fd20       ?scale_vertex@@YAXAAVVector@@@Z 00450d20 f   studiomdl.obj
 0001:0004fd60       ?stristr@@YAPADPBD0@Z      00450d60 f   studiomdl.obj
 0001:0004fde0       ?use_texture_as_material@@YAHH@Z 00450de0 f   studiomdl.obj
 0001:0004fe20       ?verify_atof@@YAMPBD@Z     00450e20 f   studiomdl.obj
 0001:0004fe60       ?verify_atoi@@YAHPBD@Z     00450e60 f   studiomdl.obj
 0001:0004fe90       _main                      00450e90 f   studiomdl.obj
 0001:000508c0       _vprintf                   004518c0 f i studiomdl.obj
 0001:000508f0       _vsprintf                  004518f0 f i studiomdl.obj
 0001:00050920       ??0?$CUtlMemory@PAUs_source_t@@@@QAE@HH@Z 00451920 f i UnifyLODs.obj
 0001:00050960       ??0?$CUtlMemory@UVertexInfo_t@@@@QAE@HH@Z 00451960 f i UnifyLODs.obj
 0001:000509a0       ??0?$CUtlMemory@Us_face_t@@@@QAE@HH@Z 004519a0 f i UnifyLODs.obj
 0001:000509e0       ??0?$CUtlMemory@Us_mesh_t@@@@QAE@HH@Z 004519e0 f i UnifyLODs.obj
 0001:00050a20       ??0CVertexDictionary@@QAE@XZ 00451a20 f   UnifyLODs.obj
 0001:00050a50       ??1?$CUtlMemory@PAUs_source_t@@@@QAE@XZ 00451a50 f i UnifyLODs.obj
 0001:00050a80       ??1?$CUtlMemory@UVertexInfo_t@@@@QAE@XZ 00451a80 f i UnifyLODs.obj
 0001:00050ab0       ??1?$CUtlMemory@Us_face_t@@@@QAE@XZ 00451ab0 f i UnifyLODs.obj
 0001:00050ae0       ??1?$CUtlMemory@Us_mesh_t@@@@QAE@XZ 00451ae0 f i UnifyLODs.obj
 0001:00050b10       ??1?$CUtlVector@PAUs_source_t@@V?$CUtlMemory@PAUs_source_t@@@@@@QAE@XZ 00451b10 f i UnifyLODs.obj
 0001:00050b70       ??1?$CUtlVector@UVertexInfo_t@@V?$CUtlMemory@UVertexInfo_t@@@@@@QAE@XZ 00451b70 f i UnifyLODs.obj
 0001:00050bd0       ??4VertexInfo_t@@QAEAAU0@ABU0@@Z 00451bd0 f i UnifyLODs.obj
 0001:00050c40       ?AddMultipleToTail@?$CUtlVector@PAUs_source_t@@V?$CUtlMemory@PAUs_source_t@@@@@@QAEHHPBQAUs_source_t@@@Z 00451c40 f i UnifyLODs.obj
 0001:00050d40       ?AddVertex@CVertexDictionary@@QAEHABUVertexInfo_t@@@Z 00451d40 f   UnifyLODs.obj
 0001:00050e10       ?AddVertexFromSource@CVertexDictionary@@QAEHPBUs_source_t@@H@Z 00451e10 f   UnifyLODs.obj
 0001:000510c0       ?CompareBoneWeightsFuzzy@@YA_NABUs_boneweight_t@@0AAM@Z 004520c0 f   UnifyLODs.obj
 0001:00051230       ?CompareNormalFuzzy@@YA_NABVVector@@0AAM@Z 00452230 f   UnifyLODs.obj
 0001:00051340       ?ComparePositionFuzzy@@YA_NABVVector@@0AAM@Z 00452340 f   UnifyLODs.obj
 0001:00051390       ?CompareTangentSFuzzy@@YA_NABVVector4D@@0AAM@Z 00452390 f   UnifyLODs.obj
 0001:000514d0       ?CompareTexCoordsFuzzy@@YA_NABVVector2D@@0AAM@Z 004524d0 f   UnifyLODs.obj
 0001:00051520       ?ConvertBoneTreeCollapsesToReplaceBones@@YAXXZ 00452520 f   UnifyLODs.obj
 0001:00051cd0       ?FindMaterialByName@@YAHPBD@Z 00452cd0 f   UnifyLODs.obj
 0001:00052220       ?FixupReplacedBones@@YAXXZ 00453220 f   UnifyLODs.obj
 0001:00052350       ?FixupReplacedBonesForLOD@@YAXAAULodScriptData_t@@@Z 00453350 f   UnifyLODs.obj
 0001:000524b0       ?GetModelLODSource@@YAPAUs_source_t@@PBDABULodScriptData_t@@PA_N@Z 004534b0 f   UnifyLODs.obj
 0001:00052560       ?Grow@?$CUtlMemory@PAUs_source_t@@@@QAEXH@Z 00453560 f i UnifyLODs.obj
 0001:000525d0       ?Grow@?$CUtlMemory@UVertexInfo_t@@@@QAEXH@Z 004535d0 f i UnifyLODs.obj
 0001:00052640       ?Grow@?$CUtlMemory@Us_face_t@@@@QAEXH@Z 00453640 f i UnifyLODs.obj
 0001:000526b0       ?Grow@?$CUtlMemory@Us_mesh_t@@@@QAEXH@Z 004536b0 f i UnifyLODs.obj
 0001:00052720       ?GrowVector@?$CUtlVector@PAUs_source_t@@V?$CUtlMemory@PAUs_source_t@@@@@@IAEXH@Z 00453720 f i UnifyLODs.obj
 0001:000527b0       ?GrowVector@?$CUtlVector@UVertexInfo_t@@V?$CUtlMemory@UVertexInfo_t@@@@@@IAEXH@Z 004537b0 f i UnifyLODs.obj
 0001:00052840       ?GrowVector@?$CUtlVector@Us_face_t@@V?$CUtlMemory@Us_face_t@@@@@@IAEXH@Z 00453840 f i UnifyLODs.obj
 0001:000528d0       ?GrowVector@?$CUtlVector@Us_mesh_t@@V?$CUtlMemory@Us_mesh_t@@@@@@IAEXH@Z 004538d0 f i UnifyLODs.obj
 0001:00052960       ?InsertBefore@?$CUtlVector@UVertexInfo_t@@V?$CUtlMemory@UVertexInfo_t@@@@@@QAEHH@Z 00453960 f i UnifyLODs.obj
 0001:000529b0       ?InsertBefore@?$CUtlVector@UVertexInfo_t@@V?$CUtlMemory@UVertexInfo_t@@@@@@QAEHHABUVertexInfo_t@@@Z 004539b0 f i UnifyLODs.obj
 0001:00052a60       ?InsertBefore@?$CUtlVector@Us_face_t@@V?$CUtlMemory@Us_face_t@@@@@@QAEHH@Z 00453a60 f i UnifyLODs.obj
 0001:00052b00       ?IsExternallyAllocated@?$CUtlMemory@PAUs_source_t@@@@QBE_NXZ 00453b00 f i UnifyLODs.obj
 0001:00052b10       ?IsExternallyAllocated@?$CUtlMemory@UVertexInfo_t@@@@QBE_NXZ 00453b10 f i UnifyLODs.obj
 0001:00052b20       ?IsExternallyAllocated@?$CUtlMemory@Us_face_t@@@@QBE_NXZ 00453b20 f i UnifyLODs.obj
 0001:00052b30       ?IsExternallyAllocated@?$CUtlMemory@Us_mesh_t@@@@QBE_NXZ 00453b30 f i UnifyLODs.obj
 0001:00052b40       ?LoadLODSources@@YAXXZ     00453b40 f   UnifyLODs.obj
 0001:00052be0       ?MarkParentBoneLODs@@YAXXZ 00453be0 f   UnifyLODs.obj
 0001:00052c30       ?Purge@?$CUtlMemory@PAUs_source_t@@@@QAEXXZ 00453c30 f i UnifyLODs.obj
 0001:00052c60       ?Purge@?$CUtlMemory@UVertexInfo_t@@@@QAEXXZ 00453c60 f i UnifyLODs.obj
 0001:00052c90       ?Purge@?$CUtlMemory@Us_face_t@@@@QAEXXZ 00453c90 f i UnifyLODs.obj
 0001:00052cc0       ?Purge@?$CUtlMemory@Us_mesh_t@@@@QAEXXZ 00453cc0 f i UnifyLODs.obj
 0001:00052cf0       ?RemoveAll@?$CUtlVector@PAUs_source_t@@V?$CUtlMemory@PAUs_source_t@@@@@@QAEXXZ 00453cf0 f i UnifyLODs.obj
 0001:00052d00       ?RemoveAll@?$CUtlVector@UVertexInfo_t@@V?$CUtlMemory@UVertexInfo_t@@@@@@QAEXXZ 00453d00 f i UnifyLODs.obj
 0001:00052d10       ?RemoveAll@?$CUtlVector@Us_face_t@@V?$CUtlMemory@Us_face_t@@@@@@QAEXXZ 00453d10 f i UnifyLODs.obj
 0001:00052d20       ?RemoveAll@?$CUtlVector@Us_mesh_t@@V?$CUtlMemory@Us_mesh_t@@@@@@QAEXXZ 00453d20 f i UnifyLODs.obj
 0001:00052e80       ?SetDstName@CLodScriptReplacement_t@@QAEXPBD@Z 00453e80 f i UnifyLODs.obj
 0001:00053090       ?SetRootVertexRange@CVertexDictionary@@QAEXHH@Z 00454090 f   UnifyLODs.obj
 0001:000530b0       ?ShiftElementsRight@?$CUtlVector@PAUs_source_t@@V?$CUtlMemory@PAUs_source_t@@@@@@IAEXHH@Z 004540b0 f i UnifyLODs.obj
 0001:000530f0       ?ShiftElementsRight@?$CUtlVector@UVertexInfo_t@@V?$CUtlMemory@UVertexInfo_t@@@@@@IAEXHH@Z 004540f0 f i UnifyLODs.obj
 0001:00053140       ?ShiftElementsRight@?$CUtlVector@Us_face_t@@V?$CUtlMemory@Us_face_t@@@@@@IAEXHH@Z 00454140 f i UnifyLODs.obj
 0001:00053180       ?ShiftElementsRight@?$CUtlVector@Us_mesh_t@@V?$CUtlMemory@Us_mesh_t@@@@@@IAEXHH@Z 00454180 f i UnifyLODs.obj
 0001:00053390       ?SpewBoneUsageStats@@YAXXZ 00454390 f   UnifyLODs.obj
 0001:000533f0       ?StartNewLOD@CVertexDictionary@@QAEXXZ 004543f0 f   UnifyLODs.obj
 0001:00053400       ?UnifyLODs@@YAXXZ          00454400 f   UnifyLODs.obj
 0001:000539e0       ?ValidateBoneWeights@@YAXPBUs_source_t@@@Z 004549e0 f   UnifyLODs.obj
 0001:000539f0       ?VertexCount@CVertexDictionary@@QBEHXZ 004549f0 f   UnifyLODs.obj
 0001:00053a00       ?Grab_Triangles@@YAXPAUs_source_t@@@Z 00454a00 f   v1support.obj
 0001:00053c60       ?Load_SMD@@YAHPAUs_source_t@@@Z 00454c60 f   v1support.obj
 0001:00053e70       ?ParseFaceData@@YAXPAUs_source_t@@HPAUs_face_t@@@Z 00454e70 f   v1support.obj
 0001:00054340       ?lookup_index@@YAHPAUs_source_t@@HAAVVector@@1VVector2D@@@Z 00455340 f   v1support.obj
 0001:00054500       ??0?$CUtlMemory@PAUs_animation_t@@@@QAE@HH@Z 00455500 f i write.obj
 0001:00054540       ??1?$CUtlMemory@PAUs_animation_t@@@@QAE@XZ 00455540 f i write.obj
 0001:00054680       ?BuildSortedVertexList@@YA_NPBUstudiohdr_t@@PBXPAPAUvertexPool_t@@PAHPAPAUusedVertex_t@@3@Z 00455680 f   write.obj
 0001:00055080       ?Clamp_MDL_LODS@@YA_NPBDH@Z 00456080 f   write.obj
 0001:00055190       ?Clamp_RootLOD@@YA_NPAUstudiohdr_t@@@Z 00456190 f   write.obj
 0001:000554e0       ?Clamp_VTX_LODS@@YA_NPBDHPAUstudiohdr_t@@@Z 004564e0 f   write.obj
 0001:00055ad0       ?Clamp_VVD_LODS@@YA_NPBDH@Z 00456ad0 f   write.obj
 0001:00055b70       ?EnsureFileDirectoryExists@@YAXPBD@Z 00456b70 f   write.obj
 0001:00055c00       ?FindModel@studiohdr_t@@QBEPBU1@PAPAXPBD@Z 00456c00 f   write.obj
 0001:00055c10       ?FindVertexOffsets@@YAXHQAH0HPBUusedVertex_t@@H@Z 00456c10 f   write.obj
 0001:00055ce0       ?FixupMDLFile@@YA_NPBDPAUstudiohdr_t@@PBXPBUvertexPool_t@@HPBUusedVertex_t@@H@Z 00456ce0 f   write.obj
 0001:00055f40       ?FixupToSortedLODVertexes@@YA_NPAUstudiohdr_t@@@Z 00456f40 f   write.obj
 0001:00056230       ?FixupVTXFile@@YA_NPBDPBUstudiohdr_t@@PBUvertexPool_t@@HPBUusedVertex_t@@H@Z 00457230 f   write.obj
 0001:00056430       ?FixupVVDFile@@YA_NPBDPBUstudiohdr_t@@PBXPBUvertexPool_t@@HPBUusedVertex_t@@H@Z 00457430 f   write.obj
 0001:00056b20       ?GetAnimBlock@studiohdr_t@@QBEPAEH@Z 00457b20 f   write.obj
 0001:00056b30       ?GetAutoplayList@studiohdr_t@@QBEHPAPAG@Z 00457b30 f   write.obj
 0001:00056b40       ?GetStudioHdr@virtualgroup_t@@QBEPBUstudiohdr_t@@XZ 00457b40 f   write.obj
 0001:00056b50       ?GetVertexData@mstudiomodel_t@@QAEPBUmstudio_modelvertexdata_t@@XZ 00457b50 f   write.obj
 0001:00056ca0       ?GetVirtualModel@studiohdr_t@@QBEPAUvirtualmodel_t@@XZ 00457ca0 f   write.obj
 0001:00056cb0       ?Grow@?$CUtlMemory@PAUs_animation_t@@@@QAEXH@Z 00457cb0 f i write.obj
 0001:00056d20       ?GrowVector@?$CUtlVector@PAUs_animation_t@@V?$CUtlMemory@PAUs_animation_t@@@@@@IAEXH@Z 00457d20 f i write.obj
 0001:00056db0       ?InsertBefore@?$CUtlVector@PAUs_animation_t@@V?$CUtlMemory@PAUs_animation_t@@@@@@QAEHHABQAUs_animation_t@@@Z 00457db0 f i write.obj
 0001:00056e60       ?IsByte@@YAEH@Z            00457e60 f   write.obj
 0001:00056e90       ?IsChar@@YADH@Z            00457e90 f   write.obj
 0001:00056ec0       ?IsExternallyAllocated@?$CUtlMemory@PAUs_animation_t@@@@QBE_NXZ 00457ec0 f i write.obj
 0001:00056ed0       ?IsInt24@@YAHH@Z           00457ed0 f   write.obj
 0001:00056f00       ?IsShort@@YAFH@Z           00457f00 f   write.obj
 0001:00056f30       ?IsUShort@@YAGH@Z          00457f30 f   write.obj
 0001:00056f60       ?LoadMaterials@@YAXPAUstudiohdr_t@@@Z 00457f60 f   write.obj
 0001:000571a0       ?Purge@?$CUtlMemory@PAUs_animation_t@@@@QAEXXZ 004581a0 f i write.obj
 0001:000571d0       ?RemoveAll@?$CUtlVector@PAUs_animation_t@@V?$CUtlMemory@PAUs_animation_t@@@@@@QAEXXZ 004581d0 f i write.obj
 0001:000571e0       ?SetFloat@float16@@QAEXM@Z 004581e0 f i write.obj
 0001:00057340       ?ShiftElementsRight@?$CUtlVector@PAUs_animation_t@@V?$CUtlMemory@PAUs_animation_t@@@@@@IAEXHH@Z 00458340 f i write.obj
 0001:00057380       ?WriteAnimationData@@YAPAEPAUs_animation_t@@PAE@Z 00458380 f   write.obj
 0001:00058d30       ?WriteIkErrors@@YAPAEPAUs_animation_t@@PAE@Z 00459d30 f   write.obj
 0001:00059000       ?WriteKeyValues@@YAXPAUstudiohdr_t@@PAV?$CUtlVector@DV?$CUtlMemory@D@@@@@Z 0045a000 f   write.obj
 0001:0005a0b0       ?WriteModelFiles@@YAXXZ    0045b0b0 f   write.obj
 0001:0005aa30       ?WriteSeqKeyValues@@YAXPAUmstudioseqdesc_t@@PAV?$CUtlVector@DV?$CUtlMemory@D@@@@@Z 0045ba30 f   write.obj
 0001:0005bc96       _GetEnvironmentVariableA@12 0045cc96 f   kernel32:KERNEL32.dll
 0001:0005bc9c       _GetModuleFileNameA@12     0045cc9c f   kernel32:KERNEL32.dll
 0001:0005bca2       _GetModuleHandleA@4        0045cca2 f   kernel32:KERNEL32.dll
 0001:0005bca8       _HeapAlloc@12              0045cca8 f   kernel32:KERNEL32.dll
 0001:0005bcae       _GetProcessHeap@0          0045ccae f   kernel32:KERNEL32.dll
 0001:0005bcb4       _GetCurrentProcess@0       0045ccb4 f   kernel32:KERNEL32.dll
 0001:0005bcba       _TerminateProcess@8        0045ccba f   kernel32:KERNEL32.dll
 0001:0005bcc0       _VirtualQuery@12           0045ccc0 f   kernel32:KERNEL32.dll
 0001:0005bcc6       _GetStdHandle@4            0045ccc6 f   kernel32:KERNEL32.dll
 0001:0005bccc       _OutputDebugStringA@4      0045cccc f   kernel32:KERNEL32.dll
 0001:0005bcd2       _InitializeCriticalSection@4 0045ccd2 f   kernel32:KERNEL32.dll
 0001:0005bcd8       _EnterCriticalSection@4    0045ccd8 f   kernel32:KERNEL32.dll
 0001:0005bcde       _LeaveCriticalSection@4    0045ccde f   kernel32:KERNEL32.dll
 0001:0005bce4       _GetConsoleScreenBufferInfo@8 0045cce4 f   kernel32:KERNEL32.dll
 0001:0005bcea       _SetConsoleTextAttribute@8 0045ccea f   kernel32:KERNEL32.dll
 0001:0005bcf0       _SetUnhandledExceptionFilter@4 0045ccf0 f   kernel32:KERNEL32.dll
 0001:0005bcf6       _RegCloseKey@4             0045ccf6 f   advapi32:ADVAPI32.dll
 0001:0005bcfc       _RegOpenKeyExA@20          0045ccfc f   advapi32:ADVAPI32.dll
 0001:0005bd02       _RegQueryValueExA@24       0045cd02 f   advapi32:ADVAPI32.dll
 0001:0005bd08       _DevWarning                0045cd08 f   tier0:tier0.dll
 0001:0005bd0e       _Warning                   0045cd0e f   tier0:tier0.dll
 0001:0005bd14       _Error                     0045cd14 f   tier0:tier0.dll
 0001:0005bd1a       _CommandLine_Tier0         0045cd1a f   tier0:tier0.dll
 0001:0005bd20       _Plat_IsInDebugSession     0045cd20 f   tier0:tier0.dll
 0001:0005bd26       _WriteMiniDump             0045cd26 f   tier0:tier0.dll
 0001:0005bd2c       _SpewOutputFunc            0045cd2c f   tier0:tier0.dll
 0001:0005bd32       _Msg                       0045cd32 f   tier0:tier0.dll
 0001:0005bd38       _RandomInt                 0045cd38 f   vstdlib:vstdlib.dll
 0001:0005bd40       ?_sqrtf@@YAMM@Z            0045cd40 f   mathlib:mathlib_base.obj
 0001:0005bd90       ?_rsqrtf@@YAMM@Z           0045cd90 f   mathlib:mathlib_base.obj
 0001:0005bde0       ?_InvRSquared@@YAMPBM@Z    0045cde0 f   mathlib:mathlib_base.obj
 0001:0005be30       _cosf                      0045ce30 f i mathlib:mathlib_base.obj
 0001:0005be50       ?_VectorNormalize@@YIMAAVVector@@@Z 0045ce50 f   mathlib:mathlib_base.obj
 0001:0005bf10       ?_VectorNormalizeFast@@YIXAAVVector@@@Z 0045cf10 f   mathlib:mathlib_base.obj
 0001:0005bfc0       ?SinCos@@YAXMPAM0@Z        0045cfc0 f i mathlib:mathlib_base.obj
 0001:0005bfe0       ?AddPointToBounds@@YAXABVVector@@AAV1@1@Z 0045cfe0 f   mathlib:mathlib_base.obj
 0001:0005c050       ?AngleDiff@@YAMMM@Z        0045d050 f   mathlib:mathlib_base.obj
 0001:0005c0d0       ?AngleDistance@@YAMMM@Z    0045d0d0 f   mathlib:mathlib_base.obj
 0001:0005c120       ?AngleIMatrix@@YAXABVQAngle@@AAUmatrix3x4_t@@@Z 0045d120 f   mathlib:mathlib_base.obj
 0001:0005c290       ?AngleIMatrix@@YAXABVQAngle@@ABVVector@@AAUmatrix3x4_t@@@Z 0045d290 f   mathlib:mathlib_base.obj
 0001:0005c330       ?AngleIMatrix@@YAXABVRadianEuler@@AAUmatrix3x4_t@@@Z 0045d330 f   mathlib:mathlib_base.obj
 0001:0005c380       ?AngleMatrix@@YAXABVQAngle@@AAUmatrix3x4_t@@@Z 0045d380 f   mathlib:mathlib_base.obj
 0001:0005c4f0       ?AngleMatrix@@YAXABVQAngle@@ABVVector@@AAUmatrix3x4_t@@@Z 0045d4f0 f   mathlib:mathlib_base.obj
 0001:0005c520       ?AngleMatrix@@YAXABVRadianEuler@@AAUmatrix3x4_t@@@Z 0045d520 f   mathlib:mathlib_base.obj
 0001:0005c570       ?AngleMatrix@@YAXABVRadianEuler@@ABVVector@@AAUmatrix3x4_t@@@Z 0045d570 f   mathlib:mathlib_base.obj
 0001:0005c5e0       ?AngleNormalize@@YAMM@Z    0045d5e0 f   mathlib:mathlib_base.obj
 0001:0005c640       ?AngleNormalizePositive@@YAMM@Z 0045d640 f   mathlib:mathlib_base.obj
 0001:0005c690       ?AngleQuaternion@@YAXABVQAngle@@AAVQuaternion@@@Z 0045d690 f   mathlib:mathlib_base.obj
 0001:0005c7c0       ?AngleQuaternion@@YAXABVRadianEuler@@AAVQuaternion@@@Z 0045d7c0 f   mathlib:mathlib_base.obj
 0001:0005c8e0       ?AngleVectors@@YAXABVQAngle@@PAVVector@@11@Z 0045d8e0 f   mathlib:mathlib_base.obj
 0001:0005ca70       ?AngleVectors@@YAXABVQAngle@@PAVVector@@@Z 0045da70 f   mathlib:mathlib_base.obj
 0001:0005cb10       ?AngleVectorsTranspose@@YAXABVQAngle@@PAVVector@@11@Z 0045db10 f   mathlib:mathlib_base.obj
 0001:0005cc80       ?AnglesAreEqual@@YA_NMMM@Z 0045dc80 f   mathlib:mathlib_base.obj
 0001:0005cd00       ?Approach@@YAMMMM@Z        0045dd00 f   mathlib:mathlib_base.obj
 0001:0005cd60       ?ApproachAngle@@YAMMMM@Z   0045dd60 f   mathlib:mathlib_base.obj
 0001:0005ce30       ?AxisAngleQuaternion@@YAXABVVector@@MAAVQuaternion@@@Z 0045de30 f   mathlib:mathlib_base.obj
 0001:0005ceb0       ?BSpline@@YAXABVVector@@000MAAV1@@Z 0045deb0 f   mathlib:mathlib_base.obj
 0001:0005d210       ?BSpline_NormalizeX@@YAXABVVector@@000MAAV1@@Z 0045e210 f   mathlib:mathlib_base.obj
 0001:0005d340       ?BasisToQuaternion@@YAXABVVector@@00AAVQuaternion@@@Z 0045e340 f   mathlib:mathlib_base.obj
 0001:0005d400       ?Bias@@YAMMM@Z             0045e400 f   mathlib:mathlib_base.obj
 0001:0005d460       ?BoxOnPlaneSide@@YAHPBM0PBUcplane_t@@@Z 0045e460 f   mathlib:mathlib_base.obj
 0001:0005d690       ?BuildExponentTable@@YAXXZ 0045e690 f   mathlib:mathlib_base.obj
 0001:0005d6e0       ?BuildGammaTable@@YAXMMMH@Z 0045e6e0 f   mathlib:mathlib_base.obj
 0001:0005db40       ?CalcClosestPointOnAABB@@YAXABVVector@@00AAV1@@Z 0045eb40 f   mathlib:mathlib_base.obj
 0001:0005dbc0       ?CalcClosestPointOnLine2D@@YAXABVVector2D@@00AAV1@PAM@Z 0045ebc0 f   mathlib:mathlib_base.obj
 0001:0005dc70       ?CalcClosestPointOnLine@@YAXABVVector@@00AAV1@PAM@Z 0045ec70 f   mathlib:mathlib_base.obj
 0001:0005dd50       ?CalcClosestPointOnLineSegment2D@@YAXABVVector2D@@00AAV1@PAM@Z 0045ed50 f   mathlib:mathlib_base.obj
 0001:0005de10       ?CalcClosestPointOnLineSegment@@YAXABVVector@@00AAV1@PAM@Z 0045ee10 f   mathlib:mathlib_base.obj
 0001:0005df00       ?CalcClosestPointToLineT2D@@YAMABVVector2D@@00AAV1@@Z 0045ef00 f   mathlib:mathlib_base.obj
 0001:0005df80       ?CalcClosestPointToLineT@@YAMABVVector@@00AAV1@@Z 0045ef80 f   mathlib:mathlib_base.obj
 0001:0005e030       ?CalcDistanceSqrToLine2D@@YAMABVVector2D@@00PAM@Z 0045f030 f   mathlib:mathlib_base.obj
 0001:0005e0f0       ?CalcDistanceSqrToLine@@YAMABVVector@@00PAM@Z 0045f0f0 f   mathlib:mathlib_base.obj
 0001:0005e1f0       ?CalcDistanceSqrToLineSegment2D@@YAMABVVector2D@@00PAM@Z 0045f1f0 f   mathlib:mathlib_base.obj
 0001:0005e2c0       ?CalcDistanceSqrToLineSegment@@YAMABVVector@@00PAM@Z 0045f2c0 f   mathlib:mathlib_base.obj
 0001:0005e3d0       ?CalcDistanceToLine2D@@YAMABVVector2D@@00PAM@Z 0045f3d0 f   mathlib:mathlib_base.obj
 0001:0005e4a0       ?CalcDistanceToLine@@YAMABVVector@@00PAM@Z 0045f4a0 f   mathlib:mathlib_base.obj
 0001:0005e5b0       ?CalcDistanceToLineSegment2D@@YAMABVVector2D@@00PAM@Z 0045f5b0 f   mathlib:mathlib_base.obj
 0001:0005e690       ?CalcDistanceToLineSegment@@YAMABVVector@@00PAM@Z 0045f690 f   mathlib:mathlib_base.obj
 0001:0005e7b0       ?CalcLineToLineIntersectionSegment@@YA_NABVVector@@000PAV1@1PAM2@Z 0045f7b0 f   mathlib:mathlib_base.obj
 0001:0005ea30       ?CalcSqrDistanceToAABB@@YAMABVVector@@00@Z 0045fa30 f   mathlib:mathlib_base.obj
 0001:0005eb00       ?Catmull_Rom_Spline@@YAXABVVector@@000MAAV1@@Z 0045fb00 f   mathlib:mathlib_base.obj
 0001:0005ee30       ?Catmull_Rom_Spline_Normalize@@YAXABVVector@@000MAAV1@@Z 0045fe30 f   mathlib:mathlib_base.obj
 0001:0005ef50       ?Catmull_Rom_Spline_NormalizeX@@YAXABVVector@@000MAAV1@@Z 0045ff50 f   mathlib:mathlib_base.obj
 0001:0005f080       ?Catmull_Rom_Spline_Tangent@@YAXABVVector@@000MAAV1@@Z 00460080 f   mathlib:mathlib_base.obj
 0001:0005f390       ?CeilPow2@@YAHH@Z          00460390 f   mathlib:mathlib_base.obj
 0001:0005f3b0       ?ClearBounds@@YAXAAVVector@@0@Z 004603b0 f   mathlib:mathlib_base.obj
 0001:0005f3f0       ?ClipPolyToPlane@@YAHPAVVector@@H0ABV1@MM@Z 004603f0 f   mathlib:mathlib_base.obj
 0001:0005f7f0       ?ClipPolyToPlane_Precise@@YAHPANH0PBNNN@Z 004607f0 f   mathlib:mathlib_base.obj
 0001:0005fb00       ?ColorRGBExp32ToVector@@YAXABUColorRGBExp32@@AAVVector@@@Z 00460b00 f   mathlib:mathlib_base.obj
 0001:0005fb80       ?ComputeTrianglePlane@@YAXABVVector@@00AAV1@AAM@Z 00460b80 f   mathlib:mathlib_base.obj
 0001:0005fc40       ?ConcatRotations@@YAXQAY02$$CBM0QAY02M@Z 00460c40 f   mathlib:mathlib_base.obj
 0001:0005fdd0       ?ConcatTransforms@@YAXABUmatrix3x4_t@@0AAU1@@Z 00460dd0 f   mathlib:mathlib_base.obj
 0001:00060070       ?CrossProduct@@YAXPBM0PAM@Z 00461070 f   mathlib:mathlib_base.obj
 0001:000600d0       ?Cubic_Spline@@YAXABVVector@@000MAAV1@@Z 004610d0 f   mathlib:mathlib_base.obj
 0001:00060220       ?Cubic_Spline_NormalizeX@@YAXABVVector@@000MAAV1@@Z 00461220 f   mathlib:mathlib_base.obj
 0001:00060370       ?FloorDivMod@@YAXNNPAH0@Z  00461370 f   mathlib:mathlib_base.obj
 0001:00060490       ?FloorPow2@@YAHH@Z         00461490 f   mathlib:mathlib_base.obj
 0001:000604b0       ?Gain@@YAMMM@Z             004614b0 f   mathlib:mathlib_base.obj
 0001:000605b0       ?GammaToLinear@@YAMM@Z     004615b0 f   mathlib:mathlib_base.obj
 0001:00060600       ?GammaToLinearFullRange@@YAMM@Z 00461600 f   mathlib:mathlib_base.obj
 0001:00060630       ?GreatestCommonDivisor@@YAHHH@Z 00461630 f   mathlib:mathlib_base.obj
 0001:00060670       ?Hermite_Spline@@YAMMMMM@Z 00461670 f   mathlib:mathlib_base.obj
 0001:00060700       ?Hermite_Spline@@YAMMMMMM@Z 00461700 f   mathlib:mathlib_base.obj
 0001:00060780       ?Hermite_Spline@@YAXABVQuaternion@@00MAAV1@@Z 00461780 f   mathlib:mathlib_base.obj
 0001:00060be0       ?Hermite_Spline@@YAXABVVector@@000MAAV1@@Z 00461be0 f   mathlib:mathlib_base.obj
 0001:00060cc0       ?Hermite_Spline@@YAXABVVector@@00MAAV1@@Z 00461cc0 f   mathlib:mathlib_base.obj
 0001:00060d80       ?Hermite_SplineBasis@@YAXMQAM@Z 00461d80 f   mathlib:mathlib_base.obj
 0001:00060df0       ?IRotateAABB@@YAXABUmatrix3x4_t@@ABVVector@@1AAV2@2@Z 00461df0 f   mathlib:mathlib_base.obj
 0001:00061000       ?ITransformAABB@@YAXABUmatrix3x4_t@@ABVVector@@1AAV2@2@Z 00462000 f   mathlib:mathlib_base.obj
 0001:00061250       ?InitSinCosTable@@YAXXZ    00462250 f   mathlib:mathlib_base.obj
 0001:00061290       ?IsDenormal@@YA_NABM@Z     00462290 f   mathlib:mathlib_base.obj
 0001:000612b0       ?Kochanek_Bartels_Spline@@YAXMMMABVVector@@000MAAV1@@Z 004622b0 f   mathlib:mathlib_base.obj
 0001:00061700       ?Kochanek_Bartels_Spline_NormalizeX@@YAXMMMABVVector@@000MAAV1@@Z 00462700 f   mathlib:mathlib_base.obj
 0001:00061850       ?LineSphereIntersection@@YAHABVVector@@M00PAM1@Z 00462850 f   mathlib:mathlib_base.obj
 0001:00061980       ?LinearToGamma@@YAMM@Z     00462980 f   mathlib:mathlib_base.obj
 0001:000619d0       ?LinearToGammaFullRange@@YAMM@Z 004629d0 f   mathlib:mathlib_base.obj
 0001:00061a00       ?LinearToScreenGamma@@YAHM@Z 00462a00 f   mathlib:mathlib_base.obj
 0001:00061a30       ?LinearToTexture@@YAHM@Z   00462a30 f   mathlib:mathlib_base.obj
 0001:00061a60       ?MathLib_3DNowEnabled@@YA_NXZ 00462a60 f   mathlib:mathlib_base.obj
 0001:00061a70       ?MathLib_Init@@YAXMMMH_N000@Z 00462a70 f   mathlib:mathlib_base.obj
 0001:00061c50       ?MathLib_MMXEnabled@@YA_NXZ 00462c50 f   mathlib:mathlib_base.obj
 0001:00061c60       ?MathLib_SSE2Enabled@@YA_NXZ 00462c60 f   mathlib:mathlib_base.obj
 0001:00061c70       ?MathLib_SSEEnabled@@YA_NXZ 00462c70 f   mathlib:mathlib_base.obj
 0001:00061c80       ?MatrixAngles@@YAXABUmatrix3x4_t@@AAVQuaternion@@AAVVector@@@Z 00462c80 f   mathlib:mathlib_base.obj
 0001:00061ec0       ?MatrixAngles@@YAXABUmatrix3x4_t@@AAVRadianEuler@@AAVVector@@@Z 00462ec0 f   mathlib:mathlib_base.obj
 0001:00061f20       ?MatrixAngles@@YAXABUmatrix3x4_t@@PAM@Z 00462f20 f   mathlib:mathlib_base.obj
 0001:00062100       ?MatrixCopy@@YAXABUmatrix3x4_t@@AAU1@@Z 00463100 f   mathlib:mathlib_base.obj
 0001:00062130       ?MatrixGetColumn@@YAXABUmatrix3x4_t@@HAAVVector@@@Z 00463130 f   mathlib:mathlib_base.obj
 0001:00062160       ?MatrixInitialize@@YAXAAUmatrix3x4_t@@ABVVector@@111@Z 00463160 f   mathlib:mathlib_base.obj
 0001:000621c0       ?MatrixInvert@@YAXABUmatrix3x4_t@@AAU1@@Z 004631c0 f   mathlib:mathlib_base.obj
 0001:000622e0       ?MatrixSetColumn@@YAXABVVector@@HAAUmatrix3x4_t@@@Z 004632e0 f   mathlib:mathlib_base.obj
 0001:00062310       ?Parabolic_Spline@@YAXABVVector@@000MAAV1@@Z 00463310 f   mathlib:mathlib_base.obj
 0001:00062510       ?Parabolic_Spline_NormalizeX@@YAXABVVector@@000MAAV1@@Z 00463510 f   mathlib:mathlib_base.obj
 0001:00062750       ?PolyFromPlane@@YAHPAVVector@@ABV1@MM@Z 00463750 f   mathlib:mathlib_base.obj
 0001:00062a10       ?Q_log2@@YAHH@Z            00463a10 f   mathlib:mathlib_base.obj
 0001:00062a30       ?QuaternionAdd@@YAXABVQuaternion@@0AAV1@@Z 00463a30 f   mathlib:mathlib_base.obj
 0001:00062b80       ?QuaternionAlign@@YAXABVQuaternion@@0AAV1@@Z 00463b80 f   mathlib:mathlib_base.obj
 0001:00062cb0       ?QuaternionAngleDiff@@YAMABVQuaternion@@0@Z 00463cb0 f   mathlib:mathlib_base.obj
 0001:00062d80       ?QuaternionAngles@@YAXABVQuaternion@@AAVQAngle@@@Z 00463d80 f   mathlib:mathlib_base.obj
 0001:00062ee0       ?QuaternionAngles@@YAXABVQuaternion@@AAVRadianEuler@@@Z 00463ee0 f   mathlib:mathlib_base.obj
 0001:00063070       ?QuaternionAxisAngle@@YAXABVQuaternion@@AAVVector@@AAM@Z 00464070 f   mathlib:mathlib_base.obj
 0001:000630d0       ?QuaternionBlend@@YAXABVQuaternion@@0MAAV1@@Z 004640d0 f   mathlib:mathlib_base.obj
 0001:00063320       ?QuaternionBlendNoAlign@@YAXABVQuaternion@@0MAAV1@@Z 00464320 f   mathlib:mathlib_base.obj
 0001:00063460       ?QuaternionConjugate@@YAXABVQuaternion@@AAV1@@Z 00464460 f   mathlib:mathlib_base.obj
 0001:000634a0       ?QuaternionDotProduct@@YAMABVQuaternion@@0@Z 004644a0 f   mathlib:mathlib_base.obj
 0001:000634f0       ?QuaternionIdentityBlend@@YAXABVQuaternion@@MAAV1@@Z 004644f0 f   mathlib:mathlib_base.obj
 0001:00063610       ?QuaternionInvert@@YAXABVQuaternion@@AAV1@@Z 00464610 f   mathlib:mathlib_base.obj
 0001:000636b0       ?QuaternionMatrix@@YAXABVQuaternion@@AAUmatrix3x4_t@@@Z 004646b0 f   mathlib:mathlib_base.obj
 0001:00063870       ?QuaternionMatrix@@YAXABVQuaternion@@ABVVector@@AAUmatrix3x4_t@@@Z 00464870 f   mathlib:mathlib_base.obj
 0001:00063a40       ?QuaternionMult@@YAXABVQuaternion@@0AAV1@@Z 00464a40 f   mathlib:mathlib_base.obj
 0001:00063b60       ?QuaternionNormalize@@YAMAAVQuaternion@@@Z 00464b60 f   mathlib:mathlib_base.obj
 0001:00063c50       ?QuaternionScale@@YAXABVQuaternion@@MAAV1@@Z 00464c50 f   mathlib:mathlib_base.obj
 0001:00063d70       ?QuaternionSlerp@@YAXABVQuaternion@@0MAAV1@@Z 00464d70 f   mathlib:mathlib_base.obj
 0001:00063ea0       ?QuaternionSlerpNoAlign@@YAXABVQuaternion@@0MAAV1@@Z 00464ea0 f   mathlib:mathlib_base.obj
 0001:000640e0       ?R_CullBox@@YA_NABVVector@@0ABVFrustum_t@@@Z 004650e0 f   mathlib:mathlib_base.obj
 0001:00064170       ?R_CullBoxSkipNear@@YA_NABVVector@@0ABVFrustum_t@@@Z 00465170 f   mathlib:mathlib_base.obj
 0001:000641f0       ?RangeCompressor@@YAMMMMM@Z 004651f0 f   mathlib:mathlib_base.obj
 0001:00064320       ?RotateAABB@@YAXABUmatrix3x4_t@@ABVVector@@1AAV2@2@Z 00465320 f   mathlib:mathlib_base.obj
 0001:00064560       ?RotationDelta@@YAXABVQAngle@@0PAV1@@Z 00465560 f   mathlib:mathlib_base.obj
 0001:00064610       ?RotationDeltaAxisAngle@@YAXABVQAngle@@0AAVVector@@AAM@Z 00465610 f   mathlib:mathlib_base.obj
 0001:000648a0       ?SetIdentityMatrix@@YAXAAUmatrix3x4_t@@@Z 004658a0 f   mathlib:mathlib_base.obj
 0001:00064900       ?SignbitsForPlane@@YAHPAUcplane_t@@@Z 00465900 f   mathlib:mathlib_base.obj
 0001:00064930       ?SmoothCurve@@YAMM@Z       00465930 f   mathlib:mathlib_base.obj
 0001:00064970       ?SmoothCurve_Tweak@@YAMMMM@Z 00465970 f   mathlib:mathlib_base.obj
 0001:00064ae0       ?SolveInverseQuadratic@@YA_NMMMMMMAAM00@Z 00465ae0 f   mathlib:mathlib_base.obj
 0001:00064c20       ?SolveInverseQuadraticMonotonic@@YA_NMMMMMMAAM00@Z 00465c20 f   mathlib:mathlib_base.obj
 0001:00064ea0       ?SolveInverseReciprocalQuadratic@@YA_NMMMMMMAAM00@Z 00465ea0 f   mathlib:mathlib_base.obj
 0001:00065000       ?SolveQuadratic@@YA_NMMMAAM0@Z 00466000 f   mathlib:mathlib_base.obj
 0001:000650f0       ?SphereToAABBIntersection@@YA_NABVVector@@M00@Z 004660f0 f   mathlib:mathlib_base.obj
 0001:00065180       ?Spline_Normalize@@YAXABVVector@@000AAV1@1@Z 00466180 f   mathlib:mathlib_base.obj
 0001:00065290       ?TextureToLinear@@YAMH@Z   00466290 f   mathlib:mathlib_base.obj
 0001:000652c0       ?TransformAABB@@YAXABUmatrix3x4_t@@ABVVector@@1AAV2@2@Z 004662c0 f   mathlib:mathlib_base.obj
 0001:00065510       ?TransformAndRotate@@YAXABVVector@@0ABUmatrix3x4_t@@AAV1@2@Z 00466510 f   mathlib:mathlib_base.obj
 0001:00065620       ?TransformAnglesToLocalSpace@@YA?AVQAngle@@ABV1@ABUmatrix3x4_t@@@Z 00466620 f   mathlib:mathlib_base.obj
 0001:00065690       ?TransformAnglesToWorldSpace@@YA?AVQAngle@@ABV1@ABUmatrix3x4_t@@@Z 00466690 f   mathlib:mathlib_base.obj
 0001:000656f0       ?VectorAngles@@YAXABVVector@@0AAVQAngle@@@Z 004666f0 f   mathlib:mathlib_base.obj
 0001:00065930       ?VectorAngles@@YAXABVVector@@AAVQAngle@@@Z 00466930 f   mathlib:mathlib_base.obj
 0001:00065a80       ?VectorAngles@@YAXPBMPAM@Z 00466a80 f   mathlib:mathlib_base.obj
 0001:00065be0       ?VectorCompare@@YAHPBM0@Z  00466be0 f   mathlib:mathlib_base.obj
 0001:00065c20       ?VectorIRotate@@YAXPBMABUmatrix3x4_t@@PAM@Z 00466c20 f   mathlib:mathlib_base.obj
 0001:00065cb0       ?VectorITransform@@YAXPBMABUmatrix3x4_t@@PAM@Z 00466cb0 f   mathlib:mathlib_base.obj
 0001:00065d40       ?VectorMA@@YAXABVVector@@M0AAV1@@Z 00466d40 f   mathlib:mathlib_base.obj
 0001:00065d80       ?VectorMA@@YAXPBMM0PAM@Z   00466d80 f   mathlib:mathlib_base.obj
 0001:00065dc0       ?VectorMatrix@@YAXABVVector@@AAUmatrix3x4_t@@@Z 00466dc0 f   mathlib:mathlib_base.obj
 0001:00065f00       ?VectorRotate@@YAXABVVector@@ABVQAngle@@AAV1@@Z 00466f00 f   mathlib:mathlib_base.obj
 0001:00065fc0       ?VectorRotate@@YAXPBMABUmatrix3x4_t@@PAM@Z 00466fc0 f   mathlib:mathlib_base.obj
 0001:00066050       ?VectorRotateSSE@@YAXPBMABUmatrix3x4_t@@PAM@Z 00467050 f   mathlib:mathlib_base.obj
 0001:000660e0       ?VectorToColorRGBExp32@@YAXABVVector@@AAUColorRGBExp32@@@Z 004670e0 f   mathlib:mathlib_base.obj
 0001:000661f0       ?VectorTransform@@YAXPBMABUmatrix3x4_t@@PAM@Z 004671f0 f   mathlib:mathlib_base.obj
 0001:00066290       ?VectorTransformSSE@@YAXPBMABUmatrix3x4_t@@PAM@Z 00467290 f   mathlib:mathlib_base.obj
 0001:00066330       ?VectorVectors@@YAXABVVector@@AAV1@1@Z 00467330 f   mathlib:mathlib_base.obj
 0001:00066450       ?VectorYawRotate@@YAXABVVector@@MAAV1@@Z 00467450 f   mathlib:mathlib_base.obj
 0001:00066510       ?VectorsEqual@@YAHPBM0@Z   00467510 f   mathlib:mathlib_base.obj
 0001:00066550       ?_3DNow_InvRSquared@@YAMPBM@Z 00467550 f   mathlib:mathlib_base.obj
 0001:000665a0       ?_3DNow_RSqrt@@YAMM@Z      004675a0 f   mathlib:mathlib_base.obj
 0001:000665c0       ?_3DNow_Sqrt@@YAMM@Z       004675c0 f   mathlib:mathlib_base.obj
 0001:000665f0       ?_3DNow_VectorNormalize@@YIMAAVVector@@@Z 004675f0 f   mathlib:mathlib_base.obj
 0001:00066680       ?_3DNow_VectorNormalizeFast@@YIXAAVVector@@@Z 00467680 f   mathlib:mathlib_base.obj
 0001:00066690       ?_SSE2_SinCos@@YAXMPAM0@Z  00467690 f   mathlib:mathlib_base.obj
 0001:000667b0       ?_SSE2_cos@@YAMM@Z         004677b0 f   mathlib:mathlib_base.obj
 0001:00066880       ?_SSE_InvRSquared@@YAMPBM@Z 00467880 f   mathlib:mathlib_base.obj
 0001:000668d0       ?_SSE_RSqrtAccurate@@YAMM@Z 004678d0 f i mathlib:mathlib_base.obj
 0001:00066920       ?_SSE_RSqrtFast@@YAMM@Z    00467920 f i mathlib:mathlib_base.obj
 0001:00066940       ?_SSE_SinCos@@YAXMPAM0@Z   00467940 f   mathlib:mathlib_base.obj
 0001:00066a80       ?_SSE_Sqrt@@YAMM@Z         00467a80 f   mathlib:mathlib_base.obj
 0001:00066aa0       ?_SSE_VectorMA@@YAXPBMM0PAM@Z 00467aa0 f   mathlib:mathlib_base.obj
 0001:00066ad0       ?_SSE_VectorNormalize@@YIMAAVVector@@@Z 00467ad0 f   mathlib:mathlib_base.obj
 0001:00066ba0       ?_SSE_VectorNormalizeFast@@YIXAAVVector@@@Z 00467ba0 f   mathlib:mathlib_base.obj
 0001:00066c40       ?_SSE_cos@@YAMM@Z          00467c40 f   mathlib:mathlib_base.obj
 0001:00066d10       ??0?$CUtlLinkedList@UList_t@?$CUtlMultiList@Uresource_lru_element_t@CDataManagerBase@@G@@G@@QAE@HH@Z 00467d10 f i tier1:datamanager.obj
 0001:00066d70       ??0?$CUtlMemory@UListElem_t@?$CUtlLinkedList@UList_t@?$CUtlMultiList@Uresource_lru_element_t@CDataManagerBase@@G@@G@@@@QAE@HH@Z 00467d70 f i tier1:datamanager.obj
 0001:00066db0       ??0?$CUtlMemory@UListElem_t@?$CUtlMultiList@Uresource_lru_element_t@CDataManagerBase@@G@@@@QAE@HH@Z 00467db0 f i tier1:datamanager.obj
 0001:00066df0       ??0?$CUtlMultiList@Uresource_lru_element_t@CDataManagerBase@@G@@QAE@HH@Z 00467df0 f i tier1:datamanager.obj
 0001:00066ea0       ??0CDataManagerBase@@IAE@I@Z 00467ea0 f   tier1:datamanager.obj
 0001:00067020       ??1?$CUtlLinkedList@UList_t@?$CUtlMultiList@Uresource_lru_element_t@CDataManagerBase@@G@@G@@QAE@XZ 00468020 f i tier1:datamanager.obj
 0001:000670e0       ??1?$CUtlMemory@UListElem_t@?$CUtlLinkedList@UList_t@?$CUtlMultiList@Uresource_lru_element_t@CDataManagerBase@@G@@G@@@@QAE@XZ 004680e0 f i tier1:datamanager.obj
 0001:00067140       ??1?$CUtlMemory@UListElem_t@?$CUtlMultiList@Uresource_lru_element_t@CDataManagerBase@@G@@@@QAE@XZ 00468140 f i tier1:datamanager.obj
 0001:000671a0       ??1?$CUtlMultiList@Uresource_lru_element_t@CDataManagerBase@@G@@QAE@XZ 004681a0 f i tier1:datamanager.obj
 0001:000672b0       ??1CDataManagerBase@@MAE@XZ 004682b0 f   tier1:datamanager.obj
 0001:000672c0       ??_ECDataManagerBase@@MAEPAXI@Z 004682c0 f i tier1:datamanager.obj
 0001:000672c0       ??_GCDataManagerBase@@MAEPAXI@Z 004682c0 f i tier1:datamanager.obj
 0001:000672f0       ?Alloc@?$CUtlMultiList@Uresource_lru_element_t@CDataManagerBase@@G@@QAEGXZ 004682f0 f i tier1:datamanager.obj
 0001:000673e0       ?AllocInternal@?$CUtlLinkedList@UList_t@?$CUtlMultiList@Uresource_lru_element_t@CDataManagerBase@@G@@G@@IAEG_N@Z 004683e0 f i tier1:datamanager.obj
 0001:000674d0       ?AvailableSize@CDataManagerBase@@QAEIXZ 004684d0 f   tier1:datamanager.obj
 0001:000674e0       ?BreakAllLocks@CDataManagerBase@@QAEHXZ 004684e0 f   tier1:datamanager.obj
 0001:00067570       ?BreakLock@CDataManagerBase@@QAEHPAUmemhandle_t__@@@Z 00468570 f   tier1:datamanager.obj
 0001:00067610       ?ConstructList@?$CUtlLinkedList@UList_t@?$CUtlMultiList@Uresource_lru_element_t@CDataManagerBase@@G@@G@@IAEXXZ 00468610 f i tier1:datamanager.obj
 0001:00067630       ?ConstructList@?$CUtlMultiList@Uresource_lru_element_t@CDataManagerBase@@G@@IAEXXZ 00468630 f i tier1:datamanager.obj
 0001:00067650       ?CreateHandle@CDataManagerBase@@IAEGXZ 00468650 f   tier1:datamanager.obj
 0001:000676e0       ?CreateList@?$CUtlMultiList@Uresource_lru_element_t@CDataManagerBase@@G@@QAEGXZ 004686e0 f i tier1:datamanager.obj
 0001:00067730       ?DestroyResource@CDataManagerBase@@QAEXPAUmemhandle_t__@@@Z 00468730 f   tier1:datamanager.obj
 0001:00067870       ?EnsureCapacity@CDataManagerBase@@QAEII@Z 00468870 f   tier1:datamanager.obj
 0001:000678d0       ?FlushAll@CDataManagerBase@@QAEIXZ 004688d0 f   tier1:datamanager.obj
 0001:000679a0       ?FlushAllUnlocked@CDataManagerBase@@QAEIXZ 004689a0 f   tier1:datamanager.obj
 0001:00067a10       ?FlushToTargetSize@CDataManagerBase@@QAEIXZ 00468a10 f   tier1:datamanager.obj
 0001:00067a70       ?FreeAllLists@CDataManagerBase@@IAEXXZ 00468a70 f   tier1:datamanager.obj
 0001:00067b30       ?FreeByIndex@CDataManagerBase@@IAEXG@Z 00468b30 f   tier1:datamanager.obj
 0001:00067bc0       ?FreeLRU@CDataManagerBase@@IAE_NXZ 00468bc0 f   tier1:datamanager.obj
 0001:00067c00       ?GetLRUHandleList@CDataManagerBase@@QAEXAAV?$CUtlVector@PAUmemhandle_t__@@V?$CUtlMemory@PAUmemhandle_t__@@@@@@@Z 00468c00 f   tier1:datamanager.obj
 0001:00067d00       ?GetLockHandleList@CDataManagerBase@@QAEXAAV?$CUtlVector@PAUmemhandle_t__@@V?$CUtlMemory@PAUmemhandle_t__@@@@@@@Z 00468d00 f   tier1:datamanager.obj
 0001:00067e00       ?GetResource_NoLock@CDataManagerBase@@IAEPAXPAUmemhandle_t__@@@Z 00468e00 f   tier1:datamanager.obj
 0001:00067ea0       ?GetResource_NoLockNoLRUTouch@CDataManagerBase@@IAEPAXPAUmemhandle_t__@@@Z 00468ea0 f   tier1:datamanager.obj
 0001:00067f00       ?Grow@?$CUtlMemory@PAUmemhandle_t__@@@@QAEXH@Z 00468f00 f i tier1:datamanager.obj
 0001:00067f70       ?Grow@?$CUtlMemory@UListElem_t@?$CUtlLinkedList@UList_t@?$CUtlMultiList@Uresource_lru_element_t@CDataManagerBase@@G@@G@@@@QAEXH@Z 00468f70 f i tier1:datamanager.obj
 0001:00067fe0       ?Grow@?$CUtlMemory@UListElem_t@?$CUtlMultiList@Uresource_lru_element_t@CDataManagerBase@@G@@@@QAEXH@Z 00468fe0 f i tier1:datamanager.obj
 0001:00068050       ?GrowVector@?$CUtlVector@PAUmemhandle_t__@@V?$CUtlMemory@PAUmemhandle_t__@@@@@@IAEXH@Z 00469050 f i tier1:datamanager.obj
 0001:000680e0       ?InsertBefore@?$CUtlLinkedList@UList_t@?$CUtlMultiList@Uresource_lru_element_t@CDataManagerBase@@G@@G@@QAEGG@Z 004690e0 f i tier1:datamanager.obj
 0001:00068110       ?InsertBefore@?$CUtlMultiList@Uresource_lru_element_t@CDataManagerBase@@G@@QAEGGG@Z 00469110 f i tier1:datamanager.obj
 0001:00068150       ?InsertBefore@?$CUtlVector@PAUmemhandle_t__@@V?$CUtlMemory@PAUmemhandle_t__@@@@@@QAEHHABQAUmemhandle_t__@@@Z 00469150 f i tier1:datamanager.obj
 0001:00068200       ?IsExternallyAllocated@?$CUtlMemory@PAUmemhandle_t__@@@@QBE_NXZ 00469200 f i tier1:datamanager.obj
 0001:00068210       ?IsExternallyAllocated@?$CUtlMemory@UListElem_t@?$CUtlLinkedList@UList_t@?$CUtlMultiList@Uresource_lru_element_t@CDataManagerBase@@G@@G@@@@QBE_NXZ 00469210 f i tier1:datamanager.obj
 0001:00068220       ?IsExternallyAllocated@?$CUtlMemory@UListElem_t@?$CUtlMultiList@Uresource_lru_element_t@CDataManagerBase@@G@@@@QBE_NXZ 00469220 f i tier1:datamanager.obj
 0001:00068230       ?LinkAfter@?$CUtlMultiList@Uresource_lru_element_t@CDataManagerBase@@G@@QAEXGGG@Z 00469230 f i tier1:datamanager.obj
 0001:000682f0       ?LinkBefore@?$CUtlLinkedList@UList_t@?$CUtlMultiList@Uresource_lru_element_t@CDataManagerBase@@G@@G@@QAEXGG@Z 004692f0 f i tier1:datamanager.obj
 0001:000683e0       ?LinkBefore@?$CUtlMultiList@Uresource_lru_element_t@CDataManagerBase@@G@@QAEXGGG@Z 004693e0 f i tier1:datamanager.obj
 0001:000684a0       ?LockByIndex@CDataManagerBase@@IAEPAXG@Z 004694a0 f   tier1:datamanager.obj
 0001:00068510       ?LockResource@CDataManagerBase@@IAEPAXPAUmemhandle_t__@@@Z 00469510 f   tier1:datamanager.obj
 0001:000685b0       ?MarkAsStale@CDataManagerBase@@QAEXPAUmemhandle_t__@@@Z 004695b0 f   tier1:datamanager.obj
 0001:000686b0       ?MarkAsStaleByIndex@CDataManagerBase@@IAEXG@Z 004696b0 f   tier1:datamanager.obj
 0001:00068780       ?Purge@?$CUtlMemory@UListElem_t@?$CUtlLinkedList@UList_t@?$CUtlMultiList@Uresource_lru_element_t@CDataManagerBase@@G@@G@@@@QAEXXZ 00469780 f i tier1:datamanager.obj
 0001:000687b0       ?Purge@?$CUtlMemory@UListElem_t@?$CUtlMultiList@Uresource_lru_element_t@CDataManagerBase@@G@@@@QAEXXZ 004697b0 f i tier1:datamanager.obj
 0001:000687e0       ?Purge@CDataManagerBase@@QAEII@Z 004697e0 f   tier1:datamanager.obj
 0001:00068850       ?RemoveAll@?$CUtlLinkedList@UList_t@?$CUtlMultiList@Uresource_lru_element_t@CDataManagerBase@@G@@G@@QAEXXZ 00469850 f i tier1:datamanager.obj
 0001:000688b0       ?RemoveAll@?$CUtlMultiList@Uresource_lru_element_t@CDataManagerBase@@G@@QAEXXZ 004698b0 f i tier1:datamanager.obj
 0001:00068940       ?SetTargetSize@CDataManagerBase@@QAEXI@Z 00469940 f   tier1:datamanager.obj
 0001:00068950       ?ShiftElementsRight@?$CUtlVector@PAUmemhandle_t__@@V?$CUtlMemory@PAUmemhandle_t__@@@@@@IAEXHH@Z 00469950 f i tier1:datamanager.obj
 0001:00068990       ?StoreResourceInHandle@CDataManagerBase@@IAEPAUmemhandle_t__@@GPAXI@Z 00469990 f   tier1:datamanager.obj
 0001:000689d0       ?TargetSize@CDataManagerBase@@QAEIXZ 004699d0 f   tier1:datamanager.obj
 0001:000689e0       ?ToHandle@CDataManagerBase@@IAEPAUmemhandle_t__@@G@Z 004699e0 f   tier1:datamanager.obj
 0001:00068a10       ?TouchByIndex@CDataManagerBase@@IAEXG@Z 00469a10 f   tier1:datamanager.obj
 0001:00068a60       ?TouchResource@CDataManagerBase@@QAEXPAUmemhandle_t__@@@Z 00469a60 f   tier1:datamanager.obj
 0001:00068ae0       ?Unlink@?$CUtlLinkedList@UList_t@?$CUtlMultiList@Uresource_lru_element_t@CDataManagerBase@@G@@G@@QAEXG@Z 00469ae0 f i tier1:datamanager.obj
 0001:00068b60       ?Unlink@?$CUtlMultiList@Uresource_lru_element_t@CDataManagerBase@@G@@QAEXGG@Z 00469b60 f i tier1:datamanager.obj
 0001:00068c30       ?UnlockByIndex@CDataManagerBase@@IAEHG@Z 00469c30 f   tier1:datamanager.obj
 0001:00068cb0       ?UnlockResource@CDataManagerBase@@QAEHPAUmemhandle_t__@@@Z 00469cb0 f   tier1:datamanager.obj
 0001:00068d60       ?UsedSize@CDataManagerBase@@QAEIXZ 00469d60 f   tier1:datamanager.obj
 0001:00068d70       ?CharacterSetBuild@@YAXPAUcharacterset_s@@PBD@Z 00469d70 f   tier1:characterset.obj
 0001:00068dc0       ?AddToTail@?$CUtlVector@PADV?$CUtlMemory@PAD@@@@QAEHABQAD@Z 00469dc0 f i tier1:strtools.obj
 0001:00068e70       ?AllocString@@YAPADPBDH@Z  00469e70 f   tier1:strtools.obj
 0001:00068f50       ?Grow@?$CUtlMemory@PAD@@QAEXH@Z 00469f50 f i tier1:strtools.obj
 0001:00068fc0       ?GrowVector@?$CUtlVector@PADV?$CUtlMemory@PAD@@@@IAEXH@Z 00469fc0 f i tier1:strtools.obj
 0001:00069050       ?InsertBefore@?$CUtlVector@PADV?$CUtlMemory@PAD@@@@QAEHHABQAD@Z 0046a050 f i tier1:strtools.obj
 0001:00069100       ?IsExternallyAllocated@?$CUtlMemory@PAD@@QBE_NXZ 0046a100 f i tier1:strtools.obj
 0001:00069110       ?Purge@?$CUtlMemory@PAD@@QAEXXZ 0046a110 f i tier1:strtools.obj
 0001:00069140       ?RemoveAll@?$CUtlVector@PADV?$CUtlMemory@PAD@@@@QAEXXZ 0046a140 f i tier1:strtools.obj
 0001:00069150       ?ShiftElementsRight@?$CUtlVector@PADV?$CUtlMemory@PAD@@@@IAEXHH@Z 0046a150 f i tier1:strtools.obj
 0001:00069190       ?V_AppendSlash@@YAXPADH@Z  0046a190 f   tier1:strtools.obj
 0001:000691e0       ?V_ComposeFileName@@YAXPBD0PADH@Z 0046a1e0 f   tier1:strtools.obj
 0001:000692e0       ?V_DefaultExtension@@YAXPADPBDH@Z 0046a2e0 f   tier1:strtools.obj
 0001:00069390       ?V_ExtractFileExtension@@YAXPBDPADH@Z 0046a390 f   tier1:strtools.obj
 0001:00069400       ?V_ExtractFilePath@@YA_NPBDPADH@Z 0046a400 f   tier1:strtools.obj
 0001:00069470       ?V_FileBase@@YAXPBDPADH@Z  0046a470 f   tier1:strtools.obj
 0001:00069530       ?V_FixSlashes@@YAXPADD@Z   0046a530 f   tier1:strtools.obj
 0001:00069560       ?V_GetFileExtension@@YAPBDPBD@Z 0046a560 f   tier1:strtools.obj
 0001:000695b0       ?V_IsAbsolutePath@@YA_NPBD@Z 0046a5b0 f   tier1:strtools.obj
 0001:000695e0       ?V_MakeAbsolutePath@@YAXPADHPBD1@Z 0046a5e0 f   tier1:strtools.obj
 0001:00069780       ?V_RemoveDotSlashes@@YA_NPAD@Z 0046a780 f   tier1:strtools.obj
 0001:000698a0       ?V_SetExtension@@YAXPADPBDH@Z 0046a8a0 f   tier1:strtools.obj
 0001:00069990       ?V_SplitString2@@YAXPBDPAPBDHAAV?$CUtlVector@PADV?$CUtlMemory@PAD@@@@@Z 0046a990 f   tier1:strtools.obj
 0001:00069bd0       ?V_SplitString@@YAXPBD0AAV?$CUtlVector@PADV?$CUtlMemory@PAD@@@@@Z 0046abd0 f   tier1:strtools.obj
 0001:00069bf0       ?V_StrLeft@@YAXPBDHPADH@Z  0046abf0 f   tier1:strtools.obj
 0001:00069c20       ?V_StrRight@@YAXPBDHPADH@Z 0046ac20 f   tier1:strtools.obj
 0001:00069ca0       ?V_StrSlice@@YAXPBDHHPADH@Z 0046aca0 f   tier1:strtools.obj
 0001:00069d40       ?V_StrSubst@@YA_NPBD00PADH_N@Z 0046ad40 f   tier1:strtools.obj
 0001:00069e60       ?V_StripExtension@@YAXPBDPADH@Z 0046ae60 f   tier1:strtools.obj
 0001:00069f00       ?V_StripFilename@@YAXPAD@Z 0046af00 f   tier1:strtools.obj
 0001:00069f40       ?V_StripLastDir@@YA_NPADH@Z 0046af40 f   tier1:strtools.obj
 0001:00069ff0       ?V_StripTrailingSlash@@YAXPAD@Z 0046aff0 f   tier1:strtools.obj
 0001:0006a030       ?V_UTF8ToUnicode@@YAHPBDPA_WH@Z 0046b030 f   tier1:strtools.obj
 0001:0006a080       ?V_UnicodeToUTF8@@YAHPB_WPADH@Z 0046b080 f   tier1:strtools.obj
 0001:0006a0d0       ?V_UnqualifiedFileName@@YAPBDPBD@Z 0046b0d0 f   tier1:strtools.obj
 0001:0006a110       ?V_atof@@YAMPBD@Z          0046b110 f   tier1:strtools.obj
 0001:0006a330       ?V_atoi@@YAHPBD@Z          0046b330 f   tier1:strtools.obj
 0001:0006a400       ?V_binarytohex@@YAXPBEHPADH@Z 0046b400 f   tier1:strtools.obj
 0001:0006a4d0       ?V_hextobinary@@YAXPBDHPAEH@Z 0046b4d0 f   tier1:strtools.obj
 0001:0006a590       ?V_normalizeFloatString@@YAXPAD@Z 0046b590 f   tier1:strtools.obj
 0001:0006a5f0       ?V_pretifymem@@YAPADMH_N@Z 0046b5f0 f   tier1:strtools.obj
 0001:0006a7b0       ?V_pretifynum@@YAPAD_J@Z   0046b7b0 f   tier1:strtools.obj
 0001:0006aaf0       ?V_snprintf@@YAHPADHPBDZZ  0046baf0 f   tier1:strtools.obj
 0001:0006ab50       ?V_strcasecmp@@YAHPBD0@Z   0046bb50 f   tier1:strtools.obj
 0001:0006ab90       ?V_stristr@@YAPADPADPBD@Z  0046bb90 f   tier1:strtools.obj
 0001:0006abc0       ?V_stristr@@YAPBDPBD0@Z    0046bbc0 f   tier1:strtools.obj
 0001:0006ac90       ?V_strncasecmp@@YAHPBD0H@Z 0046bc90 f   tier1:strtools.obj
 0001:0006ad20       ?V_strncat@@YAPADPADPBDIH@Z 0046bd20 f   tier1:strtools.obj
 0001:0006adb0       ?V_strnchr@@YAPBDPBDDH@Z   0046bdb0 f   tier1:strtools.obj
 0001:0006ade0       ?V_strncmp@@YAHPBD0H@Z     0046bde0 f   tier1:strtools.obj
 0001:0006ae40       ?V_strncpy@@YAXPADPBDH@Z   0046be40 f   tier1:strtools.obj
 0001:0006ae80       ?V_strnicmp@@YAHPBD0H@Z    0046be80 f   tier1:strtools.obj
 0001:0006aeb0       ?V_strnistr@@YAPBDPBD0H@Z  0046beb0 f   tier1:strtools.obj
 0001:0006afa0       ?V_strnlwr@@YAPADPADI@Z    0046bfa0 f   tier1:strtools.obj
 0001:0006afe0       ?V_strtowcs@@YAXPBDHPA_WH@Z 0046bfe0 f   tier1:strtools.obj
 0001:0006b010       ?V_vsnprintf@@YAHPADHPBD0@Z 0046c010 f   tier1:strtools.obj
 0001:0006b070       ?V_wcsncpy@@YAXPA_WPB_WH@Z 0046c070 f   tier1:strtools.obj
 0001:0006b0b0       ?V_wcstostr@@YAXPB_WHPADH@Z 0046c0b0 f   tier1:strtools.obj
 0001:0006b0e0       ?_V_memcmp@@YAHPBDHPBX1H@Z 0046c0e0 f   tier1:strtools.obj
 0001:0006b170       ?_V_memcpy@@YAXPBDHPAXPBXH@Z 0046c170 f   tier1:strtools.obj
 0001:0006b1a0       ?_V_memmove@@YAXPBDHPAXPBXH@Z 0046c1a0 f   tier1:strtools.obj
 0001:0006b1d0       ?_V_memset@@YAXPBDHPAXHH@Z 0046c1d0 f   tier1:strtools.obj
 0001:0006b200       ?_V_strcmp@@YAHPBDH00@Z    0046c200 f   tier1:strtools.obj
 0001:0006b260       ?_V_strcpy@@YAXPBDHPAD0@Z  0046c260 f   tier1:strtools.obj
 0001:0006b2a0       ?_V_stricmp@@YAHPBDH00@Z   0046c2a0 f   tier1:strtools.obj
 0001:0006b2d0       ?_V_strlen@@YAHPBDH0@Z     0046c2d0 f   tier1:strtools.obj
 0001:0006b300       ?_V_strlower@@YAPADPBDHPAD@Z 0046c300 f   tier1:strtools.obj
 0001:0006b320       ?_V_strrchr@@YAPADPBDH0D@Z 0046c320 f   tier1:strtools.obj
 0001:0006b370       ?_V_strstr@@YAPADPBDH00@Z  0046c370 f   tier1:strtools.obj
 0001:0006b3a0       ?_V_strupr@@YAPADPBDHPAD@Z 0046c3a0 f   tier1:strtools.obj
 0001:0006b3c0       ?_V_wcscmp@@YAHPBDHPB_W1@Z 0046c3c0 f   tier1:strtools.obj
 0001:0006b400       ?_V_wcslen@@YAHPBDHPB_W@Z  0046c400 f   tier1:strtools.obj
 0001:0006b430       ??0InterfaceReg@@QAE@P6APAXXZPBD@Z 0046c430 f   tier1:interface.obj
 0001:0006b460       ?Sys_GetFactory@@YAP6APAXPBDPAH@Z0@Z 0046c460 f   tier1:interface.obj
 0001:0006b480       ?Sys_GetFactory@@YAP6APAXPBDPAH@ZPAVCSysModule@@@Z 0046c480 f   tier1:interface.obj
 0001:0006b4a0       ?Sys_GetFactoryThis@@YAP6APAXPBDPAH@ZXZ 0046c4a0 f   tier1:interface.obj
 0001:0006b4b0       ?Sys_LoadInterface@@YA_NPBD0PAPAVCSysModule@@PAPAX@Z 0046c4b0 f   tier1:interface.obj
 0001:0006b660       ?Sys_LoadLibrary@@YAPAUHINSTANCE__@@PBD@Z 0046c660 f   tier1:interface.obj
 0001:0006b6f0       ?Sys_LoadModule@@YAPAVCSysModule@@PBD@Z 0046c6f0 f   tier1:interface.obj
 0001:0006b830       ?Sys_UnloadModule@@YAXPAVCSysModule@@@Z 0046c830 f   tier1:interface.obj
 0001:0006b850       _CreateInterface           0046c850 f   tier1:interface.obj
 0001:0006b8c0       ??$GetType@E@CUtlBuffer@@IAEXAAEPBD@Z 0046c8c0 f i tier1:KeyValues.obj
 0001:0006b920       ??$GetType@H@CUtlBuffer@@IAEXAAHPBD@Z 0046c920 f i tier1:KeyValues.obj
 0001:0006b980       ??$GetType@I@CUtlBuffer@@IAEXAAIPBD@Z 0046c980 f i tier1:KeyValues.obj
 0001:0006b9e0       ??$GetType@M@CUtlBuffer@@IAEXAAMPBD@Z 0046c9e0 f i tier1:KeyValues.obj
 0001:0006ba40       ??$GetType@N@CUtlBuffer@@IAEXAANPBD@Z 0046ca40 f i tier1:KeyValues.obj
 0001:0006baa0       ??$PutType@E@CUtlBuffer@@IAEXEPBD@Z 0046caa0 f i tier1:KeyValues.obj
 0001:0006baf0       ??$PutType@H@CUtlBuffer@@IAEXHPBD@Z 0046caf0 f i tier1:KeyValues.obj
 0001:0006bb60       ??$PutType@I@CUtlBuffer@@IAEXIPBD@Z 0046cb60 f i tier1:KeyValues.obj
 0001:0006bbd0       ??$PutType@M@CUtlBuffer@@IAEXMPBD@Z 0046cbd0 f i tier1:KeyValues.obj
 0001:0006bc50       ??$PutType@N@CUtlBuffer@@IAEXNPBD@Z 0046cc50 f i tier1:KeyValues.obj
 0001:0006bcd0       ??$PutTypeBin@E@CUtlBuffer@@IAEXE@Z 0046ccd0 f i tier1:KeyValues.obj
 0001:0006bd00       ??$PutTypeBin@H@CUtlBuffer@@IAEXH@Z 0046cd00 f i tier1:KeyValues.obj
 0001:0006bd50       ??$PutTypeBin@I@CUtlBuffer@@IAEXI@Z 0046cd50 f i tier1:KeyValues.obj
 0001:0006bda0       ??$PutTypeBin@M@CUtlBuffer@@IAEXM@Z 0046cda0 f i tier1:KeyValues.obj
 0001:0006bdf0       ??$PutTypeBin@N@CUtlBuffer@@IAEXN@Z 0046cdf0 f i tier1:KeyValues.obj
 0001:0006be40       ??0?$CUtlMemory@PAVKeyValues@@@@QAE@HH@Z 0046ce40 f i tier1:KeyValues.obj
 0001:0006be80       ??0KeyValues@@QAE@PBD0000@Z 0046ce80 f   tier1:KeyValues.obj
 0001:0006bfb0       ??0KeyValues@@QAE@PBD00@Z  0046cfb0 f   tier1:KeyValues.obj
 0001:0006c080       ??0KeyValues@@QAE@PBD0H0H@Z 0046d080 f   tier1:KeyValues.obj
 0001:0006c120       ??0KeyValues@@QAE@PBD0H@Z  0046d120 f   tier1:KeyValues.obj
 0001:0006c1a0       ??0KeyValues@@QAE@PBD0PB_W@Z 0046d1a0 f   tier1:KeyValues.obj
 0001:0006c210       ??0KeyValues@@QAE@PBD@Z    0046d210 f   tier1:KeyValues.obj
 0001:0006c280       ??1?$CUtlMemory@PAVKeyValues@@@@QAE@XZ 0046d280 f i tier1:KeyValues.obj
 0001:0006c2e0       ??1?$CUtlVector@PAVKeyValues@@V?$CUtlMemory@PAVKeyValues@@@@@@QAE@XZ 0046d2e0 f i tier1:KeyValues.obj
 0001:0006c380       ??1CKeyErrorContext@@QAE@XZ 0046d380 f i tier1:KeyValues.obj
 0001:0006c390       ??1CUtlBuffer@@QAE@XZ      0046d390 f i tier1:KeyValues.obj
 0001:0006c400       ??1KeyValues@@AAE@XZ       0046d400 f   tier1:KeyValues.obj
 0001:0006c440       ??2KeyValues@@SAPAXI@Z     0046d440 f   tier1:KeyValues.obj
 0001:0006c460       ??2KeyValues@@SAPAXIHPBDH@Z 0046d460 f   tier1:KeyValues.obj
 0001:0006c480       ??3KeyValues@@SAXPAX@Z     0046d480 f   tier1:KeyValues.obj
 0001:0006c4d0       ??3KeyValues@@SAXPAXHPBDH@Z 0046d4d0 f   tier1:KeyValues.obj
 0001:0006c520       ??4KeyValues@@QAEAAV0@AAV0@@Z 0046d520 f   tier1:KeyValues.obj
 0001:0006c580       ?AddSubKey@KeyValues@@QAEXPAV1@@Z 0046d580 f   tier1:KeyValues.obj
 0001:0006c5c0       ?AppendIncludedKeys@KeyValues@@AAEXAAV?$CUtlVector@PAVKeyValues@@V?$CUtlMemory@PAVKeyValues@@@@@@@Z 0046d5c0 f   tier1:KeyValues.obj
 0001:0006c600       ?ChainKeyValue@KeyValues@@QAEXPAV1@@Z 0046d600 f   tier1:KeyValues.obj
 0001:0006c610       ?Clear@KeyValues@@QAEXXZ   0046d610 f   tier1:KeyValues.obj
 0001:0006c690       ?CopySubkeys@KeyValues@@QBEXPAV1@@Z 0046d690 f   tier1:KeyValues.obj
 0001:0006c850       ?CreateKey@KeyValues@@AAEPAV1@PBD@Z 0046d850 f   tier1:KeyValues.obj
 0001:0006c900       ?CreateNewKey@KeyValues@@QAEPAV1@XZ 0046d900 f   tier1:KeyValues.obj
 0001:0006c990       ?FindKey@KeyValues@@QAEPAV1@PBD_N@Z 0046d990 f   tier1:KeyValues.obj
 0001:0006cb10       ?FindKey@KeyValues@@QBEPAV1@H@Z 0046db10 f   tier1:KeyValues.obj
 0001:0006cb40       ?GetColor@KeyValues@@QAE?AVColor@@PBD@Z 0046db40 f   tier1:KeyValues.obj
 0001:0006cc10       ?GetDataType@KeyValues@@QAE?AW4types_t@1@PBD@Z 0046dc10 f   tier1:KeyValues.obj
 0001:0006cc30       ?GetFirstSubKey@KeyValues@@QAEPAV1@XZ 0046dc30 f   tier1:KeyValues.obj
 0001:0006cc40       ?GetFirstTrueSubKey@KeyValues@@QAEPAV1@XZ 0046dc40 f   tier1:KeyValues.obj
 0001:0006cc60       ?GetFirstValue@KeyValues@@QAEPAV1@XZ 0046dc60 f   tier1:KeyValues.obj
 0001:0006cc80       ?GetFloat@KeyValues@@QAEMPBDM@Z 0046dc80 f   tier1:KeyValues.obj
 0001:0006cd20       ?GetInt@KeyValues@@QAEHPBDH@Z 0046dd20 f   tier1:KeyValues.obj
 0001:0006cda0       ?GetName@KeyValues@@QBEPBDXZ 0046dda0 f   tier1:KeyValues.obj
 0001:0006cdc0       ?GetNameSymbol@KeyValues@@QBEHXZ 0046ddc0 f   tier1:KeyValues.obj
 0001:0006cdd0       ?GetNextKey@KeyValues@@QAEPAV1@XZ 0046ddd0 f   tier1:KeyValues.obj
 0001:0006cde0       ?GetNextTrueSubKey@KeyValues@@QAEPAV1@XZ 0046dde0 f   tier1:KeyValues.obj
 0001:0006ce00       ?GetNextValue@KeyValues@@QAEPAV1@XZ 0046de00 f   tier1:KeyValues.obj
 0001:0006ce20       ?GetPtr@KeyValues@@QAEPAXPBDPAX@Z 0046de20 f   tier1:KeyValues.obj
 0001:0006ce80       ?GetString@KeyValues@@QAEPBDPBD0@Z 0046de80 f   tier1:KeyValues.obj
 0001:0006cfd0       ?GetUint64@KeyValues@@QAE_KPBD_K@Z 0046dfd0 f   tier1:KeyValues.obj
 0001:0006d060       ?GetUnsignedChar@CUtlBuffer@@QAEEXZ 0046e060 f i tier1:KeyValues.obj
 0001:0006d0c0       ?GetWString@KeyValues@@QAEPB_WPBDPB_W@Z 0046e0c0 f   tier1:KeyValues.obj
 0001:0006d210       ?Grow@?$CUtlMemory@PAVKeyValues@@@@QAEXH@Z 0046e210 f i tier1:KeyValues.obj
 0001:0006d280       ?GrowVector@?$CUtlVector@PAVKeyValues@@V?$CUtlMemory@PAVKeyValues@@@@@@IAEXH@Z 0046e280 f i tier1:KeyValues.obj
 0001:0006d310       ?Init@KeyValues@@AAEXXZ    0046e310 f   tier1:KeyValues.obj
 0001:0006d360       ?InsertBefore@?$CUtlVector@PAVKeyValues@@V?$CUtlMemory@PAVKeyValues@@@@@@QAEHHABQAVKeyValues@@@Z 0046e360 f i tier1:KeyValues.obj
 0001:0006d410       ?InternalWrite@KeyValues@@AAEXPAVIBaseFileSystem@@PAXPAVCUtlBuffer@@PBXH@Z 0046e410 f   tier1:KeyValues.obj
 0001:0006d440       ?IsEmpty@KeyValues@@QAE_NPBD@Z 0046e440 f   tier1:KeyValues.obj
 0001:0006d470       ?IsExternallyAllocated@?$CUtlMemory@PAVKeyValues@@@@QBE_NXZ 0046e470 f i tier1:KeyValues.obj
 0001:0006d480       ?LoadFromBuffer@KeyValues@@QAE_NPBD0PAVIBaseFileSystem@@0@Z 0046e480 f   tier1:KeyValues.obj
 0001:0006d540       ?LoadFromBuffer@KeyValues@@QAE_NPBDAAVCUtlBuffer@@PAVIBaseFileSystem@@0@Z 0046e540 f   tier1:KeyValues.obj
 0001:0006d870       ?LoadFromFile@KeyValues@@QAE_NPAVIBaseFileSystem@@PBD1@Z 0046e870 f   tier1:KeyValues.obj
 0001:0006d9f0       ?MakeCopy@KeyValues@@QBEPAV1@XZ 0046e9f0 f   tier1:KeyValues.obj
 0001:0006db70       ?ParseIncludedKeys@KeyValues@@AAEXPBD0PAVIBaseFileSystem@@0AAV?$CUtlVector@PAVKeyValues@@V?$CUtlMemory@PAVKeyValues@@@@@@@Z 0046eb70 f   tier1:KeyValues.obj
 0001:0006dda0       ?Purge@?$CUtlMemory@PAVKeyValues@@@@QAEXXZ 0046eda0 f i tier1:KeyValues.obj
 0001:0006ddd0       ?PutLittleEndianData@CUtlBuffer@@IAEXHPAX@Z 0046edd0 f i tier1:KeyValues.obj
 0001:0006de10       ?ReadAsBinary@KeyValues@@QAE_NAAVCUtlBuffer@@@Z 0046ee10 f   tier1:KeyValues.obj
 0001:0006e440       ?ReadToken@KeyValues@@AAEPBDAAVCUtlBuffer@@AA_N@Z 0046f440 f   tier1:KeyValues.obj
 0001:0006e5b0       ?RecursiveCopyKeyValues@KeyValues@@AAEXAAV1@@Z 0046f5b0 f   tier1:KeyValues.obj
 0001:0006e7e0       ?RecursiveLoadFromBuffer@KeyValues@@AAEXPBDAAVCUtlBuffer@@@Z 0046f7e0 f   tier1:KeyValues.obj
 0001:0006ea30       ?RecursiveSaveToFile@KeyValues@@AAEXPAVIBaseFileSystem@@PAXPAVCUtlBuffer@@H@Z 0046fa30 f   tier1:KeyValues.obj
 0001:0006f350       ?RecursiveSaveToFile@KeyValues@@QAEXAAVCUtlBuffer@@H@Z 00470350 f   tier1:KeyValues.obj
 0001:0006f370       ?RemoveAll@?$CUtlVector@PAVKeyValues@@V?$CUtlMemory@PAVKeyValues@@@@@@QAEXXZ 00470370 f i tier1:KeyValues.obj
 0001:0006f380       ?RemoveEverything@KeyValues@@AAEXXZ 00470380 f   tier1:KeyValues.obj
 0001:0006f470       ?RemoveSubKey@KeyValues@@QAEXPAV1@@Z 00470470 f   tier1:KeyValues.obj
 0001:0006f4d0       ?ReportError@CKeyValuesErrorStack@@QAEXPBD@Z 004704d0 f i tier1:KeyValues.obj
 0001:0006f560       ?SaveToFile@KeyValues@@QAE_NPAVIBaseFileSystem@@PBD1@Z 00470560 f   tier1:KeyValues.obj
 0001:0006f5e0       ?SetColor@KeyValues@@QAEXPBDVColor@@@Z 004705e0 f   tier1:KeyValues.obj
 0001:0006f620       ?SetFloat@KeyValues@@QAEXPBDM@Z 00470620 f   tier1:KeyValues.obj
 0001:0006f650       ?SetInt@KeyValues@@QAEXPBDH@Z 00470650 f   tier1:KeyValues.obj
 0001:0006f670       ?SetName@KeyValues@@QAEXPBD@Z 00470670 f   tier1:KeyValues.obj
 0001:0006f690       ?SetNextKey@KeyValues@@QAEXPAV1@@Z 00470690 f   tier1:KeyValues.obj
 0001:0006f6a0       ?SetPtr@KeyValues@@QAEXPBDPAX@Z 004706a0 f   tier1:KeyValues.obj
 0001:0006f6c0       ?SetString@KeyValues@@QAEXPBD0@Z 004706c0 f   tier1:KeyValues.obj
 0001:0006f730       ?SetStringValue@KeyValues@@QAEXPBD@Z 00470730 f   tier1:KeyValues.obj
 0001:0006f790       ?SetUint64@KeyValues@@QAEXPBD_K@Z 00470790 f   tier1:KeyValues.obj
 0001:0006f7e0       ?SetWString@KeyValues@@QAEXPBDPB_W@Z 004707e0 f   tier1:KeyValues.obj
 0001:0006f870       ?ShiftElementsRight@?$CUtlVector@PAVKeyValues@@V?$CUtlMemory@PAVKeyValues@@@@@@IAEXHH@Z 00470870 f i tier1:KeyValues.obj
 0001:0006f8b0       ?UsesEscapeSequences@KeyValues@@QAEX_N@Z 004708b0 f   tier1:KeyValues.obj
 0001:0006f8c0       ?WriteAsBinary@KeyValues@@QAE_NAAVCUtlBuffer@@@Z 004708c0 f   tier1:KeyValues.obj
 0001:0006fc60       ?WriteConvertedString@KeyValues@@AAEXPAVIBaseFileSystem@@PAXPAVCUtlBuffer@@PBD@Z 00470c60 f   tier1:KeyValues.obj
 0001:0006fd10       ?WriteIndents@KeyValues@@AAEXPAVIBaseFileSystem@@PAXPAVCUtlBuffer@@H@Z 00470d10 f   tier1:KeyValues.obj
 0001:0006fd80       ?__empty_global_delete@@YAXPAX@Z 00470d80 f i tier1:KeyValues.obj
 0001:0006fd90       ?__empty_global_delete@@YAXPAXI@Z 00470d90 f i tier1:KeyValues.obj
 0001:0006fd90       ?__global_delete@@YAXPAXI@Z 00470d90 f i tier1:KeyValues.obj
 0001:0006fda0       ?deleteThis@KeyValues@@QAEXXZ 00470da0 f   tier1:KeyValues.obj
 0001:0006fe00       ?swprintf@@YAHQA_WQB_WZZ   00470e00 f i tier1:KeyValues.obj
 0001:0006fe30       ?FindConversion@CUtlNoEscConversion@@UAEDPBDPAH@Z 00470e30 f i tier1:utlbuffer.obj
 0001:0006fe50       ??$GetType@D@CUtlBuffer@@IAEXAADPBD@Z 00470e50 f i tier1:utlbuffer.obj
 0001:0006feb0       ??$PutTypeBin@D@CUtlBuffer@@IAEXD@Z 00470eb0 f i tier1:utlbuffer.obj
 0001:0006ff50       ??0?$CUtlMemory@E@@QAE@HH@Z 00470f50 f i tier1:utlbuffer.obj
 0001:0006ff90       ??0?$CUtlMemory@E@@QAE@PAEH@Z 00470f90 f i tier1:utlbuffer.obj
 0001:0006ffb0       ??0CUtlBuffer@@QAE@HHH@Z   00470fb0 f   tier1:utlbuffer.obj
 0001:000700b0       ??0CUtlBuffer@@QAE@PBXHH@Z 004710b0 f   tier1:utlbuffer.obj
 0001:00070190       ??0CUtlCStringConversion@@QAE@DPBDHPAUConversionArray_t@CUtlCharConversion@@@Z 00471190 f   tier1:utlbuffer.obj
 0001:000701f0       ??0CUtlCharConversion@@QAE@DPBDHPAUConversionArray_t@0@@Z 004711f0 f   tier1:utlbuffer.obj
 0001:00070290       ?AddNullTermination@CUtlBuffer@@IAEXXZ 00471290 f   tier1:utlbuffer.obj
 0001:000702e0       ?CheckArbitraryPeekGet@CUtlBuffer@@IAE_NHAAH@Z 004712e0 f   tier1:utlbuffer.obj
 0001:00070350       ?CheckGet@CUtlBuffer@@IAE_NH@Z 00471350 f   tier1:utlbuffer.obj
 0001:000703b0       ?CheckPeekGet@CUtlBuffer@@IAE_NHH@Z 004713b0 f   tier1:utlbuffer.obj
 0001:000703e0       ?CheckPut@CUtlBuffer@@IAE_NH@Z 004713e0 f   tier1:utlbuffer.obj
 0001:00070430       ?ConvertCRLF@CUtlBuffer@@QAE_NAAV1@@Z 00471430 f   tier1:utlbuffer.obj
 0001:000708c0       ?ConvertToGrowableMemory@?$CUtlMemory@E@@QAEXH@Z 004718c0 f i tier1:utlbuffer.obj
 0001:00070910       ?EatCPPComment@CUtlBuffer@@QAE_NXZ 00471910 f   tier1:utlbuffer.obj
 0001:000709e0       ?EatWhiteSpace@CUtlBuffer@@QAEXXZ 004719e0 f   tier1:utlbuffer.obj
 0001:00070a50       ?EnsureCapacity@CUtlBuffer@@QAEXH@Z 00471a50 f   tier1:utlbuffer.obj
 0001:00070ab0       ?FindConversion@CUtlCStringConversion@@UAEDPBDPAH@Z 00471ab0 f   tier1:utlbuffer.obj
 0001:00070ad0       ?FindConversion@CUtlCharConversion@@UAEDPBDPAH@Z 00471ad0 f   tier1:utlbuffer.obj
 0001:00070b60       ?Get@CUtlBuffer@@QAEXPAXH@Z 00471b60 f   tier1:utlbuffer.obj
 0001:00070ba0       ?GetCStringCharConversion@@YAPAVCUtlCharConversion@@XZ 00471ba0 f   tier1:utlbuffer.obj
 0001:00070bb0       ?GetChar@CUtlBuffer@@QAEDXZ 00471bb0 f i tier1:utlbuffer.obj
 0001:00070c10       ?GetConversionLength@CUtlCharConversion@@QBEHD@Z 00471c10 f   tier1:utlbuffer.obj
 0001:00070c30       ?GetConversionString@CUtlCharConversion@@QBEPBDD@Z 00471c30 f   tier1:utlbuffer.obj
 0001:00070c50       ?GetDelimitedChar@CUtlBuffer@@QAEDPAVCUtlCharConversion@@@Z 00471c50 f   tier1:utlbuffer.obj
 0001:00070c80       ?GetDelimitedCharInternal@CUtlBuffer@@IAEDPAVCUtlCharConversion@@@Z 00471c80 f   tier1:utlbuffer.obj
 0001:00070d40       ?GetDelimitedString@CUtlBuffer@@QAEXPAVCUtlCharConversion@@PADH@Z 00471d40 f   tier1:utlbuffer.obj
 0001:00070e80       ?GetDelimiter@CUtlCharConversion@@QBEPBDXZ 00471e80 f   tier1:utlbuffer.obj
 0001:00070e90       ?GetDelimiterLength@CUtlCharConversion@@QBEHXZ 00471e90 f   tier1:utlbuffer.obj
 0001:00070ea0       ?GetEscapeChar@CUtlCharConversion@@QBEDXZ 00471ea0 f   tier1:utlbuffer.obj
 0001:00070eb0       ?GetLine@CUtlBuffer@@QAEXPADH@Z 00471eb0 f   tier1:utlbuffer.obj
 0001:00071030       ?GetNoEscCharConversion@@YAPAVCUtlCharConversion@@XZ 00472030 f   tier1:utlbuffer.obj
 0001:00071040       ?GetOverflow@CUtlBuffer@@IAE_NH@Z 00472040 f   tier1:utlbuffer.obj
 0001:00071050       ?GetString@CUtlBuffer@@QAEXPADH@Z 00472050 f   tier1:utlbuffer.obj
 0001:00071140       ?GetToken@CUtlBuffer@@QAE_NPBD@Z 00472140 f   tier1:utlbuffer.obj
 0001:00071240       ?GetUpTo@CUtlBuffer@@QAEHPAXH@Z 00472240 f   tier1:utlbuffer.obj
 0001:00071280       ?Grow@?$CUtlMemory@E@@QAEXH@Z 00472280 f i tier1:utlbuffer.obj
 0001:000712f0       ?MaxConversionLength@CUtlCharConversion@@QBEHXZ 004722f0 f   tier1:utlbuffer.obj
 0001:00071300       ?OnGetOverflow@CUtlBuffer@@IAE_NH@Z 00472300 f   tier1:utlbuffer.obj
 0001:00071310       ?OnPutOverflow@CUtlBuffer@@IAE_NH@Z 00472310 f   tier1:utlbuffer.obj
 0001:00071320       ?ParseToken@CUtlBuffer@@QAE_NPBD0PADH@Z 00472320 f   tier1:utlbuffer.obj
 0001:000715f0       ?PeekDelimitedStringLength@CUtlBuffer@@QAEHPAVCUtlCharConversion@@_N@Z 004725f0 f   tier1:utlbuffer.obj
 0001:00071720       ?PeekGet@CUtlBuffer@@QAEPBXHH@Z 00472720 f   tier1:utlbuffer.obj
 0001:00071760       ?PeekLineLength@CUtlBuffer@@IAEHXZ 00472760 f   tier1:utlbuffer.obj
 0001:00071800       ?PeekStringLength@CUtlBuffer@@QAEHXZ 00472800 f   tier1:utlbuffer.obj
 0001:00071920       ?PeekStringMatch@CUtlBuffer@@IAE_NHPBDH@Z 00472920 f   tier1:utlbuffer.obj
 0001:00071980       ?PeekWhiteSpace@CUtlBuffer@@IAEHH@Z 00472980 f   tier1:utlbuffer.obj
 0001:000719e0       ?Printf@CUtlBuffer@@QAAXPBDZZ 004729e0 f   tier1:utlbuffer.obj
 0001:00071a30       ?Put@CUtlBuffer@@QAEXPBXH@Z 00472a30 f   tier1:utlbuffer.obj
 0001:00071aa0       ?PutDelimitedChar@CUtlBuffer@@QAEXPAVCUtlCharConversion@@D@Z 00472aa0 f   tier1:utlbuffer.obj
 0001:00071af0       ?PutDelimitedCharInternal@CUtlBuffer@@IAEXPAVCUtlCharConversion@@D@Z 00472af0 f i tier1:utlbuffer.obj
 0001:00071ba0       ?PutDelimitedString@CUtlBuffer@@QAEXPAVCUtlCharConversion@@PBD@Z 00472ba0 f   tier1:utlbuffer.obj
 0001:00071d00       ?PutOverflow@CUtlBuffer@@IAE_NH@Z 00472d00 f   tier1:utlbuffer.obj
 0001:00071de0       ?PutString@CUtlBuffer@@QAEXPBD@Z 00472de0 f   tier1:utlbuffer.obj
 0001:00071ec0       ?PutTabs@CUtlBuffer@@IAEXXZ 00472ec0 f i tier1:utlbuffer.obj
 0001:00071f70       ?Scanf@CUtlBuffer@@QAAHPBDZZ 00472f70 f   tier1:utlbuffer.obj
 0001:00071f90       ?SeekGet@CUtlBuffer@@QAEXW4SeekType_t@1@H@Z 00472f90 f   tier1:utlbuffer.obj
 0001:00071fe0       ?SeekPut@CUtlBuffer@@QAEXW4SeekType_t@1@H@Z 00472fe0 f   tier1:utlbuffer.obj
 0001:00072060       ?SetBufferType@CUtlBuffer@@QAEX_N0@Z 00473060 f   tier1:utlbuffer.obj
 0001:000720a0       ?SetExternalBuffer@?$CUtlMemory@E@@QAEXPAEH@Z 004730a0 f i tier1:utlbuffer.obj
 0001:000720e0       ?SetExternalBuffer@CUtlBuffer@@QAEXPAXHHH@Z 004730e0 f   tier1:utlbuffer.obj
 0001:000721a0       ?SetLittleEndian@CUtlBuffer@@QAEX_N@Z 004731a0 f   tier1:utlbuffer.obj
 0001:000721b0       ?SetOverflowFuncs@CUtlBuffer@@IAEXP81@AE_NH@Z0@Z 004731b0 f   tier1:utlbuffer.obj
 0001:000721d0       ?VaPrintf@CUtlBuffer@@QAEXPBDPAD@Z 004731d0 f   tier1:utlbuffer.obj
 0001:00072230       ?VaScanf@CUtlBuffer@@QAEHPBDPAD@Z 00473230 f   tier1:utlbuffer.obj
 0001:000724e0       ??0?$CUtlMemory@PAUStringPool_t@CUtlSymbolTable@@@@QAE@HH@Z 004734e0 f i tier1:utlsymbol.obj
 0001:00072520       ??0?$CUtlMemory@UNode_t@?$CUtlRBTree@VCStringPoolIndex@CUtlSymbolTable@@GVCLess@2@@@@@QAE@HH@Z 00473520 f i tier1:utlsymbol.obj
 0001:00072560       ??0CUtlSymbol@@QAE@PBD@Z   00473560 f   tier1:utlsymbol.obj
 0001:000725a0       ??0CUtlSymbolTable@@QAE@HH_N@Z 004735a0 f   tier1:utlsymbol.obj
 0001:00072650       ??1?$CUtlMemory@PAUStringPool_t@CUtlSymbolTable@@@@QAE@XZ 00473650 f i tier1:utlsymbol.obj
 0001:000726b0       ??1?$CUtlMemory@UNode_t@?$CUtlRBTree@VCStringPoolIndex@CUtlSymbolTable@@GVCLess@2@@@@@QAE@XZ 004736b0 f i tier1:utlsymbol.obj
 0001:00072710       ??1?$CUtlRBTree@VCStringPoolIndex@CUtlSymbolTable@@GVCLess@2@@@QAE@XZ 00473710 f i tier1:utlsymbol.obj
 0001:000727e0       ??1?$CUtlVector@PAUStringPool_t@CUtlSymbolTable@@V?$CUtlMemory@PAUStringPool_t@CUtlSymbolTable@@@@@@QAE@XZ 004737e0 f i tier1:utlsymbol.obj
 0001:00072880       ??1CTree@CUtlSymbolTable@@QAE@XZ 00473880 f i tier1:utlsymbol.obj
 0001:00072890       ??1CUtlSymbolTable@@QAE@XZ 00473890 f   tier1:utlsymbol.obj
 0001:00072970       ??8CUtlSymbol@@QBE_NPBD@Z  00473970 f   tier1:utlsymbol.obj
 0001:00072a10       ??RCLess@CUtlSymbolTable@@QBE_NABVCStringPoolIndex@1@0@Z 00473a10 f   tier1:utlsymbol.obj
 0001:00072ac0       ?AddString@CUtlSymbolTable@@QAE?AVCUtlSymbol@@PBD@Z 00473ac0 f   tier1:utlsymbol.obj
 0001:00072d40       ?CurrTable@CUtlSymbol@@KAPAVCUtlSymbolTableMT@@XZ 00473d40 f   tier1:utlsymbol.obj
 0001:00072e70       ?DisableStaticSymbolTable@CUtlSymbol@@SAXXZ 00473e70 f   tier1:utlsymbol.obj
 0001:00072e80       ?Find@?$CUtlRBTree@VCStringPoolIndex@CUtlSymbolTable@@GVCLess@2@@@QBEGABVCStringPoolIndex@CUtlSymbolTable@@@Z 00473e80 f i tier1:utlsymbol.obj
 0001:00072f10       ?Find@CUtlSymbolTable@@QAE?AVCUtlSymbol@@PBD@Z 00473f10 f   tier1:utlsymbol.obj
 0001:00072fb0       ?FindFileName@CUtlFilenameSymbolTable@@QAEPAXPBD@Z 00473fb0 f   tier1:utlsymbol.obj
 0001:000730b0       ?FindInsertionPosition@?$CUtlRBTree@VCStringPoolIndex@CUtlSymbolTable@@GVCLess@2@@@IAEXABVCStringPoolIndex@CUtlSymbolTable@@AAGAA_N@Z 004740b0 f i tier1:utlsymbol.obj
 0001:00073130       ?FindOrAddFileName@CUtlFilenameSymbolTable@@QAEPAXPBD@Z 00474130 f   tier1:utlsymbol.obj
 0001:00073220       ?FindPoolWithSpace@CUtlSymbolTable@@ABEHH@Z 00474220 f   tier1:utlsymbol.obj
 0001:00073260       ?Grow@?$CUtlMemory@PAUStringPool_t@CUtlSymbolTable@@@@QAEXH@Z 00474260 f i tier1:utlsymbol.obj
 0001:000732d0       ?Grow@?$CUtlMemory@UNode_t@?$CUtlRBTree@VCStringPoolIndex@CUtlSymbolTable@@GVCLess@2@@@@@QAEXH@Z 004742d0 f i tier1:utlsymbol.obj
 0001:00073340       ?GrowVector@?$CUtlVector@PAUStringPool_t@CUtlSymbolTable@@V?$CUtlMemory@PAUStringPool_t@CUtlSymbolTable@@@@@@IAEXH@Z 00474340 f i tier1:utlsymbol.obj
 0001:000733d0       ?Initialize@CUtlSymbol@@KAXXZ 004743d0 f   tier1:utlsymbol.obj
 0001:000734d0       ?Insert@?$CUtlRBTree@VCStringPoolIndex@CUtlSymbolTable@@GVCLess@2@@@QAEGABVCStringPoolIndex@CUtlSymbolTable@@@Z 004744d0 f i tier1:utlsymbol.obj
 0001:00073570       ?InsertAt@?$CUtlRBTree@VCStringPoolIndex@CUtlSymbolTable@@GVCLess@2@@@IAEGG_N@Z 00474570 f i tier1:utlsymbol.obj
 0001:00073670       ?InsertBefore@?$CUtlVector@PAUStringPool_t@CUtlSymbolTable@@V?$CUtlMemory@PAUStringPool_t@CUtlSymbolTable@@@@@@QAEHHABQAUStringPool_t@CUtlSymbolTable@@@Z 00474670 f i tier1:utlsymbol.obj
 0001:00073720       ?InsertRebalance@?$CUtlRBTree@VCStringPoolIndex@CUtlSymbolTable@@GVCLess@2@@@IAEXG@Z 00474720 f i tier1:utlsymbol.obj
 0001:00073920       ?IsExternallyAllocated@?$CUtlMemory@PAUStringPool_t@CUtlSymbolTable@@@@QBE_NXZ 00474920 f i tier1:utlsymbol.obj
 0001:00073930       ?IsExternallyAllocated@?$CUtlMemory@UNode_t@?$CUtlRBTree@VCStringPoolIndex@CUtlSymbolTable@@GVCLess@2@@@@@QBE_NXZ 00474930 f i tier1:utlsymbol.obj
 0001:00073940       ?LinkToParent@?$CUtlRBTree@VCStringPoolIndex@CUtlSymbolTable@@GVCLess@2@@@IAEXGG_N@Z 00474940 f i tier1:utlsymbol.obj
 0001:000739c0       ?Links@?$CUtlRBTree@VCStringPoolIndex@CUtlSymbolTable@@GVCLess@2@@@IBEABULinks_t@1@G@Z 004749c0 f i tier1:utlsymbol.obj
 0001:00073a50       ?NewNode@?$CUtlRBTree@VCStringPoolIndex@CUtlSymbolTable@@GVCLess@2@@@QAEGXZ 00474a50 f i tier1:utlsymbol.obj
 0001:00073b10       ?Purge@?$CUtlMemory@PAUStringPool_t@CUtlSymbolTable@@@@QAEXXZ 00474b10 f i tier1:utlsymbol.obj
 0001:00073b40       ?Purge@?$CUtlMemory@UNode_t@?$CUtlRBTree@VCStringPoolIndex@CUtlSymbolTable@@GVCLess@2@@@@@QAEXXZ 00474b40 f i tier1:utlsymbol.obj
 0001:00073b70       ?Purge@?$CUtlRBTree@VCStringPoolIndex@CUtlSymbolTable@@GVCLess@2@@@QAEXXZ 00474b70 f i tier1:utlsymbol.obj
 0001:00073bd0       ?RemoveAll@?$CUtlRBTree@VCStringPoolIndex@CUtlSymbolTable@@GVCLess@2@@@QAEXXZ 00474bd0 f i tier1:utlsymbol.obj
 0001:00073c50       ?RemoveAll@?$CUtlVector@PAUStringPool_t@CUtlSymbolTable@@V?$CUtlMemory@PAUStringPool_t@CUtlSymbolTable@@@@@@QAEXXZ 00474c50 f i tier1:utlsymbol.obj
 0001:00073c60       ?RemoveAll@CUtlSymbolTable@@QAEXXZ 00474c60 f   tier1:utlsymbol.obj
 0001:00073d10       ?RotateLeft@?$CUtlRBTree@VCStringPoolIndex@CUtlSymbolTable@@GVCLess@2@@@IAEXG@Z 00474d10 f i tier1:utlsymbol.obj
 0001:00073e20       ?RotateRight@?$CUtlRBTree@VCStringPoolIndex@CUtlSymbolTable@@GVCLess@2@@@IAEXG@Z 00474e20 f i tier1:utlsymbol.obj
 0001:00073f30       ?ShiftElementsRight@?$CUtlVector@PAUStringPool_t@CUtlSymbolTable@@V?$CUtlMemory@PAUStringPool_t@CUtlSymbolTable@@@@@@IAEXHH@Z 00474f30 f i tier1:utlsymbol.obj
 0001:00073f70       ?String@CUtlFilenameSymbolTable@@QAE_NABQAXPADH@Z 00474f70 f   tier1:utlsymbol.obj
 0001:00073fe0       ?String@CUtlSymbol@@QBEPBDXZ 00474fe0 f   tier1:utlsymbol.obj
 0001:00074040       ?String@CUtlSymbolTable@@QBEPBDVCUtlSymbol@@@Z 00475040 f   tier1:utlsymbol.obj
 0001:00074090       ??0?$CUtlMemory@UNode_t@?$CUtlRBTree@PBDGP6A_NABQBD0@Z@@@@QAE@HH@Z 00475090 f i tier1:stringpool.obj
 0001:000740d0       ??0?$CUtlMemory@Uhash_item_t@CCountedStringPool@@@@QAE@HH@Z 004750d0 f i tier1:stringpool.obj
 0001:00074110       ??0CCountedStringPool@@QAE@XZ 00475110 f   tier1:stringpool.obj
 0001:000742e0       ??0CStringPool@@QAE@XZ     004752e0 f   tier1:stringpool.obj
 0001:00074340       ??1?$CUtlMemory@UNode_t@?$CUtlRBTree@PBDGP6A_NABQBD0@Z@@@@QAE@XZ 00475340 f i tier1:stringpool.obj
 0001:000743a0       ??1?$CUtlMemory@Uhash_item_t@CCountedStringPool@@@@QAE@XZ 004753a0 f i tier1:stringpool.obj
 0001:00074400       ??1?$CUtlRBTree@PBDGP6A_NABQBD0@Z@@QAE@XZ 00475400 f i tier1:stringpool.obj
 0001:000744d0       ??1?$CUtlVector@Uhash_item_t@CCountedStringPool@@V?$CUtlMemory@Uhash_item_t@CCountedStringPool@@@@@@QAE@XZ 004754d0 f i tier1:stringpool.obj
 0001:00074570       ??1CCountedStringPool@@UAE@XZ 00475570 f   tier1:stringpool.obj
 0001:00074670       ??1CStringPool@@QAE@XZ     00475670 f   tier1:stringpool.obj
 0001:000746c0       ??_ECCountedStringPool@@UAEPAXI@Z 004756c0 f i tier1:stringpool.obj
 0001:000746c0       ??_GCCountedStringPool@@UAEPAXI@Z 004756c0 f i tier1:stringpool.obj
 0001:000746f0       ?Allocate@CStringPool@@QAEPBDPBD@Z 004756f0 f   tier1:stringpool.obj
 0001:00074810       ?Count@CStringPool@@QBEIXZ 00475810 f   tier1:stringpool.obj
 0001:00074820       ?DereferenceString@CCountedStringPool@@QAEXPBD@Z 00475820 f   tier1:stringpool.obj
 0001:00074930       ?EnsureCount@?$CUtlVector@GV?$CUtlMemory@G@@@@QAEXH@Z 00475930 f i tier1:stringpool.obj
 0001:000749f0       ?Find@?$CUtlRBTree@PBDGP6A_NABQBD0@Z@@QBEGABQBD@Z 004759f0 f i tier1:stringpool.obj
 0001:00074a80       ?Find@CStringPool@@QAEPBDPBD@Z 00475a80 f   tier1:stringpool.obj
 0001:00074ad0       ?FindInsertionPosition@?$CUtlRBTree@PBDGP6A_NABQBD0@Z@@IAEXABQBDAAGAA_N@Z 00475ad0 f i tier1:stringpool.obj
 0001:00074b50       ?FindString@CCountedStringPool@@QAEPADPBD@Z 00475b50 f   tier1:stringpool.obj
 0001:00074bd0       ?FindStringHandle@CCountedStringPool@@QAEGPBD@Z 00475bd0 f   tier1:stringpool.obj
 0001:00074c50       ?FirstInorder@?$CUtlRBTree@PBDGP6A_NABQBD0@Z@@QBEGXZ 00475c50 f i tier1:stringpool.obj
 0001:00074c90       ?FreeAll@CCountedStringPool@@QAEXXZ 00475c90 f   tier1:stringpool.obj
 0001:00074d40       ?FreeAll@CStringPool@@QAEXXZ 00475d40 f   tier1:stringpool.obj
 0001:00074ed0       ?Grow@?$CUtlMemory@UNode_t@?$CUtlRBTree@PBDGP6A_NABQBD0@Z@@@@QAEXH@Z 00475ed0 f i tier1:stringpool.obj
 0001:00074f40       ?Grow@?$CUtlMemory@Uhash_item_t@CCountedStringPool@@@@QAEXH@Z 00475f40 f i tier1:stringpool.obj
 0001:00074fb0       ?GrowVector@?$CUtlVector@Uhash_item_t@CCountedStringPool@@V?$CUtlMemory@Uhash_item_t@CCountedStringPool@@@@@@IAEXH@Z 00475fb0 f i tier1:stringpool.obj
 0001:00075040       ?HandleToString@CCountedStringPool@@QAEPADG@Z 00476040 f   tier1:stringpool.obj
 0001:00075060       ?Insert@?$CUtlRBTree@PBDGP6A_NABQBD0@Z@@QAEGABQBD@Z 00476060 f i tier1:stringpool.obj
 0001:00075100       ?InsertAt@?$CUtlRBTree@PBDGP6A_NABQBD0@Z@@IAEGG_N@Z 00476100 f i tier1:stringpool.obj
 0001:00075200       ?InsertBefore@?$CUtlVector@Uhash_item_t@CCountedStringPool@@V?$CUtlMemory@Uhash_item_t@CCountedStringPool@@@@@@QAEHH@Z 00476200 f i tier1:stringpool.obj
 0001:00075250       ?InsertRebalance@?$CUtlRBTree@PBDGP6A_NABQBD0@Z@@IAEXG@Z 00476250 f i tier1:stringpool.obj
 0001:00075450       ?IsExternallyAllocated@?$CUtlMemory@UNode_t@?$CUtlRBTree@PBDGP6A_NABQBD0@Z@@@@QBE_NXZ 00476450 f i tier1:stringpool.obj
 0001:00075460       ?IsExternallyAllocated@?$CUtlMemory@Uhash_item_t@CCountedStringPool@@@@QBE_NXZ 00476460 f i tier1:stringpool.obj
 0001:00075470       ?LinkToParent@?$CUtlRBTree@PBDGP6A_NABQBD0@Z@@IAEXGG_N@Z 00476470 f i tier1:stringpool.obj
 0001:000754f0       ?Links@?$CUtlRBTree@PBDGP6A_NABQBD0@Z@@IBEABULinks_t@1@G@Z 004764f0 f i tier1:stringpool.obj
 0001:00075580       ?NewNode@?$CUtlRBTree@PBDGP6A_NABQBD0@Z@@QAEGXZ 00476580 f i tier1:stringpool.obj
 0001:00075640       ?NextInorder@?$CUtlRBTree@PBDGP6A_NABQBD0@Z@@QBEGG@Z 00476640 f i tier1:stringpool.obj
 0001:00075710       ?Purge@?$CUtlMemory@UNode_t@?$CUtlRBTree@PBDGP6A_NABQBD0@Z@@@@QAEXXZ 00476710 f i tier1:stringpool.obj
 0001:00075740       ?Purge@?$CUtlMemory@Uhash_item_t@CCountedStringPool@@@@QAEXXZ 00476740 f i tier1:stringpool.obj
 0001:00075770       ?Purge@?$CUtlRBTree@PBDGP6A_NABQBD0@Z@@QAEXXZ 00476770 f i tier1:stringpool.obj
 0001:000757d0       ?ReferenceString@CCountedStringPool@@QAEPADPBD@Z 004767d0 f   tier1:stringpool.obj
 0001:00075800       ?ReferenceStringHandle@CCountedStringPool@@QAEGPBD@Z 00476800 f   tier1:stringpool.obj
 0001:00075970       ?RemoveAll@?$CUtlRBTree@PBDGP6A_NABQBD0@Z@@QAEXXZ 00476970 f i tier1:stringpool.obj
 0001:000759f0       ?RemoveAll@?$CUtlVector@Uhash_item_t@CCountedStringPool@@V?$CUtlMemory@Uhash_item_t@CCountedStringPool@@@@@@QAEXXZ 004769f0 f i tier1:stringpool.obj
 0001:00075a00       ?RotateLeft@?$CUtlRBTree@PBDGP6A_NABQBD0@Z@@IAEXG@Z 00476a00 f i tier1:stringpool.obj
 0001:00075b10       ?RotateRight@?$CUtlRBTree@PBDGP6A_NABQBD0@Z@@IAEXG@Z 00476b10 f i tier1:stringpool.obj
 0001:00075c20       ?SetCount@?$CUtlVector@Uhash_item_t@CCountedStringPool@@V?$CUtlMemory@Uhash_item_t@CCountedStringPool@@@@@@QAEXH@Z 00476c20 f i tier1:stringpool.obj
 0001:00075c70       ?ShiftElementsRight@?$CUtlVector@Uhash_item_t@CCountedStringPool@@V?$CUtlMemory@Uhash_item_t@CCountedStringPool@@@@@@IAEXHH@Z 00476c70 f i tier1:stringpool.obj
 0001:00075cc0       ?StrLess@@YA_NABQBD0@Z     00476cc0 f   tier1:stringpool.obj
 0001:00075d50       ??0ConCommand@@QAE@PBDP6AXXZ0HP6AH0QAY0EA@D@Z@Z 00476d50 f   tier1:convar.obj
 0001:00075e50       ??0ConCommandBase@@QAE@PBD0H@Z 00476e50 f   tier1:convar.obj
 0001:00075ed0       ??0ConCommandBase@@QAE@XZ  00476ed0 f   tier1:convar.obj
 0001:00075f10       ??0ConVar@@QAE@PBD0H0@Z    00476f10 f   tier1:convar.obj
 0001:00076070       ??0ConVar@@QAE@PBD0H0P6AXPAV0@0@Z@Z 00477070 f   tier1:convar.obj
 0001:000761d0       ??0ConVar@@QAE@PBD0H0_NM1M@Z 004771d0 f   tier1:convar.obj
 0001:00076340       ??0ConVar@@QAE@PBD0H0_NM1MP6AXPAV0@0@Z@Z 00477340 f   tier1:convar.obj
 0001:000764b0       ??0ConVar@@QAE@PBD0H@Z     004774b0 f   tier1:convar.obj
 0001:00076610       ??1ConCommand@@UAE@XZ      00477610 f   tier1:convar.obj
 0001:00076620       ??1ConCommandBase@@UAE@XZ  00477620 f   tier1:convar.obj
 0001:00076630       ??1ConVar@@UAE@XZ          00477630 f   tier1:convar.obj
 0001:00076660       ??_EConCommand@@UAEPAXI@Z  00477660 f i tier1:convar.obj
 0001:00076660       ??_GConCommand@@UAEPAXI@Z  00477660 f i tier1:convar.obj
 0001:00076690       ??_EConCommandBase@@UAEPAXI@Z 00477690 f i tier1:convar.obj
 0001:00076690       ??_GConCommandBase@@UAEPAXI@Z 00477690 f i tier1:convar.obj
 0001:000766c0       ??_EConVar@@UAEPAXI@Z      004776c0 f i tier1:convar.obj
 0001:000766c0       ??_GConVar@@UAEPAXI@Z      004776c0 f i tier1:convar.obj
 0001:00076710       ?AddFlags@ConCommandBase@@UAEXH@Z 00477710 f   tier1:convar.obj
 0001:00076720       ?AddFlags@ConVar@@UAEXH@Z  00477720 f   tier1:convar.obj
 0001:00076730       ?AddToList@ConCommandBase@@SAXPAV1@@Z 00477730 f   tier1:convar.obj
 0001:00076750       ?AutoCompleteSuggest@ConCommand@@UAEHPBDQAY0EA@D@Z 00477750 f   tier1:convar.obj
 0001:00076770       ?CanAutoComplete@ConCommand@@UAE_NXZ 00477770 f   tier1:convar.obj
 0001:00076780       ?ChangeStringValue@ConVar@@EAEXPBD@Z 00477780 f   tier1:convar.obj
 0001:00076830       ?ClampValue@ConVar@@EAE_NAAM@Z 00477830 f   tier1:convar.obj
 0001:00076880       ?CopyString@ConCommandBase@@IAEPADPBD@Z 00477880 f   tier1:convar.obj
 0001:000768d0       ?Create@ConCommand@@EAEXPBDP6AXXZ0HP6AH0QAY0EA@D@Z@Z 004778d0 f   tier1:convar.obj
 0001:00076950       ?Create@ConCommandBase@@MAEXPBD0H@Z 00477950 f   tier1:convar.obj
 0001:000769b0       ?Create@ConVar@@EAEXPBD0H0_NM1MP6AXPAV1@0@Z@Z 004779b0 f   tier1:convar.obj
 0001:00076a90       ?DefaultCompletionFunc@@YAHPBDQAY0EA@D@Z 00477a90 f   tier1:convar.obj
 0001:00076aa0       ?Dispatch@ConCommand@@UAEXXZ 00477aa0 f   tier1:convar.obj
 0001:00076ab0       ?FindCommand@ConCommandBase@@SAPBV1@PBD@Z 00477ab0 f   tier1:convar.obj
 0001:00076af0       ?GetCommands@ConCommandBase@@SAPBV1@XZ 00477af0 f   tier1:convar.obj
 0001:00076b00       ?GetDefault@ConVar@@QBEPBDXZ 00477b00 f   tier1:convar.obj
 0001:00076b10       ?GetHelpText@ConCommandBase@@UBEPBDXZ 00477b10 f   tier1:convar.obj
 0001:00076b20       ?GetHelpText@ConVar@@UBEPBDXZ 00477b20 f   tier1:convar.obj
 0001:00076b30       ?GetMax@ConVar@@QBE_NAAM@Z 00477b30 f   tier1:convar.obj
 0001:00076b50       ?GetMin@ConVar@@QBE_NAAM@Z 00477b50 f   tier1:convar.obj
 0001:00076b70       ?GetName@ConCommandBase@@UBEPBDXZ 00477b70 f   tier1:convar.obj
 0001:00076b80       ?GetName@ConVar@@UBEPBDXZ  00477b80 f   tier1:convar.obj
 0001:00076b90       ?GetNext@ConCommandBase@@QBEPBV1@XZ 00477b90 f   tier1:convar.obj
 0001:00076ba0       ?Init@ConCommandBase@@MAEXXZ 00477ba0 f   tier1:convar.obj
 0001:00076bc0       ?Init@ConVar@@EAEXXZ       00477bc0 f   tier1:convar.obj
 0001:00076be0       ?InstallChangeCallback@ConVar@@QAEXP6AXPAV1@PBD@Z@Z 00477be0 f   tier1:convar.obj
 0001:00076c00       ?InternalSetFloatValue@ConVar@@EAEXM@Z 00477c00 f   tier1:convar.obj
 0001:00076c90       ?InternalSetIntValue@ConVar@@EAEXH@Z 00477c90 f   tier1:convar.obj
 0001:00076d20       ?InternalSetValue@ConVar@@EAEXPBD@Z 00477d20 f   tier1:convar.obj
 0001:00076db0       ?IsBitSet@ConCommandBase@@UBE_NH@Z 00477db0 f   tier1:convar.obj
 0001:00076dc0       ?IsBitSet@ConVar@@UBE_NH@Z 00477dc0 f   tier1:convar.obj
 0001:00076de0       ?IsCommand@ConCommand@@UBE_NXZ 00477de0 f   tier1:convar.obj
 0001:00076df0       ?IsCommand@ConCommandBase@@UBE_NXZ 00477df0 f   tier1:convar.obj
 0001:00076e00       ?IsCommand@ConVar@@UBE_NXZ 00477e00 f   tier1:convar.obj
 0001:00076e10       ?IsRegistered@ConCommandBase@@UBE_NXZ 00477e10 f   tier1:convar.obj
 0001:00076e20       ?IsRegistered@ConVar@@UBE_NXZ 00477e20 f   tier1:convar.obj
 0001:00076e30       ?OneTimeInit@ConCommandBaseMgr@@SAXPAVIConCommandBaseAccessor@@@Z 00477e30 f   tier1:convar.obj
 0001:00076e60       ?RemoveFlaggedCommands@ConCommandBase@@SAXH@Z 00477e60 f   tier1:convar.obj
 0001:00076eb0       ?Revert@ConVar@@QAEXXZ     00477eb0 f   tier1:convar.obj
 0001:00076ec0       ?RevertAll@ConVar@@SAXXZ   00477ec0 f   tier1:convar.obj
 0001:00076f00       ?RevertFlaggedCvars@ConCommandBase@@SAXH@Z 00477f00 f   tier1:convar.obj
 0001:00076f80       ?SetNext@ConCommandBase@@QAEXPAV1@@Z 00477f80 f   tier1:convar.obj
 0001:00076f90       ?SetValue@ConVar@@UAEXH@Z  00477f90 f   tier1:convar.obj
 0001:00076fa0       ?SetValue@ConVar@@UAEXM@Z  00477fa0 f   tier1:convar.obj
 0001:00076fc0       ?SetValue@ConVar@@UAEXPBD@Z 00477fc0 f   tier1:convar.obj
 0001:00076fd0       ?Hash12@@YAIPBX@Z          00477fd0 f   tier1:generichash.obj
 0001:00077090       ?Hash16@@YAIPBX@Z          00478090 f   tier1:generichash.obj
 0001:00077190       ?Hash4@@YAIPBX@Z           00478190 f   tier1:generichash.obj
 0001:000771e0       ?Hash8@@YAIPBX@Z           004781e0 f   tier1:generichash.obj
 0001:00077270       ?HashBlock@@YAIPBXI@Z      00478270 f   tier1:generichash.obj
 0001:000772c0       ?HashString@@YAIPBD@Z      004782c0 f   tier1:generichash.obj
 0001:00077300       ?HashStringCaseless@@YAIPBD@Z 00478300 f   tier1:generichash.obj
 0001:00077370       ?HashStringCaselessConventional@@YAIPBD@Z 00478370 f   tier1:generichash.obj
 0001:000773aa       ??1type_info@@UAE@XZ       004783aa f   LIBCMT:std_type_info_static.obj
 0001:000773b1       ??_Etype_info@@UAEPAXI@Z   004783b1 f i LIBCMT:std_type_info_static.obj
 0001:000773b1       ??_Gtype_info@@UAEPAXI@Z   004783b1 f i LIBCMT:std_type_info_static.obj
 0001:000773d4       ?configure_argv@__scrt_narrow_argv_policy@@SAHXZ 004783d4 f i LIBCMT:utility.obj
 0001:00077425       ?initialize_environment@__scrt_narrow_environment_policy@@SAHXZ 00478425 f i LIBCMT:utility.obj
 0001:0007745d       _NtCurrentTeb              0047845d f i LIBCMT:utility.obj
 0001:00077464       ___scrt_acquire_startup_lock 00478464 f   LIBCMT:utility.obj
 0001:00077496       ___scrt_dllmain_after_initialize_c 00478496 f   LIBCMT:utility.obj
 0001:000774c1       ___scrt_dllmain_before_initialize_c 004784c1 f   LIBCMT:utility.obj
 0001:000774cf       ___scrt_dllmain_crt_thread_attach 004784cf f   LIBCMT:utility.obj
 0001:000774ee       ___scrt_dllmain_crt_thread_detach 004784ee f   LIBCMT:utility.obj
 0001:000774fb       ___scrt_dllmain_exception_filter 004784fb f   LIBCMT:utility.obj
 0001:0007752f       ___scrt_dllmain_uninitialize_c 0047852f f   LIBCMT:utility.obj
 0001:00077552       ___scrt_dllmain_uninitialize_critical 00478552 f   LIBCMT:utility.obj
 0001:0007755f       ___scrt_initialize_crt     0047855f f   LIBCMT:utility.obj
 0001:00077598       ___scrt_initialize_onexit_tables 00478598 f   LIBCMT:utility.obj
 0001:0007761f       ___scrt_is_nonwritable_in_current_image 0047861f f   LIBCMT:utility.obj
 0001:000776b3       ___scrt_release_startup_lock 004786b3 f   LIBCMT:utility.obj
 0001:000776d0       ___scrt_uninitialize_crt   004786d0 f   LIBCMT:utility.obj
 0001:000776f8       __onexit                   004786f8 f   LIBCMT:utility.obj
 0001:00077725       _at_quick_exit             00478725 f   LIBCMT:utility.obj
 0001:00077748       _atexit                    00478748 f   LIBCMT:utility.obj
 0001:00077760       __alloca_probe             00478760 f   LIBCMT:chkstk.obj
 0001:00077760       __chkstk                   00478760 f   LIBCMT:chkstk.obj
 0001:00077850       __Init_thread_abort        00478850 f   LIBCMT:thread_safe_statics.obj
 0001:00077874       __Init_thread_footer       00478874 f   LIBCMT:thread_safe_statics.obj
 0001:000778be       __Init_thread_header       004788be f   LIBCMT:thread_safe_statics.obj
 0001:00077910       __Init_thread_lock         00478910 f   LIBCMT:thread_safe_statics.obj
 0001:0007791c       __Init_thread_notify       0047891c f   LIBCMT:thread_safe_statics.obj
 0001:00077952       __Init_thread_unlock       00478952 f   LIBCMT:thread_safe_statics.obj
 0001:0007795e       __Init_thread_wait         0047895e f   LIBCMT:thread_safe_statics.obj
 0001:000779b0       __alloca_probe_16          004789b0 f   LIBCMT:alloca16.obj
 0001:000779c6       __alloca_probe_8           004789c6     LIBCMT:alloca16.obj
 0001:000779dc       ___isa_available_init      004789dc f   LIBCMT:cpu_disp.obj
 0001:00077e25       ?set_app_type@__scrt_main_policy@@SAXXZ 00478e25 f i LIBCMT:exe_main.obj
 0001:00077e2e       ?set_commode@__scrt_file_policy@@SAXXZ 00478e2e f i LIBCMT:exe_main.obj
 0001:00077e3f       ?set_fmode@__scrt_file_policy@@SAXXZ 00478e3f f i LIBCMT:exe_main.obj
 0001:00077e4c       _mainCRTStartup            00478e4c f   LIBCMT:exe_main.obj
 0001:00077e56       @__security_check_cookie@4 00478e56 f   LIBCMT:secchk.obj
 0001:00077e70       __alldiv                   00478e70 f   LIBCMT:lldiv.obj
 0001:00077f20       __allmul                   00478f20 f   LIBCMT:llmul.obj
 0001:00077f60       __allrem                   00478f60 f   LIBCMT:llrem.obj
 0001:00078012       ___raise_securityfailure   00479012 f   LIBCMT:gs_report.obj
 0001:0007803a       ___report_gsfailure        0047903a f   LIBCMT:gs_report.obj
 0001:00078134       ___report_rangecheckfailure 00479134 f   LIBCMT:gs_report.obj
 0001:00078140       ___report_securityfailure  00479140 f   LIBCMT:gs_report.obj
 0001:0007820f       ___report_securityfailureEx 0047920f f   LIBCMT:gs_report.obj
 0001:00078330       __ftoui3                   00479330 f   LIBCMT:ftol3.obj
 0001:00078380       __ftoul3                   00479380 f   LIBCMT:ftol3.obj
 0001:000783f0       __ftoul3_legacy            004793f0 f   LIBCMT:ftol3.obj
 0001:00078420       __ftol3                    00479420 f   LIBCMT:ftol3.obj
 0001:00078490       __dtoui3                   00479490 f   LIBCMT:ftol3.obj
 0001:00078510       __dtoul3                   00479510 f   LIBCMT:ftol3.obj
 0001:000785c0       __dtoul3_legacy            004795c0 f   LIBCMT:ftol3.obj
 0001:000785f0       __dtol3                    004795f0 f   LIBCMT:ftol3.obj
 0001:000786a0       __ultod3                   004796a0 f   LIBCMT:ftol3.obj
 0001:00078700       __ltod3                    00479700 f   LIBCMT:ftol3.obj
 0001:00078741       @_RTC_AllocaHelper@12      00479741 f   LIBCMT:stack.obj
 0001:00078773       @_RTC_CheckStackVars2@12   00479773 f   LIBCMT:stack.obj
 0001:0007883a       @_RTC_CheckStackVars@8     0047983a f   LIBCMT:stack.obj
 0001:0007888e       __RTC_CheckEsp             0047988e f   LIBCMT:stack.obj
 0001:000788b1       __CRT_RTC_INIT             004798b1 f   LIBCMT:init.obj
 0001:000788b4       __CRT_RTC_INITW            004798b4 f   LIBCMT:init.obj
 0001:000788b7       __RTC_InitBase             004798b7 f   LIBCMT:init.obj
 0001:000788d0       __RTC_Shutdown             004798d0 f   LIBCMT:init.obj
 0001:000788d3       __get_startup_argv_mode    004798d3 f   LIBCMT:argv_mode.obj
 0001:000788d7       ___scrt_is_ucrt_dll_in_use 004798d7 f   LIBCMT:ucrt_detection.obj
 0001:000788e3       ___scrt_fastfail           004798e3 f   LIBCMT:utility_desktop.obj
 0001:000789fe       ___scrt_get_show_window_mode 004799fe f   LIBCMT:utility_desktop.obj
 0001:00078a2f       ___scrt_initialize_mta     00479a2f f   LIBCMT:utility_desktop.obj
 0001:00078a34       ___scrt_initialize_winrt   00479a34 f   LIBCMT:utility_desktop.obj
 0001:00078a37       ___scrt_is_managed_app     00479a37 f   LIBCMT:utility_desktop.obj
 0001:00078a79       ___scrt_set_unhandled_exception_filter 00479a79 f   LIBCMT:utility_desktop.obj
 0001:00078a85       ___scrt_exe_initialize_mta 00479a85 f   LIBCMT:utility_desktop.obj
 0001:00078a85       ___scrt_stub_for_initialize_mta 00479a85 f   LIBCMT:utility_desktop.obj
 0001:00078a88       ___scrt_unhandled_exception_filter@4 00479a88 f   LIBCMT:utility_desktop.obj
 0001:00078ade       __crt_debugger_hook        00479ade f   LIBCMT:utility_desktop.obj
 0001:00078af0       __SEH_prolog4              00479af0 f   LIBCMT:sehprolg4.obj
 0001:00078b40       __SEH_epilog4              00479b40 f   LIBCMT:sehprolg4.obj
 0001:00078b54       @_guard_check_icall_nop@4  00479b54 f i LIBCMT:guard_support.obj
 0001:00078b57       _ReadNoFence               00479b57 f i LIBCMT:guard_support.obj
 0001:00078b61       _ReadPointerNoFence        00479b61 f i LIBCMT:guard_support.obj
 0001:00078b6b       ___castguard_check_failure_debugbreak 00479b6b f i LIBCMT:guard_support.obj
 0001:00078b86       ___castguard_check_failure_fastfail 00479b86 f i LIBCMT:guard_support.obj
 0001:00078ba5       ___castguard_check_failure_nop 00479ba5 f i LIBCMT:guard_support.obj
 0001:00078ba8       ___castguard_check_failure_os_handled 00479ba8 f i LIBCMT:guard_support.obj
 0001:00078c04       ___castguard_slow_path_check_debugbreak 00479c04 f i LIBCMT:guard_support.obj
 0001:00078c31       ___castguard_slow_path_check_fastfail 00479c31 f i LIBCMT:guard_support.obj
 0001:00078c62       ___castguard_slow_path_check_nop 00479c62 f i LIBCMT:guard_support.obj
 0001:00078c65       ___castguard_slow_path_check_os_handled 00479c65 f i LIBCMT:guard_support.obj
 0001:00078cc0       __guard_icall_checks_enforced 00479cc0 f i LIBCMT:guard_support.obj
 0001:00078d1f       ___security_init_cookie    00479d1f f   LIBCMT:gs_support.obj
 0001:00078d6a       __matherr                  00479d6a f   LIBCMT:matherr.obj
 0001:00078d6d       __get_startup_commit_mode  00479d6d f   LIBCMT:commit_mode.obj
 0001:00078d70       __get_startup_file_mode    00479d70 f   LIBCMT:file_mode.obj
 0001:00078d76       __get_startup_new_mode     00479d76 f   LIBCMT:new_mode.obj
 0001:00078d79       __get_startup_thread_locale_mode 00479d79 f   LIBCMT:thread_locale.obj
 0001:00078d7c       ?__scrt_initialize_type_info@@YAXXZ 00479d7c f   LIBCMT:tncleanup.obj
 0001:00078d88       ?__scrt_uninitialize_type_info@@YAXXZ 00479d88 f   LIBCMT:tncleanup.obj
 0001:00078d94       __should_initialize_environment 00479d94 f   LIBCMT:env_mode.obj
 0001:00078d97       __initialize_default_precision 00479d97 f   LIBCMT:default_precision.obj
 0001:00078db8       __initialize_invalid_parameter_handler 00479db8 f   LIBCMT:invalid_parameter_handler.obj
 0001:00078dbb       __initialize_denormal_control 00479dbb f   LIBCMT:denormal_control.obj
 0001:00078dbe       ___scrt_initialize_default_local_stdio_options 00479dbe f   LIBCMT:default_local_stdio_options.obj
 0001:00078ddb       ___scrt_is_user_matherr_present 00479ddb f   LIBCMT:matherr_detection.obj
 0001:00078de7       ___scrt_get_dyn_tls_init_callback 00479de7 f   LIBCMT:dyn_tls_init.obj
 0001:00078ded       ___scrt_get_dyn_tls_dtor_callback 00479ded f   LIBCMT:dyn_tls_dtor.obj
 0001:00078df3       __RTC_Initialize           00479df3 f   LIBCMT:initsect.obj
 0001:00078e1f       __RTC_Terminate            00479e1f f   LIBCMT:initsect.obj
 0001:00078ebd       ?_RTC_AllocaFailure@@YAXPAXPAU_RTC_ALLOCA_NODE@@H@Z 00479ebd f   LIBCMT:error.obj
 0001:00078f96       ?_RTC_Failure@@YAXPAXH@Z   00479f96 f   LIBCMT:error.obj
 0001:00078fd2       ?_RTC_StackFailure@@YAXPAXPBD@Z 00479fd2 f   LIBCMT:error.obj
 0001:000793a9       __RTC_UninitUse            0047a3a9 f   LIBCMT:error.obj
 0001:00079448       __vsprintf_s_l             0047a448 f i LIBCMT:error.obj
 0001:00079475       _sprintf_s                 0047a475 f i LIBCMT:error.obj
 0001:00079491       ?_RTC_GetErrorFunc@@YAP6AHHPBDH00ZZPBX@Z 0047a491 f   LIBCMT:userapi.obj
 0001:00079497       ?_RTC_GetErrorFuncW@@YAP6AHHPB_WH00ZZPBX@Z 0047a497 f   LIBCMT:userapi.obj
 0001:0007949d       __RTC_GetErrDesc           0047a49d f   LIBCMT:userapi.obj
 0001:000794b5       __RTC_NumErrors            0047a4b5 f   LIBCMT:userapi.obj
 0001:000794b9       __RTC_SetErrorFunc         0047a4b9 f   LIBCMT:userapi.obj
 0001:000794d3       __RTC_SetErrorFuncW        0047a4d3 f   LIBCMT:userapi.obj
 0001:000794ed       __RTC_SetErrorType         0047a4ed f   LIBCMT:userapi.obj
 0001:00079714       ?_RTC_GetSrcLine@@YAHPAEPA_WKPAH1K@Z 0047a714 f   LIBCMT:pdblkup.obj
 0001:00079a60       __except_handler4_noexcept 0047aa60 f   LIBCMT:chandler4_noexcept.obj
 0001:0007ddb0       ___std_count_trivial_1@12  0047edb0 f   libcpmt:vector_algorithms.obj
 0001:0007de80       ___std_count_trivial_2@12  0047ee80 f   libcpmt:vector_algorithms.obj
 0001:0007df50       ___std_count_trivial_4@12  0047ef50 f   libcpmt:vector_algorithms.obj
 0001:0007e000       ___std_count_trivial_8@16  0047f000 f   libcpmt:vector_algorithms.obj
 0001:0007e0d0       ___std_find_trivial_1@12   0047f0d0 f   libcpmt:vector_algorithms.obj
 0001:0007e1a0       ___std_find_trivial_2@12   0047f1a0 f   libcpmt:vector_algorithms.obj
 0001:0007e270       ___std_find_trivial_4@12   0047f270 f   libcpmt:vector_algorithms.obj
 0001:0007e330       ___std_find_trivial_8@16   0047f330 f   libcpmt:vector_algorithms.obj
 0001:0007e400       ___std_find_trivial_unsized_1@8 0047f400 f   libcpmt:vector_algorithms.obj
 0001:0007e410       ___std_find_trivial_unsized_2@8 0047f410 f   libcpmt:vector_algorithms.obj
 0001:0007e420       ___std_find_trivial_unsized_4@8 0047f420 f   libcpmt:vector_algorithms.obj
 0001:0007e430       ___std_find_trivial_unsized_8@12 0047f430 f   libcpmt:vector_algorithms.obj
 0001:0007e450       ___std_max_element_1@12    0047f450 f   libcpmt:vector_algorithms.obj
 0001:0007e460       ___std_max_element_2@12    0047f460 f   libcpmt:vector_algorithms.obj
 0001:0007e470       ___std_max_element_4@12    0047f470 f   libcpmt:vector_algorithms.obj
 0001:0007e480       ___std_max_element_8@12    0047f480 f   libcpmt:vector_algorithms.obj
 0001:0007e490       ___std_min_element_1@12    0047f490 f   libcpmt:vector_algorithms.obj
 0001:0007e4a0       ___std_min_element_2@12    0047f4a0 f   libcpmt:vector_algorithms.obj
 0001:0007e4b0       ___std_min_element_4@12    0047f4b0 f   libcpmt:vector_algorithms.obj
 0001:0007e4c0       ___std_min_element_8@12    0047f4c0 f   libcpmt:vector_algorithms.obj
 0001:0007e4d0       ___std_minmax_element_1@12 0047f4d0 f   libcpmt:vector_algorithms.obj
 0001:0007e4e0       ___std_minmax_element_2@12 0047f4e0 f   libcpmt:vector_algorithms.obj
 0001:0007e4f0       ___std_minmax_element_4@12 0047f4f0 f   libcpmt:vector_algorithms.obj
 0001:0007e500       ___std_minmax_element_8@12 0047f500 f   libcpmt:vector_algorithms.obj
 0001:0007e510       ___std_reverse_copy_trivially_copyable_1 0047f510 f   libcpmt:vector_algorithms.obj
 0001:0007e5c0       ___std_reverse_copy_trivially_copyable_2 0047f5c0 f   libcpmt:vector_algorithms.obj
 0001:0007e670       ___std_reverse_copy_trivially_copyable_4 0047f670 f   libcpmt:vector_algorithms.obj
 0001:0007e720       ___std_reverse_copy_trivially_copyable_8 0047f720 f   libcpmt:vector_algorithms.obj
 0001:0007e7d0       ___std_reverse_trivially_swappable_1 0047f7d0 f   libcpmt:vector_algorithms.obj
 0001:0007e890       ___std_reverse_trivially_swappable_2 0047f890 f   libcpmt:vector_algorithms.obj
 0001:0007e960       ___std_reverse_trivially_swappable_4 0047f960 f   libcpmt:vector_algorithms.obj
 0001:0007ea10       ___std_reverse_trivially_swappable_8 0047fa10 f   libcpmt:vector_algorithms.obj
 0001:0007eae0       ___std_swap_ranges_trivially_swappable 0047fae0 f   libcpmt:vector_algorithms.obj
 0001:0007eba0       ___std_swap_ranges_trivially_swappable_noalias 0047fba0 f   libcpmt:vector_algorithms.obj
 0001:0007ec56       ??0bad_alloc@std@@QAE@XZ   0047fc56 f i libcpmt:xthrow.obj
 0001:0007ec6e       ??0bad_function_call@std@@QAE@ABV01@@Z 0047fc6e f i libcpmt:xthrow.obj
 0001:0007ec89       ??0bad_function_call@std@@QAE@XZ 0047fc89 f i libcpmt:xthrow.obj
 0001:0007ec9a       ??0exception@std@@QAE@QBD@Z 0047fc9a f i libcpmt:xthrow.obj
 0001:0007eccf       ??0exception@std@@QAE@QBDH@Z 0047fccf f i libcpmt:xthrow.obj
 0001:0007ecec       ??0exception@std@@QAE@XZ   0047fcec f i libcpmt:xthrow.obj
 0001:0007ecfd       ??0invalid_argument@std@@QAE@ABV01@@Z 0047fcfd f i libcpmt:xthrow.obj
 0001:0007ed18       ??0invalid_argument@std@@QAE@PBD@Z 0047fd18 f i libcpmt:xthrow.obj
 0001:0007ed37       ??0length_error@std@@QAE@ABV01@@Z 0047fd37 f i libcpmt:xthrow.obj
 0001:0007ed52       ??0length_error@std@@QAE@PBD@Z 0047fd52 f i libcpmt:xthrow.obj
 0001:0007ed71       ??0logic_error@std@@QAE@ABV01@@Z 0047fd71 f i libcpmt:xthrow.obj
 0001:0007ed8c       ??0logic_error@std@@QAE@PBD@Z 0047fd8c f i libcpmt:xthrow.obj
 0001:0007edab       ??0out_of_range@std@@QAE@ABV01@@Z 0047fdab f i libcpmt:xthrow.obj
 0001:0007edc6       ??0out_of_range@std@@QAE@PBD@Z 0047fdc6 f i libcpmt:xthrow.obj
 0001:0007ede5       ??0overflow_error@std@@QAE@ABV01@@Z 0047fde5 f i libcpmt:xthrow.obj
 0001:0007ee00       ??0overflow_error@std@@QAE@PBD@Z 0047fe00 f i libcpmt:xthrow.obj
 0001:0007ee1f       ??0regex_error@std@@QAE@ABV01@@Z 0047fe1f f i libcpmt:xthrow.obj
 0001:0007ee43       ??0regex_error@std@@QAE@W4error_type@regex_constants@1@@Z 0047fe43 f i libcpmt:xthrow.obj
 0001:0007ee71       ??0runtime_error@std@@QAE@ABV01@@Z 0047fe71 f i libcpmt:xthrow.obj
 0001:0007ee8c       ??0runtime_error@std@@QAE@PBD@Z 0047fe8c f i libcpmt:xthrow.obj
 0001:0007eeab       ??1bad_alloc@std@@UAE@XZ   0047feab f i libcpmt:xthrow.obj
 0001:0007eebc       ??1bad_function_call@std@@UAE@XZ 0047febc f i libcpmt:xthrow.obj
 0001:0007eecd       ??1invalid_argument@std@@UAE@XZ 0047fecd f i libcpmt:xthrow.obj
 0001:0007eede       ??1length_error@std@@UAE@XZ 0047fede f i libcpmt:xthrow.obj
 0001:0007eeef       ??1logic_error@std@@UAE@XZ 0047feef f i libcpmt:xthrow.obj
 0001:0007ef00       ??1out_of_range@std@@UAE@XZ 0047ff00 f i libcpmt:xthrow.obj
 0001:0007ef11       ??1overflow_error@std@@UAE@XZ 0047ff11 f i libcpmt:xthrow.obj
 0001:0007ef22       ??1regex_error@std@@UAE@XZ 0047ff22 f i libcpmt:xthrow.obj
 0001:0007ef33       ??1runtime_error@std@@UAE@XZ 0047ff33 f i libcpmt:xthrow.obj
 0001:0007ef44       ??_Ebad_function_call@std@@UAEPAXI@Z 0047ff44 f i libcpmt:xthrow.obj
 0001:0007ef44       ??_Gbad_function_call@std@@UAEPAXI@Z 0047ff44 f i libcpmt:xthrow.obj
 0001:0007ef71       ??_Einvalid_argument@std@@UAEPAXI@Z 0047ff71 f i libcpmt:xthrow.obj
 0001:0007ef71       ??_Ginvalid_argument@std@@UAEPAXI@Z 0047ff71 f i libcpmt:xthrow.obj
 0001:0007ef9e       ??_Elength_error@std@@UAEPAXI@Z 0047ff9e f i libcpmt:xthrow.obj
 0001:0007ef9e       ??_Glength_error@std@@UAEPAXI@Z 0047ff9e f i libcpmt:xthrow.obj
 0001:0007efcb       ??_Elogic_error@std@@UAEPAXI@Z 0047ffcb f i libcpmt:xthrow.obj
 0001:0007efcb       ??_Glogic_error@std@@UAEPAXI@Z 0047ffcb f i libcpmt:xthrow.obj
 0001:0007eff8       ??_Eout_of_range@std@@UAEPAXI@Z 0047fff8 f i libcpmt:xthrow.obj
 0001:0007eff8       ??_Gout_of_range@std@@UAEPAXI@Z 0047fff8 f i libcpmt:xthrow.obj
 0001:0007f025       ??_Eoverflow_error@std@@UAEPAXI@Z 00480025 f i libcpmt:xthrow.obj
 0001:0007f025       ??_Goverflow_error@std@@UAEPAXI@Z 00480025 f i libcpmt:xthrow.obj
 0001:0007f052       ??_Eregex_error@std@@UAEPAXI@Z 00480052 f i libcpmt:xthrow.obj
 0001:0007f052       ??_Gregex_error@std@@UAEPAXI@Z 00480052 f i libcpmt:xthrow.obj
 0001:0007f07f       ??_Eruntime_error@std@@UAEPAXI@Z 0048007f f i libcpmt:xthrow.obj
 0001:0007f07f       ??_Gruntime_error@std@@UAEPAXI@Z 0048007f f i libcpmt:xthrow.obj
 0001:0007f0ac       ?_Stringify@regex_error@std@@CAPBDW4error_type@regex_constants@2@@Z 004800ac f i libcpmt:xthrow.obj
 0001:0007f16c       ?_Xbad_alloc@std@@YAXXZ    0048016c f   libcpmt:xthrow.obj
 0001:0007f189       ?_Xbad_function_call@std@@YAXXZ 00480189 f   libcpmt:xthrow.obj
 0001:0007f1a6       ?_Xinvalid_argument@std@@YAXPBD@Z 004801a6 f   libcpmt:xthrow.obj
 0001:0007f1c6       ?_Xlength_error@std@@YAXPBD@Z 004801c6 f   libcpmt:xthrow.obj
 0001:0007f1e6       ?_Xout_of_range@std@@YAXPBD@Z 004801e6 f   libcpmt:xthrow.obj
 0001:0007f206       ?_Xoverflow_error@std@@YAXPBD@Z 00480206 f   libcpmt:xthrow.obj
 0001:0007f226       ?_Xregex_error@std@@YAXW4error_type@regex_constants@1@@Z 00480226 f   libcpmt:xthrow.obj
 0001:0007f246       ?_Xruntime_error@std@@YAXPBD@Z 00480246 f   libcpmt:xthrow.obj
 0001:0007f266       ?what@bad_function_call@std@@UBEPBDXZ 00480266 f i libcpmt:xthrow.obj
 0001:0007f270       _strstr                    00480270 f   libvcruntime:strstr.obj
 0001:0007f4e0       _memcpy                    004804e0 f   libvcruntime:memcpy.obj
 0001:0007fa60       _memmove                   00480a60 f   libvcruntime:memmove.obj
 0001:0007ffe0       _memset                    00480fe0 f   libvcruntime:memset.obj
 0001:00080140       _strrchr                   00481140 f   libvcruntime:strrchr.obj
 0001:00080277       ??$__crt_interlocked_exchange_pointer@$$A6AXXZP6AXXZ@@YAP6AXXZPDS6AXXZQ6AXXZ@Z 00481277 f i libvcruntime:purevirt.obj
 0001:00080284       ??$__crt_interlocked_read_pointer@$$A6AXXZ@@YAP6AXXZPDS6AXXZ@Z 00481284 f i libvcruntime:purevirt.obj
 0001:0008028f       ?__crt_interlocked_read_32@@YAHPDH@Z 0048128f f i libvcruntime:purevirt.obj
 0001:0008029a       __get_purecall_handler     0048129a f   libvcruntime:purevirt.obj
 0001:000802a1       __purecall                 004812a1 f   libvcruntime:purevirt.obj
 0001:000802bd       __set_purecall_handler     004812bd f   libvcruntime:purevirt.obj
 0001:000802d0       _strchr                    004812d0 f   libvcruntime:strchr.obj
 0001:0008033e       ___from_strstr_to_strchr   0048133e     libvcruntime:strchr.obj
 0001:000803fb       ??$?RD@__crt_public_free_policy@@QBEXQBD@Z 004813fb f i libvcruntime:std_exception.obj
 0001:0008040b       ??0?$__crt_unique_heap_ptr@DU__crt_public_free_policy@@@@QAE@QAD@Z 0048140b f i libvcruntime:std_exception.obj
 0001:00080419       ??1?$__crt_unique_heap_ptr@DU__crt_public_free_policy@@@@QAE@XZ 00481419 f i libvcruntime:std_exception.obj
 0001:00080429       ??B?$__crt_unique_heap_ptr@DU__crt_public_free_policy@@@@QBE_NXZ 00481429 f i libvcruntime:std_exception.obj
 0001:00080430       ?detach@?$__crt_unique_heap_ptr@DU__crt_public_free_policy@@@@QAEPADXZ 00481430 f i libvcruntime:std_exception.obj
 0001:00080436       ?get@?$__crt_unique_heap_ptr@DU__crt_public_free_policy@@@@QBEPADXZ 00481436 f i libvcruntime:std_exception.obj
 0001:00080439       ?is_valid@?$__crt_unique_heap_ptr@DU__crt_public_free_policy@@@@QBE_NXZ 00481439 f i libvcruntime:std_exception.obj
 0001:00080440       ?release@?$__crt_unique_heap_ptr@DU__crt_public_free_policy@@@@QAEXXZ 00481440 f i libvcruntime:std_exception.obj
 0001:00080450       ___std_exception_copy      00481450 f   libvcruntime:std_exception.obj
 0001:000804b3       ___std_exception_destroy   004814b3 f   libvcruntime:std_exception.obj
 0001:000804d2       __CxxThrowException@8      004814d2 f   libvcruntime:throw.obj
 0001:0008053e       ___DestructExceptionObject 0048153e f   libvcruntime:ehhelpers.obj
 0001:000805df       ?_CallMemberFunction0@@YGXQAX0@Z 004815df f i libvcruntime:ehhelpers.obj
 0001:00080644       ?raw_name@type_info@@QBEPBDXZ 00481644 f i libvcruntime:ehhelpers.obj
 0001:00080648       __IsExceptionObjectToBeDestroyed 00481648 f   libvcruntime:ehhelpers.obj
 0001:0008066e       __SetWinRTOutOfMemoryExceptionCallback 0048166e f   libvcruntime:ehhelpers.obj
 0001:0008067b       ___AdjustPointer           0048167b f   libvcruntime:ehhelpers.obj
 0001:000806a0       ___FrameUnwindFilter       004816a0 f   libvcruntime:ehhelpers.obj
 0001:000806f6       ___GetPlatformExceptionInfo 004816f6 f   libvcruntime:ehhelpers.obj
 0001:00080742       ___current_exception       00481742 f   libvcruntime:ehhelpers.obj
 0001:0008074b       ___current_exception_context 0048174b f   libvcruntime:ehhelpers.obj
 0001:00080754       ___processing_throw        00481754 f   libvcruntime:ehhelpers.obj
 0001:0008075d       ___std_terminate           0048175d f   libvcruntime:ehhelpers.obj
 0001:00080762       __is_exception_typeof      00481762 f   libvcruntime:ehhelpers.obj
 0001:00080806       ??$?0AAViterator@TryBlockMap@__FrameHandler3@@AAV012@$0A@@?$pair@Viterator@TryBlockMap@__FrameHandler3@@V123@@std@@QAE@AAViterator@TryBlockMap@__FrameHandler3@@0@Z 00481806 f i libvcruntime:trnsctrl.obj
 0001:0008082a       ??$forward@AAViterator@TryBlockMap@__FrameHandler3@@@std@@YAAAViterator@TryBlockMap@__FrameHandler3@@AAV123@@Z 0048182a f i libvcruntime:trnsctrl.obj
 0001:00080832       ??0iterator@TryBlockMap@__FrameHandler3@@QAE@AAV12@I@Z 00481832 f i libvcruntime:trnsctrl.obj
 0001:00080846       ?GetRangeOfTrysToCheck@__FrameHandler3@@SA?AU?$pair@Viterator@TryBlockMap@__FrameHandler3@@V123@@std@@AAVTryBlockMap@1@HPAXPBU_s_FuncInfo@@H@Z 00481846 f   libvcruntime:trnsctrl.obj
 0001:000808b6       ?_CallCatchBlock2@@YAPAXPAUEHRegistrationNode@@PBU_s_FuncInfo@@PAXHK@Z 004818b6 f   libvcruntime:trnsctrl.obj
 0001:00080913       ?_CallSETranslator@@YAHPAUEHExceptionRecord@@PAUEHRegistrationNode@@PAX2PBU_s_FuncInfo@@H1@Z 00481913 f   libvcruntime:trnsctrl.obj
 0001:00080a09       ?_JumpToContinuation@@YGXPAXPAUEHRegistrationNode@@@Z 00481a09 f   libvcruntime:trnsctrl.obj
 0001:00080a39       ?_UnwindNestedFrames@@YGXPAUEHRegistrationNode@@PAUEHExceptionRecord@@@Z 00481a39 f   libvcruntime:trnsctrl.obj
 0001:00080a8c       __CatchGuardHandler        00481a8c f   libvcruntime:trnsctrl.obj
 0001:00080abd       __CreateFrameInfo          00481abd f   libvcruntime:trnsctrl.obj
 0001:00080ae1       __FindAndUnlinkFrame       00481ae1 f   libvcruntime:trnsctrl.obj
 0001:00080b29       __TranslatorGuardHandler   00481b29 f   libvcruntime:trnsctrl.obj
 0001:00080bc6       ___CxxFrameHandler         00481bc6 f   libvcruntime:trnsctrl.obj
 0001:00080bfc       ___CxxFrameHandler2        00481bfc f   libvcruntime:trnsctrl.obj
 0001:00080c32       ___CxxFrameHandler3        00481c32 f   libvcruntime:trnsctrl.obj
 0001:00080c68       ___CxxLongjmpUnwind@4      00481c68 f   libvcruntime:trnsctrl.obj
 0001:00080c8d       ___vcrt_initialize         00481c8d f   libvcruntime:initialization.obj
 0001:00080cac       ___vcrt_thread_attach      00481cac f   libvcruntime:initialization.obj
 0001:00080cb7       ___vcrt_thread_detach      00481cb7 f   libvcruntime:initialization.obj
 0001:00080cc2       ___vcrt_uninitialize       00481cc2 f   libvcruntime:initialization.obj
 0001:00080cd9       ___vcrt_uninitialize_critical 00481cd9 f   libvcruntime:initialization.obj
 0001:00080d30       __except_handler4          00481d30 f   libvcruntime:chandler4.obj
 0001:00080e9c       ??$?RD@__crt_internal_free_policy@@QBEXQBD@Z 00481e9c f i libvcruntime:std_type_info.obj
 0001:00080eac       ??$?RX@__crt_internal_free_policy@@QBEXQBX@Z 00481eac f i libvcruntime:std_type_info.obj
 0001:00080ebc       ??$__crt_interlocked_compare_exchange_pointer@$$CBDPAD$$T@@YAPBDPDSBDQAD$$T@Z 00481ebc f i libvcruntime:std_type_info.obj
 0001:00080ece       ??$__crt_interlocked_read_pointer@$$CBD@@YAPBDPDSBD@Z 00481ece f i libvcruntime:std_type_info.obj
 0001:00080ed9       ??0?$__crt_unique_heap_ptr@DU__crt_internal_free_policy@@@@QAE@QAD@Z 00481ed9 f i libvcruntime:std_type_info.obj
 0001:00080ee7       ??0?$__crt_unique_heap_ptr@XU__crt_internal_free_policy@@@@QAE@QAX@Z 00481ee7 f i libvcruntime:std_type_info.obj
 0001:00080ef5       ??1?$__crt_unique_heap_ptr@DU__crt_internal_free_policy@@@@QAE@XZ 00481ef5 f i libvcruntime:std_type_info.obj
 0001:00080f05       ??1?$__crt_unique_heap_ptr@XU__crt_internal_free_policy@@@@QAE@XZ 00481f05 f i libvcruntime:std_type_info.obj
 0001:00080f15       ??B?$__crt_unique_heap_ptr@DU__crt_internal_free_policy@@@@QBE_NXZ 00481f15 f i libvcruntime:std_type_info.obj
 0001:00080f1c       ??B?$__crt_unique_heap_ptr@XU__crt_internal_free_policy@@@@QBE_NXZ 00481f1c f i libvcruntime:std_type_info.obj
 0001:00080f43       ?detach@?$__crt_unique_heap_ptr@XU__crt_internal_free_policy@@@@QAEPAXXZ 00481f43 f i libvcruntime:std_type_info.obj
 0001:00080f49       ?get@?$__crt_unique_heap_ptr@DU__crt_internal_free_policy@@@@QBEPADXZ 00481f49 f i libvcruntime:std_type_info.obj
 0001:00080f4c       ?get@?$__crt_unique_heap_ptr@XU__crt_internal_free_policy@@@@QBEPAXXZ 00481f4c f i libvcruntime:std_type_info.obj
 0001:00080f4f       ?is_valid@?$__crt_unique_heap_ptr@DU__crt_internal_free_policy@@@@QBE_NXZ 00481f4f f i libvcruntime:std_type_info.obj
 0001:00080f56       ?is_valid@?$__crt_unique_heap_ptr@XU__crt_internal_free_policy@@@@QBE_NXZ 00481f56 f i libvcruntime:std_type_info.obj
 0001:00080f5d       ?release@?$__crt_unique_heap_ptr@DU__crt_internal_free_policy@@@@QAEXXZ 00481f5d f i libvcruntime:std_type_info.obj
 0001:00080f6d       ?release@?$__crt_unique_heap_ptr@XU__crt_internal_free_policy@@@@QAEXXZ 00481f6d f i libvcruntime:std_type_info.obj
 0001:00080f7d       ___std_type_info_compare   00481f7d f   libvcruntime:std_type_info.obj
 0001:00080fb9       ___std_type_info_destroy_list 00481fb9 f   libvcruntime:std_type_info.obj
 0001:00080fdc       ___std_type_info_hash      00481fdc f   libvcruntime:std_type_info.obj
 0001:00081002       ___std_type_info_name      00482002 f   libvcruntime:std_type_info.obj
 0001:000810c8       ___vcrt_GetModuleFileNameW 004820c8 f   libvcruntime:winapi_thunks.obj
 0001:000810dc       ___vcrt_GetModuleHandleW   004820dc f   libvcruntime:winapi_thunks.obj
 0001:000810ea       ___vcrt_LoadLibraryExW     004820ea f   libvcruntime:winapi_thunks.obj
 0001:000810fe       ??$?RU__vcrt_ptd@@@__crt_internal_free_policy@@QBEXQBU__vcrt_ptd@@@Z 004820fe f i libvcruntime:per_thread_data.obj
 0001:0008110e       ??0?$__crt_unique_heap_ptr@U__vcrt_ptd@@U__crt_internal_free_policy@@@@QAE@QAU__vcrt_ptd@@@Z 0048210e f i libvcruntime:per_thread_data.obj
 0001:0008112b       ??1?$__crt_unique_heap_ptr@U__vcrt_ptd@@U__crt_internal_free_policy@@@@QAE@XZ 0048212b f i libvcruntime:per_thread_data.obj
 0001:00081144       ??B?$__crt_unique_heap_ptr@U__vcrt_ptd@@U__crt_internal_free_policy@@@@QBE_NXZ 00482144 f i libvcruntime:per_thread_data.obj
 0001:0008114b       ?detach@?$__crt_unique_heap_ptr@U__vcrt_ptd@@U__crt_internal_free_policy@@@@QAEPAU__vcrt_ptd@@XZ 0048214b f i libvcruntime:per_thread_data.obj
 0001:00081151       ?get@?$__crt_unique_heap_ptr@U__vcrt_ptd@@U__crt_internal_free_policy@@@@QBEPAU__vcrt_ptd@@XZ 00482151 f i libvcruntime:per_thread_data.obj
 0001:00081154       ?is_valid@?$__crt_unique_heap_ptr@U__vcrt_ptd@@U__crt_internal_free_policy@@@@QBE_NXZ 00482154 f i libvcruntime:per_thread_data.obj
 0001:0008115b       ?release@?$__crt_unique_heap_ptr@U__vcrt_ptd@@U__crt_internal_free_policy@@@@QAEXXZ 0048215b f i libvcruntime:per_thread_data.obj
 0001:00081185       ___vcrt_freefls@4          00482185 f   libvcruntime:per_thread_data.obj
 0001:000811a1       ___vcrt_freeptd            004821a1 f   libvcruntime:per_thread_data.obj
 0001:000811d7       ___vcrt_getptd             004821d7 f   libvcruntime:per_thread_data.obj
 0001:000811e5       ___vcrt_getptd_noexit      004821e5 f   libvcruntime:per_thread_data.obj
 0001:00081277       ___vcrt_getptd_noinit      00482277 f   libvcruntime:per_thread_data.obj
 0001:000812ae       ___vcrt_initialize_ptd     004822ae f   libvcruntime:per_thread_data.obj
 0001:000812e1       ___vcrt_uninitialize_ptd   004822e1 f   libvcruntime:per_thread_data.obj
 0001:00081a2e       ??$TypeMatchHelper@V__FrameHandler3@@@@YAHPBU_s_HandlerType@@PBU_s_CatchableType@@PBU_s_ThrowInfo@@@Z 00482a2e f i libvcruntime:frame.obj
 0001:00081abc       ??$__InternalCxxFrameHandler@V__FrameHandler3@@@@YA?AW4_EXCEPTION_DISPOSITION@@PAUEHExceptionRecord@@PAUEHRegistrationNode@@PAU_CONTEXT@@PAXPBU_s_FuncInfo@@H1E@Z 00482abc f i libvcruntime:frame.obj
 0001:00081bbe       ??$__InternalCxxFrameHandlerWrapper@V__FrameHandler3@@@@YA?AW4_EXCEPTION_DISPOSITION@@PAUEHExceptionRecord@@PAUEHRegistrationNode@@PAU_CONTEXT@@PAXPBU_s_FuncInfo@@H1E@Z 00482bbe f i libvcruntime:frame.obj
 0001:00081bc7       ??0HandlerMap@__FrameHandler3@@QAE@PBU_s_TryBlockMapEntry@@II@Z 00482bc7 f i libvcruntime:frame.obj
 0001:00081bde       ??0TryBlockMap@__FrameHandler3@@QAE@PBU_s_FuncInfo@@I@Z 00482bde f i libvcruntime:frame.obj
 0001:00081bf2       ??0bad_exception@std@@QAE@ABV01@@Z 00482bf2 f i libvcruntime:frame.obj
 0001:00081c0d       ??0bad_exception@std@@QAE@XZ 00482c0d f i libvcruntime:frame.obj
 0001:00081c25       ??0iterator@HandlerMap@__FrameHandler3@@QAE@AAV12@I@Z 00482c25 f i libvcruntime:frame.obj
 0001:00081c39       ??1bad_exception@std@@UAE@XZ 00482c39 f i libvcruntime:frame.obj
 0001:00081c4a       ??8iterator@HandlerMap@__FrameHandler3@@QBE_NABV012@@Z 00482c4a f i libvcruntime:frame.obj
 0001:00081c5d       ??8type_info@@QBE_NABV0@@Z 00482c5d f i libvcruntime:frame.obj
 0001:00081c7c       ??9iterator@HandlerMap@__FrameHandler3@@QBE_NABV012@@Z 00482c7c f i libvcruntime:frame.obj
 0001:00081c8f       ??Diterator@HandlerMap@__FrameHandler3@@QAE?BU_s_HandlerType@@XZ 00482c8f f i libvcruntime:frame.obj
 0001:00081cae       ??Diterator@TryBlockMap@__FrameHandler3@@QAE?BU_s_TryBlockMapEntry@@XZ 00482cae f i libvcruntime:frame.obj
 0001:00081cd0       ??Eiterator@HandlerMap@__FrameHandler3@@QAEAAV012@XZ 00482cd0 f i libvcruntime:frame.obj
 0001:00081cd6       ??Eiterator@TryBlockMap@__FrameHandler3@@QAEAAV012@XZ 00482cd6 f i libvcruntime:frame.obj
 0001:00081cdc       ??Miterator@TryBlockMap@__FrameHandler3@@QBE_NABV012@@Z 00482cdc f i libvcruntime:frame.obj
 0001:00081cef       ??_Ebad_exception@std@@UAEPAXI@Z 00482cef f i libvcruntime:frame.obj
 0001:00081cef       ??_Gbad_exception@std@@UAEPAXI@Z 00482cef f i libvcruntime:frame.obj
 0001:00081d1c       ?BuildCatchObject@__FrameHandler3@@SAXPAUEHExceptionRecord@@PAXPBU_s_HandlerType@@PBU_s_CatchableType@@@Z 00482d1c f   libvcruntime:frame.obj
 0001:00081d21       ?BuildCatchObjectHelper@__FrameHandler3@@SAHPAUEHExceptionRecord@@PAXPBU_s_HandlerType@@PBU_s_CatchableType@@@Z 00482d21 f   libvcruntime:frame.obj
 0001:00081f82       ?FrameUnwindToEmptyState@__FrameHandler3@@SAXPAUEHRegistrationNode@@PAXPBU_s_FuncInfo@@@Z 00482f82 f   libvcruntime:frame.obj
 0001:00081f9a       ?FrameUnwindToState@__FrameHandler3@@SAXPAUEHRegistrationNode@@PAXPBU_s_FuncInfo@@H@Z 00482f9a f   libvcruntime:frame.obj
 0001:00082082       ?GetMaxState@__FrameHandler3@@SAHPAXPBU_s_FuncInfo@@@Z 00483082 f i libvcruntime:frame.obj
 0001:00082160       ?TypeMatch@__FrameHandler3@@SAHPBU_s_HandlerType@@PBU_s_CatchableType@@PBU_s_ThrowInfo@@@Z 00483160 f   libvcruntime:frame.obj
 0001:00082169       ?_CallMemberFunction1@@YGXQAX00@Z 00483169 f i libvcruntime:frame.obj
 0001:00082179       ?_CallMemberFunction2@@YGXQAX00H@Z 00483179 f i libvcruntime:frame.obj
 0001:0008218c       ?begin@HandlerMap@__FrameHandler3@@QAE?AViterator@12@XZ 0048318c f i libvcruntime:frame.obj
 0001:0008219c       ?end@HandlerMap@__FrameHandler3@@QAE?AViterator@12@XZ 0048319c f i libvcruntime:frame.obj
 0001:000821ad       ?getESTypes@__FrameHandler3@@SAPBU_s_ESTypeList@@PBU_s_FuncInfo@@@Z 004831ad f i libvcruntime:frame.obj
 0001:000821b8       ?getLastEntry@HandlerMap@__FrameHandler3@@QAEPBU_s_HandlerType@@XZ 004831b8 f i libvcruntime:frame.obj
 0001:000821c6       ?getMagicNum@__FrameHandler3@@SAIPBU_s_FuncInfo@@@Z 004831c6 f i libvcruntime:frame.obj
 0001:000821d5       ?getNumTryBlocks@TryBlockMap@__FrameHandler3@@QAEIXZ 004831d5 f i libvcruntime:frame.obj
 0001:000821db       ?isEHs@__FrameHandler3@@SA_NPBU_s_FuncInfo@@@Z 004831db f i libvcruntime:frame.obj
 0001:000821e8       ?isNoExcept@__FrameHandler3@@SA_NPBU_s_FuncInfo@@@Z 004831e8 f i libvcruntime:frame.obj
 0001:000821f8       ___BuildCatchObject        004831f8 f   libvcruntime:frame.obj
 0001:000821fd       ___BuildCatchObjectHelper  004831fd f   libvcruntime:frame.obj
 0001:00082206       ___TypeMatch               00483206 f   libvcruntime:frame.obj
 0001:0008220f       ___vcrt_EncodePointer      0048320f f i libvcruntime:frame.obj
 0001:00082220       __CallSettingFrame@12      00483220 f   libvcruntime:lowhelpr.obj
 0001:00082247       __NLG_Return               00483247     libvcruntime:lowhelpr.obj
 0001:00082277       ___except_validate_context_record 00483277 f   libvcruntime:jbcxrval.obj
 0001:000822a7       ___except_validate_jump_buffer 004832a7 f   libvcruntime:jbcxrval.obj
 0001:000822d4       ___except_validate_jump_buffer_common 004832d4 f i libvcruntime:jbcxrval.obj
 0001:0008230d       ___vcrt_initialize_locks   0048330d f   libvcruntime:locks.obj
 0001:00082349       ___vcrt_lock               00483349 f   libvcruntime:locks.obj
 0001:0008235e       ___vcrt_uninitialize_locks 0048335e f   libvcruntime:locks.obj
 0001:0008238d       ___vcrt_unlock             0048338d f   libvcruntime:locks.obj
 0001:000823b0       __local_unwind4            004833b0 f   libvcruntime:exsup4.obj
 0001:000824a0       __seh_longjmp_unwind4@4    004834a0 f   libvcruntime:exsup4.obj
 0001:000824d0       @_EH4_CallFilterFunc@8     004834d0 f   libvcruntime:exsup4.obj
 0001:000824f0       @_EH4_TransferToHandler@8  004834f0 f   libvcruntime:exsup4.obj
 0001:00082510       @_EH4_GlobalUnwind2@8      00483510 f   libvcruntime:exsup4.obj
 0001:00082530       @_EH4_LocalUnwind@16       00483530 f   libvcruntime:exsup4.obj
 0001:00082547       ??$?0$00@DName@@QAE@PBDU?$StringLifeSelector@$00@@@Z 00483547 f i libvcruntime:undname.obj
 0001:0008257a       ??$?0$00@pcharNode@@QAE@PBDHU?$StringLifeSelector@$00@@@Z 0048357a f i libvcruntime:undname.obj
 0001:00082595       ??$?0$01@DName@@QAE@PBDU?$StringLifeSelector@$01@@@Z 00483595 f i libvcruntime:undname.obj
 0001:000825c8       ??$?0$01@pcharNode@@QAE@PBDHU?$StringLifeSelector@$01@@@Z 004835c8 f i libvcruntime:undname.obj
 0001:00082608       ??$?0$0A@@DName@@QAE@PBDU?$StringLifeSelector@$0A@@@@Z 00483608 f i libvcruntime:undname.obj
 0001:0008263b       ??$?0$0A@@pcharNode@@QAE@PBDHU?$StringLifeSelector@$0A@@@@Z 0048363b f i libvcruntime:undname.obj
 0001:0008267b       ??$?0_K$0A@@?$optional@_K@std@@QAE@$$QA_K@Z 0048367b f i libvcruntime:undname.obj
 0001:00082695       ??$?0_K@?$_Optional_construct_base@_K@std@@QAE@Uin_place_t@1@$$QA_K@Z 00483695 f i libvcruntime:undname.obj
 0001:000826af       ??$?0_K@?$_Optional_destruct_base@_K$00@std@@QAE@Uin_place_t@1@$$QA_K@Z 004836af f i libvcruntime:undname.obj
 0001:000826c9       ??$append@VDNameNode@@@DName@@AAEXPBVDNameNode@@@Z 004836c9 f i libvcruntime:undname.obj
 0001:0008270a       ??$append@VDNameStatusNode@@@DName@@AAEXPBVDNameStatusNode@@@Z 0048370a f i libvcruntime:undname.obj
 0001:0008274b       ??$append@VcharNode@@@DName@@AAEXPBVcharNode@@@Z 0048374b f i libvcruntime:undname.obj
 0001:0008278c       ??$append@VpDNameNode@@@DName@@AAEXPBVpDNameNode@@@Z 0048378c f i libvcruntime:undname.obj
 0001:000827cd       ??$append@VpcharNode@@@DName@@AAEXPBVpcharNode@@@Z 004837cd f i libvcruntime:undname.obj
 0001:0008280e       ??$doPchar@$00@DName@@AAEXPBDH@Z 0048380e f i libvcruntime:undname.obj
 0001:00082879       ??$doPchar@$01@DName@@AAEXPBDH@Z 00483879 f i libvcruntime:undname.obj
 0001:000828ea       ??$doPchar@$0A@@DName@@AAEXPBDH@Z 004838ea f i libvcruntime:undname.obj
 0001:0008295b       ??$forward@_K@std@@YA$$QA_KAA_K@Z 0048395b f i libvcruntime:undname.obj
 0001:00082a1f       ??$size@D$04@std@@YAIAAY04$$CBD@Z 00483a1f f i libvcruntime:undname.obj
 0001:00082a23       ??0?$_Optional_construct_base@_K@std@@QAE@XZ 00483a23 f i libvcruntime:undname.obj
 0001:00082a2a       ??0?$_Optional_destruct_base@_K$00@std@@QAE@XZ 00483a2a f i libvcruntime:undname.obj
 0001:00082a31       ??0?$optional@_K@std@@QAE@XZ 00483a31 f i libvcruntime:undname.obj
 0001:00082a38       ??0Block@_HeapManager@@QAE@XZ 00483a38 f i libvcruntime:undname.obj
 0001:00082a3e       ??0DName@@QAE@AAPBDD@Z     00483a3e f   libvcruntime:undname.obj
 0001:00082abe       ??0DName@@QAE@ABUStringLiteral@@@Z 00483abe f   libvcruntime:undname.obj
 0001:00082ae5       ??0DName@@QAE@ABV0@@Z      00483ae5 f i libvcruntime:undname.obj
 0001:00082afb       ??0DName@@QAE@D@Z          00483afb f   libvcruntime:undname.obj
 0001:00082b17       ??0DName@@QAE@PAV0@@Z      00483b17 f   libvcruntime:undname.obj
 0001:00082b60       ??0DName@@QAE@W4DNameStatus@@@Z 00483b60 f   libvcruntime:undname.obj
 0001:00082ba0       ??0DName@@QAE@XZ           00483ba0 f i libvcruntime:undname.obj
 0001:00082baa       ??0DName@@QAE@_J@Z         00483baa f   libvcruntime:undname.obj
 0001:00082c34       ??0DName@@QAE@_K@Z         00483c34 f   libvcruntime:undname.obj
 0001:00082c98       ??0DNameNode@@IAE@XZ       00483c98 f i libvcruntime:undname.obj
 0001:00082ca1       ??0Replicator@@QAE@XZ      00483ca1 f i libvcruntime:undname.obj
 0001:00082cb0       ??0UnDecorator@@QAE@PBDP6APADJ@ZK@Z 00483cb0 f i libvcruntime:undname.obj
 0001:00082cfc       ??0_Nontrivial_dummy_type@std@@QAE@XZ 00483cfc f i libvcruntime:undname.obj
 0001:00082cff       ??0charNode@@QAE@D@Z       00483cff f i libvcruntime:undname.obj
 0001:00082d14       ??0pDNameNode@@QAE@PAVDName@@@Z 00483d14 f   libvcruntime:undname.obj
 0001:00082d3c       ??0pairNode@@QAE@PBVDNameNode@@0@Z 00483d3c f i libvcruntime:undname.obj
 0001:00082d62       ??2@YAPAXIAAV_HeapManager@@H@Z 00483d62 f   libvcruntime:undname.obj
 0001:00082d81       ??4DName@@QAEAAV0@ABUStringLiteral@@@Z 00483d81 f   libvcruntime:undname.obj
 0001:00082da2       ??4DName@@QAEAAV0@ABV0@@Z  00483da2 f   libvcruntime:undname.obj
 0001:00082db8       ??4DName@@QAEAAV0@D@Z      00483db8 f i libvcruntime:undname.obj
 0001:00082dd4       ??4DName@@QAEAAV0@PAV0@@Z  00483dd4 f   libvcruntime:undname.obj
 0001:00082e17       ??4DName@@QAEAAV0@W4DNameStatus@@@Z 00483e17 f   libvcruntime:undname.obj
 0001:00082e49       ??AReplicator@@QBE?AVDName@@H@Z 00483e49 f   libvcruntime:undname.obj
 0001:00082e85       ??B?$optional@_K@std@@QBE_NXZ 00483e85 f i libvcruntime:undname.obj
 0001:00082e89       ??D?$_Optional_construct_base@_K@std@@QGAEAA_KXZ 00483e89 f i libvcruntime:undname.obj
 0001:00082e8c       ??H@YA?AVDName@@ABUStringLiteral@@ABV0@@Z 00483e8c f i libvcruntime:undname.obj
 0001:00082eae       ??H@YA?AVDName@@DABV0@@Z   00483eae f i libvcruntime:undname.obj
 0001:00082ed9       ??H@YA?AVDName@@W4DNameStatus@@ABV0@@Z 00483ed9 f i libvcruntime:undname.obj
 0001:00082efb       ??HDName@@QBE?AV0@ABUStringLiteral@@@Z 00483efb f   libvcruntime:undname.obj
 0001:00082f1d       ??HDName@@QBE?AV0@ABV0@@Z  00483f1d f   libvcruntime:undname.obj
 0001:00082f3f       ??HDName@@QBE?AV0@D@Z      00483f3f f   libvcruntime:undname.obj
 0001:00082f61       ??HDName@@QBE?AV0@PAV0@@Z  00483f61 f   libvcruntime:undname.obj
 0001:00082f83       ??HDName@@QBE?AV0@W4DNameStatus@@@Z 00483f83 f   libvcruntime:undname.obj
 0001:00082fa5       ??HStringLiteral@@QBE?AU0@H@Z 00483fa5 f i libvcruntime:undname.obj
 0001:00082fbf       ??YDName@@QAEAAV0@ABUStringLiteral@@@Z 00483fbf f   libvcruntime:undname.obj
 0001:00083017       ??YDName@@QAEAAV0@ABV0@@Z  00484017 f   libvcruntime:undname.obj
 0001:0008306e       ??YDName@@QAEAAV0@D@Z      0048406e f   libvcruntime:undname.obj
 0001:000830c3       ??YDName@@QAEAAV0@PAV0@@Z  004840c3 f   libvcruntime:undname.obj
 0001:00083127       ??YDName@@QAEAAV0@W4DNameStatus@@@Z 00484127 f   libvcruntime:undname.obj
 0001:00083167       ??YReplicator@@QAEAAV0@ABVDName@@@Z 00484167 f   libvcruntime:undname.obj
 0001:000831a7       ??_5DName@@QAEAAV0@ABV0@@Z 004841a7 f   libvcruntime:undname.obj
 0001:000831c6       ??__K_l@@YA?AUStringLiteral@@PBDI@Z 004841c6 f i libvcruntime:undname.obj
 0001:000831d1       ?Constructor@_HeapManager@@QAEXP6APAXI@ZP6AXPAX@Z@Z 004841d1 f i libvcruntime:undname.obj
 0001:000831ee       ?Destructor@_HeapManager@@QAEXXZ 004841ee f i libvcruntime:undname.obj
 0001:00083232       ?UScore@UnDecorator@@SA?AUStringLiteral@@W4Tokens@@@Z 00484232 f   libvcruntime:undname.obj
 0001:00083259       ?composeDeclaration@UnDecorator@@CA?AVDName@@ABV2@@Z 00484259 f i libvcruntime:undname.obj
 0001:00083f51       ?doAccessSpecifiers@UnDecorator@@SAHXZ 00484f51 f i libvcruntime:undname.obj
 0001:00083f5f       ?doAllocationLanguage@UnDecorator@@SAHXZ 00484f5f f i libvcruntime:undname.obj
 0001:00083f6d       ?doAllocationModel@UnDecorator@@SAHXZ 00484f6d f i libvcruntime:undname.obj
 0001:00083f7b       ?doEcsu@UnDecorator@@SAHXZ 00484f7b f i libvcruntime:undname.obj
 0001:00083f89       ?doEllipsis@UnDecorator@@SAHXZ 00484f89 f i libvcruntime:undname.obj
 0001:00083f97       ?doFunctionReturns@UnDecorator@@SAHXZ 00484f97 f i libvcruntime:undname.obj
 0001:00083fa5       ?doMSKeywords@UnDecorator@@SAHXZ 00484fa5 f i libvcruntime:undname.obj
 0001:00083fb2       ?doMemberTypes@UnDecorator@@SAHXZ 00484fb2 f i libvcruntime:undname.obj
 0001:00083fc0       ?doNameOnly@UnDecorator@@SAHXZ 00484fc0 f i libvcruntime:undname.obj
 0001:00083fcb       ?doNoIdentCharCheck@UnDecorator@@SAHXZ 00484fcb f i libvcruntime:undname.obj
 0001:00083fd6       ?doPchar@DName@@AAEXD@Z    00484fd6 f   libvcruntime:undname.obj
 0001:0008400e       ?doPtr64@UnDecorator@@SAHXZ 0048500e f i libvcruntime:undname.obj
 0001:0008401c       ?doRestrictionSpec@UnDecorator@@SAHXZ 0048501c f i libvcruntime:undname.obj
 0001:0008402a       ?doThisTypes@UnDecorator@@SAHXZ 0048502a f i libvcruntime:undname.obj
 0001:0008403c       ?doThrowTypes@UnDecorator@@SAHXZ 0048503c f i libvcruntime:undname.obj
 0001:0008404a       ?doTypeOnly@UnDecorator@@SAHXZ 0048504a f i libvcruntime:undname.obj
 0001:00084055       ?doUnderScore@UnDecorator@@SAHXZ 00485055 f i libvcruntime:undname.obj
 0001:00084060       ?getAddressOf@UnDecorator@@CA?AVDName@@XZ 00485060 f   libvcruntime:undname.obj
 0001:000840c8       ?getArgumentList@UnDecorator@@CA?AVDName@@XZ 004850c8 f   libvcruntime:undname.obj
 0001:00084232       ?getArgumentTypes@UnDecorator@@CA?AVDName@@XZ 00485232 f   libvcruntime:undname.obj
 0001:0008433a       ?getArrayAccess@UnDecorator@@CA?AVDName@@XZ 0048533a f   libvcruntime:undname.obj
 0001:000843ae       ?getArrayObject@UnDecorator@@CA?AVDName@@XZ 004853ae f   libvcruntime:undname.obj
 0001:00084439       ?getArrayType@UnDecorator@@CA?AVDName@@ABV2@@Z 00485439 f i libvcruntime:undname.obj
 0001:000845d6       ?getBasedType@UnDecorator@@CA?AVDName@@XZ 004855d6 f   libvcruntime:undname.obj
 0001:00084685       ?getBasicDataType@UnDecorator@@CA?AVDName@@ABV2@@Z 00485685 f   libvcruntime:undname.obj
 0001:00084be1       ?getCHPEName@UnDecorator@@QAEPADPADH@Z 00485be1 f i libvcruntime:undname.obj
 0001:00084cbe       ?getCallIndex@UnDecorator@@CA?AVDName@@XZ 00485cbe f i libvcruntime:undname.obj
 0001:00084cd2       ?getCallingConvention@UnDecorator@@CA?AVDName@@XZ 00485cd2 f   libvcruntime:undname.obj
 0001:00084da7       ?getDataIndirectType@UnDecorator@@CA?AVDName@@ABV2@W4IndirectionKind@@0H@Z 00485da7 f   libvcruntime:undname.obj
 0001:00085545       ?getDataIndirectType@UnDecorator@@CA?AVDName@@XZ 00486545 f i libvcruntime:undname.obj
 0001:00085573       ?getDataType@UnDecorator@@CA?AVDName@@PAV2@@Z 00486573 f   libvcruntime:undname.obj
 0001:0008564a       ?getDecoratedName@UnDecorator@@CA?AVDName@@XZ 0048664a f   libvcruntime:undname.obj
 0001:0008589e       ?getDimension@UnDecorator@@CA?AVDName@@_N@Z 0048689e f   libvcruntime:undname.obj
 0001:000859a5       ?getDispatchTarget@UnDecorator@@CA?AVDName@@XZ 004869a5 f   libvcruntime:undname.obj
 0001:000859f6       ?getDisplacement@UnDecorator@@CA?AVDName@@XZ 004869f6 f i libvcruntime:undname.obj
 0001:00085a0a       ?getECSUDataType@UnDecorator@@CA?AVDName@@XZ 00486a0a f   libvcruntime:undname.obj
 0001:00085bb4       ?getECSUName@UnDecorator@@CA?AVDName@@XZ 00486bb4 f i libvcruntime:undname.obj
 0001:00085bc5       ?getEnumType@UnDecorator@@CA?AVDName@@XZ 00486bc5 f i libvcruntime:undname.obj
 0001:00085ce5       ?getExtendedDataIndirectType@UnDecorator@@CA?AVDName@@AAW4IndirectionKind@@AA_NH@Z 00486ce5 f   libvcruntime:undname.obj
 0001:00085e91       ?getExternalDataType@UnDecorator@@CA?AVDName@@ABV2@@Z 00486e91 f i libvcruntime:undname.obj
 0001:00085ef6       ?getFloatingPoint@UnDecorator@@CA?AVDName@@H@Z 00486ef6 f   libvcruntime:undname.obj
 0001:00085fb4       ?getFunctionIndirectType@UnDecorator@@CA?AVDName@@ABV2@@Z 00486fb4 f   libvcruntime:undname.obj
 0001:0008635e       ?getGuardNumber@UnDecorator@@CA?AVDName@@XZ 0048735e f i libvcruntime:undname.obj
 0001:00086372       ?getLastChar@DName@@QBEDXZ 00487372 f i libvcruntime:undname.obj
 0001:00086392       ?getLastChar@DNameStatusNode@@UBEDXZ 00487392 f i libvcruntime:undname.obj
 0001:0008639e       ?getLastChar@charNode@@UBEDXZ 0048739e f i libvcruntime:undname.obj
 0001:000863a2       ?getLastChar@pDNameNode@@UBEDXZ 004873a2 f i libvcruntime:undname.obj
 0001:000863b0       ?getLastChar@pairNode@@UBEDXZ 004873b0 f i libvcruntime:undname.obj
 0001:000863e5       ?getLastChar@pcharNode@@UBEDXZ 004873e5 f i libvcruntime:undname.obj
 0001:000863f7       ?getLexicalFrame@UnDecorator@@CA?AVDName@@XZ 004873f7 f i libvcruntime:undname.obj
 0001:00086428       ?getMemberAccess@UnDecorator@@CA?AVDName@@XZ 00487428 f   libvcruntime:undname.obj
 0001:00086498       ?getMemoryWithBuffer@_HeapManager@@QAEPAXI@Z 00487498 f   libvcruntime:undname.obj
 0001:00086502       ?getMemoryWithoutBuffer@_HeapManager@@QAEPAXI@Z 00487502 f   libvcruntime:undname.obj
 0001:00086522       ?getNoexcept@UnDecorator@@CA?AVDName@@XZ 00487522 f   libvcruntime:undname.obj
 0001:0008656a       ?getNumberOfDimensions@UnDecorator@@CAHXZ 0048756a f   libvcruntime:undname.obj
 0001:000865cc       ?getOperatorName@UnDecorator@@CA?AVDName@@_NPA_N@Z 004875cc f i libvcruntime:undname.obj
 0001:00086df6       ?getPointerToMember@UnDecorator@@CA?AVDName@@XZ 00487df6 f   libvcruntime:undname.obj
 0001:00086eb2       ?getPointerType@UnDecorator@@CA?AVDName@@ABV2@0@Z 00487eb2 f i libvcruntime:undname.obj
 0001:00086ecd       ?getPointerTypeArray@UnDecorator@@CA?AVDName@@ABV2@0@Z 00487ecd f i libvcruntime:undname.obj
 0001:00086ee8       ?getPrimaryDataType@UnDecorator@@CA?AVDName@@ABV2@@Z 00487ee8 f   libvcruntime:undname.obj
 0001:00087136       ?getPtrRefDataType@UnDecorator@@CA?AVDName@@ABV2@H@Z 00488136 f   libvcruntime:undname.obj
 0001:000872a3       ?getPtrRefType@UnDecorator@@CA?AVDName@@ABV2@0W4IndirectionKind@@@Z 004882a3 f   libvcruntime:undname.obj
 0001:000873b4       ?getReferenceType@UnDecorator@@CA?AVDName@@ABV2@0W4IndirectionKind@@@Z 004883b4 f i libvcruntime:undname.obj
 0001:000873d0       ?getRestrictionSpec@UnDecorator@@CA?AVDName@@XZ 004883d0 f   libvcruntime:undname.obj
 0001:000874e9       ?getReturnType@UnDecorator@@CA?AVDName@@PAV2@@Z 004884e9 f   libvcruntime:undname.obj
 0001:00087518       ?getScope@UnDecorator@@CA?AVDName@@XZ 00488518 f   libvcruntime:undname.obj
 0001:000878d6       ?getScopedName@UnDecorator@@CA?AVDName@@XZ 004888d6 f   libvcruntime:undname.obj
 0001:000879c9       ?getSignedDimension@UnDecorator@@CA?AVDName@@XZ 004889c9 f   libvcruntime:undname.obj
 0001:00087a1a       ?getStorageConvention@UnDecorator@@CA?AVDName@@XZ 00488a1a f i libvcruntime:undname.obj
 0001:00087a2b       ?getString@DName@@QBEPADPAD0@Z 00488a2b f i libvcruntime:undname.obj
 0001:00087a58       ?getString@DName@@QBEPADPADH@Z 00488a58 f i libvcruntime:undname.obj
 0001:00087aad       ?getString@DNameStatusNode@@UBEPADPAD0@Z 00488aad f i libvcruntime:undname.obj
 0001:00087af4       ?getString@charNode@@UBEPADPAD0@Z 00488af4 f i libvcruntime:undname.obj
 0001:00087b09       ?getString@pDNameNode@@UBEPADPAD0@Z 00488b09 f i libvcruntime:undname.obj
 0001:00087b20       ?getString@pairNode@@UBEPADPAD0@Z 00488b20 f i libvcruntime:undname.obj
 0001:00087b66       ?getString@pcharNode@@UBEPADPAD0@Z 00488b66 f i libvcruntime:undname.obj
 0001:00087b81       ?getStringEncoding@UnDecorator@@CA?AVDName@@W4PrefixKind@@H@Z 00488b81 f   libvcruntime:undname.obj
 0001:00087c14       ?getStringHelper@@YAPADPADPBD1H@Z 00488c14 f i libvcruntime:undname.obj
 0001:00087c3e       ?getStringObject@UnDecorator@@CA?AVDName@@XZ 00488c3e f   libvcruntime:undname.obj
 0001:00087c89       ?getSymbolName@UnDecorator@@CA?AVDName@@XZ 00488c89 f i libvcruntime:undname.obj
 0001:00087cd1       ?getTemplateArgumentList@UnDecorator@@CA?AVDName@@XZ 00488cd1 f   libvcruntime:undname.obj
 0001:00087e81       ?getTemplateName@UnDecorator@@CA?AVDName@@_N@Z 00488e81 f   libvcruntime:undname.obj
 0001:00087fe1       ?getTemplateNonTypeArgument@UnDecorator@@CA?AVDName@@XZ 00488fe1 f   libvcruntime:undname.obj
 0001:000883a9       ?getTemplateTypeArgument@UnDecorator@@CA?AVDName@@XZ 004893a9 f   libvcruntime:undname.obj
 0001:000884ba       ?getThisType@UnDecorator@@CA?AVDName@@XZ 004894ba f i libvcruntime:undname.obj
 0001:000884e9       ?getThrowTypes@UnDecorator@@CA?AVDName@@XZ 004894e9 f   libvcruntime:undname.obj
 0001:00088508       ?getTypeEncoding@UnDecorator@@CAHXZ 00489508 f i libvcruntime:undname.obj
 0001:00088848       ?getUndecoratedName@UnDecorator@@QAEPADPADH@Z 00489848 f i libvcruntime:undname.obj
 0001:00088967       ?getUnionObject@UnDecorator@@CA?AVDName@@XZ 00489967 f   libvcruntime:undname.obj
 0001:00088a0e       ?getVCallThunkType@UnDecorator@@CA?AVDName@@XZ 00489a0e f i libvcruntime:undname.obj
 0001:00088a58       ?getValue@UnDecorator@@CA?AV?$optional@_K@std@@XZ 00489a58 f   libvcruntime:undname.obj
 0001:00088ae0       ?getValueObject@UnDecorator@@CA?AVDName@@XZ 00489ae0 f   libvcruntime:undname.obj
 0001:00088bda       ?getVbTableType@UnDecorator@@CA?AVDName@@ABV2@@Z 00489bda f i libvcruntime:undname.obj
 0001:00088bef       ?getVdispMapType@UnDecorator@@CA?AVDName@@ABV2@@Z 00489bef f i libvcruntime:undname.obj
 0001:00088c50       ?getVfTableType@UnDecorator@@CA?AVDName@@ABV2@@Z 00489c50 f i libvcruntime:undname.obj
 0001:00088da4       ?getZName@UnDecorator@@CA?AVDName@@_N0@Z 00489da4 f   libvcruntime:undname.obj
 0001:00088fbd       ?get_current_character_and_increment_buffer@UnDecorator@@CADXZ 00489fbd f i libvcruntime:undname.obj
 0001:00088fd1       ?haveTemplateParameters@UnDecorator@@SAHXZ 00489fd1 f i libvcruntime:undname.obj
 0001:00088fdc       ?increment_buffer@UnDecorator@@CA_NI@Z 00489fdc f i libvcruntime:undname.obj
 0001:00089004       ?increment_buffer_no_check@UnDecorator@@CAXI@Z 0048a004 f i libvcruntime:undname.obj
 0001:00089012       ?increment_buffer_no_check@UnDecorator@@CAXXZ 0048a012 f i libvcruntime:undname.obj
 0001:00089019       ?isArray@DName@@QBEHXZ     0048a019 f i libvcruntime:undname.obj
 0001:00089023       ?isComArray@DName@@QBEHXZ  0048a023 f i libvcruntime:undname.obj
 0001:0008902d       ?isEmpty@DName@@QBEHXZ     0048a02d f i libvcruntime:undname.obj
 0001:00089035       ?isFull@Replicator@@QBEHXZ 0048a035 f i libvcruntime:undname.obj
 0001:0008903e       ?isNoTE@DName@@QBEHXZ      0048a03e f i libvcruntime:undname.obj
 0001:00089048       ?isPinPtr@DName@@QBEHXZ    0048a048 f i libvcruntime:undname.obj
 0001:00089052       ?isPtrRef@DName@@QBEHXZ    0048a052 f i libvcruntime:undname.obj
 0001:0008905c       ?isUDC@DName@@QBEHXZ       0048a05c f i libvcruntime:undname.obj
 0001:0008906d       ?isUDTThunk@DName@@QBEHXZ  0048a06d f i libvcruntime:undname.obj
 0001:0008907e       ?isVCallThunk@DName@@QBEHXZ 0048a07e f i libvcruntime:undname.obj
 0001:00089088       ?isValid@DName@@QBEHXZ     0048a088 f i libvcruntime:undname.obj
 0001:00089092       ?length@DName@@QBEHXZ      0048a092 f i libvcruntime:undname.obj
 0001:000890b1       ?length@DNameStatusNode@@UBEHXZ 0048a0b1 f i libvcruntime:undname.obj
 0001:000890b5       ?length@charNode@@UBEHXZ   0048a0b5 f i libvcruntime:undname.obj
 0001:000890b9       ?length@pDNameNode@@UBEHXZ 0048a0b9 f i libvcruntime:undname.obj
 0001:000890c7       ?length@pairNode@@UBEHXZ   0048a0c7 f i libvcruntime:undname.obj
 0001:00089110       ?length@pcharNode@@UBEHXZ  0048a110 f i libvcruntime:undname.obj
 0001:00089114       ?make@DNameStatusNode@@SAPBV1@W4DNameStatus@@@Z 0048a114 f i libvcruntime:undname.obj
 0001:00089130       ?parseDecoratedName@UnDecorator@@CA?AVDName@@XZ 0048a130 f   libvcruntime:undname.obj
 0001:0008922b       ?raw_length@DNameStatusNode@@UBEHXZ 0048a22b f i libvcruntime:undname.obj
 0001:0008922f       ?raw_length@charNode@@UBEHXZ 0048a22f f i libvcruntime:undname.obj
 0001:00089233       ?raw_length@pDNameNode@@UBEHXZ 0048a233 f i libvcruntime:undname.obj
 0001:00089237       ?raw_length@pairNode@@UBEHXZ 0048a237 f i libvcruntime:undname.obj
 0001:0008923b       ?raw_length@pcharNode@@UBEHXZ 0048a23b f i libvcruntime:undname.obj
 0001:0008923f       ?setIsArray@DName@@QAEXXZ  0048a23f f i libvcruntime:undname.obj
 0001:00089247       ?setIsComArray@DName@@QAEXXZ 0048a247 f i libvcruntime:undname.obj
 0001:0008924f       ?setIsNoTE@DName@@QAEXXZ   0048a24f f i libvcruntime:undname.obj
 0001:00089257       ?setIsPinPtr@DName@@QAEXXZ 0048a257 f i libvcruntime:undname.obj
 0001:0008925f       ?setIsUDC@DName@@QAEXXZ    0048a25f f i libvcruntime:undname.obj
 0001:0008926c       ?setIsVCallThunk@DName@@QAEXXZ 0048a26c f i libvcruntime:undname.obj
 0001:00089274       ?setPtrRef@DName@@QAEAAV1@XZ 0048a274 f i libvcruntime:undname.obj
 0001:0008927e       ?status@DName@@QBE?AW4DNameStatus@@XZ 0048a27e f i libvcruntime:undname.obj
 0001:000892ea       ___unDName                 0048a2ea f   libvcruntime:undname.obj
 0001:0008930d       ___unDNameEx               0048a30d f   libvcruntime:undname.obj
 0001:000893ac       _snprintf                  0048a3ac f i libvcruntime:undname.obj
 0001:000893c6       _unDNameGenerateCHPE       0048a3c6 f   libvcruntime:undname.obj
 0001:00089463       _vsnprintf                 0048a463 f i libvcruntime:undname.obj
 0001:00089493       ??$__crt_interlocked_exchange_pointer@UHINSTANCE__@@PAU1@@@YAPAUHINSTANCE__@@PDSAU0@QAU0@@Z 0048a493 f i libvcruntime:winapi_downlevel.obj
 0001:000894a0       ??$__crt_interlocked_exchange_pointer@UHINSTANCE__@@PAX@@YAPAUHINSTANCE__@@PDSAU0@QAX@Z 0048a4a0 f i libvcruntime:winapi_downlevel.obj
 0001:000894ad       ??$__crt_interlocked_exchange_pointer@XPAX@@YAPAXPDSAXQAX@Z 0048a4ad f i libvcruntime:winapi_downlevel.obj
 0001:000894ba       ??$__crt_interlocked_read_pointer@UHINSTANCE__@@@@YAPAUHINSTANCE__@@PDSAU0@@Z 0048a4ba f i libvcruntime:winapi_downlevel.obj
 0001:000894c5       ??$__crt_interlocked_read_pointer@X@@YAPAXPDSAX@Z 0048a4c5 f i libvcruntime:winapi_downlevel.obj
 0001:00089751       ___vcrt_FlsAlloc           0048a751 f   libvcruntime:winapi_downlevel.obj
 0001:0008978c       ___vcrt_FlsFree            0048a78c f   libvcruntime:winapi_downlevel.obj
 0001:000897c7       ___vcrt_FlsGetValue        0048a7c7 f   libvcruntime:winapi_downlevel.obj
 0001:00089802       ___vcrt_FlsSetValue        0048a802 f   libvcruntime:winapi_downlevel.obj
 0001:00089840       ___vcrt_InitializeCriticalSectionEx 0048a840 f   libvcruntime:winapi_downlevel.obj
 0001:0008989b       __get_unexpected           0048a89b f   libvcruntime:unexpected.obj
 0001:000898ad       _set_unexpected            0048a8ad f   libvcruntime:unexpected.obj
 0001:000898cb       _unexpected                0048a8cb f   libvcruntime:unexpected.obj
 0001:000898e8       ?GetCurrentState@__FrameHandler3@@SAHPAUEHRegistrationNode@@PAXPBU_s_FuncInfo@@@Z 0048a8e8 f   libvcruntime:ehstate.obj
 0001:00089905       ?SetState@__FrameHandler3@@SAXPAUEHRegistrationNode@@PBU_s_FuncInfo@@H@Z 0048a905 f   libvcruntime:ehstate.obj
 0001:00089920       __global_unwind2           0048a920 f   libvcruntime:exsup.obj
 0001:000899a0       __local_unwind2            0048a9a0 f   libvcruntime:exsup.obj
 0001:00089a40       __abnormal_termination     0048aa40 f   libvcruntime:exsup.obj
 0001:00089a70       __NLG_Notify1              0048aa70 f   libvcruntime:exsup.obj
 0001:00089a80       __NLG_Notify               0048aa80 f   libvcruntime:exsup.obj
 0001:00089a97       __NLG_Dispatch             0048aa97     libvcruntime:exsup.obj
 0001:00089a97       __NLG_Dispatch2            0048aa97     libvcruntime:exsup.obj
 0001:00089aa0       __NLG_Call                 0048aaa0 f   libvcruntime:exsup.obj
 0001:00089aa2       __NLG_Return2              0048aaa2     libvcruntime:exsup.obj
 0001:00089ab0       __libm_sse2_acos_precise   0048aab0 f   libucrt:acos_sse2_precise.obj
 0001:00089fd0       __libm_sse2_sqrt_precise   0048afd0 f   libucrt:sqrt_sse2_precise.obj
 0001:0008a0d0       _floor                     0048b0d0 f   libucrt:floor_pentium4.obj
 0001:0008a110       __floor_pentium4           0048b110 f   libucrt:floor_pentium4.obj
 0001:0008a7f4       ??$get_or_create_environment_nolock@$$V@?$__crt_char_traits@D@@SAPAPADXZ 0048b7f4 f i libucrt:getenv.obj
 0001:0008a7f9       ??$get_or_create_environment_nolock@$$V@?$__crt_char_traits@_W@@SAPAPA_WXZ 0048b7f9 f i libucrt:getenv.obj
 0001:0008a7fe       ??$tcscpy_s@AAPADABIABQBD@?$__crt_char_traits@D@@SAHAAPADABIABQBD@Z 0048b7fe f i libucrt:getenv.obj
 0001:0008a81c       ??$tcscpy_s@AAPA_WABIABQB_W@?$__crt_char_traits@_W@@SAHAAPA_WABIABQB_W@Z 0048b81c f i libucrt:getenv.obj
 0001:0008a83a       ??$tcscpy_s@ABQADABIABQBD@?$__crt_char_traits@D@@SAHABQADABIABQBD@Z 0048b83a f i libucrt:getenv.obj
 0001:0008a858       ??$tcscpy_s@ABQA_WABIABQB_W@?$__crt_char_traits@_W@@SAHABQA_WABIABQB_W@Z 0048b858 f i libucrt:getenv.obj
 0001:0008a876       ??$tcslen@AAPAD@?$__crt_char_traits@D@@SAIAAPAD@Z 0048b876 f i libucrt:getenv.obj
 0001:0008a88e       ??$tcslen@AAPA_W@?$__crt_char_traits@_W@@SAIAAPA_W@Z 0048b88e f i libucrt:getenv.obj
 0001:0008a8ac       ??$tcslen@ABQBD@?$__crt_char_traits@D@@SAIABQBD@Z 0048b8ac f i libucrt:getenv.obj
 0001:0008a8c4       ??$tcslen@ABQB_W@?$__crt_char_traits@_W@@SAIABQB_W@Z 0048b8c4 f i libucrt:getenv.obj
 0001:0008a8e2       ??$tcsnicoll@AAPADABQBDABI@?$__crt_char_traits@D@@SAHAAPADABQBDABI@Z 0048b8e2 f i libucrt:getenv.obj
 0001:0008a900       ??$tcsnicoll@AAPA_WABQB_WABI@?$__crt_char_traits@_W@@SAHAAPA_WABQB_WABI@Z 0048b900 f i libucrt:getenv.obj
 0001:0008a91e       ??$tcsnlen@ABQBDH@?$__crt_char_traits@D@@SAIABQBD$$QAH@Z 0048b91e f i libucrt:getenv.obj
 0001:0008a936       ??$tcsnlen@ABQB_WH@?$__crt_char_traits@_W@@SAIABQB_W$$QAH@Z 0048b936 f i libucrt:getenv.obj
 0001:0008a94e       __dupenv_s                 0048b94e f   libucrt:getenv.obj
 0001:0008a96c       __invoke_watson_if_error   0048b96c f i libucrt:getenv.obj
 0001:0008a98e       __wdupenv_s                0048b98e f   libucrt:getenv.obj
 0001:0008a9ac       __wgetenv                  0048b9ac f   libucrt:getenv.obj
 0001:0008a9b7       __wgetenv_s                0048b9b7 f   libucrt:getenv.obj
 0001:0008a9c2       _getenv                    0048b9c2 f   libucrt:getenv.obj
 0001:0008a9cd       _getenv_s                  0048b9cd f   libucrt:getenv.obj
 0001:0008a9d8       ??$?R_W@__crt_internal_free_policy@@QBEXQB_W@Z 0048b9d8 f i libucrt:putenv.obj
 0001:0008ae53       ??$set_variable_in_environment_nolock@PADH@?$__crt_char_traits@D@@SAH$$QAPAD$$QAH@Z 0048be53 f i libucrt:putenv.obj
 0001:0008ae6b       ??$set_variable_in_environment_nolock@PA_WH@?$__crt_char_traits@_W@@SAH$$QAPA_W$$QAH@Z 0048be6b f i libucrt:putenv.obj
 0001:0008b02a       ??$tcschr@ABQBDD@?$__crt_char_traits@D@@SAPBDABQBD$$QAD@Z 0048c02a f i libucrt:putenv.obj
 0001:0008b044       ??$tcschr@ABQB_WD@?$__crt_char_traits@_W@@SAPB_WABQB_W$$QAD@Z 0048c044 f i libucrt:putenv.obj
 0001:0008b062       ??$tcscpy_s@PADABIABQBD@?$__crt_char_traits@D@@SAH$$QAPADABIABQBD@Z 0048c062 f i libucrt:putenv.obj
 0001:0008b080       ??$tcscpy_s@PADIABQBD@?$__crt_char_traits@D@@SAH$$QAPAD$$QAIABQBD@Z 0048c080 f i libucrt:putenv.obj
 0001:0008b09e       ??$tcscpy_s@PA_WABIABQB_W@?$__crt_char_traits@_W@@SAH$$QAPA_WABIABQB_W@Z 0048c09e f i libucrt:putenv.obj
 0001:0008b0bc       ??$tcscpy_s@PA_WIABQB_W@?$__crt_char_traits@_W@@SAH$$QAPA_W$$QAIABQB_W@Z 0048c0bc f i libucrt:putenv.obj
 0001:0008b0da       ??$tcsnlen@PBDH@?$__crt_char_traits@D@@SAI$$QAPBD$$QAH@Z 0048c0da f i libucrt:putenv.obj
 0001:0008b0f2       ??$tcsnlen@PB_WH@?$__crt_char_traits@_W@@SAI$$QAPB_W$$QAH@Z 0048c0f2 f i libucrt:putenv.obj
 0001:0008b10a       ??0?$__crt_unique_heap_ptr@_WU__crt_internal_free_policy@@@@QAE@QA_W@Z 0048c10a f i libucrt:putenv.obj
 0001:0008b11a       ??1?$__crt_unique_heap_ptr@_WU__crt_internal_free_policy@@@@QAE@XZ 0048c11a f i libucrt:putenv.obj
 0001:0008b12c       ??B?$__crt_unique_heap_ptr@_WU__crt_internal_free_policy@@@@QBE_NXZ 0048c12c f i libucrt:putenv.obj
 0001:0008b133       ?__crt_compute_required_transform_buffer_count@@YAIIQBD@Z 0048c133 f i libucrt:putenv.obj
 0001:0008b14f       ?__crt_compute_required_transform_buffer_count@@YAIIQB_W@Z 0048c14f f i libucrt:putenv.obj
 0001:0008b16d       ?__crt_transform_string@@YAIIQBDQA_WI@Z 0048c16d f i libucrt:putenv.obj
 0001:0008b18c       ?__crt_transform_string@@YAIIQB_WQADI@Z 0048c18c f i libucrt:putenv.obj
 0001:0008b1ae       ?detach@?$__crt_unique_heap_ptr@DU__crt_internal_free_policy@@@@QAEPADXZ 0048c1ae f i libucrt:putenv.obj
 0001:0008b1b4       ?detach@?$__crt_unique_heap_ptr@_WU__crt_internal_free_policy@@@@QAEPA_WXZ 0048c1b4 f i libucrt:putenv.obj
 0001:0008b1ba       ?get@?$__crt_unique_heap_ptr@_WU__crt_internal_free_policy@@@@QBEPA_WXZ 0048c1ba f i libucrt:putenv.obj
 0001:0008b1bd       ?get_current_state_index@__crt_state_management@@YAIXZ 0048c1bd f i libucrt:putenv.obj
 0001:0008b1c0       ?is_valid@?$__crt_unique_heap_ptr@_WU__crt_internal_free_policy@@@@QBE_NXZ 0048c1c0 f i libucrt:putenv.obj
 0001:0008b1dd       ?release@?$__crt_unique_heap_ptr@_WU__crt_internal_free_policy@@@@QAEXXZ 0048c1dd f i libucrt:putenv.obj
 0001:0008b1ef       ?value@?$dual_state_global@PAPAD@__crt_state_management@@QAEAAPAPADXZ 0048c1ef f i libucrt:putenv.obj
 0001:0008b1f2       ?value@?$dual_state_global@PAPA_W@__crt_state_management@@QAEAAPAPA_WXZ 0048c1f2 f i libucrt:putenv.obj
 0001:0008b1f5       __putenv                   0048c1f5 f   libucrt:putenv.obj
 0001:0008b208       __putenv_s                 0048c208 f   libucrt:putenv.obj
 0001:0008b244       __wputenv                  0048c244 f   libucrt:putenv.obj
 0001:0008b257       __wputenv_s                0048c257 f   libucrt:putenv.obj
 0001:0008b293       ??$?0$0BAE@@?$__crt_win32_buffer@_WU__crt_win32_buffer_internal_dynamic_resizing@@@@QAE@AAY0BAE@_W@Z 0048c293 f i libucrt:getcwd.obj
 0001:0008b2b9       ??$__acrt_convert_wcs_mbs_cp@D_WV<lambda_62f6974d9771e494a5ea317cc32e971c>@@U__crt_win32_buffer_internal_dynamic_resizing@@@@YAHQBDAAV?$__crt_win32_buffer@_WU__crt_win32_buffer_internal_dynamic_resizing@@@@ABV<lambda_62f6974d9771e494a5ea317cc32e971c>@@I@Z 0048c2b9 f i libucrt:getcwd.obj
 0001:0008b36b       ??$__acrt_convert_wcs_mbs_cp@_WDV<lambda_0fec1a7b3f42a53036604e18c2d5e07e>@@U__crt_win32_buffer_no_resizing@@@@YAHQB_WAAV?$__crt_win32_buffer@DU__crt_win32_buffer_no_resizing@@@@ABV<lambda_0fec1a7b3f42a53036604e18c2d5e07e>@@I@Z 0048c36b f i libucrt:getcwd.obj
 0001:0008b42d       ??$__acrt_convert_wcs_mbs_cp@_WDV<lambda_fecc33a432ccb74a901dff60d61ca385>@@U__crt_win32_buffer_public_dynamic_resizing@@@@YAHQB_WAAV?$__crt_win32_buffer@DU__crt_win32_buffer_public_dynamic_resizing@@@@ABV<lambda_fecc33a432ccb74a901dff60d61ca385>@@I@Z 0048c42d f i libucrt:getcwd.obj
 0001:0008b4f3       ??$__acrt_get_full_path_name_narrow_acp_or_utf8@U__crt_win32_buffer_no_resizing@@@@YAHQBDAAV?$__crt_win32_buffer@DU__crt_win32_buffer_no_resizing@@@@@Z 0048c4f3 f i libucrt:getcwd.obj
 0001:0008b5fa       ??$__acrt_get_full_path_name_narrow_acp_or_utf8@U__crt_win32_buffer_public_dynamic_resizing@@@@YAHQBDAAV?$__crt_win32_buffer@DU__crt_win32_buffer_public_dynamic_resizing@@@@@Z 0048c5fa f i libucrt:getcwd.obj
 0001:0008b701       ??$__acrt_get_full_path_name_wide@U__crt_win32_buffer_internal_dynamic_resizing@@@@YAHQB_WAAV?$__crt_win32_buffer@_WU__crt_win32_buffer_internal_dynamic_resizing@@@@@Z 0048c701 f i libucrt:getcwd.obj
 0001:0008b71b       ??$__acrt_get_full_path_name_wide@U__crt_win32_buffer_no_resizing@@@@YAHQB_WAAV?$__crt_win32_buffer@_WU__crt_win32_buffer_no_resizing@@@@@Z 0048c71b f i libucrt:getcwd.obj
 0001:0008b735       ??$__acrt_get_full_path_name_wide@U__crt_win32_buffer_public_dynamic_resizing@@@@YAHQB_WAAV?$__crt_win32_buffer@_WU__crt_win32_buffer_public_dynamic_resizing@@@@@Z 0048c735 f i libucrt:getcwd.obj
 0001:0008b74f       ??$__acrt_mbs_to_wcs_cp@U__crt_win32_buffer_internal_dynamic_resizing@@@@YAHQBDAAV?$__crt_win32_buffer@_WU__crt_win32_buffer_internal_dynamic_resizing@@@@I@Z 0048c74f f i libucrt:getcwd.obj
 0001:0008b76c       ??$__acrt_wcs_to_mbs_cp@U__crt_win32_buffer_no_resizing@@@@YAHQB_WAAV?$__crt_win32_buffer@DU__crt_win32_buffer_no_resizing@@@@I@Z 0048c76c f i libucrt:getcwd.obj
 0001:0008b789       ??$__acrt_wcs_to_mbs_cp@U__crt_win32_buffer_public_dynamic_resizing@@@@YAHQB_WAAV?$__crt_win32_buffer@DU__crt_win32_buffer_public_dynamic_resizing@@@@I@Z 0048c789 f i libucrt:getcwd.obj
 0001:0008b7a6       ??$call_win32_function@V<lambda_0d87af4cf61654f651d26e3c6a4f13fc>@@@?$__crt_win32_buffer@_WU__crt_win32_buffer_public_dynamic_resizing@@@@QAEHABV<lambda_0d87af4cf61654f651d26e3c6a4f13fc>@@@Z 0048c7a6 f i libucrt:getcwd.obj
 0001:0008b80c       ??$call_win32_function@V<lambda_33d632c04396b3de813369f94278cf6d>@@@?$__crt_win32_buffer@_WU__crt_win32_buffer_no_resizing@@@@QAEHABV<lambda_33d632c04396b3de813369f94278cf6d>@@@Z 0048c80c f i libucrt:getcwd.obj
 0001:0008b872       ??$call_win32_function@V<lambda_44f1df80ccead0226c26eac3423fba1d>@@@?$__crt_win32_buffer@_WU__crt_win32_buffer_internal_dynamic_resizing@@@@QAEHABV<lambda_44f1df80ccead0226c26eac3423fba1d>@@@Z 0048c872 f i libucrt:getcwd.obj
 0001:0008bb64       ??$get_full_path_name@AAY03DAAV?$__crt_win32_buffer@DU__crt_win32_buffer_no_resizing@@@@@?$__crt_char_traits@D@@SAHAAY03DAAV?$__crt_win32_buffer@DU__crt_win32_buffer_no_resizing@@@@@Z 0048cb64 f i libucrt:getcwd.obj
 0001:0008bb6f       ??$get_full_path_name@AAY03DAAV?$__crt_win32_buffer@DU__crt_win32_buffer_public_dynamic_resizing@@@@@?$__crt_char_traits@D@@SAHAAY03DAAV?$__crt_win32_buffer@DU__crt_win32_buffer_public_dynamic_resizing@@@@@Z 0048cb6f f i libucrt:getcwd.obj
 0001:0008bb7a       ??$get_full_path_name@AAY03_WAAV?$__crt_win32_buffer@_WU__crt_win32_buffer_no_resizing@@@@@?$__crt_char_traits@_W@@SAHAAY03_WAAV?$__crt_win32_buffer@_WU__crt_win32_buffer_no_resizing@@@@@Z 0048cb7a f i libucrt:getcwd.obj
 0001:0008bb85       ??$get_full_path_name@AAY03_WAAV?$__crt_win32_buffer@_WU__crt_win32_buffer_public_dynamic_resizing@@@@@?$__crt_char_traits@_W@@SAHAAY03_WAAV?$__crt_win32_buffer@_WU__crt_win32_buffer_public_dynamic_resizing@@@@@Z 0048cb85 f i libucrt:getcwd.obj
 0001:0008bb90       ??0<lambda_0d87af4cf61654f651d26e3c6a4f13fc>@@QAE@ABQB_W@Z 0048cb90 f i libucrt:getcwd.obj
 0001:0008bba2       ??0<lambda_33d632c04396b3de813369f94278cf6d>@@QAE@ABQB_W@Z 0048cba2 f i libucrt:getcwd.obj
 0001:0008bbb4       ??0<lambda_44f1df80ccead0226c26eac3423fba1d>@@QAE@ABQB_W@Z 0048cbb4 f i libucrt:getcwd.obj
 0001:0008bbc6       ??0?$__crt_win32_buffer@DU__crt_win32_buffer_no_resizing@@@@QAE@QADI@Z 0048cbc6 f i libucrt:getcwd.obj
 0001:0008bbea       ??0?$__crt_win32_buffer@DU__crt_win32_buffer_public_dynamic_resizing@@@@QAE@ABV__crt_win32_buffer_debug_info@@@Z 0048cbea f i libucrt:getcwd.obj
 0001:0008bc02       ??0?$__crt_win32_buffer@_WU__crt_win32_buffer_no_resizing@@@@QAE@QA_WI@Z 0048cc02 f i libucrt:getcwd.obj
 0001:0008bc26       ??0?$__crt_win32_buffer@_WU__crt_win32_buffer_public_dynamic_resizing@@@@QAE@ABV__crt_win32_buffer_debug_info@@@Z 0048cc26 f i libucrt:getcwd.obj
 0001:0008bc3e       ??0_LocaleUpdate@@QAE@QAU__crt_locale_pointers@@@Z 0048cc3e f i libucrt:getcwd.obj
 0001:0008bcc0       ??0__crt_win32_buffer_debug_info@@QAE@HPBDH@Z 0048ccc0 f i libucrt:getcwd.obj
 0001:0008bcc5       ??1?$__crt_win32_buffer@DU__crt_win32_buffer_no_resizing@@@@QAE@XZ 0048ccc5 f i libucrt:getcwd.obj
 0001:0008bcd0       ??1?$__crt_win32_buffer@DU__crt_win32_buffer_public_dynamic_resizing@@@@QAE@XZ 0048ccd0 f i libucrt:getcwd.obj
 0001:0008bcd5       ??1?$__crt_win32_buffer@_WU__crt_win32_buffer_internal_dynamic_resizing@@@@QAE@XZ 0048ccd5 f i libucrt:getcwd.obj
 0001:0008bcda       ??1?$__crt_win32_buffer@_WU__crt_win32_buffer_no_resizing@@@@QAE@XZ 0048ccda f i libucrt:getcwd.obj
 0001:0008bce5       ??1?$__crt_win32_buffer@_WU__crt_win32_buffer_public_dynamic_resizing@@@@QAE@XZ 0048cce5 f i libucrt:getcwd.obj
 0001:0008bcea       ??1_LocaleUpdate@@QAE@XZ   0048ccea f i libucrt:getcwd.obj
 0001:0008bcfa       ??R<lambda_0d87af4cf61654f651d26e3c6a4f13fc>@@QBEKPA_WK@Z 0048ccfa f i libucrt:getcwd.obj
 0001:0008bd13       ??R<lambda_0fec1a7b3f42a53036604e18c2d5e07e>@@QBEHIQB_WQADI@Z 0048cd13 f i libucrt:getcwd.obj
 0001:0008bd37       ??R<lambda_33d632c04396b3de813369f94278cf6d>@@QBEKPA_WK@Z 0048cd37 f i libucrt:getcwd.obj
 0001:0008bd50       ??R<lambda_44f1df80ccead0226c26eac3423fba1d>@@QBEKPA_WK@Z 0048cd50 f i libucrt:getcwd.obj
 0001:0008bd69       ??R<lambda_62f6974d9771e494a5ea317cc32e971c>@@QBEHIQBDQA_WI@Z 0048cd69 f i libucrt:getcwd.obj
 0001:0008bd8a       ??R<lambda_fecc33a432ccb74a901dff60d61ca385>@@QBEHIQB_WQADI@Z 0048cd8a f i libucrt:getcwd.obj
 0001:0008bdae       ?GetLocaleT@_LocaleUpdate@@QAEPAU__crt_locale_pointers@@XZ 0048cdae f i libucrt:getcwd.obj
 0001:0008bdb2       ?__acrt_get_utf8_acp_compatibility_codepage@@YAIXZ 0048cdb2 f i libucrt:getcwd.obj
 0001:0008bdf1       ?_deallocate@?$__crt_win32_buffer@DU__crt_win32_buffer_no_resizing@@@@AAEXXZ 0048cdf1 f i libucrt:getcwd.obj
 0001:0008bdfc       ?_deallocate@?$__crt_win32_buffer@DU__crt_win32_buffer_public_dynamic_resizing@@@@AAEXXZ 0048cdfc f i libucrt:getcwd.obj
 0001:0008be16       ?_deallocate@?$__crt_win32_buffer@_WU__crt_win32_buffer_internal_dynamic_resizing@@@@AAEXXZ 0048ce16 f i libucrt:getcwd.obj
 0001:0008be30       ?_deallocate@?$__crt_win32_buffer@_WU__crt_win32_buffer_no_resizing@@@@AAEXXZ 0048ce30 f i libucrt:getcwd.obj
 0001:0008be3b       ?_deallocate@?$__crt_win32_buffer@_WU__crt_win32_buffer_public_dynamic_resizing@@@@AAEXXZ 0048ce3b f i libucrt:getcwd.obj
 0001:0008be55       ?_reset_no_dealloc@?$__crt_win32_buffer@DU__crt_win32_buffer_public_dynamic_resizing@@@@AAEXXZ 0048ce55 f i libucrt:getcwd.obj
 0001:0008be65       ?_reset_no_dealloc@?$__crt_win32_buffer@_WU__crt_win32_buffer_public_dynamic_resizing@@@@AAEXXZ 0048ce65 f i libucrt:getcwd.obj
 0001:0008be75       ?allocate@?$__crt_win32_buffer@DU__crt_win32_buffer_no_resizing@@@@QAEHI@Z 0048ce75 f i libucrt:getcwd.obj
 0001:0008be9c       ?allocate@?$__crt_win32_buffer@DU__crt_win32_buffer_public_dynamic_resizing@@@@QAEHI@Z 0048ce9c f i libucrt:getcwd.obj
 0001:0008bed8       ?allocate@?$__crt_win32_buffer@_WU__crt_win32_buffer_internal_dynamic_resizing@@@@QAEHI@Z 0048ced8 f i libucrt:getcwd.obj
 0001:0008bf17       ?allocate@?$__crt_win32_buffer@_WU__crt_win32_buffer_no_resizing@@@@QAEHI@Z 0048cf17 f i libucrt:getcwd.obj
 0001:0008bf3e       ?allocate@?$__crt_win32_buffer@_WU__crt_win32_buffer_public_dynamic_resizing@@@@QAEHI@Z 0048cf3e f i libucrt:getcwd.obj
 0001:0008bf7d       ?allocate@__crt_win32_buffer_internal_dynamic_resizing@@SAHQAPAXIABV__crt_win32_buffer_empty_debug_info@@@Z 0048cf7d f i libucrt:getcwd.obj
 0001:0008bf9c       ?allocate@__crt_win32_buffer_no_resizing@@SAHQAPAXIABV__crt_win32_buffer_empty_debug_info@@@Z 0048cf9c f i libucrt:getcwd.obj
 0001:0008bfa9       ?allocate@__crt_win32_buffer_public_dynamic_resizing@@SAHQAPAXIABV__crt_win32_buffer_debug_info@@@Z 0048cfa9 f i libucrt:getcwd.obj
 0001:0008bfc8       ?capacity@?$__crt_win32_buffer@DU__crt_win32_buffer_no_resizing@@@@QBEIXZ 0048cfc8 f i libucrt:getcwd.obj
 0001:0008bfcc       ?capacity@?$__crt_win32_buffer@DU__crt_win32_buffer_public_dynamic_resizing@@@@QBEIXZ 0048cfcc f i libucrt:getcwd.obj
 0001:0008bfd0       ?capacity@?$__crt_win32_buffer@_WU__crt_win32_buffer_internal_dynamic_resizing@@@@QBEIXZ 0048cfd0 f i libucrt:getcwd.obj
 0001:0008bfd4       ?data@?$__crt_win32_buffer@DU__crt_win32_buffer_no_resizing@@@@QAEPADXZ 0048cfd4 f i libucrt:getcwd.obj
 0001:0008bfd8       ?data@?$__crt_win32_buffer@DU__crt_win32_buffer_public_dynamic_resizing@@@@QAEPADXZ 0048cfd8 f i libucrt:getcwd.obj
 0001:0008bfdc       ?data@?$__crt_win32_buffer@_WU__crt_win32_buffer_internal_dynamic_resizing@@@@QAEPA_WXZ 0048cfdc f i libucrt:getcwd.obj
 0001:0008bfe0       ?deallocate@__crt_win32_buffer_internal_dynamic_resizing@@SAXQAXABV__crt_win32_buffer_empty_debug_info@@@Z 0048cfe0 f i libucrt:getcwd.obj
 0001:0008bff0       ?deallocate@__crt_win32_buffer_no_resizing@@SAXQAXABV__crt_win32_buffer_empty_debug_info@@@Z 0048cff0 f i libucrt:getcwd.obj
 0001:0008bff3       ?deallocate@__crt_win32_buffer_public_dynamic_resizing@@SAXQAXABV__crt_win32_buffer_debug_info@@@Z 0048cff3 f i libucrt:getcwd.obj
 0001:0008c003       ?debug_info@?$__crt_win32_buffer@DU__crt_win32_buffer_no_resizing@@@@QBEABV__crt_win32_buffer_empty_debug_info@@XZ 0048d003 f i libucrt:getcwd.obj
 0001:0008c006       ?debug_info@?$__crt_win32_buffer@DU__crt_win32_buffer_public_dynamic_resizing@@@@QBEABV__crt_win32_buffer_debug_info@@XZ 0048d006 f i libucrt:getcwd.obj
 0001:0008c009       ?debug_info@?$__crt_win32_buffer@_WU__crt_win32_buffer_internal_dynamic_resizing@@@@QBEABV__crt_win32_buffer_empty_debug_info@@XZ 0048d009 f i libucrt:getcwd.obj
 0001:0008c00c       ?debug_info@?$__crt_win32_buffer@_WU__crt_win32_buffer_no_resizing@@@@QBEABV__crt_win32_buffer_empty_debug_info@@XZ 0048d00c f i libucrt:getcwd.obj
 0001:0008c00f       ?debug_info@?$__crt_win32_buffer@_WU__crt_win32_buffer_public_dynamic_resizing@@@@QBEABV__crt_win32_buffer_debug_info@@XZ 0048d00f f i libucrt:getcwd.obj
 0001:0008c012       ?detach@?$__crt_win32_buffer@DU__crt_win32_buffer_public_dynamic_resizing@@@@QAEPADXZ 0048d012 f i libucrt:getcwd.obj
 0001:0008c05f       ?detach@?$__crt_win32_buffer@_WU__crt_win32_buffer_public_dynamic_resizing@@@@QAEPA_WXZ 0048d05f f i libucrt:getcwd.obj
 0001:0008c129       ?set_to_nullptr@?$__crt_win32_buffer@DU__crt_win32_buffer_no_resizing@@@@QAEXXZ 0048d129 f i libucrt:getcwd.obj
 0001:0008c13d       ?set_to_nullptr@?$__crt_win32_buffer@DU__crt_win32_buffer_public_dynamic_resizing@@@@QAEXXZ 0048d13d f i libucrt:getcwd.obj
 0001:0008c154       ?set_to_nullptr@?$__crt_win32_buffer@_WU__crt_win32_buffer_internal_dynamic_resizing@@@@QAEXXZ 0048d154 f i libucrt:getcwd.obj
 0001:0008c16b       ?size@?$__crt_win32_buffer@DU__crt_win32_buffer_no_resizing@@@@QAEXI@Z 0048d16b f i libucrt:getcwd.obj
 0001:0008c17a       ?size@?$__crt_win32_buffer@DU__crt_win32_buffer_public_dynamic_resizing@@@@QAEXI@Z 0048d17a f i libucrt:getcwd.obj
 0001:0008c189       ?size@?$__crt_win32_buffer@_WU__crt_win32_buffer_internal_dynamic_resizing@@@@QAEXI@Z 0048d189 f i libucrt:getcwd.obj
 0001:0008c198       ___acrt_disable_global_locale_sync 0048d198 f i libucrt:getcwd.obj
 0001:0008c1ab       ___acrt_enable_global_locale_sync 0048d1ab f i libucrt:getcwd.obj
 0001:0008c1c0       ___acrt_locale_changed     0048d1c0 f i libucrt:getcwd.obj
 0001:0008c1cb       __getcwd                   0048d1cb f   libucrt:getcwd.obj
 0001:0008c1e7       __getdcwd                  0048d1e7 f   libucrt:getcwd.obj
 0001:0008c205       __wgetcwd                  0048d205 f   libucrt:getcwd.obj
 0001:0008c221       __wgetdcwd                 0048d221 f   libucrt:getcwd.obj
 0001:0008c2c0       ??$?0$0BAF@@?$__crt_win32_buffer@DU__crt_win32_buffer_internal_dynamic_resizing@@@@QAE@AAY0BAF@D@Z 0048d2c0 f i libucrt:chdir.obj
 0001:0008c2e6       ??$?0$0BAF@@?$__crt_win32_buffer@_WU__crt_win32_buffer_internal_dynamic_resizing@@@@QAE@AAY0BAF@_W@Z 0048d2e6 f i libucrt:chdir.obj
 0001:0008c30c       ??$__acrt_convert_wcs_mbs_cp@_WDV<lambda_28bda7af82a03b66c1cb3803a755f95d>@@U__crt_win32_buffer_internal_dynamic_resizing@@@@YAHQB_WAAV?$__crt_win32_buffer@DU__crt_win32_buffer_internal_dynamic_resizing@@@@ABV<lambda_28bda7af82a03b66c1cb3803a755f95d>@@I@Z 0048d30c f i libucrt:chdir.obj
 0001:0008c3d2       ??$__acrt_get_current_directory_narrow_acp_or_utf8@U__crt_win32_buffer_internal_dynamic_resizing@@@@YAHAAV?$__crt_win32_buffer@DU__crt_win32_buffer_internal_dynamic_resizing@@@@@Z 0048d3d2 f i libucrt:chdir.obj
 0001:0008c471       ??$__acrt_get_current_directory_wide@U__crt_win32_buffer_internal_dynamic_resizing@@@@YAHAAV?$__crt_win32_buffer@_WU__crt_win32_buffer_internal_dynamic_resizing@@@@@Z 0048d471 f i libucrt:chdir.obj
 0001:0008c485       ??$__acrt_wcs_to_mbs_cp@U__crt_win32_buffer_internal_dynamic_resizing@@@@YAHQB_WAAV?$__crt_win32_buffer@DU__crt_win32_buffer_internal_dynamic_resizing@@@@I@Z 0048d485 f i libucrt:chdir.obj
 0001:0008c4a2       ??$call_win32_function@V<lambda_7972ba2efd4790e91629b944970c6483>@@@?$__crt_win32_buffer@_WU__crt_win32_buffer_internal_dynamic_resizing@@@@QAEHABV<lambda_7972ba2efd4790e91629b944970c6483>@@@Z 0048d4a2 f i libucrt:chdir.obj
 0001:0008c6bf       ??$get_current_directory@AAV?$__crt_win32_buffer@DU__crt_win32_buffer_internal_dynamic_resizing@@@@@?$__crt_char_traits@D@@SAHAAV?$__crt_win32_buffer@DU__crt_win32_buffer_internal_dynamic_resizing@@@@@Z 0048d6bf f i libucrt:chdir.obj
 0001:0008c6ca       ??$get_current_directory@AAV?$__crt_win32_buffer@_WU__crt_win32_buffer_internal_dynamic_resizing@@@@@?$__crt_char_traits@_W@@SAHAAV?$__crt_win32_buffer@_WU__crt_win32_buffer_internal_dynamic_resizing@@@@@Z 0048d6ca f i libucrt:chdir.obj
 0001:0008c6d5       ??$set_current_directory@ABQBD@?$__crt_char_traits@D@@SAHABQBD@Z 0048d6d5 f i libucrt:chdir.obj
 0001:0008c6e7       ??$set_current_directory@ABQB_W@?$__crt_char_traits@_W@@SAHABQB_W@Z 0048d6e7 f i libucrt:chdir.obj
 0001:0008c7ce       ??$set_environment_variable@AAY03$$CBDABQBD@?$__crt_char_traits@D@@SAHAAY03$$CBDABQBD@Z 0048d7ce f i libucrt:chdir.obj
 0001:0008c7e4       ??$set_environment_variable@AAY03$$CB_WABQB_W@?$__crt_char_traits@_W@@SAHAAY03$$CB_WABQB_W@Z 0048d7e4 f i libucrt:chdir.obj
 0001:0008c7f9       ??1?$__crt_win32_buffer@DU__crt_win32_buffer_internal_dynamic_resizing@@@@QAE@XZ 0048d7f9 f i libucrt:chdir.obj
 0001:0008c7fe       ??R<lambda_28bda7af82a03b66c1cb3803a755f95d>@@QBEHIQB_WQADI@Z 0048d7fe f i libucrt:chdir.obj
 0001:0008c822       ??R<lambda_7972ba2efd4790e91629b944970c6483>@@QBEKPA_WK@Z 0048d822 f i libucrt:chdir.obj
 0001:0008c837       ?_deallocate@?$__crt_win32_buffer@DU__crt_win32_buffer_internal_dynamic_resizing@@@@AAEXXZ 0048d837 f i libucrt:chdir.obj
 0001:0008c851       ?allocate@?$__crt_win32_buffer@DU__crt_win32_buffer_internal_dynamic_resizing@@@@QAEHI@Z 0048d851 f i libucrt:chdir.obj
 0001:0008c88d       ?capacity@?$__crt_win32_buffer@DU__crt_win32_buffer_internal_dynamic_resizing@@@@QBEIXZ 0048d88d f i libucrt:chdir.obj
 0001:0008c891       ?data@?$__crt_win32_buffer@DU__crt_win32_buffer_internal_dynamic_resizing@@@@QAEPADXZ 0048d891 f i libucrt:chdir.obj
 0001:0008c895       ?debug_info@?$__crt_win32_buffer@DU__crt_win32_buffer_internal_dynamic_resizing@@@@QBEABV__crt_win32_buffer_empty_debug_info@@XZ 0048d895 f i libucrt:chdir.obj
 0001:0008c898       ?set_to_nullptr@?$__crt_win32_buffer@DU__crt_win32_buffer_internal_dynamic_resizing@@@@QAEXXZ 0048d898 f i libucrt:chdir.obj
 0001:0008c8af       ?size@?$__crt_win32_buffer@DU__crt_win32_buffer_internal_dynamic_resizing@@@@QAEXI@Z 0048d8af f i libucrt:chdir.obj
 0001:0008c8be       __chdir                    0048d8be f   libucrt:chdir.obj
 0001:0008c8c9       __wchdir                   0048d8c9 f   libucrt:chdir.obj
 0001:0008c8d4       ??0?$__crt_win32_buffer@_WU__crt_win32_buffer_internal_dynamic_resizing@@@@QAE@XZ 0048d8d4 f i libucrt:access.obj
 0001:0008c8ea       __access                   0048d8ea f   libucrt:access.obj
 0001:0008c902       __access_s                 0048d902 f   libucrt:access.obj
 0001:0008c974       ??$?RE@__crt_internal_free_policy@@QBEXQBE@Z 0048d974 f i libucrt:spawnv.obj
 0001:0008ce01       ??$create_process@PADPAD$$T$$THAAKPAD$$TPAU_STARTUPINFOW@@PAU_PROCESS_INFORMATION@@@?$__crt_char_traits@D@@SAH$$QAPAD0$$QA$$T1$$QAHAAK01$$QAPAU_STARTUPINFOW@@$$QAPAU_PROCESS_INFORMATION@@@Z 0048de01 f i libucrt:spawnv.obj
 0001:0008ce42       ??$create_process@PA_WPA_W$$T$$THAAKPA_W$$TPAU_STARTUPINFOW@@PAU_PROCESS_INFORMATION@@@?$__crt_char_traits@_W@@SAH$$QAPA_W0$$QA$$T1$$QAHAAK01$$QAPAU_STARTUPINFOW@@$$QAPAU_PROCESS_INFORMATION@@@Z 0048de42 f i libucrt:spawnv.obj
 0001:0008d2a2       ??$pack_command_line_and_environment@ABQBQBDABQBQBDPAPADPAPAD@?$__crt_char_traits@D@@SAHABQBQBD0$$QAPAPAD1@Z 0048e2a2 f i libucrt:spawnv.obj
 0001:0008d2c5       ??$pack_command_line_and_environment@ABQBQB_WABQBQB_WPAPA_WPAPA_W@?$__crt_char_traits@_W@@SAHABQBQB_W0$$QAPAPA_W1@Z 0048e2c5 f i libucrt:spawnv.obj
 0001:0008d2e8       ??$taccess_s@AAPBDH@?$__crt_char_traits@D@@SAHAAPBD$$QAH@Z 0048e2e8 f i libucrt:spawnv.obj
 0001:0008d300       ??$taccess_s@AAPB_WH@?$__crt_char_traits@_W@@SAHAAPB_W$$QAH@Z 0048e300 f i libucrt:spawnv.obj
 0001:0008d318       ??$taccess_s@PADH@?$__crt_char_traits@D@@SAH$$QAPAD$$QAH@Z 0048e318 f i libucrt:spawnv.obj
 0001:0008d330       ??$taccess_s@PA_WH@?$__crt_char_traits@_W@@SAH$$QAPA_W$$QAH@Z 0048e330 f i libucrt:spawnv.obj
 0001:0008d348       ??$tcscat_s@PADABIABQBD@?$__crt_char_traits@D@@SAH$$QAPADABIABQBD@Z 0048e348 f i libucrt:spawnv.obj
 0001:0008d366       ??$tcscat_s@PA_WABIABQB_W@?$__crt_char_traits@_W@@SAH$$QAPA_WABIABQB_W@Z 0048e366 f i libucrt:spawnv.obj
 0001:0008d384       ??$tcscpy_s@AAPADHAAY04$$CBD@?$__crt_char_traits@D@@SAHAAPAD$$QAHAAY04$$CBD@Z 0048e384 f i libucrt:spawnv.obj
 0001:0008d3a0       ??$tcscpy_s@AAPA_WHAAY04$$CB_W@?$__crt_char_traits@_W@@SAHAAPA_W$$QAHAAY04$$CB_W@Z 0048e3a0 f i libucrt:spawnv.obj
 0001:0008d3bc       ??$tcscpy_s@PADABIAAPBD@?$__crt_char_traits@D@@SAH$$QAPADABIAAPBD@Z 0048e3bc f i libucrt:spawnv.obj
 0001:0008d3da       ??$tcscpy_s@PADABIAAY02$$CBD@?$__crt_char_traits@D@@SAH$$QAPADABIAAY02$$CBD@Z 0048e3da f i libucrt:spawnv.obj
 0001:0008d3f6       ??$tcscpy_s@PA_WABIAAPB_W@?$__crt_char_traits@_W@@SAH$$QAPA_WABIAAPB_W@Z 0048e3f6 f i libucrt:spawnv.obj
 0001:0008d414       ??$tcscpy_s@PA_WABIAAY02$$CB_W@?$__crt_char_traits@_W@@SAH$$QAPA_WABIAAY02$$CB_W@Z 0048e414 f i libucrt:spawnv.obj
 0001:0008d430       ??$tcslen@AAPBD@?$__crt_char_traits@D@@SAIAAPBD@Z 0048e430 f i libucrt:spawnv.obj
 0001:0008d448       ??$tcslen@AAPB_W@?$__crt_char_traits@_W@@SAIAAPB_W@Z 0048e448 f i libucrt:spawnv.obj
 0001:0008d466       ??$tcsrchr@AAPBDD@?$__crt_char_traits@D@@SAPBDAAPBD$$QAD@Z 0048e466 f i libucrt:spawnv.obj
 0001:0008d480       ??$tcsrchr@AAPB_WD@?$__crt_char_traits@_W@@SAPB_WAAPB_W$$QAD@Z 0048e480 f i libucrt:spawnv.obj
 0001:0008d49e       ??$tcsrchr@ABQBDD@?$__crt_char_traits@D@@SAPBDABQBD$$QAD@Z 0048e49e f i libucrt:spawnv.obj
 0001:0008d4b8       ??$tcsrchr@ABQB_WD@?$__crt_char_traits@_W@@SAPB_WABQB_W$$QAD@Z 0048e4b8 f i libucrt:spawnv.obj
 0001:0008d516       ??0?$__crt_unique_handle_t@U__crt_handle_traits@@@@QAE@QAX@Z 0048e516 f i libucrt:spawnv.obj
 0001:0008d526       ??0?$__crt_unique_heap_ptr@$$CBDU__crt_internal_free_policy@@@@QAE@QBD@Z 0048e526 f i libucrt:spawnv.obj
 0001:0008d536       ??0?$__crt_unique_heap_ptr@$$CB_WU__crt_internal_free_policy@@@@QAE@QB_W@Z 0048e536 f i libucrt:spawnv.obj
 0001:0008d546       ??0?$__crt_unique_heap_ptr@EU__crt_internal_free_policy@@@@QAE@QAE@Z 0048e546 f i libucrt:spawnv.obj
 0001:0008d556       ??1?$__crt_unique_handle_t@U__crt_handle_traits@@@@QAE@XZ 0048e556 f i libucrt:spawnv.obj
 0001:0008d56d       ??1?$__crt_unique_heap_ptr@$$CBDU__crt_internal_free_policy@@@@QAE@XZ 0048e56d f i libucrt:spawnv.obj
 0001:0008d57f       ??1?$__crt_unique_heap_ptr@$$CB_WU__crt_internal_free_policy@@@@QAE@XZ 0048e57f f i libucrt:spawnv.obj
 0001:0008d591       ??1?$__crt_unique_heap_ptr@EU__crt_internal_free_policy@@@@QAE@XZ 0048e591 f i libucrt:spawnv.obj
 0001:0008d72c       ?close@?$__crt_unique_handle_t@U__crt_handle_traits@@@@QAEXXZ 0048e72c f i libucrt:spawnv.obj
 0001:0008d743       ?close@__crt_handle_traits@@SA_NPAX@Z 0048e743 f i libucrt:spawnv.obj
 0001:0008d758       ?detach@?$__crt_unique_handle_t@U__crt_handle_traits@@@@QAEPAXXZ 0048e758 f i libucrt:spawnv.obj
 0001:0008d75e       ?detach@?$__crt_unique_heap_ptr@EU__crt_internal_free_policy@@@@QAEPAEXZ 0048e75e f i libucrt:spawnv.obj
 0001:0008d764       ?get@?$__crt_unique_heap_ptr@EU__crt_internal_free_policy@@@@QBEPAEXZ 0048e764 f i libucrt:spawnv.obj
 0001:0008d767       ?get_address_of@?$__crt_unique_heap_ptr@DU__crt_internal_free_policy@@@@QAEPAPADXZ 0048e767 f i libucrt:spawnv.obj
 0001:0008d76a       ?get_address_of@?$__crt_unique_heap_ptr@EU__crt_internal_free_policy@@@@QAEPAPAEXZ 0048e76a f i libucrt:spawnv.obj
 0001:0008d76d       ?get_address_of@?$__crt_unique_heap_ptr@_WU__crt_internal_free_policy@@@@QAEPAPA_WXZ 0048e76d f i libucrt:spawnv.obj
 0001:0008d770       ?get_invalid_value@__crt_handle_traits@@SAPAXXZ 0048e770 f i libucrt:spawnv.obj
 0001:0008d774       ?release@?$__crt_unique_heap_ptr@$$CBDU__crt_internal_free_policy@@@@QAEXXZ 0048e774 f i libucrt:spawnv.obj
 0001:0008d786       ?release@?$__crt_unique_heap_ptr@$$CB_WU__crt_internal_free_policy@@@@QAEXXZ 0048e786 f i libucrt:spawnv.obj
 0001:0008d798       ?release@?$__crt_unique_heap_ptr@EU__crt_internal_free_policy@@@@QAEXXZ 0048e798 f i libucrt:spawnv.obj
 0001:0008d7b0       __execv                    0048e7b0 f   libucrt:spawnv.obj
 0001:0008d7c9       __execve                   0048e7c9 f   libucrt:spawnv.obj
 0001:0008d7e3       __spawnv                   0048e7e3 f   libucrt:spawnv.obj
 0001:0008d7fd       __spawnve                  0048e7fd f   libucrt:spawnv.obj
 0001:0008d808       __wexecv                   0048e808 f   libucrt:spawnv.obj
 0001:0008d821       __wexecve                  0048e821 f   libucrt:spawnv.obj
 0001:0008d83b       __wspawnv                  0048e83b f   libucrt:spawnv.obj
 0001:0008d855       __wspawnve                 0048e855 f   libucrt:spawnv.obj
 0001:0008d860       ??$__crt_interlocked_read@J@@YAJPDJ@Z 0048e860 f i libucrt:fclose.obj
 0001:0008d86d       ??0?$cached@H@__crt_cached_ptd_host@@QAE@XZ 0048e86d f i libucrt:fclose.obj
 0001:0008d874       ??0?$cached@K@__crt_cached_ptd_host@@QAE@XZ 0048e874 f i libucrt:fclose.obj
 0001:0008d87b       ??0__crt_cached_ptd_host@@QAE@QAU__crt_locale_pointers@@@Z 0048e87b f i libucrt:fclose.obj
 0001:0008d8c3       ??0__crt_scoped_get_last_error_reset@@QAE@XZ 0048e8c3 f i libucrt:fclose.obj
 0001:0008d8d4       ??0__crt_stdio_stream@@QAE@QAU_iobuf@@@Z 0048e8d4 f i libucrt:fclose.obj
 0001:0008d8e4       ??1__crt_cached_ptd_host@@QAE@XZ 0048e8e4 f i libucrt:fclose.obj
 0001:0008d920       ??1__crt_scoped_get_last_error_reset@@QAE@XZ 0048e920 f i libucrt:fclose.obj
 0001:0008d929       ??C__crt_stdio_stream@@QBEPAU__crt_stdio_stream_data@@XZ 0048e929 f i libucrt:fclose.obj
 0001:0008da51       ?check_synchronize_global_state_index@__crt_cached_ptd_host@@AAEIABV__crt_scoped_get_last_error_reset@@@Z 0048ea51 f i libucrt:fclose.obj
 0001:0008da69       ?check_synchronize_per_thread_data@__crt_cached_ptd_host@@AAEPAU__acrt_ptd@@XZ 0048ea69 f i libucrt:fclose.obj
 0001:0008da86       ?force_synchronize_global_state_index@__crt_cached_ptd_host@@AAEIABV__crt_scoped_get_last_error_reset@@@Z 0048ea86 f i libucrt:fclose.obj
 0001:0008da93       ?force_synchronize_per_thread_data@__crt_cached_ptd_host@@AAEPAU__acrt_ptd@@XZ 0048ea93 f i libucrt:fclose.obj
 0001:0008dad9       ?get_current_state_index@__crt_state_management@@YAIABV__crt_scoped_get_last_error_reset@@@Z 0048ead9 f i libucrt:fclose.obj
 0001:0008dadc       ?get_errno@__crt_cached_ptd_host@@QAEAAU?$cached@H@1@XZ 0048eadc f i libucrt:fclose.obj
 0001:0008dae0       ?get_flags@__crt_stdio_stream@@QBEJXZ 0048eae0 f i libucrt:fclose.obj
 0001:0008dae7       ?get_raw_ptd@__crt_cached_ptd_host@@QAEPAU__acrt_ptd@@XZ 0048eae7 f i libucrt:fclose.obj
 0001:0008db04       ?is_in_use@__crt_stdio_stream@@QBE_NXZ 0048eb04 f i libucrt:fclose.obj
 0001:0008db10       ?is_string_backed@__crt_stdio_stream@@QBE_NXZ 0048eb10 f i libucrt:fclose.obj
 0001:0008db1c       ?public_stream@__crt_stdio_stream@@QBEPAU_iobuf@@XZ 0048eb1c f i libucrt:fclose.obj
 0001:0008db1f       ?set@?$cached@H@__crt_cached_ptd_host@@QAEHH@Z 0048eb1f f i libucrt:fclose.obj
 0001:0008db31       ?unsafe_value@?$cached@H@__crt_cached_ptd_host@@QAEHXZ 0048eb31 f i libucrt:fclose.obj
 0001:0008db34       ?unsafe_value@?$cached@K@__crt_cached_ptd_host@@QAEKXZ 0048eb34 f i libucrt:fclose.obj
 0001:0008db37       ?valid@?$cached@H@__crt_cached_ptd_host@@QBE_NXZ 0048eb37 f i libucrt:fclose.obj
 0001:0008db3b       ?valid@?$cached@K@__crt_cached_ptd_host@@QBE_NXZ 0048eb3b f i libucrt:fclose.obj
 0001:0008db3f       ?valid@__crt_stdio_stream@@QBE_NXZ 0048eb3f f i libucrt:fclose.obj
 0001:0008db46       __fclose_nolock            0048eb46 f   libucrt:fclose.obj
 0001:0008db76       _fclose                    0048eb76 f   libucrt:fclose.obj
 0001:0008dda1       ??$open_file@ABQBDABQBDABHPAU_iobuf@@@?$__crt_char_traits@D@@SAPAU_iobuf@@ABQBD0ABH$$QAPAU1@@Z 0048eda1 f i libucrt:fopen.obj
 0001:0008ddc4       ??$open_file@ABQB_WABQB_WABHPAU_iobuf@@@?$__crt_char_traits@_W@@SAPAU_iobuf@@ABQB_W0ABH$$QAPAU1@@Z 0048edc4 f i libucrt:fopen.obj
 0001:0008dde7       ?unlock@__crt_stdio_stream@@QBEXXZ 0048ede7 f i libucrt:fopen.obj
 0001:0008ddf0       __fsopen                   0048edf0 f   libucrt:fopen.obj
 0001:0008ddfb       __wfopen                   0048edfb f   libucrt:fopen.obj
 0001:0008de12       __wfopen_s                 0048ee12 f   libucrt:fopen.obj
 0001:0008de59       __wfsopen                  0048ee59 f   libucrt:fopen.obj
 0001:0008de64       _fopen                     0048ee64 f   libucrt:fopen.obj
 0001:0008de7b       _fopen_s                   0048ee7b f   libucrt:fopen.obj
 0001:0008dec2       ?__acrt_stdio_reset_buffer@@YAXV__crt_stdio_stream@@@Z 0048eec2 f i libucrt:fread.obj
 0001:0008ded8       ?has_any_buffer@__crt_stdio_stream@@QBE_NXZ 0048eed8 f i libucrt:fread.obj
 0001:0008dee7       ?has_any_of@__crt_stdio_stream@@QBE_NJ@Z 0048eee7 f i libucrt:fread.obj
 0001:0008defc       ?set_flags@__crt_stdio_stream@@QBE_NJ@Z 0048eefc f i libucrt:fread.obj
 0001:0008df20       __fread_nolock             0048ef20 f   libucrt:fread.obj
 0001:0008df3d       __fread_nolock_s           0048ef3d f   libucrt:fread.obj
 0001:0008e123       _fread                     0048f123 f   libucrt:fread.obj
 0001:0008e140       _fread_s                   0048f140 f   libucrt:fread.obj
 0001:0008e25e       ?LongLongSub@@YAJ_J0PA_J@Z 0048f25e f i libucrt:fseek.obj
 0001:0008e539       ?has_all_of@__crt_stdio_stream@@QBE_NJ@Z 0048f539 f i libucrt:fseek.obj
 0001:0008e551       ?lowio_handle@__crt_stdio_stream@@QBEHXZ 0048f551 f i libucrt:fseek.obj
 0001:0008e558       ?unset_flags@__crt_stdio_stream@@QBE_NJ@Z 0048f558 f i libucrt:fseek.obj
 0001:0008e581       __fseek_nolock             0048f581 f   libucrt:fseek.obj
 0001:0008e5bb       __fseeki64                 0048f5bb f   libucrt:fseek.obj
 0001:0008e5f5       __fseeki64_nolock          0048f5f5 f   libucrt:fseek.obj
 0001:0008e62f       _fseek                     0048f62f f   libucrt:fseek.obj
 0001:0008ed7d       ?ctrl_z@__crt_stdio_stream@@QBE_NXZ 0048fd7d f i libucrt:ftell.obj
 0001:0008ed89       ?has_big_buffer@__crt_stdio_stream@@QBE_NXZ 0048fd89 f i libucrt:ftell.obj
 0001:0008ed95       ?has_crt_buffer@__crt_stdio_stream@@QBE_NXZ 0048fd95 f i libucrt:ftell.obj
 0001:0008eda1       ?has_setvbuf_buffer@__crt_stdio_stream@@QBE_NXZ 0048fda1 f i libucrt:ftell.obj
 0001:0008edad       __ftell_nolock             0048fdad f   libucrt:ftell.obj
 0001:0008eddd       __ftelli64                 0048fddd f   libucrt:ftell.obj
 0001:0008ee13       __ftelli64_nolock          0048fe13 f   libucrt:ftell.obj
 0001:0008ee49       __ftelli64_nolock_internal 0048fe49 f   libucrt:ftell.obj
 0001:0008ee54       __utf8_no_of_trailbytes    0048fe54 f i libucrt:ftell.obj
 0001:0008ee65       _ftell                     0048fe65 f   libucrt:ftell.obj
 0001:0008f857       __aligned_free             00490857 f   libucrt:align.obj
 0001:0008f871       __aligned_malloc           00490871 f   libucrt:align.obj
 0001:0008f8d6       __aligned_msize            004908d6 f   libucrt:align.obj
 0001:0008f91f       __aligned_offset_malloc    0049091f f   libucrt:align.obj
 0001:0008f9a8       __aligned_offset_realloc   004909a8 f   libucrt:align.obj
 0001:0008fba0       __aligned_offset_recalloc  00490ba0 f   libucrt:align.obj
 0001:0008fe4c       __aligned_realloc          00490e4c f   libucrt:align.obj
 0001:0008fff3       __aligned_recalloc         00490ff3 f   libucrt:align.obj
 0001:00090221       ??$__crt_fast_decode_pointer@P6AXPB_W00II@Z@@YAP6AXPB_W00II@ZQ6AX000II@Z@Z 00491221 f i libucrt:invalid_parameter.obj
 0001:00090237       ??$__crt_fast_encode_pointer@P6AXPB_W00II@Z@@YAP6AXPB_W00II@ZQ6AX000II@Z@Z 00491237 f i libucrt:invalid_parameter.obj
 0001:00090256       ??$initialize_from_array@$$BY00Q6AXPB_W00II@Z@?$dual_state_global@P6AXPB_W00II@Z@__crt_state_management@@QAAXAAY00Q6AXPB_W00II@Z@Z 00491256 f i libucrt:invalid_parameter.obj
 0001:00090267       ?__crt_rotate_pointer_value@@YAIIH@Z 00491267 f i libucrt:invalid_parameter.obj
 0001:00090276       ?check_synchronize_global_state_index@__crt_cached_ptd_host@@AAEIXZ 00491276 f i libucrt:invalid_parameter.obj
 0001:0009029f       ?dangerous_get_state_array@?$dual_state_global@P6AXPB_W00II@Z@__crt_state_management@@QAEPAP6AXPB_W00II@ZXZ 0049129f f i libucrt:invalid_parameter.obj
 0001:000902a2       ?get_current_global_state_index@__crt_cached_ptd_host@@QAEIXZ 004912a2 f i libucrt:invalid_parameter.obj
 0001:000902a7       ?get_raw_ptd_noexit@__crt_cached_ptd_host@@QAEPAU__acrt_ptd@@XZ 004912a7 f i libucrt:invalid_parameter.obj
 0001:000902b2       ?try_synchronize_per_thread_data@__crt_cached_ptd_host@@AAEPAU__acrt_ptd@@XZ 004912b2 f i libucrt:invalid_parameter.obj
 0001:000902bd       ?value@?$dual_state_global@P6AXPB_W00II@Z@__crt_state_management@@QAEAAP6AXPB_W00II@ZAAV__crt_cached_ptd_host@@@Z 004912bd f i libucrt:invalid_parameter.obj
 0001:000902d5       ?value@?$dual_state_global@P6AXPB_W00II@Z@__crt_state_management@@QAEAAP6AXPB_W00II@ZXZ 004912d5 f i libucrt:invalid_parameter.obj
 0001:000902d8       ___acrt_call_reportfault   004912d8 f   libucrt:invalid_parameter.obj
 0001:00090411       ___acrt_initialize_invalid_parameter_handler 00491411 f   libucrt:invalid_parameter.obj
 0001:00090420       __get_invalid_parameter_handler 00491420 f   libucrt:invalid_parameter.obj
 0001:00090433       __get_thread_local_invalid_parameter_handler 00491433 f   libucrt:invalid_parameter.obj
 0001:00090444       __invalid_parameter        00491444 f   libucrt:invalid_parameter.obj
 0001:0009047b       __invalid_parameter_internal 0049147b f   libucrt:invalid_parameter.obj
 0001:000904f8       __invalid_parameter_noinfo 004914f8 f   libucrt:invalid_parameter.obj
 0001:00090508       __invalid_parameter_noinfo_noreturn 00491508 f   libucrt:invalid_parameter.obj
 0001:00090525       __invoke_watson            00491525 f   libucrt:invalid_parameter.obj
 0001:00090559       __set_invalid_parameter_handler 00491559 f   libucrt:invalid_parameter.obj
 0001:00090589       __set_thread_local_invalid_parameter_handler 00491589 f   libucrt:invalid_parameter.obj
 0001:000905a6       ??$?0ABV?$stream_output_adapter@D@__crt_stdio_output@@AB_KABQBDAAV__crt_cached_ptd_host@@ABQAD@?$format_validation_base@DV?$stream_output_adapter@D@__crt_stdio_output@@@__crt_stdio_output@@IAE@ABV?$stream_output_adapter@D@1@AB_KABQBDAAV__crt_cached_ptd_host@@ABQAD@Z 004915a6 f i libucrt:output.obj
 0001:000905c9       ??$?0ABV?$stream_output_adapter@D@__crt_stdio_output@@AB_KABQBDAAV__crt_cached_ptd_host@@ABQAD@?$positional_parameter_base@DV?$stream_output_adapter@D@__crt_stdio_output@@@__crt_stdio_output@@IAE@ABV?$stream_output_adapter@D@1@AB_KABQBDAAV__crt_cached_ptd_host@@ABQAD@Z 004915c9 f i libucrt:output.obj
 0001:00090611       ??$?0ABV?$stream_output_adapter@D@__crt_stdio_output@@AB_KABQBDAAV__crt_cached_ptd_host@@ABQAD@?$standard_base@DV?$stream_output_adapter@D@__crt_stdio_output@@@__crt_stdio_output@@IAE@ABV?$stream_output_adapter@D@1@AB_KABQBDAAV__crt_cached_ptd_host@@ABQAD@Z 00491611 f i libucrt:output.obj
 0001:00090644       ??$?0ABV?$stream_output_adapter@_W@__crt_stdio_output@@AB_KABQB_WAAV__crt_cached_ptd_host@@ABQAD@?$format_validation_base@_WV?$stream_output_adapter@_W@__crt_stdio_output@@@__crt_stdio_output@@IAE@ABV?$stream_output_adapter@_W@1@AB_KABQB_WAAV__crt_cached_ptd_host@@ABQAD@Z 00491644 f i libucrt:output.obj
 0001:00090667       ??$?0ABV?$stream_output_adapter@_W@__crt_stdio_output@@AB_KABQB_WAAV__crt_cached_ptd_host@@ABQAD@?$positional_parameter_base@_WV?$stream_output_adapter@_W@__crt_stdio_output@@@__crt_stdio_output@@IAE@ABV?$stream_output_adapter@_W@1@AB_KABQB_WAAV__crt_cached_ptd_host@@ABQAD@Z 00491667 f i libucrt:output.obj
 0001:000906af       ??$?0ABV?$stream_output_adapter@_W@__crt_stdio_output@@AB_KABQB_WAAV__crt_cached_ptd_host@@ABQAD@?$standard_base@_WV?$stream_output_adapter@_W@__crt_stdio_output@@@__crt_stdio_output@@IAE@ABV?$stream_output_adapter@_W@1@AB_KABQB_WAAV__crt_cached_ptd_host@@ABQAD@Z 004916af f i libucrt:output.obj
 0001:000906e2       ??$?0ABV?$string_output_adapter@D@__crt_stdio_output@@AB_KABQBDAAV__crt_cached_ptd_host@@ABQAD@?$format_validation_base@DV?$string_output_adapter@D@__crt_stdio_output@@@__crt_stdio_output@@IAE@ABV?$string_output_adapter@D@1@AB_KABQBDAAV__crt_cached_ptd_host@@ABQAD@Z 004916e2 f i libucrt:output.obj
 0001:00090705       ??$?0ABV?$string_output_adapter@D@__crt_stdio_output@@AB_KABQBDAAV__crt_cached_ptd_host@@ABQAD@?$positional_parameter_base@DV?$string_output_adapter@D@__crt_stdio_output@@@__crt_stdio_output@@IAE@ABV?$string_output_adapter@D@1@AB_KABQBDAAV__crt_cached_ptd_host@@ABQAD@Z 00491705 f i libucrt:output.obj
 0001:0009074d       ??$?0ABV?$string_output_adapter@D@__crt_stdio_output@@AB_KABQBDAAV__crt_cached_ptd_host@@ABQAD@?$standard_base@DV?$string_output_adapter@D@__crt_stdio_output@@@__crt_stdio_output@@IAE@ABV?$string_output_adapter@D@1@AB_KABQBDAAV__crt_cached_ptd_host@@ABQAD@Z 0049174d f i libucrt:output.obj
 0001:00090780       ??$?0ABV?$string_output_adapter@_W@__crt_stdio_output@@AB_KABQB_WAAV__crt_cached_ptd_host@@ABQAD@?$format_validation_base@_WV?$string_output_adapter@_W@__crt_stdio_output@@@__crt_stdio_output@@IAE@ABV?$string_output_adapter@_W@1@AB_KABQB_WAAV__crt_cached_ptd_host@@ABQAD@Z 00491780 f i libucrt:output.obj
 0001:000907a3       ??$?0ABV?$string_output_adapter@_W@__crt_stdio_output@@AB_KABQB_WAAV__crt_cached_ptd_host@@ABQAD@?$positional_parameter_base@_WV?$string_output_adapter@_W@__crt_stdio_output@@@__crt_stdio_output@@IAE@ABV?$string_output_adapter@_W@1@AB_KABQB_WAAV__crt_cached_ptd_host@@ABQAD@Z 004917a3 f i libucrt:output.obj
 0001:000907eb       ??$?0ABV?$string_output_adapter@_W@__crt_stdio_output@@AB_KABQB_WAAV__crt_cached_ptd_host@@ABQAD@?$standard_base@_WV?$string_output_adapter@_W@__crt_stdio_output@@@__crt_stdio_output@@IAE@ABV?$string_output_adapter@_W@1@AB_KABQB_WAAV__crt_cached_ptd_host@@ABQAD@Z 004917eb f i libucrt:output.obj
 0001:00090b24       ??$_tcstol_internal@DPAPAD$0A@@@YAJAAV__crt_cached_ptd_host@@QBDQAPADH@Z 00491b24 f i libucrt:output.obj
 0001:00090b4f       ??$_tcstol_internal@_WPAPA_W$0A@@@YAJAAV__crt_cached_ptd_host@@QB_WQAPA_WH@Z 00491b4f f i libucrt:output.obj
 0001:00091aa9       ??$count@D@formatting_buffer@__crt_stdio_output@@QBEIXZ 00492aa9 f i libucrt:output.obj
 0001:00091ac1       ??$count@_W@formatting_buffer@__crt_stdio_output@@QBEIXZ 00492ac1 f i libucrt:output.obj
 0001:00091ada       ??$data@D@formatting_buffer@__crt_stdio_output@@QAEPADXZ 00492ada f i libucrt:output.obj
 0001:00091ae7       ??$data@_W@formatting_buffer@__crt_stdio_output@@QAEPA_WXZ 00492ae7 f i libucrt:output.obj
 0001:00091af4       ??$ensure_buffer_is_big_enough@D@formatting_buffer@__crt_stdio_output@@QAE_NIAAV__crt_cached_ptd_host@@@Z 00492af4 f i libucrt:output.obj
 0001:00091b75       ??$ensure_buffer_is_big_enough@_W@formatting_buffer@__crt_stdio_output@@QAE_NIAAV__crt_cached_ptd_host@@@Z 00492b75 f i libucrt:output.obj
 0001:00091bf7       ??$extract_argument_from_va_list@C_J@?$positional_parameter_base@DV?$stream_output_adapter@D@__crt_stdio_output@@@__crt_stdio_output@@IAE_NAA_J@Z 00492bf7 f i libucrt:output.obj
 0001:00091c7f       ??$extract_argument_from_va_list@C_J@?$positional_parameter_base@DV?$string_output_adapter@D@__crt_stdio_output@@@__crt_stdio_output@@IAE_NAA_J@Z 00492c7f f i libucrt:output.obj
 0001:00091d07       ??$extract_argument_from_va_list@C_J@?$positional_parameter_base@_WV?$stream_output_adapter@_W@__crt_stdio_output@@@__crt_stdio_output@@IAE_NAA_J@Z 00492d07 f i libucrt:output.obj
 0001:00091d90       ??$extract_argument_from_va_list@C_J@?$positional_parameter_base@_WV?$string_output_adapter@_W@__crt_stdio_output@@@__crt_stdio_output@@IAE_NAA_J@Z 00492d90 f i libucrt:output.obj
 0001:00091e19       ??$extract_argument_from_va_list@C_J@?$standard_base@DV?$stream_output_adapter@D@__crt_stdio_output@@@__crt_stdio_output@@IAE_NAA_J@Z 00492e19 f i libucrt:output.obj
 0001:00091e38       ??$extract_argument_from_va_list@C_J@?$standard_base@DV?$string_output_adapter@D@__crt_stdio_output@@@__crt_stdio_output@@IAE_NAA_J@Z 00492e38 f i libucrt:output.obj
 0001:00091e57       ??$extract_argument_from_va_list@C_J@?$standard_base@_WV?$stream_output_adapter@_W@__crt_stdio_output@@@__crt_stdio_output@@IAE_NAA_J@Z 00492e57 f i libucrt:output.obj
 0001:00091e76       ??$extract_argument_from_va_list@C_J@?$standard_base@_WV?$string_output_adapter@_W@__crt_stdio_output@@@__crt_stdio_output@@IAE_NAA_J@Z 00492e76 f i libucrt:output.obj
 0001:00091e95       ??$extract_argument_from_va_list@E_J@?$positional_parameter_base@DV?$stream_output_adapter@D@__crt_stdio_output@@@__crt_stdio_output@@IAE_NAA_J@Z 00492e95 f i libucrt:output.obj
 0001:00091f1d       ??$extract_argument_from_va_list@E_J@?$positional_parameter_base@DV?$string_output_adapter@D@__crt_stdio_output@@@__crt_stdio_output@@IAE_NAA_J@Z 00492f1d f i libucrt:output.obj
 0001:00091fa5       ??$extract_argument_from_va_list@E_J@?$positional_parameter_base@_WV?$stream_output_adapter@_W@__crt_stdio_output@@@__crt_stdio_output@@IAE_NAA_J@Z 00492fa5 f i libucrt:output.obj
 0001:0009202e       ??$extract_argument_from_va_list@E_J@?$positional_parameter_base@_WV?$string_output_adapter@_W@__crt_stdio_output@@@__crt_stdio_output@@IAE_NAA_J@Z 0049302e f i libucrt:output.obj
 0001:000920b7       ??$extract_argument_from_va_list@E_J@?$standard_base@DV?$stream_output_adapter@D@__crt_stdio_output@@@__crt_stdio_output@@IAE_NAA_J@Z 004930b7 f i libucrt:output.obj
 0001:000920d6       ??$extract_argument_from_va_list@E_J@?$standard_base@DV?$string_output_adapter@D@__crt_stdio_output@@@__crt_stdio_output@@IAE_NAA_J@Z 004930d6 f i libucrt:output.obj
 0001:000920f5       ??$extract_argument_from_va_list@E_J@?$standard_base@_WV?$stream_output_adapter@_W@__crt_stdio_output@@@__crt_stdio_output@@IAE_NAA_J@Z 004930f5 f i libucrt:output.obj
 0001:00092114       ??$extract_argument_from_va_list@E_J@?$standard_base@_WV?$string_output_adapter@_W@__crt_stdio_output@@@__crt_stdio_output@@IAE_NAA_J@Z 00493114 f i libucrt:output.obj
 0001:00092133       ??$extract_argument_from_va_list@F_J@?$positional_parameter_base@DV?$stream_output_adapter@D@__crt_stdio_output@@@__crt_stdio_output@@IAE_NAA_J@Z 00493133 f i libucrt:output.obj
 0001:000921bb       ??$extract_argument_from_va_list@F_J@?$positional_parameter_base@DV?$string_output_adapter@D@__crt_stdio_output@@@__crt_stdio_output@@IAE_NAA_J@Z 004931bb f i libucrt:output.obj
 0001:00092243       ??$extract_argument_from_va_list@F_J@?$positional_parameter_base@_WV?$stream_output_adapter@_W@__crt_stdio_output@@@__crt_stdio_output@@IAE_NAA_J@Z 00493243 f i libucrt:output.obj
 0001:000922cc       ??$extract_argument_from_va_list@F_J@?$positional_parameter_base@_WV?$string_output_adapter@_W@__crt_stdio_output@@@__crt_stdio_output@@IAE_NAA_J@Z 004932cc f i libucrt:output.obj
 0001:00092355       ??$extract_argument_from_va_list@F_J@?$standard_base@DV?$stream_output_adapter@D@__crt_stdio_output@@@__crt_stdio_output@@IAE_NAA_J@Z 00493355 f i libucrt:output.obj
 0001:00092374       ??$extract_argument_from_va_list@F_J@?$standard_base@DV?$string_output_adapter@D@__crt_stdio_output@@@__crt_stdio_output@@IAE_NAA_J@Z 00493374 f i libucrt:output.obj
 0001:00092393       ??$extract_argument_from_va_list@F_J@?$standard_base@_WV?$stream_output_adapter@_W@__crt_stdio_output@@@__crt_stdio_output@@IAE_NAA_J@Z 00493393 f i libucrt:output.obj
 0001:000923b2       ??$extract_argument_from_va_list@F_J@?$standard_base@_WV?$string_output_adapter@_W@__crt_stdio_output@@@__crt_stdio_output@@IAE_NAA_J@Z 004933b2 f i libucrt:output.obj
 0001:000923d1       ??$extract_argument_from_va_list@GD@?$positional_parameter_base@DV?$stream_output_adapter@D@__crt_stdio_output@@@__crt_stdio_output@@IAE_NAAD@Z 004933d1 f i libucrt:output.obj
 0001:00092458       ??$extract_argument_from_va_list@GD@?$positional_parameter_base@DV?$string_output_adapter@D@__crt_stdio_output@@@__crt_stdio_output@@IAE_NAAD@Z 00493458 f i libucrt:output.obj
 0001:000924df       ??$extract_argument_from_va_list@GD@?$standard_base@DV?$stream_output_adapter@D@__crt_stdio_output@@@__crt_stdio_output@@IAE_NAAD@Z 004934df f i libucrt:output.obj
 0001:000924f9       ??$extract_argument_from_va_list@GD@?$standard_base@DV?$string_output_adapter@D@__crt_stdio_output@@@__crt_stdio_output@@IAE_NAAD@Z 004934f9 f i libucrt:output.obj
 0001:00092513       ??$extract_argument_from_va_list@G_J@?$positional_parameter_base@DV?$stream_output_adapter@D@__crt_stdio_output@@@__crt_stdio_output@@IAE_NAA_J@Z 00493513 f i libucrt:output.obj
 0001:0009259b       ??$extract_argument_from_va_list@G_J@?$positional_parameter_base@DV?$string_output_adapter@D@__crt_stdio_output@@@__crt_stdio_output@@IAE_NAA_J@Z 0049359b f i libucrt:output.obj
 0001:00092623       ??$extract_argument_from_va_list@G_J@?$positional_parameter_base@_WV?$stream_output_adapter@_W@__crt_stdio_output@@@__crt_stdio_output@@IAE_NAA_J@Z 00493623 f i libucrt:output.obj
 0001:000926ac       ??$extract_argument_from_va_list@G_J@?$positional_parameter_base@_WV?$string_output_adapter@_W@__crt_stdio_output@@@__crt_stdio_output@@IAE_NAA_J@Z 004936ac f i libucrt:output.obj
 0001:00092735       ??$extract_argument_from_va_list@G_J@?$standard_base@DV?$stream_output_adapter@D@__crt_stdio_output@@@__crt_stdio_output@@IAE_NAA_J@Z 00493735 f i libucrt:output.obj
 0001:00092754       ??$extract_argument_from_va_list@G_J@?$standard_base@DV?$string_output_adapter@D@__crt_stdio_output@@@__crt_stdio_output@@IAE_NAA_J@Z 00493754 f i libucrt:output.obj
 0001:00092773       ??$extract_argument_from_va_list@G_J@?$standard_base@_WV?$stream_output_adapter@_W@__crt_stdio_output@@@__crt_stdio_output@@IAE_NAA_J@Z 00493773 f i libucrt:output.obj
 0001:00092792       ??$extract_argument_from_va_list@G_J@?$standard_base@_WV?$string_output_adapter@_W@__crt_stdio_output@@@__crt_stdio_output@@IAE_NAA_J@Z 00493792 f i libucrt:output.obj
 0001:000927b1       ??$extract_argument_from_va_list@H_J@?$positional_parameter_base@DV?$stream_output_adapter@D@__crt_stdio_output@@@__crt_stdio_output@@IAE_NAA_J@Z 004937b1 f i libucrt:output.obj
 0001:00092837       ??$extract_argument_from_va_list@H_J@?$positional_parameter_base@DV?$string_output_adapter@D@__crt_stdio_output@@@__crt_stdio_output@@IAE_NAA_J@Z 00493837 f i libucrt:output.obj
 0001:000928bd       ??$extract_argument_from_va_list@H_J@?$positional_parameter_base@_WV?$stream_output_adapter@_W@__crt_stdio_output@@@__crt_stdio_output@@IAE_NAA_J@Z 004938bd f i libucrt:output.obj
 0001:00092944       ??$extract_argument_from_va_list@H_J@?$positional_parameter_base@_WV?$string_output_adapter@_W@__crt_stdio_output@@@__crt_stdio_output@@IAE_NAA_J@Z 00493944 f i libucrt:output.obj
 0001:000929cb       ??$extract_argument_from_va_list@H_J@?$standard_base@DV?$stream_output_adapter@D@__crt_stdio_output@@@__crt_stdio_output@@IAE_NAA_J@Z 004939cb f i libucrt:output.obj
 0001:000929e9       ??$extract_argument_from_va_list@H_J@?$standard_base@DV?$string_output_adapter@D@__crt_stdio_output@@@__crt_stdio_output@@IAE_NAA_J@Z 004939e9 f i libucrt:output.obj
 0001:00092a07       ??$extract_argument_from_va_list@H_J@?$standard_base@_WV?$stream_output_adapter@_W@__crt_stdio_output@@@__crt_stdio_output@@IAE_NAA_J@Z 00493a07 f i libucrt:output.obj
 0001:00092a25       ??$extract_argument_from_va_list@H_J@?$standard_base@_WV?$string_output_adapter@_W@__crt_stdio_output@@@__crt_stdio_output@@IAE_NAA_J@Z 00493a25 f i libucrt:output.obj
 0001:00092a43       ??$extract_argument_from_va_list@I_J@?$positional_parameter_base@DV?$stream_output_adapter@D@__crt_stdio_output@@@__crt_stdio_output@@IAE_NAA_J@Z 00493a43 f i libucrt:output.obj
 0001:00092ad2       ??$extract_argument_from_va_list@I_J@?$positional_parameter_base@DV?$string_output_adapter@D@__crt_stdio_output@@@__crt_stdio_output@@IAE_NAA_J@Z 00493ad2 f i libucrt:output.obj
 0001:00092b61       ??$extract_argument_from_va_list@I_J@?$positional_parameter_base@_WV?$stream_output_adapter@_W@__crt_stdio_output@@@__crt_stdio_output@@IAE_NAA_J@Z 00493b61 f i libucrt:output.obj
 0001:00092bf1       ??$extract_argument_from_va_list@I_J@?$positional_parameter_base@_WV?$string_output_adapter@_W@__crt_stdio_output@@@__crt_stdio_output@@IAE_NAA_J@Z 00493bf1 f i libucrt:output.obj
 0001:00092c81       ??$extract_argument_from_va_list@I_J@?$standard_base@DV?$stream_output_adapter@D@__crt_stdio_output@@@__crt_stdio_output@@IAE_NAA_J@Z 00493c81 f i libucrt:output.obj
 0001:00092c9f       ??$extract_argument_from_va_list@I_J@?$standard_base@DV?$string_output_adapter@D@__crt_stdio_output@@@__crt_stdio_output@@IAE_NAA_J@Z 00493c9f f i libucrt:output.obj
 0001:00092cbd       ??$extract_argument_from_va_list@I_J@?$standard_base@_WV?$stream_output_adapter@_W@__crt_stdio_output@@@__crt_stdio_output@@IAE_NAA_J@Z 00493cbd f i libucrt:output.obj
 0001:00092cdb       ??$extract_argument_from_va_list@I_J@?$standard_base@_WV?$string_output_adapter@_W@__crt_stdio_output@@@__crt_stdio_output@@IAE_NAA_J@Z 00493cdb f i libucrt:output.obj
 0001:00092cf9       ??$extract_argument_from_va_list@PADPAD@?$positional_parameter_base@DV?$stream_output_adapter@D@__crt_stdio_output@@@__crt_stdio_output@@IAE_NAAPAD@Z 00493cf9 f i libucrt:output.obj
 0001:00092d80       ??$extract_argument_from_va_list@PADPAD@?$positional_parameter_base@DV?$string_output_adapter@D@__crt_stdio_output@@@__crt_stdio_output@@IAE_NAAPAD@Z 00493d80 f i libucrt:output.obj
 0001:00092e07       ??$extract_argument_from_va_list@PADPAD@?$positional_parameter_base@_WV?$stream_output_adapter@_W@__crt_stdio_output@@@__crt_stdio_output@@IAE_NAAPAD@Z 00493e07 f i libucrt:output.obj
 0001:00092e8f       ??$extract_argument_from_va_list@PADPAD@?$positional_parameter_base@_WV?$string_output_adapter@_W@__crt_stdio_output@@@__crt_stdio_output@@IAE_NAAPAD@Z 00493e8f f i libucrt:output.obj
 0001:00092f17       ??$extract_argument_from_va_list@PADPAD@?$standard_base@DV?$stream_output_adapter@D@__crt_stdio_output@@@__crt_stdio_output@@IAE_NAAPAD@Z 00493f17 f i libucrt:output.obj
 0001:00092f31       ??$extract_argument_from_va_list@PADPAD@?$standard_base@DV?$string_output_adapter@D@__crt_stdio_output@@@__crt_stdio_output@@IAE_NAAPAD@Z 00493f31 f i libucrt:output.obj
 0001:00092f4b       ??$extract_argument_from_va_list@PADPAD@?$standard_base@_WV?$stream_output_adapter@_W@__crt_stdio_output@@@__crt_stdio_output@@IAE_NAAPAD@Z 00493f4b f i libucrt:output.obj
 0001:00092f65       ??$extract_argument_from_va_list@PADPAD@?$standard_base@_WV?$string_output_adapter@_W@__crt_stdio_output@@@__crt_stdio_output@@IAE_NAAPAD@Z 00493f65 f i libucrt:output.obj
 0001:00092f7f       ??$extract_argument_from_va_list@PAUansi_string@?1??type_case_Z@?$output_processor@DV?$stream_output_adapter@D@__crt_stdio_output@@V?$format_validation_base@DV?$stream_output_adapter@D@__crt_stdio_output@@@2@@__crt_stdio_output@@AAE_NXZ@PAU1?1??234@AAE_NXZ@@?$standard_base@DV?$stream_output_adapter@D@__crt_stdio_output@@@__crt_stdio_output@@IAE_NAAPAUansi_string@?1??type_case_Z@?$output_processor@DV?$stream_output_adapter@D@__crt_stdio_output@@V?$format_validation_base@DV?$stream_output_adapter@D@__crt_stdio_output@@@2@@1@AAE_NXZ@@Z 00493f7f f i libucrt:output.obj
 0001:00092f99       ??$extract_argument_from_va_list@PAUansi_string@?1??type_case_Z@?$output_processor@DV?$stream_output_adapter@D@__crt_stdio_output@@V?$positional_parameter_base@DV?$stream_output_adapter@D@__crt_stdio_output@@@2@@__crt_stdio_output@@AAE_NXZ@PAU1?1??234@AAE_NXZ@@?$positional_parameter_base@DV?$stream_output_adapter@D@__crt_stdio_output@@@__crt_stdio_output@@IAE_NAAPAUansi_string@?1??type_case_Z@?$output_processor@DV?$stream_output_adapter@D@__crt_stdio_output@@V?$positional_parameter_base@DV?$stream_output_adapter@D@__crt_stdio_output@@@2@@1@AAE_NXZ@@Z 00493f99 f i libucrt:output.obj
 0001:00093020       ??$extract_argument_from_va_list@PAUansi_string@?1??type_case_Z@?$output_processor@DV?$stream_output_adapter@D@__crt_stdio_output@@V?$positional_parameter_base@DV?$stream_output_adapter@D@__crt_stdio_output@@@2@@__crt_stdio_output@@AAE_NXZ@PAU1?1??234@AAE_NXZ@@?$standard_base@DV?$stream_output_adapter@D@__crt_stdio_output@@@__crt_stdio_output@@IAE_NAAPAUansi_string@?1??type_case_Z@?$output_processor@DV?$stream_output_adapter@D@__crt_stdio_output@@V?$positional_parameter_base@DV?$stream_output_adapter@D@__crt_stdio_output@@@2@@1@AAE_NXZ@@Z 00494020 f i libucrt:output.obj
 0001:0009303a       ??$extract_argument_from_va_list@PAUansi_string@?1??type_case_Z@?$output_processor@DV?$stream_output_adapter@D@__crt_stdio_output@@V?$standard_base@DV?$stream_output_adapter@D@__crt_stdio_output@@@2@@__crt_stdio_output@@AAE_NXZ@PAU1?1??234@AAE_NXZ@@?$standard_base@DV?$stream_output_adapter@D@__crt_stdio_output@@@__crt_stdio_output@@IAE_NAAPAUansi_string@?1??type_case_Z@?$output_processor@DV?$stream_output_adapter@D@__crt_stdio_output@@V?$standard_base@DV?$stream_output_adapter@D@__crt_stdio_output@@@2@@1@AAE_NXZ@@Z 0049403a f i libucrt:output.obj
 0001:00093054       ??$extract_argument_from_va_list@PAUansi_string@?1??type_case_Z@?$output_processor@DV?$string_output_adapter@D@__crt_stdio_output@@V?$format_validation_base@DV?$string_output_adapter@D@__crt_stdio_output@@@2@@__crt_stdio_output@@AAE_NXZ@PAU1?1??234@AAE_NXZ@@?$standard_base@DV?$string_output_adapter@D@__crt_stdio_output@@@__crt_stdio_output@@IAE_NAAPAUansi_string@?1??type_case_Z@?$output_processor@DV?$string_output_adapter@D@__crt_stdio_output@@V?$format_validation_base@DV?$string_output_adapter@D@__crt_stdio_output@@@2@@1@AAE_NXZ@@Z 00494054 f i libucrt:output.obj
 0001:0009306e       ??$extract_argument_from_va_list@PAUansi_string@?1??type_case_Z@?$output_processor@DV?$string_output_adapter@D@__crt_stdio_output@@V?$positional_parameter_base@DV?$string_output_adapter@D@__crt_stdio_output@@@2@@__crt_stdio_output@@AAE_NXZ@PAU1?1??234@AAE_NXZ@@?$positional_parameter_base@DV?$string_output_adapter@D@__crt_stdio_output@@@__crt_stdio_output@@IAE_NAAPAUansi_string@?1??type_case_Z@?$output_processor@DV?$string_output_adapter@D@__crt_stdio_output@@V?$positional_parameter_base@DV?$string_output_adapter@D@__crt_stdio_output@@@2@@1@AAE_NXZ@@Z 0049406e f i libucrt:output.obj
 0001:000930f5       ??$extract_argument_from_va_list@PAUansi_string@?1??type_case_Z@?$output_processor@DV?$string_output_adapter@D@__crt_stdio_output@@V?$positional_parameter_base@DV?$string_output_adapter@D@__crt_stdio_output@@@2@@__crt_stdio_output@@AAE_NXZ@PAU1?1??234@AAE_NXZ@@?$standard_base@DV?$string_output_adapter@D@__crt_stdio_output@@@__crt_stdio_output@@IAE_NAAPAUansi_string@?1??type_case_Z@?$output_processor@DV?$string_output_adapter@D@__crt_stdio_output@@V?$positional_parameter_base@DV?$string_output_adapter@D@__crt_stdio_output@@@2@@1@AAE_NXZ@@Z 004940f5 f i libucrt:output.obj
 0001:0009310f       ??$extract_argument_from_va_list@PAUansi_string@?1??type_case_Z@?$output_processor@DV?$string_output_adapter@D@__crt_stdio_output@@V?$standard_base@DV?$string_output_adapter@D@__crt_stdio_output@@@2@@__crt_stdio_output@@AAE_NXZ@PAU1?1??234@AAE_NXZ@@?$standard_base@DV?$string_output_adapter@D@__crt_stdio_output@@@__crt_stdio_output@@IAE_NAAPAUansi_string@?1??type_case_Z@?$output_processor@DV?$string_output_adapter@D@__crt_stdio_output@@V?$standard_base@DV?$string_output_adapter@D@__crt_stdio_output@@@2@@1@AAE_NXZ@@Z 0049410f f i libucrt:output.obj
 0001:00093129       ??$extract_argument_from_va_list@PAUansi_string@?1??type_case_Z@?$output_processor@_WV?$stream_output_adapter@_W@__crt_stdio_output@@V?$format_validation_base@_WV?$stream_output_adapter@_W@__crt_stdio_output@@@2@@__crt_stdio_output@@AAE_NXZ@PAU1?1??234@AAE_NXZ@@?$standard_base@_WV?$stream_output_adapter@_W@__crt_stdio_output@@@__crt_stdio_output@@IAE_NAAPAUansi_string@?1??type_case_Z@?$output_processor@_WV?$stream_output_adapter@_W@__crt_stdio_output@@V?$format_validation_base@_WV?$stream_output_adapter@_W@__crt_stdio_output@@@2@@1@AAE_NXZ@@Z 00494129 f i libucrt:output.obj
 0001:00093143       ??$extract_argument_from_va_list@PAUansi_string@?1??type_case_Z@?$output_processor@_WV?$stream_output_adapter@_W@__crt_stdio_output@@V?$positional_parameter_base@_WV?$stream_output_adapter@_W@__crt_stdio_output@@@2@@__crt_stdio_output@@AAE_NXZ@PAU1?1??234@AAE_NXZ@@?$positional_parameter_base@_WV?$stream_output_adapter@_W@__crt_stdio_output@@@__crt_stdio_output@@IAE_NAAPAUansi_string@?1??type_case_Z@?$output_processor@_WV?$stream_output_adapter@_W@__crt_stdio_output@@V?$positional_parameter_base@_WV?$stream_output_adapter@_W@__crt_stdio_output@@@2@@1@AAE_NXZ@@Z 00494143 f i libucrt:output.obj
 0001:000931cb       ??$extract_argument_from_va_list@PAUansi_string@?1??type_case_Z@?$output_processor@_WV?$stream_output_adapter@_W@__crt_stdio_output@@V?$positional_parameter_base@_WV?$stream_output_adapter@_W@__crt_stdio_output@@@2@@__crt_stdio_output@@AAE_NXZ@PAU1?1??234@AAE_NXZ@@?$standard_base@_WV?$stream_output_adapter@_W@__crt_stdio_output@@@__crt_stdio_output@@IAE_NAAPAUansi_string@?1??type_case_Z@?$output_processor@_WV?$stream_output_adapter@_W@__crt_stdio_output@@V?$positional_parameter_base@_WV?$stream_output_adapter@_W@__crt_stdio_output@@@2@@1@AAE_NXZ@@Z 004941cb f i libucrt:output.obj
 0001:000931e5       ??$extract_argument_from_va_list@PAUansi_string@?1??type_case_Z@?$output_processor@_WV?$stream_output_adapter@_W@__crt_stdio_output@@V?$standard_base@_WV?$stream_output_adapter@_W@__crt_stdio_output@@@2@@__crt_stdio_output@@AAE_NXZ@PAU1?1??234@AAE_NXZ@@?$standard_base@_WV?$stream_output_adapter@_W@__crt_stdio_output@@@__crt_stdio_output@@IAE_NAAPAUansi_string@?1??type_case_Z@?$output_processor@_WV?$stream_output_adapter@_W@__crt_stdio_output@@V?$standard_base@_WV?$stream_output_adapter@_W@__crt_stdio_output@@@2@@1@AAE_NXZ@@Z 004941e5 f i libucrt:output.obj
 0001:000931ff       ??$extract_argument_from_va_list@PAUansi_string@?1??type_case_Z@?$output_processor@_WV?$string_output_adapter@_W@__crt_stdio_output@@V?$format_validation_base@_WV?$string_output_adapter@_W@__crt_stdio_output@@@2@@__crt_stdio_output@@AAE_NXZ@PAU1?1??234@AAE_NXZ@@?$standard_base@_WV?$string_output_adapter@_W@__crt_stdio_output@@@__crt_stdio_output@@IAE_NAAPAUansi_string@?1??type_case_Z@?$output_processor@_WV?$string_output_adapter@_W@__crt_stdio_output@@V?$format_validation_base@_WV?$string_output_adapter@_W@__crt_stdio_output@@@2@@1@AAE_NXZ@@Z 004941ff f i libucrt:output.obj
 0001:00093219       ??$extract_argument_from_va_list@PAUansi_string@?1??type_case_Z@?$output_processor@_WV?$string_output_adapter@_W@__crt_stdio_output@@V?$positional_parameter_base@_WV?$string_output_adapter@_W@__crt_stdio_output@@@2@@__crt_stdio_output@@AAE_NXZ@PAU1?1??234@AAE_NXZ@@?$positional_parameter_base@_WV?$string_output_adapter@_W@__crt_stdio_output@@@__crt_stdio_output@@IAE_NAAPAUansi_string@?1??type_case_Z@?$output_processor@_WV?$string_output_adapter@_W@__crt_stdio_output@@V?$positional_parameter_base@_WV?$string_output_adapter@_W@__crt_stdio_output@@@2@@1@AAE_NXZ@@Z 00494219 f i libucrt:output.obj
 0001:000932a1       ??$extract_argument_from_va_list@PAUansi_string@?1??type_case_Z@?$output_processor@_WV?$string_output_adapter@_W@__crt_stdio_output@@V?$positional_parameter_base@_WV?$string_output_adapter@_W@__crt_stdio_output@@@2@@__crt_stdio_output@@AAE_NXZ@PAU1?1??234@AAE_NXZ@@?$standard_base@_WV?$string_output_adapter@_W@__crt_stdio_output@@@__crt_stdio_output@@IAE_NAAPAUansi_string@?1??type_case_Z@?$output_processor@_WV?$string_output_adapter@_W@__crt_stdio_output@@V?$positional_parameter_base@_WV?$string_output_adapter@_W@__crt_stdio_output@@@2@@1@AAE_NXZ@@Z 004942a1 f i libucrt:output.obj
 0001:000932bb       ??$extract_argument_from_va_list@PAUansi_string@?1??type_case_Z@?$output_processor@_WV?$string_output_adapter@_W@__crt_stdio_output@@V?$standard_base@_WV?$string_output_adapter@_W@__crt_stdio_output@@@2@@__crt_stdio_output@@AAE_NXZ@PAU1?1??234@AAE_NXZ@@?$standard_base@_WV?$string_output_adapter@_W@__crt_stdio_output@@@__crt_stdio_output@@IAE_NAAPAUansi_string@?1??type_case_Z@?$output_processor@_WV?$string_output_adapter@_W@__crt_stdio_output@@V?$standard_base@_WV?$string_output_adapter@_W@__crt_stdio_output@@@2@@1@AAE_NXZ@@Z 004942bb f i libucrt:output.obj
 0001:000932d5       ??$extract_argument_from_va_list@PAXPAX@?$positional_parameter_base@DV?$stream_output_adapter@D@__crt_stdio_output@@@__crt_stdio_output@@IAE_NAAPAX@Z 004942d5 f i libucrt:output.obj
 0001:0009335c       ??$extract_argument_from_va_list@PAXPAX@?$positional_parameter_base@DV?$string_output_adapter@D@__crt_stdio_output@@@__crt_stdio_output@@IAE_NAAPAX@Z 0049435c f i libucrt:output.obj
 0001:000933e3       ??$extract_argument_from_va_list@PAXPAX@?$positional_parameter_base@_WV?$stream_output_adapter@_W@__crt_stdio_output@@@__crt_stdio_output@@IAE_NAAPAX@Z 004943e3 f i libucrt:output.obj
 0001:0009346b       ??$extract_argument_from_va_list@PAXPAX@?$positional_parameter_base@_WV?$string_output_adapter@_W@__crt_stdio_output@@@__crt_stdio_output@@IAE_NAAPAX@Z 0049446b f i libucrt:output.obj
 0001:000934f3       ??$extract_argument_from_va_list@PAXPAX@?$standard_base@DV?$stream_output_adapter@D@__crt_stdio_output@@@__crt_stdio_output@@IAE_NAAPAX@Z 004944f3 f i libucrt:output.obj
 0001:0009350d       ??$extract_argument_from_va_list@PAXPAX@?$standard_base@DV?$string_output_adapter@D@__crt_stdio_output@@@__crt_stdio_output@@IAE_NAAPAX@Z 0049450d f i libucrt:output.obj
 0001:00093527       ??$extract_argument_from_va_list@PAXPAX@?$standard_base@_WV?$stream_output_adapter@_W@__crt_stdio_output@@@__crt_stdio_output@@IAE_NAAPAX@Z 00494527 f i libucrt:output.obj
 0001:00093541       ??$extract_argument_from_va_list@PAXPAX@?$standard_base@_WV?$string_output_adapter@_W@__crt_stdio_output@@@__crt_stdio_output@@IAE_NAAPAX@Z 00494541 f i libucrt:output.obj
 0001:0009355b       ??$extract_argument_from_va_list@U_CRT_DOUBLE@@U1@@?$positional_parameter_base@DV?$stream_output_adapter@D@__crt_stdio_output@@@__crt_stdio_output@@IAE_NAAU_CRT_DOUBLE@@@Z 0049455b f i libucrt:output.obj
 0001:000935f0       ??$extract_argument_from_va_list@U_CRT_DOUBLE@@U1@@?$positional_parameter_base@DV?$string_output_adapter@D@__crt_stdio_output@@@__crt_stdio_output@@IAE_NAAU_CRT_DOUBLE@@@Z 004945f0 f i libucrt:output.obj
 0001:00093685       ??$extract_argument_from_va_list@U_CRT_DOUBLE@@U1@@?$positional_parameter_base@_WV?$stream_output_adapter@_W@__crt_stdio_output@@@__crt_stdio_output@@IAE_NAAU_CRT_DOUBLE@@@Z 00494685 f i libucrt:output.obj
 0001:0009371b       ??$extract_argument_from_va_list@U_CRT_DOUBLE@@U1@@?$positional_parameter_base@_WV?$string_output_adapter@_W@__crt_stdio_output@@@__crt_stdio_output@@IAE_NAAU_CRT_DOUBLE@@@Z 0049471b f i libucrt:output.obj
 0001:000937b1       ??$extract_argument_from_va_list@U_CRT_DOUBLE@@U1@@?$standard_base@DV?$stream_output_adapter@D@__crt_stdio_output@@@__crt_stdio_output@@IAE_NAAU_CRT_DOUBLE@@@Z 004947b1 f i libucrt:output.obj
 0001:000937d1       ??$extract_argument_from_va_list@U_CRT_DOUBLE@@U1@@?$standard_base@DV?$string_output_adapter@D@__crt_stdio_output@@@__crt_stdio_output@@IAE_NAAU_CRT_DOUBLE@@@Z 004947d1 f i libucrt:output.obj
 0001:000937f1       ??$extract_argument_from_va_list@U_CRT_DOUBLE@@U1@@?$standard_base@_WV?$stream_output_adapter@_W@__crt_stdio_output@@@__crt_stdio_output@@IAE_NAAU_CRT_DOUBLE@@@Z 004947f1 f i libucrt:output.obj
 0001:00093811       ??$extract_argument_from_va_list@U_CRT_DOUBLE@@U1@@?$standard_base@_WV?$string_output_adapter@_W@__crt_stdio_output@@@__crt_stdio_output@@IAE_NAAU_CRT_DOUBLE@@@Z 00494811 f i libucrt:output.obj
 0001:00093831       ??$extract_argument_from_va_list@_J_J@?$positional_parameter_base@DV?$stream_output_adapter@D@__crt_stdio_output@@@__crt_stdio_output@@IAE_NAA_J@Z 00494831 f i libucrt:output.obj
 0001:000938c6       ??$extract_argument_from_va_list@_J_J@?$positional_parameter_base@DV?$string_output_adapter@D@__crt_stdio_output@@@__crt_stdio_output@@IAE_NAA_J@Z 004948c6 f i libucrt:output.obj
 0001:0009395b       ??$extract_argument_from_va_list@_J_J@?$positional_parameter_base@_WV?$stream_output_adapter@_W@__crt_stdio_output@@@__crt_stdio_output@@IAE_NAA_J@Z 0049495b f i libucrt:output.obj
 0001:000939f1       ??$extract_argument_from_va_list@_J_J@?$positional_parameter_base@_WV?$string_output_adapter@_W@__crt_stdio_output@@@__crt_stdio_output@@IAE_NAA_J@Z 004949f1 f i libucrt:output.obj
 0001:00093a87       ??$extract_argument_from_va_list@_J_J@?$standard_base@DV?$stream_output_adapter@D@__crt_stdio_output@@@__crt_stdio_output@@IAE_NAA_J@Z 00494a87 f i libucrt:output.obj
 0001:00093aa7       ??$extract_argument_from_va_list@_J_J@?$standard_base@DV?$string_output_adapter@D@__crt_stdio_output@@@__crt_stdio_output@@IAE_NAA_J@Z 00494aa7 f i libucrt:output.obj
 0001:00093ac7       ??$extract_argument_from_va_list@_J_J@?$standard_base@_WV?$stream_output_adapter@_W@__crt_stdio_output@@@__crt_stdio_output@@IAE_NAA_J@Z 00494ac7 f i libucrt:output.obj
 0001:00093ae7       ??$extract_argument_from_va_list@_J_J@?$standard_base@_WV?$string_output_adapter@_W@__crt_stdio_output@@@__crt_stdio_output@@IAE_NAA_J@Z 00494ae7 f i libucrt:output.obj
 0001:00093b07       ??$extract_argument_from_va_list@_K_J@?$positional_parameter_base@DV?$stream_output_adapter@D@__crt_stdio_output@@@__crt_stdio_output@@IAE_NAA_J@Z 00494b07 f i libucrt:output.obj
 0001:00093b9c       ??$extract_argument_from_va_list@_K_J@?$positional_parameter_base@DV?$string_output_adapter@D@__crt_stdio_output@@@__crt_stdio_output@@IAE_NAA_J@Z 00494b9c f i libucrt:output.obj
 0001:00093c31       ??$extract_argument_from_va_list@_K_J@?$positional_parameter_base@_WV?$stream_output_adapter@_W@__crt_stdio_output@@@__crt_stdio_output@@IAE_NAA_J@Z 00494c31 f i libucrt:output.obj
 0001:00093cc7       ??$extract_argument_from_va_list@_K_J@?$positional_parameter_base@_WV?$string_output_adapter@_W@__crt_stdio_output@@@__crt_stdio_output@@IAE_NAA_J@Z 00494cc7 f i libucrt:output.obj
 0001:00093d5d       ??$extract_argument_from_va_list@_K_J@?$standard_base@DV?$stream_output_adapter@D@__crt_stdio_output@@@__crt_stdio_output@@IAE_NAA_J@Z 00494d5d f i libucrt:output.obj
 0001:00093d7d       ??$extract_argument_from_va_list@_K_J@?$standard_base@DV?$string_output_adapter@D@__crt_stdio_output@@@__crt_stdio_output@@IAE_NAA_J@Z 00494d7d f i libucrt:output.obj
 0001:00093d9d       ??$extract_argument_from_va_list@_K_J@?$standard_base@_WV?$stream_output_adapter@_W@__crt_stdio_output@@@__crt_stdio_output@@IAE_NAA_J@Z 00494d9d f i libucrt:output.obj
 0001:00093dbd       ??$extract_argument_from_va_list@_K_J@?$standard_base@_WV?$string_output_adapter@_W@__crt_stdio_output@@@__crt_stdio_output@@IAE_NAA_J@Z 00494dbd f i libucrt:output.obj
 0001:00093ddd       ??$extract_argument_from_va_list@_W_W@?$positional_parameter_base@DV?$stream_output_adapter@D@__crt_stdio_output@@@__crt_stdio_output@@IAE_NAA_W@Z 00494ddd f i libucrt:output.obj
 0001:00093e68       ??$extract_argument_from_va_list@_W_W@?$positional_parameter_base@DV?$string_output_adapter@D@__crt_stdio_output@@@__crt_stdio_output@@IAE_NAA_W@Z 00494e68 f i libucrt:output.obj
 0001:00093ef3       ??$extract_argument_from_va_list@_W_W@?$positional_parameter_base@_WV?$stream_output_adapter@_W@__crt_stdio_output@@@__crt_stdio_output@@IAE_NAA_W@Z 00494ef3 f i libucrt:output.obj
 0001:00093f7f       ??$extract_argument_from_va_list@_W_W@?$positional_parameter_base@_WV?$string_output_adapter@_W@__crt_stdio_output@@@__crt_stdio_output@@IAE_NAA_W@Z 00494f7f f i libucrt:output.obj
 0001:0009400b       ??$extract_argument_from_va_list@_W_W@?$standard_base@DV?$stream_output_adapter@D@__crt_stdio_output@@@__crt_stdio_output@@IAE_NAA_W@Z 0049500b f i libucrt:output.obj
 0001:00094027       ??$extract_argument_from_va_list@_W_W@?$standard_base@DV?$string_output_adapter@D@__crt_stdio_output@@@__crt_stdio_output@@IAE_NAA_W@Z 00495027 f i libucrt:output.obj
 0001:00094043       ??$extract_argument_from_va_list@_W_W@?$standard_base@_WV?$stream_output_adapter@_W@__crt_stdio_output@@@__crt_stdio_output@@IAE_NAA_W@Z 00495043 f i libucrt:output.obj
 0001:0009405f       ??$extract_argument_from_va_list@_W_W@?$standard_base@_WV?$string_output_adapter@_W@__crt_stdio_output@@@__crt_stdio_output@@IAE_NAA_W@Z 0049505f f i libucrt:output.obj
 0001:0009407b       ??$get_parameter_type@D@?$positional_parameter_base@DV?$stream_output_adapter@D@__crt_stdio_output@@@__crt_stdio_output@@CA?AW4parameter_type@01@PAD@Z 0049507b f i libucrt:output.obj
 0001:0009407f       ??$get_parameter_type@D@?$positional_parameter_base@DV?$string_output_adapter@D@__crt_stdio_output@@@__crt_stdio_output@@CA?AW4parameter_type@01@PAD@Z 0049507f f i libucrt:output.obj
 0001:00094083       ??$get_parameter_type@D@?$positional_parameter_base@_WV?$stream_output_adapter@_W@__crt_stdio_output@@@__crt_stdio_output@@CA?AW4parameter_type@01@PAD@Z 00495083 f i libucrt:output.obj
 0001:00094087       ??$get_parameter_type@D@?$positional_parameter_base@_WV?$string_output_adapter@_W@__crt_stdio_output@@@__crt_stdio_output@@CA?AW4parameter_type@01@PAD@Z 00495087 f i libucrt:output.obj
 0001:0009408b       ??$get_parameter_type@Uansi_string@?1??type_case_Z@?$output_processor@DV?$stream_output_adapter@D@__crt_stdio_output@@V?$positional_parameter_base@DV?$stream_output_adapter@D@__crt_stdio_output@@@2@@__crt_stdio_output@@AAE_NXZ@@?$positional_parameter_base@DV?$stream_output_adapter@D@__crt_stdio_output@@@__crt_stdio_output@@CA?AW4parameter_type@01@PAUansi_string@?1??type_case_Z@?$output_processor@DV?$stream_output_adapter@D@__crt_stdio_output@@V?$positional_parameter_base@DV?$stream_output_adapter@D@__crt_stdio_output@@@2@@1@AAE_NXZ@@Z 0049508b f i libucrt:output.obj
 0001:0009408f       ??$get_parameter_type@Uansi_string@?1??type_case_Z@?$output_processor@DV?$string_output_adapter@D@__crt_stdio_output@@V?$positional_parameter_base@DV?$string_output_adapter@D@__crt_stdio_output@@@2@@__crt_stdio_output@@AAE_NXZ@@?$positional_parameter_base@DV?$string_output_adapter@D@__crt_stdio_output@@@__crt_stdio_output@@CA?AW4parameter_type@01@PAUansi_string@?1??type_case_Z@?$output_processor@DV?$string_output_adapter@D@__crt_stdio_output@@V?$positional_parameter_base@DV?$string_output_adapter@D@__crt_stdio_output@@@2@@1@AAE_NXZ@@Z 0049508f f i libucrt:output.obj
 0001:00094093       ??$get_parameter_type@Uansi_string@?1??type_case_Z@?$output_processor@_WV?$stream_output_adapter@_W@__crt_stdio_output@@V?$positional_parameter_base@_WV?$stream_output_adapter@_W@__crt_stdio_output@@@2@@__crt_stdio_output@@AAE_NXZ@@?$positional_parameter_base@_WV?$stream_output_adapter@_W@__crt_stdio_output@@@__crt_stdio_output@@CA?AW4parameter_type@01@PAUansi_string@?1??type_case_Z@?$output_processor@_WV?$stream_output_adapter@_W@__crt_stdio_output@@V?$positional_parameter_base@_WV?$stream_output_adapter@_W@__crt_stdio_output@@@2@@1@AAE_NXZ@@Z 00495093 f i libucrt:output.obj
 0001:00094097       ??$get_parameter_type@Uansi_string@?1??type_case_Z@?$output_processor@_WV?$string_output_adapter@_W@__crt_stdio_output@@V?$positional_parameter_base@_WV?$string_output_adapter@_W@__crt_stdio_output@@@2@@__crt_stdio_output@@AAE_NXZ@@?$positional_parameter_base@_WV?$string_output_adapter@_W@__crt_stdio_output@@@__crt_stdio_output@@CA?AW4parameter_type@01@PAUansi_string@?1??type_case_Z@?$output_processor@_WV?$string_output_adapter@_W@__crt_stdio_output@@V?$positional_parameter_base@_WV?$string_output_adapter@_W@__crt_stdio_output@@@2@@1@AAE_NXZ@@Z 00495097 f i libucrt:output.obj
 0001:0009409b       ??$get_parameter_type@X@?$positional_parameter_base@DV?$stream_output_adapter@D@__crt_stdio_output@@@__crt_stdio_output@@CA?AW4parameter_type@01@PAX@Z 0049509b f i libucrt:output.obj
 0001:0009409f       ??$get_parameter_type@X@?$positional_parameter_base@DV?$string_output_adapter@D@__crt_stdio_output@@@__crt_stdio_output@@CA?AW4parameter_type@01@PAX@Z 0049509f f i libucrt:output.obj
 0001:000940a3       ??$get_parameter_type@X@?$positional_parameter_base@_WV?$stream_output_adapter@_W@__crt_stdio_output@@@__crt_stdio_output@@CA?AW4parameter_type@01@PAX@Z 004950a3 f i libucrt:output.obj
 0001:000940a7       ??$get_parameter_type@X@?$positional_parameter_base@_WV?$string_output_adapter@_W@__crt_stdio_output@@@__crt_stdio_output@@CA?AW4parameter_type@01@PAX@Z 004950a7 f i libucrt:output.obj
 0001:000940ab       ??$is_character_specifier@D@?$positional_parameter_base@DV?$stream_output_adapter@D@__crt_stdio_output@@@__crt_stdio_output@@CA_ND@Z 004950ab f i libucrt:output.obj
 0001:000940c3       ??$is_character_specifier@D@?$positional_parameter_base@DV?$string_output_adapter@D@__crt_stdio_output@@@__crt_stdio_output@@CA_ND@Z 004950c3 f i libucrt:output.obj
 0001:000940db       ??$is_character_specifier@_W@?$positional_parameter_base@_WV?$stream_output_adapter@_W@__crt_stdio_output@@@__crt_stdio_output@@CA_N_W@Z 004950db f i libucrt:output.obj
 0001:000940f6       ??$is_character_specifier@_W@?$positional_parameter_base@_WV?$string_output_adapter@_W@__crt_stdio_output@@@__crt_stdio_output@@CA_N_W@Z 004950f6 f i libucrt:output.obj
 0001:00094111       ??$is_integral_specifier@D@?$positional_parameter_base@DV?$stream_output_adapter@D@__crt_stdio_output@@@__crt_stdio_output@@CA_ND@Z 00495111 f i libucrt:output.obj
 0001:0009413d       ??$is_integral_specifier@D@?$positional_parameter_base@DV?$string_output_adapter@D@__crt_stdio_output@@@__crt_stdio_output@@CA_ND@Z 0049513d f i libucrt:output.obj
 0001:00094169       ??$is_integral_specifier@_W@?$positional_parameter_base@_WV?$stream_output_adapter@_W@__crt_stdio_output@@@__crt_stdio_output@@CA_N_W@Z 00495169 f i libucrt:output.obj
 0001:000941a4       ??$is_integral_specifier@_W@?$positional_parameter_base@_WV?$string_output_adapter@_W@__crt_stdio_output@@@__crt_stdio_output@@CA_N_W@Z 004951a4 f i libucrt:output.obj
 0001:000941df       ??$is_overflow_condition@K@__crt_strtox@@YA_NIK@Z 004951df f i libucrt:output.obj
 0001:00094210       ??$is_pointer_specifier@D@?$positional_parameter_base@DV?$stream_output_adapter@D@__crt_stdio_output@@@__crt_stdio_output@@CA_ND@Z 00495210 f i libucrt:output.obj
 0001:0009421e       ??$is_pointer_specifier@D@?$positional_parameter_base@DV?$string_output_adapter@D@__crt_stdio_output@@@__crt_stdio_output@@CA_ND@Z 0049521e f i libucrt:output.obj
 0001:0009422c       ??$is_pointer_specifier@_W@?$positional_parameter_base@_WV?$stream_output_adapter@_W@__crt_stdio_output@@@__crt_stdio_output@@CA_N_W@Z 0049522c f i libucrt:output.obj
 0001:0009423b       ??$is_pointer_specifier@_W@?$positional_parameter_base@_WV?$string_output_adapter@_W@__crt_stdio_output@@@__crt_stdio_output@@CA_N_W@Z 0049523b f i libucrt:output.obj
 0001:0009424a       ??$is_string_specifier@D@?$positional_parameter_base@DV?$stream_output_adapter@D@__crt_stdio_output@@@__crt_stdio_output@@CA_ND@Z 0049524a f i libucrt:output.obj
 0001:00094262       ??$is_string_specifier@D@?$positional_parameter_base@DV?$string_output_adapter@D@__crt_stdio_output@@@__crt_stdio_output@@CA_ND@Z 00495262 f i libucrt:output.obj
 0001:0009427a       ??$is_string_specifier@_W@?$positional_parameter_base@_WV?$stream_output_adapter@_W@__crt_stdio_output@@@__crt_stdio_output@@CA_N_W@Z 0049527a f i libucrt:output.obj
 0001:00094295       ??$is_string_specifier@_W@?$positional_parameter_base@_WV?$string_output_adapter@_W@__crt_stdio_output@@@__crt_stdio_output@@CA_N_W@Z 00495295 f i libucrt:output.obj
 0001:000942b0       ??$is_wide_character_specifier@D@__crt_stdio_output@@YA_N_KDW4length_modifier@0@@Z 004952b0 f i libucrt:output.obj
 0001:000942e1       ??$is_wide_character_specifier@_W@__crt_stdio_output@@YA_N_K_WW4length_modifier@0@@Z 004952e1 f i libucrt:output.obj
 0001:0009432f       ??$make_c_string_character_source@DPAPAD@__crt_strtox@@YA?AV?$c_string_character_source@D@0@QBDQAPAD@Z 0049532f f i libucrt:output.obj
 0001:0009434a       ??$make_c_string_character_source@_WPAPA_W@__crt_strtox@@YA?AV?$c_string_character_source@_W@0@QB_WQAPA_W@Z 0049534a f i libucrt:output.obj
 0001:00094365       ??$parse_integer@KV?$c_string_character_source@D@__crt_strtox@@$0A@@__crt_strtox@@YAKAAV__crt_cached_ptd_host@@V?$c_string_character_source@D@0@H_N@Z 00495365 f i libucrt:output.obj
 0001:00094574       ??$parse_integer@KV?$c_string_character_source@_W@__crt_strtox@@$0A@@__crt_strtox@@YAKAAV__crt_cached_ptd_host@@V?$c_string_character_source@_W@0@H_N@Z 00495574 f i libucrt:output.obj
 0001:00094b43       ??$peek_va_arg@C@__crt_stdio_output@@YACPAD@Z 00495b43 f i libucrt:output.obj
 0001:00094b4f       ??$peek_va_arg@E@__crt_stdio_output@@YAEPAD@Z 00495b4f f i libucrt:output.obj
 0001:00094b5b       ??$peek_va_arg@F@__crt_stdio_output@@YAFPAD@Z 00495b5b f i libucrt:output.obj
 0001:00094b68       ??$peek_va_arg@G@__crt_stdio_output@@YAGPAD@Z 00495b68 f i libucrt:output.obj
 0001:00094b75       ??$peek_va_arg@H@__crt_stdio_output@@YAHPAD@Z 00495b75 f i libucrt:output.obj
 0001:00094b81       ??$peek_va_arg@I@__crt_stdio_output@@YAIPAD@Z 00495b81 f i libucrt:output.obj
 0001:00094b8d       ??$peek_va_arg@PAD@__crt_stdio_output@@YAPADPAD@Z 00495b8d f i libucrt:output.obj
 0001:00094b99       ??$peek_va_arg@PAUansi_string@?1??type_case_Z@?$output_processor@DV?$stream_output_adapter@D@__crt_stdio_output@@V?$positional_parameter_base@DV?$stream_output_adapter@D@__crt_stdio_output@@@2@@__crt_stdio_output@@AAE_NXZ@@__crt_stdio_output@@YAPAUansi_string@?1??type_case_Z@?$output_processor@DV?$stream_output_adapter@D@__crt_stdio_output@@V?$positional_parameter_base@DV?$stream_output_adapter@D@__crt_stdio_output@@@2@@0@AAE_NXZ@PAD@Z 00495b99 f i libucrt:output.obj
 0001:00094ba5       ??$peek_va_arg@PAUansi_string@?1??type_case_Z@?$output_processor@DV?$string_output_adapter@D@__crt_stdio_output@@V?$positional_parameter_base@DV?$string_output_adapter@D@__crt_stdio_output@@@2@@__crt_stdio_output@@AAE_NXZ@@__crt_stdio_output@@YAPAUansi_string@?1??type_case_Z@?$output_processor@DV?$string_output_adapter@D@__crt_stdio_output@@V?$positional_parameter_base@DV?$string_output_adapter@D@__crt_stdio_output@@@2@@0@AAE_NXZ@PAD@Z 00495ba5 f i libucrt:output.obj
 0001:00094bb1       ??$peek_va_arg@PAUansi_string@?1??type_case_Z@?$output_processor@_WV?$stream_output_adapter@_W@__crt_stdio_output@@V?$positional_parameter_base@_WV?$stream_output_adapter@_W@__crt_stdio_output@@@2@@__crt_stdio_output@@AAE_NXZ@@__crt_stdio_output@@YAPAUansi_string@?1??type_case_Z@?$output_processor@_WV?$stream_output_adapter@_W@__crt_stdio_output@@V?$positional_parameter_base@_WV?$stream_output_adapter@_W@__crt_stdio_output@@@2@@0@AAE_NXZ@PAD@Z 00495bb1 f i libucrt:output.obj
 0001:00094bbd       ??$peek_va_arg@PAUansi_string@?1??type_case_Z@?$output_processor@_WV?$string_output_adapter@_W@__crt_stdio_output@@V?$positional_parameter_base@_WV?$string_output_adapter@_W@__crt_stdio_output@@@2@@__crt_stdio_output@@AAE_NXZ@@__crt_stdio_output@@YAPAUansi_string@?1??type_case_Z@?$output_processor@_WV?$string_output_adapter@_W@__crt_stdio_output@@V?$positional_parameter_base@_WV?$string_output_adapter@_W@__crt_stdio_output@@@2@@0@AAE_NXZ@PAD@Z 00495bbd f i libucrt:output.obj
 0001:00094bc9       ??$peek_va_arg@PAX@__crt_stdio_output@@YAPAXPAD@Z 00495bc9 f i libucrt:output.obj
 0001:00094bd5       ??$peek_va_arg@U_CRT_DOUBLE@@@__crt_stdio_output@@YA?AU_CRT_DOUBLE@@PAD@Z 00495bd5 f i libucrt:output.obj
 0001:00094be4       ??$peek_va_arg@_J@__crt_stdio_output@@YA_JPAD@Z 00495be4 f i libucrt:output.obj
 0001:00094bf3       ??$peek_va_arg@_K@__crt_stdio_output@@YA_KPAD@Z 00495bf3 f i libucrt:output.obj
 0001:00094c02       ??$peek_va_arg@_W@__crt_stdio_output@@YA_WPAD@Z 00495c02 f i libucrt:output.obj
 0001:00094c0f       ??$puttc_nolock_internal@ABDPAU_iobuf@@AAV__crt_cached_ptd_host@@@?$__crt_char_traits@D@@SAHABD$$QAPAU_iobuf@@AAV__crt_cached_ptd_host@@@Z 00495c0f f i libucrt:output.obj
 0001:00094c2d       ??$puttc_nolock_internal@AB_WPAU_iobuf@@AAV__crt_cached_ptd_host@@@?$__crt_char_traits@_W@@SAGAB_W$$QAPAU_iobuf@@AAV__crt_cached_ptd_host@@@Z 00495c2d f i libucrt:output.obj
 0001:00094c4b       ??$read_va_arg@C@__crt_stdio_output@@YACAAPAD@Z 00495c4b f i libucrt:output.obj
 0001:00094c5d       ??$read_va_arg@E@__crt_stdio_output@@YAEAAPAD@Z 00495c5d f i libucrt:output.obj
 0001:00094c6f       ??$read_va_arg@F@__crt_stdio_output@@YAFAAPAD@Z 00495c6f f i libucrt:output.obj
 0001:00094c82       ??$read_va_arg@G@__crt_stdio_output@@YAGAAPAD@Z 00495c82 f i libucrt:output.obj
 0001:00094c95       ??$read_va_arg@H@__crt_stdio_output@@YAHAAPAD@Z 00495c95 f i libucrt:output.obj
 0001:00094ca7       ??$read_va_arg@I@__crt_stdio_output@@YAIAAPAD@Z 00495ca7 f i libucrt:output.obj
 0001:00094cb9       ??$read_va_arg@PAD@__crt_stdio_output@@YAPADAAPAD@Z 00495cb9 f i libucrt:output.obj
 0001:00094ccb       ??$read_va_arg@PAUansi_string@?1??type_case_Z@?$output_processor@DV?$stream_output_adapter@D@__crt_stdio_output@@V?$format_validation_base@DV?$stream_output_adapter@D@__crt_stdio_output@@@2@@__crt_stdio_output@@AAE_NXZ@@__crt_stdio_output@@YAPAUansi_string@?1??type_case_Z@?$output_processor@DV?$stream_output_adapter@D@__crt_stdio_output@@V?$format_validation_base@DV?$stream_output_adapter@D@__crt_stdio_output@@@2@@0@AAE_NXZ@AAPAD@Z 00495ccb f i libucrt:output.obj
 0001:00094cdd       ??$read_va_arg@PAUansi_string@?1??type_case_Z@?$output_processor@DV?$stream_output_adapter@D@__crt_stdio_output@@V?$positional_parameter_base@DV?$stream_output_adapter@D@__crt_stdio_output@@@2@@__crt_stdio_output@@AAE_NXZ@@__crt_stdio_output@@YAPAUansi_string@?1??type_case_Z@?$output_processor@DV?$stream_output_adapter@D@__crt_stdio_output@@V?$positional_parameter_base@DV?$stream_output_adapter@D@__crt_stdio_output@@@2@@0@AAE_NXZ@AAPAD@Z 00495cdd f i libucrt:output.obj
 0001:00094cef       ??$read_va_arg@PAUansi_string@?1??type_case_Z@?$output_processor@DV?$stream_output_adapter@D@__crt_stdio_output@@V?$standard_base@DV?$stream_output_adapter@D@__crt_stdio_output@@@2@@__crt_stdio_output@@AAE_NXZ@@__crt_stdio_output@@YAPAUansi_string@?1??type_case_Z@?$output_processor@DV?$stream_output_adapter@D@__crt_stdio_output@@V?$standard_base@DV?$stream_output_adapter@D@__crt_stdio_output@@@2@@0@AAE_NXZ@AAPAD@Z 00495cef f i libucrt:output.obj
 0001:00094d01       ??$read_va_arg@PAUansi_string@?1??type_case_Z@?$output_processor@DV?$string_output_adapter@D@__crt_stdio_output@@V?$format_validation_base@DV?$string_output_adapter@D@__crt_stdio_output@@@2@@__crt_stdio_output@@AAE_NXZ@@__crt_stdio_output@@YAPAUansi_string@?1??type_case_Z@?$output_processor@DV?$string_output_adapter@D@__crt_stdio_output@@V?$format_validation_base@DV?$string_output_adapter@D@__crt_stdio_output@@@2@@0@AAE_NXZ@AAPAD@Z 00495d01 f i libucrt:output.obj
 0001:00094d13       ??$read_va_arg@PAUansi_string@?1??type_case_Z@?$output_processor@DV?$string_output_adapter@D@__crt_stdio_output@@V?$positional_parameter_base@DV?$string_output_adapter@D@__crt_stdio_output@@@2@@__crt_stdio_output@@AAE_NXZ@@__crt_stdio_output@@YAPAUansi_string@?1??type_case_Z@?$output_processor@DV?$string_output_adapter@D@__crt_stdio_output@@V?$positional_parameter_base@DV?$string_output_adapter@D@__crt_stdio_output@@@2@@0@AAE_NXZ@AAPAD@Z 00495d13 f i libucrt:output.obj
 0001:00094d25       ??$read_va_arg@PAUansi_string@?1??type_case_Z@?$output_processor@DV?$string_output_adapter@D@__crt_stdio_output@@V?$standard_base@DV?$string_output_adapter@D@__crt_stdio_output@@@2@@__crt_stdio_output@@AAE_NXZ@@__crt_stdio_output@@YAPAUansi_string@?1??type_case_Z@?$output_processor@DV?$string_output_adapter@D@__crt_stdio_output@@V?$standard_base@DV?$string_output_adapter@D@__crt_stdio_output@@@2@@0@AAE_NXZ@AAPAD@Z 00495d25 f i libucrt:output.obj
 0001:00094d37       ??$read_va_arg@PAUansi_string@?1??type_case_Z@?$output_processor@_WV?$stream_output_adapter@_W@__crt_stdio_output@@V?$format_validation_base@_WV?$stream_output_adapter@_W@__crt_stdio_output@@@2@@__crt_stdio_output@@AAE_NXZ@@__crt_stdio_output@@YAPAUansi_string@?1??type_case_Z@?$output_processor@_WV?$stream_output_adapter@_W@__crt_stdio_output@@V?$format_validation_base@_WV?$stream_output_adapter@_W@__crt_stdio_output@@@2@@0@AAE_NXZ@AAPAD@Z 00495d37 f i libucrt:output.obj
 0001:00094d49       ??$read_va_arg@PAUansi_string@?1??type_case_Z@?$output_processor@_WV?$stream_output_adapter@_W@__crt_stdio_output@@V?$positional_parameter_base@_WV?$stream_output_adapter@_W@__crt_stdio_output@@@2@@__crt_stdio_output@@AAE_NXZ@@__crt_stdio_output@@YAPAUansi_string@?1??type_case_Z@?$output_processor@_WV?$stream_output_adapter@_W@__crt_stdio_output@@V?$positional_parameter_base@_WV?$stream_output_adapter@_W@__crt_stdio_output@@@2@@0@AAE_NXZ@AAPAD@Z 00495d49 f i libucrt:output.obj
 0001:00094d5b       ??$read_va_arg@PAUansi_string@?1??type_case_Z@?$output_processor@_WV?$stream_output_adapter@_W@__crt_stdio_output@@V?$standard_base@_WV?$stream_output_adapter@_W@__crt_stdio_output@@@2@@__crt_stdio_output@@AAE_NXZ@@__crt_stdio_output@@YAPAUansi_string@?1??type_case_Z@?$output_processor@_WV?$stream_output_adapter@_W@__crt_stdio_output@@V?$standard_base@_WV?$stream_output_adapter@_W@__crt_stdio_output@@@2@@0@AAE_NXZ@AAPAD@Z 00495d5b f i libucrt:output.obj
 0001:00094d6d       ??$read_va_arg@PAUansi_string@?1??type_case_Z@?$output_processor@_WV?$string_output_adapter@_W@__crt_stdio_output@@V?$format_validation_base@_WV?$string_output_adapter@_W@__crt_stdio_output@@@2@@__crt_stdio_output@@AAE_NXZ@@__crt_stdio_output@@YAPAUansi_string@?1??type_case_Z@?$output_processor@_WV?$string_output_adapter@_W@__crt_stdio_output@@V?$format_validation_base@_WV?$string_output_adapter@_W@__crt_stdio_output@@@2@@0@AAE_NXZ@AAPAD@Z 00495d6d f i libucrt:output.obj
 0001:00094d7f       ??$read_va_arg@PAUansi_string@?1??type_case_Z@?$output_processor@_WV?$string_output_adapter@_W@__crt_stdio_output@@V?$positional_parameter_base@_WV?$string_output_adapter@_W@__crt_stdio_output@@@2@@__crt_stdio_output@@AAE_NXZ@@__crt_stdio_output@@YAPAUansi_string@?1??type_case_Z@?$output_processor@_WV?$string_output_adapter@_W@__crt_stdio_output@@V?$positional_parameter_base@_WV?$string_output_adapter@_W@__crt_stdio_output@@@2@@0@AAE_NXZ@AAPAD@Z 00495d7f f i libucrt:output.obj
 0001:00094d91       ??$read_va_arg@PAUansi_string@?1??type_case_Z@?$output_processor@_WV?$string_output_adapter@_W@__crt_stdio_output@@V?$standard_base@_WV?$string_output_adapter@_W@__crt_stdio_output@@@2@@__crt_stdio_output@@AAE_NXZ@@__crt_stdio_output@@YAPAUansi_string@?1??type_case_Z@?$output_processor@_WV?$string_output_adapter@_W@__crt_stdio_output@@V?$standard_base@_WV?$string_output_adapter@_W@__crt_stdio_output@@@2@@0@AAE_NXZ@AAPAD@Z 00495d91 f i libucrt:output.obj
 0001:00094da3       ??$read_va_arg@PAX@__crt_stdio_output@@YAPAXAAPAD@Z 00495da3 f i libucrt:output.obj
 0001:00094db5       ??$read_va_arg@U_CRT_DOUBLE@@@__crt_stdio_output@@YA?AU_CRT_DOUBLE@@AAPAD@Z 00495db5 f i libucrt:output.obj
 0001:00094dcb       ??$read_va_arg@_J@__crt_stdio_output@@YA_JAAPAD@Z 00495dcb f i libucrt:output.obj
 0001:00094de0       ??$read_va_arg@_K@__crt_stdio_output@@YA_KAAPAD@Z 00495de0 f i libucrt:output.obj
 0001:00094df5       ??$read_va_arg@_W@__crt_stdio_output@@YA_WAAPAD@Z 00495df5 f i libucrt:output.obj
 0001:00094e08       ??$scratch_count@D@formatting_buffer@__crt_stdio_output@@QBEIXZ 00495e08 f i libucrt:output.obj
 0001:00094e0d       ??$scratch_data@D@formatting_buffer@__crt_stdio_output@@QAEPADXZ 00495e0d f i libucrt:output.obj
 0001:00094e2b       ??$type_case_integer@$07@?$output_processor@DV?$stream_output_adapter@D@__crt_stdio_output@@V?$format_validation_base@DV?$stream_output_adapter@D@__crt_stdio_output@@@2@@__crt_stdio_output@@AAE_N_N@Z 00495e2b f i libucrt:output.obj
 0001:00094fa8       ??$type_case_integer@$07@?$output_processor@DV?$stream_output_adapter@D@__crt_stdio_output@@V?$positional_parameter_base@DV?$stream_output_adapter@D@__crt_stdio_output@@@2@@__crt_stdio_output@@AAE_N_N@Z 00495fa8 f i libucrt:output.obj
 0001:00095139       ??$type_case_integer@$07@?$output_processor@DV?$stream_output_adapter@D@__crt_stdio_output@@V?$standard_base@DV?$stream_output_adapter@D@__crt_stdio_output@@@2@@__crt_stdio_output@@AAE_N_N@Z 00496139 f i libucrt:output.obj
 0001:000952b6       ??$type_case_integer@$07@?$output_processor@DV?$string_output_adapter@D@__crt_stdio_output@@V?$format_validation_base@DV?$string_output_adapter@D@__crt_stdio_output@@@2@@__crt_stdio_output@@AAE_N_N@Z 004962b6 f i libucrt:output.obj
 0001:00095433       ??$type_case_integer@$07@?$output_processor@DV?$string_output_adapter@D@__crt_stdio_output@@V?$positional_parameter_base@DV?$string_output_adapter@D@__crt_stdio_output@@@2@@__crt_stdio_output@@AAE_N_N@Z 00496433 f i libucrt:output.obj
 0001:000955c4       ??$type_case_integer@$07@?$output_processor@DV?$string_output_adapter@D@__crt_stdio_output@@V?$standard_base@DV?$string_output_adapter@D@__crt_stdio_output@@@2@@__crt_stdio_output@@AAE_N_N@Z 004965c4 f i libucrt:output.obj
 0001:00095741       ??$type_case_integer@$07@?$output_processor@_WV?$stream_output_adapter@_W@__crt_stdio_output@@V?$format_validation_base@_WV?$stream_output_adapter@_W@__crt_stdio_output@@@2@@__crt_stdio_output@@AAE_N_N@Z 00496741 f i libucrt:output.obj
 0001:000958c3       ??$type_case_integer@$07@?$output_processor@_WV?$stream_output_adapter@_W@__crt_stdio_output@@V?$positional_parameter_base@_WV?$stream_output_adapter@_W@__crt_stdio_output@@@2@@__crt_stdio_output@@AAE_N_N@Z 004968c3 f i libucrt:output.obj
 0001:00095a58       ??$type_case_integer@$07@?$output_processor@_WV?$stream_output_adapter@_W@__crt_stdio_output@@V?$standard_base@_WV?$stream_output_adapter@_W@__crt_stdio_output@@@2@@__crt_stdio_output@@AAE_N_N@Z 00496a58 f i libucrt:output.obj
 0001:00095bda       ??$type_case_integer@$07@?$output_processor@_WV?$string_output_adapter@_W@__crt_stdio_output@@V?$format_validation_base@_WV?$string_output_adapter@_W@__crt_stdio_output@@@2@@__crt_stdio_output@@AAE_N_N@Z 00496bda f i libucrt:output.obj
 0001:00095d5c       ??$type_case_integer@$07@?$output_processor@_WV?$string_output_adapter@_W@__crt_stdio_output@@V?$positional_parameter_base@_WV?$string_output_adapter@_W@__crt_stdio_output@@@2@@__crt_stdio_output@@AAE_N_N@Z 00496d5c f i libucrt:output.obj
 0001:00095ef1       ??$type_case_integer@$07@?$output_processor@_WV?$string_output_adapter@_W@__crt_stdio_output@@V?$standard_base@_WV?$string_output_adapter@_W@__crt_stdio_output@@@2@@__crt_stdio_output@@AAE_N_N@Z 00496ef1 f i libucrt:output.obj
 0001:00096073       ??$type_case_integer@$09@?$output_processor@DV?$stream_output_adapter@D@__crt_stdio_output@@V?$format_validation_base@DV?$stream_output_adapter@D@__crt_stdio_output@@@2@@__crt_stdio_output@@AAE_N_N@Z 00497073 f i libucrt:output.obj
 0001:000961f0       ??$type_case_integer@$09@?$output_processor@DV?$stream_output_adapter@D@__crt_stdio_output@@V?$positional_parameter_base@DV?$stream_output_adapter@D@__crt_stdio_output@@@2@@__crt_stdio_output@@AAE_N_N@Z 004971f0 f i libucrt:output.obj
 0001:00096381       ??$type_case_integer@$09@?$output_processor@DV?$stream_output_adapter@D@__crt_stdio_output@@V?$standard_base@DV?$stream_output_adapter@D@__crt_stdio_output@@@2@@__crt_stdio_output@@AAE_N_N@Z 00497381 f i libucrt:output.obj
 0001:000964fe       ??$type_case_integer@$09@?$output_processor@DV?$string_output_adapter@D@__crt_stdio_output@@V?$format_validation_base@DV?$string_output_adapter@D@__crt_stdio_output@@@2@@__crt_stdio_output@@AAE_N_N@Z 004974fe f i libucrt:output.obj
 0001:0009667b       ??$type_case_integer@$09@?$output_processor@DV?$string_output_adapter@D@__crt_stdio_output@@V?$positional_parameter_base@DV?$string_output_adapter@D@__crt_stdio_output@@@2@@__crt_stdio_output@@AAE_N_N@Z 0049767b f i libucrt:output.obj
 0001:0009680c       ??$type_case_integer@$09@?$output_processor@DV?$string_output_adapter@D@__crt_stdio_output@@V?$standard_base@DV?$string_output_adapter@D@__crt_stdio_output@@@2@@__crt_stdio_output@@AAE_N_N@Z 0049780c f i libucrt:output.obj
 0001:00096989       ??$type_case_integer@$09@?$output_processor@_WV?$stream_output_adapter@_W@__crt_stdio_output@@V?$format_validation_base@_WV?$stream_output_adapter@_W@__crt_stdio_output@@@2@@__crt_stdio_output@@AAE_N_N@Z 00497989 f i libucrt:output.obj
 0001:00096b0b       ??$type_case_integer@$09@?$output_processor@_WV?$stream_output_adapter@_W@__crt_stdio_output@@V?$positional_parameter_base@_WV?$stream_output_adapter@_W@__crt_stdio_output@@@2@@__crt_stdio_output@@AAE_N_N@Z 00497b0b f i libucrt:output.obj
 0001:00096ca0       ??$type_case_integer@$09@?$output_processor@_WV?$stream_output_adapter@_W@__crt_stdio_output@@V?$standard_base@_WV?$stream_output_adapter@_W@__crt_stdio_output@@@2@@__crt_stdio_output@@AAE_N_N@Z 00497ca0 f i libucrt:output.obj
 0001:00096e22       ??$type_case_integer@$09@?$output_processor@_WV?$string_output_adapter@_W@__crt_stdio_output@@V?$format_validation_base@_WV?$string_output_adapter@_W@__crt_stdio_output@@@2@@__crt_stdio_output@@AAE_N_N@Z 00497e22 f i libucrt:output.obj
 0001:00096fa4       ??$type_case_integer@$09@?$output_processor@_WV?$string_output_adapter@_W@__crt_stdio_output@@V?$positional_parameter_base@_WV?$string_output_adapter@_W@__crt_stdio_output@@@2@@__crt_stdio_output@@AAE_N_N@Z 00497fa4 f i libucrt:output.obj
 0001:00097139       ??$type_case_integer@$09@?$output_processor@_WV?$string_output_adapter@_W@__crt_stdio_output@@V?$standard_base@_WV?$string_output_adapter@_W@__crt_stdio_output@@@2@@__crt_stdio_output@@AAE_N_N@Z 00498139 f i libucrt:output.obj
 0001:000972bb       ??$type_case_integer@$0BA@@?$output_processor@DV?$stream_output_adapter@D@__crt_stdio_output@@V?$format_validation_base@DV?$stream_output_adapter@D@__crt_stdio_output@@@2@@__crt_stdio_output@@AAE_N_N@Z 004982bb f i libucrt:output.obj
 0001:00097438       ??$type_case_integer@$0BA@@?$output_processor@DV?$stream_output_adapter@D@__crt_stdio_output@@V?$positional_parameter_base@DV?$stream_output_adapter@D@__crt_stdio_output@@@2@@__crt_stdio_output@@AAE_N_N@Z 00498438 f i libucrt:output.obj
 0001:000975c9       ??$type_case_integer@$0BA@@?$output_processor@DV?$stream_output_adapter@D@__crt_stdio_output@@V?$standard_base@DV?$stream_output_adapter@D@__crt_stdio_output@@@2@@__crt_stdio_output@@AAE_N_N@Z 004985c9 f i libucrt:output.obj
 0001:00097746       ??$type_case_integer@$0BA@@?$output_processor@DV?$string_output_adapter@D@__crt_stdio_output@@V?$format_validation_base@DV?$string_output_adapter@D@__crt_stdio_output@@@2@@__crt_stdio_output@@AAE_N_N@Z 00498746 f i libucrt:output.obj
 0001:000978c3       ??$type_case_integer@$0BA@@?$output_processor@DV?$string_output_adapter@D@__crt_stdio_output@@V?$positional_parameter_base@DV?$string_output_adapter@D@__crt_stdio_output@@@2@@__crt_stdio_output@@AAE_N_N@Z 004988c3 f i libucrt:output.obj
 0001:00097a54       ??$type_case_integer@$0BA@@?$output_processor@DV?$string_output_adapter@D@__crt_stdio_output@@V?$standard_base@DV?$string_output_adapter@D@__crt_stdio_output@@@2@@__crt_stdio_output@@AAE_N_N@Z 00498a54 f i libucrt:output.obj
 0001:00097bd1       ??$type_case_integer@$0BA@@?$output_processor@_WV?$stream_output_adapter@_W@__crt_stdio_output@@V?$format_validation_base@_WV?$stream_output_adapter@_W@__crt_stdio_output@@@2@@__crt_stdio_output@@AAE_N_N@Z 00498bd1 f i libucrt:output.obj
 0001:00097d53       ??$type_case_integer@$0BA@@?$output_processor@_WV?$stream_output_adapter@_W@__crt_stdio_output@@V?$positional_parameter_base@_WV?$stream_output_adapter@_W@__crt_stdio_output@@@2@@__crt_stdio_output@@AAE_N_N@Z 00498d53 f i libucrt:output.obj
 0001:00097ee8       ??$type_case_integer@$0BA@@?$output_processor@_WV?$stream_output_adapter@_W@__crt_stdio_output@@V?$standard_base@_WV?$stream_output_adapter@_W@__crt_stdio_output@@@2@@__crt_stdio_output@@AAE_N_N@Z 00498ee8 f i libucrt:output.obj
 0001:0009806a       ??$type_case_integer@$0BA@@?$output_processor@_WV?$string_output_adapter@_W@__crt_stdio_output@@V?$format_validation_base@_WV?$string_output_adapter@_W@__crt_stdio_output@@@2@@__crt_stdio_output@@AAE_N_N@Z 0049906a f i libucrt:output.obj
 0001:000981ec       ??$type_case_integer@$0BA@@?$output_processor@_WV?$string_output_adapter@_W@__crt_stdio_output@@V?$positional_parameter_base@_WV?$string_output_adapter@_W@__crt_stdio_output@@@2@@__crt_stdio_output@@AAE_N_N@Z 004991ec f i libucrt:output.obj
 0001:00098381       ??$type_case_integer@$0BA@@?$output_processor@_WV?$string_output_adapter@_W@__crt_stdio_output@@V?$standard_base@_WV?$string_output_adapter@_W@__crt_stdio_output@@@2@@__crt_stdio_output@@AAE_N_N@Z 00499381 f i libucrt:output.obj
 0001:00098503       ??$type_case_integer_parse_into_buffer@I$07@?$output_processor@DV?$stream_output_adapter@D@__crt_stdio_output@@V?$format_validation_base@DV?$stream_output_adapter@D@__crt_stdio_output@@@2@@__crt_stdio_output@@AAEXI_N@Z 00499503 f i libucrt:output.obj
 0001:0009856d       ??$type_case_integer_parse_into_buffer@I$07@?$output_processor@DV?$stream_output_adapter@D@__crt_stdio_output@@V?$positional_parameter_base@DV?$stream_output_adapter@D@__crt_stdio_output@@@2@@__crt_stdio_output@@AAEXI_N@Z 0049956d f i libucrt:output.obj
 0001:000985d7       ??$type_case_integer_parse_into_buffer@I$07@?$output_processor@DV?$stream_output_adapter@D@__crt_stdio_output@@V?$standard_base@DV?$stream_output_adapter@D@__crt_stdio_output@@@2@@__crt_stdio_output@@AAEXI_N@Z 004995d7 f i libucrt:output.obj
 0001:00098641       ??$type_case_integer_parse_into_buffer@I$07@?$output_processor@DV?$string_output_adapter@D@__crt_stdio_output@@V?$format_validation_base@DV?$string_output_adapter@D@__crt_stdio_output@@@2@@__crt_stdio_output@@AAEXI_N@Z 00499641 f i libucrt:output.obj
 0001:000986ab       ??$type_case_integer_parse_into_buffer@I$07@?$output_processor@DV?$string_output_adapter@D@__crt_stdio_output@@V?$positional_parameter_base@DV?$string_output_adapter@D@__crt_stdio_output@@@2@@__crt_stdio_output@@AAEXI_N@Z 004996ab f i libucrt:output.obj
 0001:00098715       ??$type_case_integer_parse_into_buffer@I$07@?$output_processor@DV?$string_output_adapter@D@__crt_stdio_output@@V?$standard_base@DV?$string_output_adapter@D@__crt_stdio_output@@@2@@__crt_stdio_output@@AAEXI_N@Z 00499715 f i libucrt:output.obj
 0001:0009877f       ??$type_case_integer_parse_into_buffer@I$07@?$output_processor@_WV?$stream_output_adapter@_W@__crt_stdio_output@@V?$format_validation_base@_WV?$stream_output_adapter@_W@__crt_stdio_output@@@2@@__crt_stdio_output@@AAEXI_N@Z 0049977f f i libucrt:output.obj
 0001:000987ec       ??$type_case_integer_parse_into_buffer@I$07@?$output_processor@_WV?$stream_output_adapter@_W@__crt_stdio_output@@V?$positional_parameter_base@_WV?$stream_output_adapter@_W@__crt_stdio_output@@@2@@__crt_stdio_output@@AAEXI_N@Z 004997ec f i libucrt:output.obj
 0001:00098859       ??$type_case_integer_parse_into_buffer@I$07@?$output_processor@_WV?$stream_output_adapter@_W@__crt_stdio_output@@V?$standard_base@_WV?$stream_output_adapter@_W@__crt_stdio_output@@@2@@__crt_stdio_output@@AAEXI_N@Z 00499859 f i libucrt:output.obj
 0001:000988c6       ??$type_case_integer_parse_into_buffer@I$07@?$output_processor@_WV?$string_output_adapter@_W@__crt_stdio_output@@V?$format_validation_base@_WV?$string_output_adapter@_W@__crt_stdio_output@@@2@@__crt_stdio_output@@AAEXI_N@Z 004998c6 f i libucrt:output.obj
 0001:00098933       ??$type_case_integer_parse_into_buffer@I$07@?$output_processor@_WV?$string_output_adapter@_W@__crt_stdio_output@@V?$positional_parameter_base@_WV?$string_output_adapter@_W@__crt_stdio_output@@@2@@__crt_stdio_output@@AAEXI_N@Z 00499933 f i libucrt:output.obj
 0001:000989a0       ??$type_case_integer_parse_into_buffer@I$07@?$output_processor@_WV?$string_output_adapter@_W@__crt_stdio_output@@V?$standard_base@_WV?$string_output_adapter@_W@__crt_stdio_output@@@2@@__crt_stdio_output@@AAEXI_N@Z 004999a0 f i libucrt:output.obj
 0001:00098a0d       ??$type_case_integer_parse_into_buffer@I$09@?$output_processor@DV?$stream_output_adapter@D@__crt_stdio_output@@V?$format_validation_base@DV?$stream_output_adapter@D@__crt_stdio_output@@@2@@__crt_stdio_output@@AAEXI_N@Z 00499a0d f i libucrt:output.obj
 0001:00098a87       ??$type_case_integer_parse_into_buffer@I$09@?$output_processor@DV?$stream_output_adapter@D@__crt_stdio_output@@V?$positional_parameter_base@DV?$stream_output_adapter@D@__crt_stdio_output@@@2@@__crt_stdio_output@@AAEXI_N@Z 00499a87 f i libucrt:output.obj
 0001:00098b01       ??$type_case_integer_parse_into_buffer@I$09@?$output_processor@DV?$stream_output_adapter@D@__crt_stdio_output@@V?$standard_base@DV?$stream_output_adapter@D@__crt_stdio_output@@@2@@__crt_stdio_output@@AAEXI_N@Z 00499b01 f i libucrt:output.obj
 0001:00098b7b       ??$type_case_integer_parse_into_buffer@I$09@?$output_processor@DV?$string_output_adapter@D@__crt_stdio_output@@V?$format_validation_base@DV?$string_output_adapter@D@__crt_stdio_output@@@2@@__crt_stdio_output@@AAEXI_N@Z 00499b7b f i libucrt:output.obj
 0001:00098bf5       ??$type_case_integer_parse_into_buffer@I$09@?$output_processor@DV?$string_output_adapter@D@__crt_stdio_output@@V?$positional_parameter_base@DV?$string_output_adapter@D@__crt_stdio_output@@@2@@__crt_stdio_output@@AAEXI_N@Z 00499bf5 f i libucrt:output.obj
 0001:00098c6f       ??$type_case_integer_parse_into_buffer@I$09@?$output_processor@DV?$string_output_adapter@D@__crt_stdio_output@@V?$standard_base@DV?$string_output_adapter@D@__crt_stdio_output@@@2@@__crt_stdio_output@@AAEXI_N@Z 00499c6f f i libucrt:output.obj
 0001:00098ce9       ??$type_case_integer_parse_into_buffer@I$09@?$output_processor@_WV?$stream_output_adapter@_W@__crt_stdio_output@@V?$format_validation_base@_WV?$stream_output_adapter@_W@__crt_stdio_output@@@2@@__crt_stdio_output@@AAEXI_N@Z 00499ce9 f i libucrt:output.obj
 0001:00098d78       ??$type_case_integer_parse_into_buffer@I$09@?$output_processor@_WV?$stream_output_adapter@_W@__crt_stdio_output@@V?$positional_parameter_base@_WV?$stream_output_adapter@_W@__crt_stdio_output@@@2@@__crt_stdio_output@@AAEXI_N@Z 00499d78 f i libucrt:output.obj
 0001:00098e07       ??$type_case_integer_parse_into_buffer@I$09@?$output_processor@_WV?$stream_output_adapter@_W@__crt_stdio_output@@V?$standard_base@_WV?$stream_output_adapter@_W@__crt_stdio_output@@@2@@__crt_stdio_output@@AAEXI_N@Z 00499e07 f i libucrt:output.obj
 0001:00098e96       ??$type_case_integer_parse_into_buffer@I$09@?$output_processor@_WV?$string_output_adapter@_W@__crt_stdio_output@@V?$format_validation_base@_WV?$string_output_adapter@_W@__crt_stdio_output@@@2@@__crt_stdio_output@@AAEXI_N@Z 00499e96 f i libucrt:output.obj
 0001:00098f25       ??$type_case_integer_parse_into_buffer@I$09@?$output_processor@_WV?$string_output_adapter@_W@__crt_stdio_output@@V?$positional_parameter_base@_WV?$string_output_adapter@_W@__crt_stdio_output@@@2@@__crt_stdio_output@@AAEXI_N@Z 00499f25 f i libucrt:output.obj
 0001:00098fb4       ??$type_case_integer_parse_into_buffer@I$09@?$output_processor@_WV?$string_output_adapter@_W@__crt_stdio_output@@V?$standard_base@_WV?$string_output_adapter@_W@__crt_stdio_output@@@2@@__crt_stdio_output@@AAEXI_N@Z 00499fb4 f i libucrt:output.obj
 0001:00099043       ??$type_case_integer_parse_into_buffer@I$0BA@@?$output_processor@DV?$stream_output_adapter@D@__crt_stdio_output@@V?$format_validation_base@DV?$stream_output_adapter@D@__crt_stdio_output@@@2@@__crt_stdio_output@@AAEXI_N@Z 0049a043 f i libucrt:output.obj
 0001:000990cb       ??$type_case_integer_parse_into_buffer@I$0BA@@?$output_processor@DV?$stream_output_adapter@D@__crt_stdio_output@@V?$positional_parameter_base@DV?$stream_output_adapter@D@__crt_stdio_output@@@2@@__crt_stdio_output@@AAEXI_N@Z 0049a0cb f i libucrt:output.obj
 0001:00099153       ??$type_case_integer_parse_into_buffer@I$0BA@@?$output_processor@DV?$stream_output_adapter@D@__crt_stdio_output@@V?$standard_base@DV?$stream_output_adapter@D@__crt_stdio_output@@@2@@__crt_stdio_output@@AAEXI_N@Z 0049a153 f i libucrt:output.obj
 0001:000991db       ??$type_case_integer_parse_into_buffer@I$0BA@@?$output_processor@DV?$string_output_adapter@D@__crt_stdio_output@@V?$format_validation_base@DV?$string_output_adapter@D@__crt_stdio_output@@@2@@__crt_stdio_output@@AAEXI_N@Z 0049a1db f i libucrt:output.obj
 0001:00099263       ??$type_case_integer_parse_into_buffer@I$0BA@@?$output_processor@DV?$string_output_adapter@D@__crt_stdio_output@@V?$positional_parameter_base@DV?$string_output_adapter@D@__crt_stdio_output@@@2@@__crt_stdio_output@@AAEXI_N@Z 0049a263 f i libucrt:output.obj
 0001:000992eb       ??$type_case_integer_parse_into_buffer@I$0BA@@?$output_processor@DV?$string_output_adapter@D@__crt_stdio_output@@V?$standard_base@DV?$string_output_adapter@D@__crt_stdio_output@@@2@@__crt_stdio_output@@AAEXI_N@Z 0049a2eb f i libucrt:output.obj
 0001:00099373       ??$type_case_integer_parse_into_buffer@I$0BA@@?$output_processor@_WV?$stream_output_adapter@_W@__crt_stdio_output@@V?$format_validation_base@_WV?$stream_output_adapter@_W@__crt_stdio_output@@@2@@__crt_stdio_output@@AAEXI_N@Z 0049a373 f i libucrt:output.obj
 0001:00099400       ??$type_case_integer_parse_into_buffer@I$0BA@@?$output_processor@_WV?$stream_output_adapter@_W@__crt_stdio_output@@V?$positional_parameter_base@_WV?$stream_output_adapter@_W@__crt_stdio_output@@@2@@__crt_stdio_output@@AAEXI_N@Z 0049a400 f i libucrt:output.obj
 0001:0009948d       ??$type_case_integer_parse_into_buffer@I$0BA@@?$output_processor@_WV?$stream_output_adapter@_W@__crt_stdio_output@@V?$standard_base@_WV?$stream_output_adapter@_W@__crt_stdio_output@@@2@@__crt_stdio_output@@AAEXI_N@Z 0049a48d f i libucrt:output.obj
 0001:0009951a       ??$type_case_integer_parse_into_buffer@I$0BA@@?$output_processor@_WV?$string_output_adapter@_W@__crt_stdio_output@@V?$format_validation_base@_WV?$string_output_adapter@_W@__crt_stdio_output@@@2@@__crt_stdio_output@@AAEXI_N@Z 0049a51a f i libucrt:output.obj
 0001:000995a7       ??$type_case_integer_parse_into_buffer@I$0BA@@?$output_processor@_WV?$string_output_adapter@_W@__crt_stdio_output@@V?$positional_parameter_base@_WV?$string_output_adapter@_W@__crt_stdio_output@@@2@@__crt_stdio_output@@AAEXI_N@Z 0049a5a7 f i libucrt:output.obj
 0001:00099634       ??$type_case_integer_parse_into_buffer@I$0BA@@?$output_processor@_WV?$string_output_adapter@_W@__crt_stdio_output@@V?$standard_base@_WV?$string_output_adapter@_W@__crt_stdio_output@@@2@@__crt_stdio_output@@AAEXI_N@Z 0049a634 f i libucrt:output.obj
 0001:000996c1       ??$type_case_integer_parse_into_buffer@_K$07@?$output_processor@DV?$stream_output_adapter@D@__crt_stdio_output@@V?$format_validation_base@DV?$stream_output_adapter@D@__crt_stdio_output@@@2@@__crt_stdio_output@@AAEX_K_N@Z 0049a6c1 f i libucrt:output.obj
 0001:00099739       ??$type_case_integer_parse_into_buffer@_K$07@?$output_processor@DV?$stream_output_adapter@D@__crt_stdio_output@@V?$positional_parameter_base@DV?$stream_output_adapter@D@__crt_stdio_output@@@2@@__crt_stdio_output@@AAEX_K_N@Z 0049a739 f i libucrt:output.obj
 0001:000997b1       ??$type_case_integer_parse_into_buffer@_K$07@?$output_processor@DV?$stream_output_adapter@D@__crt_stdio_output@@V?$standard_base@DV?$stream_output_adapter@D@__crt_stdio_output@@@2@@__crt_stdio_output@@AAEX_K_N@Z 0049a7b1 f i libucrt:output.obj
 0001:00099829       ??$type_case_integer_parse_into_buffer@_K$07@?$output_processor@DV?$string_output_adapter@D@__crt_stdio_output@@V?$format_validation_base@DV?$string_output_adapter@D@__crt_stdio_output@@@2@@__crt_stdio_output@@AAEX_K_N@Z 0049a829 f i libucrt:output.obj
 0001:000998a1       ??$type_case_integer_parse_into_buffer@_K$07@?$output_processor@DV?$string_output_adapter@D@__crt_stdio_output@@V?$positional_parameter_base@DV?$string_output_adapter@D@__crt_stdio_output@@@2@@__crt_stdio_output@@AAEX_K_N@Z 0049a8a1 f i libucrt:output.obj
 0001:00099919       ??$type_case_integer_parse_into_buffer@_K$07@?$output_processor@DV?$string_output_adapter@D@__crt_stdio_output@@V?$standard_base@DV?$string_output_adapter@D@__crt_stdio_output@@@2@@__crt_stdio_output@@AAEX_K_N@Z 0049a919 f i libucrt:output.obj
 0001:00099991       ??$type_case_integer_parse_into_buffer@_K$07@?$output_processor@_WV?$stream_output_adapter@_W@__crt_stdio_output@@V?$format_validation_base@_WV?$stream_output_adapter@_W@__crt_stdio_output@@@2@@__crt_stdio_output@@AAEX_K_N@Z 0049a991 f i libucrt:output.obj
 0001:00099a1a       ??$type_case_integer_parse_into_buffer@_K$07@?$output_processor@_WV?$stream_output_adapter@_W@__crt_stdio_output@@V?$positional_parameter_base@_WV?$stream_output_adapter@_W@__crt_stdio_output@@@2@@__crt_stdio_output@@AAEX_K_N@Z 0049aa1a f i libucrt:output.obj
 0001:00099aa3       ??$type_case_integer_parse_into_buffer@_K$07@?$output_processor@_WV?$stream_output_adapter@_W@__crt_stdio_output@@V?$standard_base@_WV?$stream_output_adapter@_W@__crt_stdio_output@@@2@@__crt_stdio_output@@AAEX_K_N@Z 0049aaa3 f i libucrt:output.obj
 0001:00099b2c       ??$type_case_integer_parse_into_buffer@_K$07@?$output_processor@_WV?$string_output_adapter@_W@__crt_stdio_output@@V?$format_validation_base@_WV?$string_output_adapter@_W@__crt_stdio_output@@@2@@__crt_stdio_output@@AAEX_K_N@Z 0049ab2c f i libucrt:output.obj
 0001:00099bb5       ??$type_case_integer_parse_into_buffer@_K$07@?$output_processor@_WV?$string_output_adapter@_W@__crt_stdio_output@@V?$positional_parameter_base@_WV?$string_output_adapter@_W@__crt_stdio_output@@@2@@__crt_stdio_output@@AAEX_K_N@Z 0049abb5 f i libucrt:output.obj
 0001:00099c3e       ??$type_case_integer_parse_into_buffer@_K$07@?$output_processor@_WV?$string_output_adapter@_W@__crt_stdio_output@@V?$standard_base@_WV?$string_output_adapter@_W@__crt_stdio_output@@@2@@__crt_stdio_output@@AAEX_K_N@Z 0049ac3e f i libucrt:output.obj
 0001:00099cc7       ??$type_case_integer_parse_into_buffer@_K$09@?$output_processor@DV?$stream_output_adapter@D@__crt_stdio_output@@V?$format_validation_base@DV?$stream_output_adapter@D@__crt_stdio_output@@@2@@__crt_stdio_output@@AAEX_K_N@Z 0049acc7 f i libucrt:output.obj
 0001:00099d63       ??$type_case_integer_parse_into_buffer@_K$09@?$output_processor@DV?$stream_output_adapter@D@__crt_stdio_output@@V?$positional_parameter_base@DV?$stream_output_adapter@D@__crt_stdio_output@@@2@@__crt_stdio_output@@AAEX_K_N@Z 0049ad63 f i libucrt:output.obj
 0001:00099dff       ??$type_case_integer_parse_into_buffer@_K$09@?$output_processor@DV?$stream_output_adapter@D@__crt_stdio_output@@V?$standard_base@DV?$stream_output_adapter@D@__crt_stdio_output@@@2@@__crt_stdio_output@@AAEX_K_N@Z 0049adff f i libucrt:output.obj
 0001:00099e9b       ??$type_case_integer_parse_into_buffer@_K$09@?$output_processor@DV?$string_output_adapter@D@__crt_stdio_output@@V?$format_validation_base@DV?$string_output_adapter@D@__crt_stdio_output@@@2@@__crt_stdio_output@@AAEX_K_N@Z 0049ae9b f i libucrt:output.obj
 0001:00099f37       ??$type_case_integer_parse_into_buffer@_K$09@?$output_processor@DV?$string_output_adapter@D@__crt_stdio_output@@V?$positional_parameter_base@DV?$string_output_adapter@D@__crt_stdio_output@@@2@@__crt_stdio_output@@AAEX_K_N@Z 0049af37 f i libucrt:output.obj
 0001:00099fd3       ??$type_case_integer_parse_into_buffer@_K$09@?$output_processor@DV?$string_output_adapter@D@__crt_stdio_output@@V?$standard_base@DV?$string_output_adapter@D@__crt_stdio_output@@@2@@__crt_stdio_output@@AAEX_K_N@Z 0049afd3 f i libucrt:output.obj
 0001:0009a06f       ??$type_case_integer_parse_into_buffer@_K$09@?$output_processor@_WV?$stream_output_adapter@_W@__crt_stdio_output@@V?$format_validation_base@_WV?$stream_output_adapter@_W@__crt_stdio_output@@@2@@__crt_stdio_output@@AAEX_K_N@Z 0049b06f f i libucrt:output.obj
 0001:0009a11e       ??$type_case_integer_parse_into_buffer@_K$09@?$output_processor@_WV?$stream_output_adapter@_W@__crt_stdio_output@@V?$positional_parameter_base@_WV?$stream_output_adapter@_W@__crt_stdio_output@@@2@@__crt_stdio_output@@AAEX_K_N@Z 0049b11e f i libucrt:output.obj
 0001:0009a1cd       ??$type_case_integer_parse_into_buffer@_K$09@?$output_processor@_WV?$stream_output_adapter@_W@__crt_stdio_output@@V?$standard_base@_WV?$stream_output_adapter@_W@__crt_stdio_output@@@2@@__crt_stdio_output@@AAEX_K_N@Z 0049b1cd f i libucrt:output.obj
 0001:0009a27c       ??$type_case_integer_parse_into_buffer@_K$09@?$output_processor@_WV?$string_output_adapter@_W@__crt_stdio_output@@V?$format_validation_base@_WV?$string_output_adapter@_W@__crt_stdio_output@@@2@@__crt_stdio_output@@AAEX_K_N@Z 0049b27c f i libucrt:output.obj
 0001:0009a32b       ??$type_case_integer_parse_into_buffer@_K$09@?$output_processor@_WV?$string_output_adapter@_W@__crt_stdio_output@@V?$positional_parameter_base@_WV?$string_output_adapter@_W@__crt_stdio_output@@@2@@__crt_stdio_output@@AAEX_K_N@Z 0049b32b f i libucrt:output.obj
 0001:0009a3da       ??$type_case_integer_parse_into_buffer@_K$09@?$output_processor@_WV?$string_output_adapter@_W@__crt_stdio_output@@V?$standard_base@_WV?$string_output_adapter@_W@__crt_stdio_output@@@2@@__crt_stdio_output@@AAEX_K_N@Z 0049b3da f i libucrt:output.obj
 0001:0009a489       ??$type_case_integer_parse_into_buffer@_K$0BA@@?$output_processor@DV?$stream_output_adapter@D@__crt_stdio_output@@V?$format_validation_base@DV?$stream_output_adapter@D@__crt_stdio_output@@@2@@__crt_stdio_output@@AAEX_K_N@Z 0049b489 f i libucrt:output.obj
 0001:0009a51b       ??$type_case_integer_parse_into_buffer@_K$0BA@@?$output_processor@DV?$stream_output_adapter@D@__crt_stdio_output@@V?$positional_parameter_base@DV?$stream_output_adapter@D@__crt_stdio_output@@@2@@__crt_stdio_output@@AAEX_K_N@Z 0049b51b f i libucrt:output.obj
 0001:0009a5ad       ??$type_case_integer_parse_into_buffer@_K$0BA@@?$output_processor@DV?$stream_output_adapter@D@__crt_stdio_output@@V?$standard_base@DV?$stream_output_adapter@D@__crt_stdio_output@@@2@@__crt_stdio_output@@AAEX_K_N@Z 0049b5ad f i libucrt:output.obj
 0001:0009a63f       ??$type_case_integer_parse_into_buffer@_K$0BA@@?$output_processor@DV?$string_output_adapter@D@__crt_stdio_output@@V?$format_validation_base@DV?$string_output_adapter@D@__crt_stdio_output@@@2@@__crt_stdio_output@@AAEX_K_N@Z 0049b63f f i libucrt:output.obj
 0001:0009a6d1       ??$type_case_integer_parse_into_buffer@_K$0BA@@?$output_processor@DV?$string_output_adapter@D@__crt_stdio_output@@V?$positional_parameter_base@DV?$string_output_adapter@D@__crt_stdio_output@@@2@@__crt_stdio_output@@AAEX_K_N@Z 0049b6d1 f i libucrt:output.obj
 0001:0009a763       ??$type_case_integer_parse_into_buffer@_K$0BA@@?$output_processor@DV?$string_output_adapter@D@__crt_stdio_output@@V?$standard_base@DV?$string_output_adapter@D@__crt_stdio_output@@@2@@__crt_stdio_output@@AAEX_K_N@Z 0049b763 f i libucrt:output.obj
 0001:0009a7f5       ??$type_case_integer_parse_into_buffer@_K$0BA@@?$output_processor@_WV?$stream_output_adapter@_W@__crt_stdio_output@@V?$format_validation_base@_WV?$stream_output_adapter@_W@__crt_stdio_output@@@2@@__crt_stdio_output@@AAEX_K_N@Z 0049b7f5 f i libucrt:output.obj
 0001:0009a890       ??$type_case_integer_parse_into_buffer@_K$0BA@@?$output_processor@_WV?$stream_output_adapter@_W@__crt_stdio_output@@V?$positional_parameter_base@_WV?$stream_output_adapter@_W@__crt_stdio_output@@@2@@__crt_stdio_output@@AAEX_K_N@Z 0049b890 f i libucrt:output.obj
 0001:0009a92b       ??$type_case_integer_parse_into_buffer@_K$0BA@@?$output_processor@_WV?$stream_output_adapter@_W@__crt_stdio_output@@V?$standard_base@_WV?$stream_output_adapter@_W@__crt_stdio_output@@@2@@__crt_stdio_output@@AAEX_K_N@Z 0049b92b f i libucrt:output.obj
 0001:0009a9c6       ??$type_case_integer_parse_into_buffer@_K$0BA@@?$output_processor@_WV?$string_output_adapter@_W@__crt_stdio_output@@V?$format_validation_base@_WV?$string_output_adapter@_W@__crt_stdio_output@@@2@@__crt_stdio_output@@AAEX_K_N@Z 0049b9c6 f i libucrt:output.obj
 0001:0009aa61       ??$type_case_integer_parse_into_buffer@_K$0BA@@?$output_processor@_WV?$string_output_adapter@_W@__crt_stdio_output@@V?$positional_parameter_base@_WV?$string_output_adapter@_W@__crt_stdio_output@@@2@@__crt_stdio_output@@AAEX_K_N@Z 0049ba61 f i libucrt:output.obj
 0001:0009aafc       ??$type_case_integer_parse_into_buffer@_K$0BA@@?$output_processor@_WV?$string_output_adapter@_W@__crt_stdio_output@@V?$standard_base@_WV?$string_output_adapter@_W@__crt_stdio_output@@@2@@__crt_stdio_output@@AAEX_K_N@Z 0049bafc f i libucrt:output.obj
 0001:0009ab97       ??$write_multiple_characters@V?$stream_output_adapter@D@__crt_stdio_output@@D@__crt_stdio_output@@YAXABV?$stream_output_adapter@D@0@DHQAHAAV__crt_cached_ptd_host@@@Z 0049bb97 f i libucrt:output.obj
 0001:0009abc6       ??$write_multiple_characters@V?$stream_output_adapter@_W@__crt_stdio_output@@D@__crt_stdio_output@@YAXABV?$stream_output_adapter@_W@0@DHQAHAAV__crt_cached_ptd_host@@@Z 0049bbc6 f i libucrt:output.obj
 0001:0009abfa       ??$write_multiple_characters@V?$string_output_adapter@D@__crt_stdio_output@@D@__crt_stdio_output@@YAXABV?$string_output_adapter@D@0@DHQAHAAV__crt_cached_ptd_host@@@Z 0049bbfa f i libucrt:output.obj
 0001:0009ac5b       ??$write_multiple_characters@V?$string_output_adapter@_W@__crt_stdio_output@@D@__crt_stdio_output@@YAXABV?$string_output_adapter@_W@0@DHQAHAAV__crt_cached_ptd_host@@@Z 0049bc5b f i libucrt:output.obj
 0001:0009ae88       ??0?$c_string_character_source@D@__crt_strtox@@QAE@QBDQAPBD@Z 0049be88 f i libucrt:output.obj
 0001:0009aea4       ??0?$c_string_character_source@_W@__crt_strtox@@QAE@QB_WQAPB_W@Z 0049bea4 f i libucrt:output.obj
 0001:0009aec0       ??0?$common_data@D@__crt_stdio_output@@IAE@AAV__crt_cached_ptd_host@@@Z 0049bec0 f i libucrt:output.obj
 0001:0009af07       ??0?$common_data@_W@__crt_stdio_output@@IAE@AAV__crt_cached_ptd_host@@@Z 0049bf07 f i libucrt:output.obj
 0001:0009af53       ??0?$output_adapter_data@DV?$stream_output_adapter@D@__crt_stdio_output@@@__crt_stdio_output@@IAE@ABV?$stream_output_adapter@D@1@_KQBDAAV__crt_cached_ptd_host@@QAD@Z 0049bf53 f i libucrt:output.obj
 0001:0009afba       ??0?$output_adapter_data@DV?$string_output_adapter@D@__crt_stdio_output@@@__crt_stdio_output@@IAE@ABV?$string_output_adapter@D@1@_KQBDAAV__crt_cached_ptd_host@@QAD@Z 0049bfba f i libucrt:output.obj
 0001:0009b021       ??0?$output_adapter_data@_WV?$stream_output_adapter@_W@__crt_stdio_output@@@__crt_stdio_output@@IAE@ABV?$stream_output_adapter@_W@1@_KQB_WAAV__crt_cached_ptd_host@@QAD@Z 0049c021 f i libucrt:output.obj
 0001:0009b08d       ??0?$output_adapter_data@_WV?$string_output_adapter@_W@__crt_stdio_output@@@__crt_stdio_output@@IAE@ABV?$string_output_adapter@_W@1@_KQB_WAAV__crt_cached_ptd_host@@QAD@Z 0049c08d f i libucrt:output.obj
 0001:0009b0f9       ??0?$output_processor@DV?$stream_output_adapter@D@__crt_stdio_output@@V?$format_validation_base@DV?$stream_output_adapter@D@__crt_stdio_output@@@2@@__crt_stdio_output@@QAE@ABV?$stream_output_adapter@D@1@_KQBDAAV__crt_cached_ptd_host@@QAD@Z 0049c0f9 f i libucrt:output.obj
 0001:0009b126       ??0?$output_processor@DV?$stream_output_adapter@D@__crt_stdio_output@@V?$positional_parameter_base@DV?$stream_output_adapter@D@__crt_stdio_output@@@2@@__crt_stdio_output@@QAE@ABV?$stream_output_adapter@D@1@_KQBDAAV__crt_cached_ptd_host@@QAD@Z 0049c126 f i libucrt:output.obj
 0001:0009b14c       ??0?$output_processor@DV?$stream_output_adapter@D@__crt_stdio_output@@V?$standard_base@DV?$stream_output_adapter@D@__crt_stdio_output@@@2@@__crt_stdio_output@@QAE@ABV?$stream_output_adapter@D@1@_KQBDAAV__crt_cached_ptd_host@@QAD@Z 0049c14c f i libucrt:output.obj
 0001:0009b179       ??0?$output_processor@DV?$string_output_adapter@D@__crt_stdio_output@@V?$format_validation_base@DV?$string_output_adapter@D@__crt_stdio_output@@@2@@__crt_stdio_output@@QAE@ABV?$string_output_adapter@D@1@_KQBDAAV__crt_cached_ptd_host@@QAD@Z 0049c179 f i libucrt:output.obj
 0001:0009b1a6       ??0?$output_processor@DV?$string_output_adapter@D@__crt_stdio_output@@V?$positional_parameter_base@DV?$string_output_adapter@D@__crt_stdio_output@@@2@@__crt_stdio_output@@QAE@ABV?$string_output_adapter@D@1@_KQBDAAV__crt_cached_ptd_host@@QAD@Z 0049c1a6 f i libucrt:output.obj
 0001:0009b1cc       ??0?$output_processor@DV?$string_output_adapter@D@__crt_stdio_output@@V?$standard_base@DV?$string_output_adapter@D@__crt_stdio_output@@@2@@__crt_stdio_output@@QAE@ABV?$string_output_adapter@D@1@_KQBDAAV__crt_cached_ptd_host@@QAD@Z 0049c1cc f i libucrt:output.obj
 0001:0009b1f9       ??0?$output_processor@_WV?$stream_output_adapter@_W@__crt_stdio_output@@V?$format_validation_base@_WV?$stream_output_adapter@_W@__crt_stdio_output@@@2@@__crt_stdio_output@@QAE@ABV?$stream_output_adapter@_W@1@_KQB_WAAV__crt_cached_ptd_host@@QAD@Z 0049c1f9 f i libucrt:output.obj
 0001:0009b226       ??0?$output_processor@_WV?$stream_output_adapter@_W@__crt_stdio_output@@V?$positional_parameter_base@_WV?$stream_output_adapter@_W@__crt_stdio_output@@@2@@__crt_stdio_output@@QAE@ABV?$stream_output_adapter@_W@1@_KQB_WAAV__crt_cached_ptd_host@@QAD@Z 0049c226 f i libucrt:output.obj
 0001:0009b24c       ??0?$output_processor@_WV?$stream_output_adapter@_W@__crt_stdio_output@@V?$standard_base@_WV?$stream_output_adapter@_W@__crt_stdio_output@@@2@@__crt_stdio_output@@QAE@ABV?$stream_output_adapter@_W@1@_KQB_WAAV__crt_cached_ptd_host@@QAD@Z 0049c24c f i libucrt:output.obj
 0001:0009b279       ??0?$output_processor@_WV?$string_output_adapter@_W@__crt_stdio_output@@V?$format_validation_base@_WV?$string_output_adapter@_W@__crt_stdio_output@@@2@@__crt_stdio_output@@QAE@ABV?$string_output_adapter@_W@1@_KQB_WAAV__crt_cached_ptd_host@@QAD@Z 0049c279 f i libucrt:output.obj
 0001:0009b2a6       ??0?$output_processor@_WV?$string_output_adapter@_W@__crt_stdio_output@@V?$positional_parameter_base@_WV?$string_output_adapter@_W@__crt_stdio_output@@@2@@__crt_stdio_output@@QAE@ABV?$string_output_adapter@_W@1@_KQB_WAAV__crt_cached_ptd_host@@QAD@Z 0049c2a6 f i libucrt:output.obj
 0001:0009b2cc       ??0?$output_processor@_WV?$string_output_adapter@_W@__crt_stdio_output@@V?$standard_base@_WV?$string_output_adapter@_W@__crt_stdio_output@@@2@@__crt_stdio_output@@QAE@ABV?$string_output_adapter@_W@1@_KQB_WAAV__crt_cached_ptd_host@@QAD@Z 0049c2cc f i libucrt:output.obj
 0001:0009b2f9       ??0?$stream_output_adapter@D@__crt_stdio_output@@QAE@QAU_iobuf@@@Z 0049c2f9 f i libucrt:output.obj
 0001:0009b309       ??0?$stream_output_adapter@_W@__crt_stdio_output@@QAE@QAU_iobuf@@@Z 0049c309 f i libucrt:output.obj
 0001:0009b319       ??0?$string_output_adapter@D@__crt_stdio_output@@QAE@QAU?$string_output_adapter_context@D@1@@Z 0049c319 f i libucrt:output.obj
 0001:0009b329       ??0?$string_output_adapter@_W@__crt_stdio_output@@QAE@QAU?$string_output_adapter_context@_W@1@@Z 0049c329 f i libucrt:output.obj
 0001:0009b339       ??0__acrt_stdio_temporary_buffering_guard@@QAE@QAU_iobuf@@AAV__crt_cached_ptd_host@@@Z 0049c339 f i libucrt:output.obj
 0001:0009b35d       ??0formatting_buffer@__crt_stdio_output@@QAE@XZ 0049c35d f i libucrt:output.obj
 0001:0009b36e       ??0guard@?$cached@H@__crt_cached_ptd_host@@QAE@AAU12@@Z 0049c36e f i libucrt:output.obj
 0001:0009b38d       ??1?$c_string_character_source@D@__crt_strtox@@QAE@XZ 0049c38d f i libucrt:output.obj
 0001:0009b399       ??1?$c_string_character_source@_W@__crt_strtox@@QAE@XZ 0049c399 f i libucrt:output.obj
 0001:0009b3a5       ??1?$common_data@D@__crt_stdio_output@@QAE@XZ 0049c3a5 f i libucrt:output.obj
 0001:0009b3ad       ??1?$common_data@_W@__crt_stdio_output@@QAE@XZ 0049c3ad f i libucrt:output.obj
 0001:0009b3b5       ??1?$format_validation_base@DV?$stream_output_adapter@D@__crt_stdio_output@@@__crt_stdio_output@@QAE@XZ 0049c3b5 f i libucrt:output.obj
 0001:0009b3bd       ??1?$format_validation_base@DV?$string_output_adapter@D@__crt_stdio_output@@@__crt_stdio_output@@QAE@XZ 0049c3bd f i libucrt:output.obj
 0001:0009b3c5       ??1?$format_validation_base@_WV?$stream_output_adapter@_W@__crt_stdio_output@@@__crt_stdio_output@@QAE@XZ 0049c3c5 f i libucrt:output.obj
 0001:0009b3cd       ??1?$format_validation_base@_WV?$string_output_adapter@_W@__crt_stdio_output@@@__crt_stdio_output@@QAE@XZ 0049c3cd f i libucrt:output.obj
 0001:0009b3d5       ??1?$output_adapter_data@DV?$stream_output_adapter@D@__crt_stdio_output@@@__crt_stdio_output@@QAE@XZ 0049c3d5 f i libucrt:output.obj
 0001:0009b3dd       ??1?$output_adapter_data@DV?$string_output_adapter@D@__crt_stdio_output@@@__crt_stdio_output@@QAE@XZ 0049c3dd f i libucrt:output.obj
 0001:0009b3e5       ??1?$output_adapter_data@_WV?$stream_output_adapter@_W@__crt_stdio_output@@@__crt_stdio_output@@QAE@XZ 0049c3e5 f i libucrt:output.obj
 0001:0009b3ed       ??1?$output_adapter_data@_WV?$string_output_adapter@_W@__crt_stdio_output@@@__crt_stdio_output@@QAE@XZ 0049c3ed f i libucrt:output.obj
 0001:0009b3f5       ??1?$output_processor@DV?$stream_output_adapter@D@__crt_stdio_output@@V?$format_validation_base@DV?$stream_output_adapter@D@__crt_stdio_output@@@2@@__crt_stdio_output@@QAE@XZ 0049c3f5 f i libucrt:output.obj
 0001:0009b3fd       ??1?$output_processor@DV?$stream_output_adapter@D@__crt_stdio_output@@V?$positional_parameter_base@DV?$stream_output_adapter@D@__crt_stdio_output@@@2@@__crt_stdio_output@@QAE@XZ 0049c3fd f i libucrt:output.obj
 0001:0009b405       ??1?$output_processor@DV?$stream_output_adapter@D@__crt_stdio_output@@V?$standard_base@DV?$stream_output_adapter@D@__crt_stdio_output@@@2@@__crt_stdio_output@@QAE@XZ 0049c405 f i libucrt:output.obj
 0001:0009b40d       ??1?$output_processor@DV?$string_output_adapter@D@__crt_stdio_output@@V?$format_validation_base@DV?$string_output_adapter@D@__crt_stdio_output@@@2@@__crt_stdio_output@@QAE@XZ 0049c40d f i libucrt:output.obj
 0001:0009b415       ??1?$output_processor@DV?$string_output_adapter@D@__crt_stdio_output@@V?$positional_parameter_base@DV?$string_output_adapter@D@__crt_stdio_output@@@2@@__crt_stdio_output@@QAE@XZ 0049c415 f i libucrt:output.obj
 0001:0009b41d       ??1?$output_processor@DV?$string_output_adapter@D@__crt_stdio_output@@V?$standard_base@DV?$string_output_adapter@D@__crt_stdio_output@@@2@@__crt_stdio_output@@QAE@XZ 0049c41d f i libucrt:output.obj
 0001:0009b425       ??1?$output_processor@_WV?$stream_output_adapter@_W@__crt_stdio_output@@V?$format_validation_base@_WV?$stream_output_adapter@_W@__crt_stdio_output@@@2@@__crt_stdio_output@@QAE@XZ 0049c425 f i libucrt:output.obj
 0001:0009b42d       ??1?$output_processor@_WV?$stream_output_adapter@_W@__crt_stdio_output@@V?$positional_parameter_base@_WV?$stream_output_adapter@_W@__crt_stdio_output@@@2@@__crt_stdio_output@@QAE@XZ 0049c42d f i libucrt:output.obj
 0001:0009b435       ??1?$output_processor@_WV?$stream_output_adapter@_W@__crt_stdio_output@@V?$standard_base@_WV?$stream_output_adapter@_W@__crt_stdio_output@@@2@@__crt_stdio_output@@QAE@XZ 0049c435 f i libucrt:output.obj
 0001:0009b43d       ??1?$output_processor@_WV?$string_output_adapter@_W@__crt_stdio_output@@V?$format_validation_base@_WV?$string_output_adapter@_W@__crt_stdio_output@@@2@@__crt_stdio_output@@QAE@XZ 0049c43d f i libucrt:output.obj
 0001:0009b445       ??1?$output_processor@_WV?$string_output_adapter@_W@__crt_stdio_output@@V?$positional_parameter_base@_WV?$string_output_adapter@_W@__crt_stdio_output@@@2@@__crt_stdio_output@@QAE@XZ 0049c445 f i libucrt:output.obj
 0001:0009b44d       ??1?$output_processor@_WV?$string_output_adapter@_W@__crt_stdio_output@@V?$standard_base@_WV?$string_output_adapter@_W@__crt_stdio_output@@@2@@__crt_stdio_output@@QAE@XZ 0049c44d f i libucrt:output.obj
 0001:0009b455       ??1?$positional_parameter_base@DV?$stream_output_adapter@D@__crt_stdio_output@@@__crt_stdio_output@@QAE@XZ 0049c455 f i libucrt:output.obj
 0001:0009b45d       ??1?$positional_parameter_base@DV?$string_output_adapter@D@__crt_stdio_output@@@__crt_stdio_output@@QAE@XZ 0049c45d f i libucrt:output.obj
 0001:0009b465       ??1?$positional_parameter_base@_WV?$stream_output_adapter@_W@__crt_stdio_output@@@__crt_stdio_output@@QAE@XZ 0049c465 f i libucrt:output.obj
 0001:0009b46d       ??1?$positional_parameter_base@_WV?$string_output_adapter@_W@__crt_stdio_output@@@__crt_stdio_output@@QAE@XZ 0049c46d f i libucrt:output.obj
 0001:0009b475       ??1?$standard_base@DV?$stream_output_adapter@D@__crt_stdio_output@@@__crt_stdio_output@@QAE@XZ 0049c475 f i libucrt:output.obj
 0001:0009b47d       ??1?$standard_base@DV?$string_output_adapter@D@__crt_stdio_output@@@__crt_stdio_output@@QAE@XZ 0049c47d f i libucrt:output.obj
 0001:0009b485       ??1?$standard_base@_WV?$stream_output_adapter@_W@__crt_stdio_output@@@__crt_stdio_output@@QAE@XZ 0049c485 f i libucrt:output.obj
 0001:0009b48d       ??1?$standard_base@_WV?$string_output_adapter@_W@__crt_stdio_output@@@__crt_stdio_output@@QAE@XZ 0049c48d f i libucrt:output.obj
 0001:0009b495       ??1__acrt_stdio_temporary_buffering_guard@@QAE@XZ 0049c495 f i libucrt:output.obj
 0001:0009b4a8       ??1formatting_buffer@__crt_stdio_output@@QAE@XZ 0049c4a8 f i libucrt:output.obj
 0001:0009b4c2       ??1guard@?$cached@H@__crt_cached_ptd_host@@QAE@XZ 0049c4c2 f i libucrt:output.obj
 0001:0009b4d8       ??4?$__crt_unique_heap_ptr@DU__crt_internal_free_policy@@@@QAEAAV0@$$QAV0@@Z 0049c4d8 f i libucrt:output.obj
 0001:0009b4fc       ??A?$spectre_mitigated_lookup_table@Ustate_transition_pair@__crt_stdio_output@@$0IA@@__crt_stdio_output@@QBEABUstate_transition_pair@1@I@Z 0049c4fc f i libucrt:output.obj
 0001:0009b974       ?adjust_hexit@?$output_processor@DV?$stream_output_adapter@D@__crt_stdio_output@@V?$format_validation_base@DV?$stream_output_adapter@D@__crt_stdio_output@@@2@@__crt_stdio_output@@CADH_N@Z 0049c974 f i libucrt:output.obj
 0001:0009b988       ?adjust_hexit@?$output_processor@DV?$stream_output_adapter@D@__crt_stdio_output@@V?$positional_parameter_base@DV?$stream_output_adapter@D@__crt_stdio_output@@@2@@__crt_stdio_output@@CADH_N@Z 0049c988 f i libucrt:output.obj
 0001:0009b99c       ?adjust_hexit@?$output_processor@DV?$stream_output_adapter@D@__crt_stdio_output@@V?$standard_base@DV?$stream_output_adapter@D@__crt_stdio_output@@@2@@__crt_stdio_output@@CADH_N@Z 0049c99c f i libucrt:output.obj
 0001:0009b9b0       ?adjust_hexit@?$output_processor@DV?$string_output_adapter@D@__crt_stdio_output@@V?$format_validation_base@DV?$string_output_adapter@D@__crt_stdio_output@@@2@@__crt_stdio_output@@CADH_N@Z 0049c9b0 f i libucrt:output.obj
 0001:0009b9c4       ?adjust_hexit@?$output_processor@DV?$string_output_adapter@D@__crt_stdio_output@@V?$positional_parameter_base@DV?$string_output_adapter@D@__crt_stdio_output@@@2@@__crt_stdio_output@@CADH_N@Z 0049c9c4 f i libucrt:output.obj
 0001:0009b9d8       ?adjust_hexit@?$output_processor@DV?$string_output_adapter@D@__crt_stdio_output@@V?$standard_base@DV?$string_output_adapter@D@__crt_stdio_output@@@2@@__crt_stdio_output@@CADH_N@Z 0049c9d8 f i libucrt:output.obj
 0001:0009b9ec       ?adjust_hexit@?$output_processor@_WV?$stream_output_adapter@_W@__crt_stdio_output@@V?$format_validation_base@_WV?$stream_output_adapter@_W@__crt_stdio_output@@@2@@__crt_stdio_output@@CADH_N@Z 0049c9ec f i libucrt:output.obj
 0001:0009ba00       ?adjust_hexit@?$output_processor@_WV?$stream_output_adapter@_W@__crt_stdio_output@@V?$positional_parameter_base@_WV?$stream_output_adapter@_W@__crt_stdio_output@@@2@@__crt_stdio_output@@CADH_N@Z 0049ca00 f i libucrt:output.obj
 0001:0009ba14       ?adjust_hexit@?$output_processor@_WV?$stream_output_adapter@_W@__crt_stdio_output@@V?$standard_base@_WV?$stream_output_adapter@_W@__crt_stdio_output@@@2@@__crt_stdio_output@@CADH_N@Z 0049ca14 f i libucrt:output.obj
 0001:0009ba28       ?adjust_hexit@?$output_processor@_WV?$string_output_adapter@_W@__crt_stdio_output@@V?$format_validation_base@_WV?$string_output_adapter@_W@__crt_stdio_output@@@2@@__crt_stdio_output@@CADH_N@Z 0049ca28 f i libucrt:output.obj
 0001:0009ba3c       ?adjust_hexit@?$output_processor@_WV?$string_output_adapter@_W@__crt_stdio_output@@V?$positional_parameter_base@_WV?$string_output_adapter@_W@__crt_stdio_output@@@2@@__crt_stdio_output@@CADH_N@Z 0049ca3c f i libucrt:output.obj
 0001:0009ba50       ?adjust_hexit@?$output_processor@_WV?$string_output_adapter@_W@__crt_stdio_output@@V?$standard_base@_WV?$string_output_adapter@_W@__crt_stdio_output@@@2@@__crt_stdio_output@@CADH_N@Z 0049ca50 f i libucrt:output.obj
 0001:0009ba64       ?advance_to_next_pass@?$positional_parameter_base@DV?$stream_output_adapter@D@__crt_stdio_output@@@__crt_stdio_output@@IAE_NXZ 0049ca64 f i libucrt:output.obj
 0001:0009bab0       ?advance_to_next_pass@?$positional_parameter_base@DV?$string_output_adapter@D@__crt_stdio_output@@@__crt_stdio_output@@IAE_NXZ 0049cab0 f i libucrt:output.obj
 0001:0009bafc       ?advance_to_next_pass@?$positional_parameter_base@_WV?$stream_output_adapter@_W@__crt_stdio_output@@@__crt_stdio_output@@IAE_NXZ 0049cafc f i libucrt:output.obj
 0001:0009bb48       ?advance_to_next_pass@?$positional_parameter_base@_WV?$string_output_adapter@_W@__crt_stdio_output@@@__crt_stdio_output@@IAE_NXZ 0049cb48 f i libucrt:output.obj
 0001:0009bb94       ?advance_to_next_pass@?$standard_base@DV?$stream_output_adapter@D@__crt_stdio_output@@@__crt_stdio_output@@IAE_NXZ 0049cb94 f i libucrt:output.obj
 0001:0009bba5       ?advance_to_next_pass@?$standard_base@DV?$string_output_adapter@D@__crt_stdio_output@@@__crt_stdio_output@@IAE_NXZ 0049cba5 f i libucrt:output.obj
 0001:0009bbb6       ?advance_to_next_pass@?$standard_base@_WV?$stream_output_adapter@_W@__crt_stdio_output@@@__crt_stdio_output@@IAE_NXZ 0049cbb6 f i libucrt:output.obj
 0001:0009bbc7       ?advance_to_next_pass@?$standard_base@_WV?$string_output_adapter@_W@__crt_stdio_output@@@__crt_stdio_output@@IAE_NXZ 0049cbc7 f i libucrt:output.obj
 0001:0009bbd8       ?check@?$cached@H@__crt_cached_ptd_host@@QBE_NH@Z 0049cbd8 f i libucrt:output.obj
 0001:0009bbf4       ?create_guard@?$cached@H@__crt_cached_ptd_host@@QAE?AVguard@12@XZ 0049cbf4 f i libucrt:output.obj
 0001:0009bc11       ?crop_zeroes@__crt_stdio_output@@YAXPADQAU__crt_locale_pointers@@@Z 0049cc11 f i libucrt:output.obj
 0001:0009bc71       ?disable@guard@?$cached@H@__crt_cached_ptd_host@@QAEXXZ 0049cc71 f i libucrt:output.obj
 0001:0009bc76       ?enable@guard@?$cached@H@__crt_cached_ptd_host@@QAEXXZ 0049cc76 f i libucrt:output.obj
 0001:0009bc7b       ?find_next_state@?$output_processor@DV?$stream_output_adapter@D@__crt_stdio_output@@V?$format_validation_base@DV?$stream_output_adapter@D@__crt_stdio_output@@@2@@__crt_stdio_output@@ABE?AW4state@2@DW432@@Z 0049cc7b f i libucrt:output.obj
 0001:0009bcb8       ?find_next_state@?$output_processor@DV?$stream_output_adapter@D@__crt_stdio_output@@V?$positional_parameter_base@DV?$stream_output_adapter@D@__crt_stdio_output@@@2@@__crt_stdio_output@@ABE?AW4state@2@DW432@@Z 0049ccb8 f i libucrt:output.obj
 0001:0009bcf5       ?find_next_state@?$output_processor@DV?$stream_output_adapter@D@__crt_stdio_output@@V?$standard_base@DV?$stream_output_adapter@D@__crt_stdio_output@@@2@@__crt_stdio_output@@ABE?AW4state@2@DW432@@Z 0049ccf5 f i libucrt:output.obj
 0001:0009bd30       ?find_next_state@?$output_processor@DV?$string_output_adapter@D@__crt_stdio_output@@V?$format_validation_base@DV?$string_output_adapter@D@__crt_stdio_output@@@2@@__crt_stdio_output@@ABE?AW4state@2@DW432@@Z 0049cd30 f i libucrt:output.obj
 0001:0009bd6d       ?find_next_state@?$output_processor@DV?$string_output_adapter@D@__crt_stdio_output@@V?$positional_parameter_base@DV?$string_output_adapter@D@__crt_stdio_output@@@2@@__crt_stdio_output@@ABE?AW4state@2@DW432@@Z 0049cd6d f i libucrt:output.obj
 0001:0009bdaa       ?find_next_state@?$output_processor@DV?$string_output_adapter@D@__crt_stdio_output@@V?$standard_base@DV?$string_output_adapter@D@__crt_stdio_output@@@2@@__crt_stdio_output@@ABE?AW4state@2@DW432@@Z 0049cdaa f i libucrt:output.obj
 0001:0009bde5       ?find_next_state@?$output_processor@_WV?$stream_output_adapter@_W@__crt_stdio_output@@V?$format_validation_base@_WV?$stream_output_adapter@_W@__crt_stdio_output@@@2@@__crt_stdio_output@@ABE?AW4state@2@_WW432@@Z 0049cde5 f i libucrt:output.obj
 0001:0009be21       ?find_next_state@?$output_processor@_WV?$stream_output_adapter@_W@__crt_stdio_output@@V?$positional_parameter_base@_WV?$stream_output_adapter@_W@__crt_stdio_output@@@2@@__crt_stdio_output@@ABE?AW4state@2@_WW432@@Z 0049ce21 f i libucrt:output.obj
 0001:0009be5d       ?find_next_state@?$output_processor@_WV?$stream_output_adapter@_W@__crt_stdio_output@@V?$standard_base@_WV?$stream_output_adapter@_W@__crt_stdio_output@@@2@@__crt_stdio_output@@ABE?AW4state@2@_WW432@@Z 0049ce5d f i libucrt:output.obj
 0001:0009be97       ?find_next_state@?$output_processor@_WV?$string_output_adapter@_W@__crt_stdio_output@@V?$format_validation_base@_WV?$string_output_adapter@_W@__crt_stdio_output@@@2@@__crt_stdio_output@@ABE?AW4state@2@_WW432@@Z 0049ce97 f i libucrt:output.obj
 0001:0009bed3       ?find_next_state@?$output_processor@_WV?$string_output_adapter@_W@__crt_stdio_output@@V?$positional_parameter_base@_WV?$string_output_adapter@_W@__crt_stdio_output@@@2@@__crt_stdio_output@@ABE?AW4state@2@_WW432@@Z 0049ced3 f i libucrt:output.obj
 0001:0009bf0f       ?find_next_state@?$output_processor@_WV?$string_output_adapter@_W@__crt_stdio_output@@V?$standard_base@_WV?$string_output_adapter@_W@__crt_stdio_output@@@2@@__crt_stdio_output@@ABE?AW4state@2@_WW432@@Z 0049cf0f f i libucrt:output.obj
 0001:0009bf49       ?force_decimal_point@__crt_stdio_output@@YAXPADQAU__crt_locale_pointers@@@Z 0049cf49 f i libucrt:output.obj
 0001:0009bfa5       ?get@?$c_string_character_source@D@__crt_strtox@@QAEDXZ 0049cfa5 f i libucrt:output.obj
 0001:0009bfad       ?get@?$c_string_character_source@_W@__crt_strtox@@QAE_WXZ 0049cfad f i libucrt:output.obj
 0001:0009bfc0       ?get_locale@__crt_cached_ptd_host@@QAEPAU__crt_locale_pointers@@XZ 0049cfc0 f i libucrt:output.obj
 0001:0009bfd5       ?get_parameter_type@?$positional_parameter_base@DV?$stream_output_adapter@D@__crt_stdio_output@@@__crt_stdio_output@@CA?AW4parameter_type@12@F@Z 0049cfd5 f i libucrt:output.obj
 0001:0009bfd9       ?get_parameter_type@?$positional_parameter_base@DV?$stream_output_adapter@D@__crt_stdio_output@@@__crt_stdio_output@@CA?AW4parameter_type@12@G@Z 0049cfd9 f i libucrt:output.obj
 0001:0009bfdd       ?get_parameter_type@?$positional_parameter_base@DV?$stream_output_adapter@D@__crt_stdio_output@@@__crt_stdio_output@@CA?AW4parameter_type@12@H@Z 0049cfdd f i libucrt:output.obj
 0001:0009bfe1       ?get_parameter_type@?$positional_parameter_base@DV?$stream_output_adapter@D@__crt_stdio_output@@@__crt_stdio_output@@CA?AW4parameter_type@12@I@Z 0049cfe1 f i libucrt:output.obj
 0001:0009bfe5       ?get_parameter_type@?$positional_parameter_base@DV?$stream_output_adapter@D@__crt_stdio_output@@@__crt_stdio_output@@CA?AW4parameter_type@12@U_CRT_DOUBLE@@@Z 0049cfe5 f i libucrt:output.obj
 0001:0009bfe9       ?get_parameter_type@?$positional_parameter_base@DV?$stream_output_adapter@D@__crt_stdio_output@@@__crt_stdio_output@@CA?AW4parameter_type@12@_J@Z 0049cfe9 f i libucrt:output.obj
 0001:0009bfed       ?get_parameter_type@?$positional_parameter_base@DV?$stream_output_adapter@D@__crt_stdio_output@@@__crt_stdio_output@@CA?AW4parameter_type@12@_K@Z 0049cfed f i libucrt:output.obj
 0001:0009bff1       ?get_parameter_type@?$positional_parameter_base@DV?$stream_output_adapter@D@__crt_stdio_output@@@__crt_stdio_output@@CA?AW4parameter_type@12@_W@Z 0049cff1 f i libucrt:output.obj
 0001:0009bff5       ?get_parameter_type@?$positional_parameter_base@DV?$string_output_adapter@D@__crt_stdio_output@@@__crt_stdio_output@@CA?AW4parameter_type@12@F@Z 0049cff5 f i libucrt:output.obj
 0001:0009bff9       ?get_parameter_type@?$positional_parameter_base@DV?$string_output_adapter@D@__crt_stdio_output@@@__crt_stdio_output@@CA?AW4parameter_type@12@G@Z 0049cff9 f i libucrt:output.obj
 0001:0009bffd       ?get_parameter_type@?$positional_parameter_base@DV?$string_output_adapter@D@__crt_stdio_output@@@__crt_stdio_output@@CA?AW4parameter_type@12@H@Z 0049cffd f i libucrt:output.obj
 0001:0009c001       ?get_parameter_type@?$positional_parameter_base@DV?$string_output_adapter@D@__crt_stdio_output@@@__crt_stdio_output@@CA?AW4parameter_type@12@I@Z 0049d001 f i libucrt:output.obj
 0001:0009c005       ?get_parameter_type@?$positional_parameter_base@DV?$string_output_adapter@D@__crt_stdio_output@@@__crt_stdio_output@@CA?AW4parameter_type@12@U_CRT_DOUBLE@@@Z 0049d005 f i libucrt:output.obj
 0001:0009c009       ?get_parameter_type@?$positional_parameter_base@DV?$string_output_adapter@D@__crt_stdio_output@@@__crt_stdio_output@@CA?AW4parameter_type@12@_J@Z 0049d009 f i libucrt:output.obj
 0001:0009c00d       ?get_parameter_type@?$positional_parameter_base@DV?$string_output_adapter@D@__crt_stdio_output@@@__crt_stdio_output@@CA?AW4parameter_type@12@_K@Z 0049d00d f i libucrt:output.obj
 0001:0009c011       ?get_parameter_type@?$positional_parameter_base@DV?$string_output_adapter@D@__crt_stdio_output@@@__crt_stdio_output@@CA?AW4parameter_type@12@_W@Z 0049d011 f i libucrt:output.obj
 0001:0009c015       ?get_parameter_type@?$positional_parameter_base@_WV?$stream_output_adapter@_W@__crt_stdio_output@@@__crt_stdio_output@@CA?AW4parameter_type@12@F@Z 0049d015 f i libucrt:output.obj
 0001:0009c019       ?get_parameter_type@?$positional_parameter_base@_WV?$stream_output_adapter@_W@__crt_stdio_output@@@__crt_stdio_output@@CA?AW4parameter_type@12@G@Z 0049d019 f i libucrt:output.obj
 0001:0009c01d       ?get_parameter_type@?$positional_parameter_base@_WV?$stream_output_adapter@_W@__crt_stdio_output@@@__crt_stdio_output@@CA?AW4parameter_type@12@H@Z 0049d01d f i libucrt:output.obj
 0001:0009c021       ?get_parameter_type@?$positional_parameter_base@_WV?$stream_output_adapter@_W@__crt_stdio_output@@@__crt_stdio_output@@CA?AW4parameter_type@12@I@Z 0049d021 f i libucrt:output.obj
 0001:0009c025       ?get_parameter_type@?$positional_parameter_base@_WV?$stream_output_adapter@_W@__crt_stdio_output@@@__crt_stdio_output@@CA?AW4parameter_type@12@U_CRT_DOUBLE@@@Z 0049d025 f i libucrt:output.obj
 0001:0009c029       ?get_parameter_type@?$positional_parameter_base@_WV?$stream_output_adapter@_W@__crt_stdio_output@@@__crt_stdio_output@@CA?AW4parameter_type@12@_J@Z 0049d029 f i libucrt:output.obj
 0001:0009c02d       ?get_parameter_type@?$positional_parameter_base@_WV?$stream_output_adapter@_W@__crt_stdio_output@@@__crt_stdio_output@@CA?AW4parameter_type@12@_K@Z 0049d02d f i libucrt:output.obj
 0001:0009c031       ?get_parameter_type@?$positional_parameter_base@_WV?$stream_output_adapter@_W@__crt_stdio_output@@@__crt_stdio_output@@CA?AW4parameter_type@12@_W@Z 0049d031 f i libucrt:output.obj
 0001:0009c035       ?get_parameter_type@?$positional_parameter_base@_WV?$string_output_adapter@_W@__crt_stdio_output@@@__crt_stdio_output@@CA?AW4parameter_type@12@F@Z 0049d035 f i libucrt:output.obj
 0001:0009c039       ?get_parameter_type@?$positional_parameter_base@_WV?$string_output_adapter@_W@__crt_stdio_output@@@__crt_stdio_output@@CA?AW4parameter_type@12@G@Z 0049d039 f i libucrt:output.obj
 0001:0009c03d       ?get_parameter_type@?$positional_parameter_base@_WV?$string_output_adapter@_W@__crt_stdio_output@@@__crt_stdio_output@@CA?AW4parameter_type@12@H@Z 0049d03d f i libucrt:output.obj
 0001:0009c041       ?get_parameter_type@?$positional_parameter_base@_WV?$string_output_adapter@_W@__crt_stdio_output@@@__crt_stdio_output@@CA?AW4parameter_type@12@I@Z 0049d041 f i libucrt:output.obj
 0001:0009c045       ?get_parameter_type@?$positional_parameter_base@_WV?$string_output_adapter@_W@__crt_stdio_output@@@__crt_stdio_output@@CA?AW4parameter_type@12@U_CRT_DOUBLE@@@Z 0049d045 f i libucrt:output.obj
 0001:0009c049       ?get_parameter_type@?$positional_parameter_base@_WV?$string_output_adapter@_W@__crt_stdio_output@@@__crt_stdio_output@@CA?AW4parameter_type@12@_J@Z 0049d049 f i libucrt:output.obj
 0001:0009c04d       ?get_parameter_type@?$positional_parameter_base@_WV?$string_output_adapter@_W@__crt_stdio_output@@@__crt_stdio_output@@CA?AW4parameter_type@12@_K@Z 0049d04d f i libucrt:output.obj
 0001:0009c051       ?get_parameter_type@?$positional_parameter_base@_WV?$string_output_adapter@_W@__crt_stdio_output@@@__crt_stdio_output@@CA?AW4parameter_type@12@_W@Z 0049d051 f i libucrt:output.obj
 0001:0009c055       ?has_flag@?$output_processor@DV?$stream_output_adapter@D@__crt_stdio_output@@V?$format_validation_base@DV?$stream_output_adapter@D@__crt_stdio_output@@@2@@__crt_stdio_output@@ABE_NI@Z 0049d055 f i libucrt:output.obj
 0001:0009c067       ?has_flag@?$output_processor@DV?$stream_output_adapter@D@__crt_stdio_output@@V?$positional_parameter_base@DV?$stream_output_adapter@D@__crt_stdio_output@@@2@@__crt_stdio_output@@ABE_NI@Z 0049d067 f i libucrt:output.obj
 0001:0009c079       ?has_flag@?$output_processor@DV?$stream_output_adapter@D@__crt_stdio_output@@V?$standard_base@DV?$stream_output_adapter@D@__crt_stdio_output@@@2@@__crt_stdio_output@@ABE_NI@Z 0049d079 f i libucrt:output.obj
 0001:0009c08b       ?has_flag@?$output_processor@DV?$string_output_adapter@D@__crt_stdio_output@@V?$format_validation_base@DV?$string_output_adapter@D@__crt_stdio_output@@@2@@__crt_stdio_output@@ABE_NI@Z 0049d08b f i libucrt:output.obj
 0001:0009c09d       ?has_flag@?$output_processor@DV?$string_output_adapter@D@__crt_stdio_output@@V?$positional_parameter_base@DV?$string_output_adapter@D@__crt_stdio_output@@@2@@__crt_stdio_output@@ABE_NI@Z 0049d09d f i libucrt:output.obj
 0001:0009c0af       ?has_flag@?$output_processor@DV?$string_output_adapter@D@__crt_stdio_output@@V?$standard_base@DV?$string_output_adapter@D@__crt_stdio_output@@@2@@__crt_stdio_output@@ABE_NI@Z 0049d0af f i libucrt:output.obj
 0001:0009c0c1       ?has_flag@?$output_processor@_WV?$stream_output_adapter@_W@__crt_stdio_output@@V?$format_validation_base@_WV?$stream_output_adapter@_W@__crt_stdio_output@@@2@@__crt_stdio_output@@ABE_NI@Z 0049d0c1 f i libucrt:output.obj
 0001:0009c0d3       ?has_flag@?$output_processor@_WV?$stream_output_adapter@_W@__crt_stdio_output@@V?$positional_parameter_base@_WV?$stream_output_adapter@_W@__crt_stdio_output@@@2@@__crt_stdio_output@@ABE_NI@Z 0049d0d3 f i libucrt:output.obj
 0001:0009c0e5       ?has_flag@?$output_processor@_WV?$stream_output_adapter@_W@__crt_stdio_output@@V?$standard_base@_WV?$stream_output_adapter@_W@__crt_stdio_output@@@2@@__crt_stdio_output@@ABE_NI@Z 0049d0e5 f i libucrt:output.obj
 0001:0009c0f7       ?has_flag@?$output_processor@_WV?$string_output_adapter@_W@__crt_stdio_output@@V?$format_validation_base@_WV?$string_output_adapter@_W@__crt_stdio_output@@@2@@__crt_stdio_output@@ABE_NI@Z 0049d0f7 f i libucrt:output.obj
 0001:0009c109       ?has_flag@?$output_processor@_WV?$string_output_adapter@_W@__crt_stdio_output@@V?$positional_parameter_base@_WV?$string_output_adapter@_W@__crt_stdio_output@@@2@@__crt_stdio_output@@ABE_NI@Z 0049d109 f i libucrt:output.obj
 0001:0009c11b       ?has_flag@?$output_processor@_WV?$string_output_adapter@_W@__crt_stdio_output@@V?$standard_base@_WV?$string_output_adapter@_W@__crt_stdio_output@@@2@@__crt_stdio_output@@ABE_NI@Z 0049d11b f i libucrt:output.obj
 0001:0009c12d       ?is_positional_parameter_reappearance_consistent@?$positional_parameter_base@DV?$stream_output_adapter@D@__crt_stdio_output@@@__crt_stdio_output@@AAE_NABUparameter_data@12@W4parameter_type@12@DW4length_modifier@2@@Z 0049d12d f i libucrt:output.obj
 0001:0009c247       ?is_positional_parameter_reappearance_consistent@?$positional_parameter_base@DV?$string_output_adapter@D@__crt_stdio_output@@@__crt_stdio_output@@AAE_NABUparameter_data@12@W4parameter_type@12@DW4length_modifier@2@@Z 0049d247 f i libucrt:output.obj
 0001:0009c361       ?is_positional_parameter_reappearance_consistent@?$positional_parameter_base@_WV?$stream_output_adapter@_W@__crt_stdio_output@@@__crt_stdio_output@@AAE_NABUparameter_data@12@W4parameter_type@12@_WW4length_modifier@2@@Z 0049d361 f i libucrt:output.obj
 0001:0009c47c       ?is_positional_parameter_reappearance_consistent@?$positional_parameter_base@_WV?$string_output_adapter@_W@__crt_stdio_output@@@__crt_stdio_output@@AAE_NABUparameter_data@12@W4parameter_type@12@_WW4length_modifier@2@@Z 0049d47c f i libucrt:output.obj
 0001:0009c597       ?maximum_signed_value@__crt_strtox@@YAJK@Z 0049d597 f i libucrt:output.obj
 0001:0009c59d       ?minimum_signed_value@__crt_strtox@@YAJK@Z 0049d59d f i libucrt:output.obj
 0001:0009c5a3       ?narrow_null_string@?$output_processor@DV?$stream_output_adapter@D@__crt_stdio_output@@V?$format_validation_base@DV?$stream_output_adapter@D@__crt_stdio_output@@@2@@__crt_stdio_output@@CAPADXZ 0049d5a3 f i libucrt:output.obj
 0001:0009c5a9       ?narrow_null_string@?$output_processor@DV?$stream_output_adapter@D@__crt_stdio_output@@V?$positional_parameter_base@DV?$stream_output_adapter@D@__crt_stdio_output@@@2@@__crt_stdio_output@@CAPADXZ 0049d5a9 f i libucrt:output.obj
 0001:0009c5af       ?narrow_null_string@?$output_processor@DV?$stream_output_adapter@D@__crt_stdio_output@@V?$standard_base@DV?$stream_output_adapter@D@__crt_stdio_output@@@2@@__crt_stdio_output@@CAPADXZ 0049d5af f i libucrt:output.obj
 0001:0009c5b5       ?narrow_null_string@?$output_processor@DV?$string_output_adapter@D@__crt_stdio_output@@V?$format_validation_base@DV?$string_output_adapter@D@__crt_stdio_output@@@2@@__crt_stdio_output@@CAPADXZ 0049d5b5 f i libucrt:output.obj
 0001:0009c5bb       ?narrow_null_string@?$output_processor@DV?$string_output_adapter@D@__crt_stdio_output@@V?$positional_parameter_base@DV?$string_output_adapter@D@__crt_stdio_output@@@2@@__crt_stdio_output@@CAPADXZ 0049d5bb f i libucrt:output.obj
 0001:0009c5c1       ?narrow_null_string@?$output_processor@DV?$string_output_adapter@D@__crt_stdio_output@@V?$standard_base@DV?$string_output_adapter@D@__crt_stdio_output@@@2@@__crt_stdio_output@@CAPADXZ 0049d5c1 f i libucrt:output.obj
 0001:0009c5c7       ?narrow_null_string@?$output_processor@_WV?$stream_output_adapter@_W@__crt_stdio_output@@V?$format_validation_base@_WV?$stream_output_adapter@_W@__crt_stdio_output@@@2@@__crt_stdio_output@@CAPADXZ 0049d5c7 f i libucrt:output.obj
 0001:0009c5cd       ?narrow_null_string@?$output_processor@_WV?$stream_output_adapter@_W@__crt_stdio_output@@V?$positional_parameter_base@_WV?$stream_output_adapter@_W@__crt_stdio_output@@@2@@__crt_stdio_output@@CAPADXZ 0049d5cd f i libucrt:output.obj
 0001:0009c5d3       ?narrow_null_string@?$output_processor@_WV?$stream_output_adapter@_W@__crt_stdio_output@@V?$standard_base@_WV?$stream_output_adapter@_W@__crt_stdio_output@@@2@@__crt_stdio_output@@CAPADXZ 0049d5d3 f i libucrt:output.obj
 0001:0009c5d9       ?narrow_null_string@?$output_processor@_WV?$string_output_adapter@_W@__crt_stdio_output@@V?$format_validation_base@_WV?$string_output_adapter@_W@__crt_stdio_output@@@2@@__crt_stdio_output@@CAPADXZ 0049d5d9 f i libucrt:output.obj
 0001:0009c5df       ?narrow_null_string@?$output_processor@_WV?$string_output_adapter@_W@__crt_stdio_output@@V?$positional_parameter_base@_WV?$string_output_adapter@_W@__crt_stdio_output@@@2@@__crt_stdio_output@@CAPADXZ 0049d5df f i libucrt:output.obj
 0001:0009c5e5       ?narrow_null_string@?$output_processor@_WV?$string_output_adapter@_W@__crt_stdio_output@@V?$standard_base@_WV?$string_output_adapter@_W@__crt_stdio_output@@@2@@__crt_stdio_output@@CAPADXZ 0049d5e5 f i libucrt:output.obj
 0001:0009c5eb       ?parse_digit@__crt_strtox@@YAID@Z 0049d5eb f i libucrt:output.obj
 0001:0009c625       ?parse_digit@__crt_strtox@@YAI_W@Z 0049d625 f i libucrt:output.obj
 0001:0009c7ed       ?parse_int_from_format_string@?$output_processor@DV?$stream_output_adapter@D@__crt_stdio_output@@V?$format_validation_base@DV?$stream_output_adapter@D@__crt_stdio_output@@@2@@__crt_stdio_output@@AAE_NQAH@Z 0049d7ed f i libucrt:output.obj
 0001:0009c865       ?parse_int_from_format_string@?$output_processor@DV?$stream_output_adapter@D@__crt_stdio_output@@V?$positional_parameter_base@DV?$stream_output_adapter@D@__crt_stdio_output@@@2@@__crt_stdio_output@@AAE_NQAH@Z 0049d865 f i libucrt:output.obj
 0001:0009c8dd       ?parse_int_from_format_string@?$output_processor@DV?$stream_output_adapter@D@__crt_stdio_output@@V?$standard_base@DV?$stream_output_adapter@D@__crt_stdio_output@@@2@@__crt_stdio_output@@AAE_NQAH@Z 0049d8dd f i libucrt:output.obj
 0001:0009c955       ?parse_int_from_format_string@?$output_processor@DV?$string_output_adapter@D@__crt_stdio_output@@V?$format_validation_base@DV?$string_output_adapter@D@__crt_stdio_output@@@2@@__crt_stdio_output@@AAE_NQAH@Z 0049d955 f i libucrt:output.obj
 0001:0009c9cd       ?parse_int_from_format_string@?$output_processor@DV?$string_output_adapter@D@__crt_stdio_output@@V?$positional_parameter_base@DV?$string_output_adapter@D@__crt_stdio_output@@@2@@__crt_stdio_output@@AAE_NQAH@Z 0049d9cd f i libucrt:output.obj
 0001:0009ca45       ?parse_int_from_format_string@?$output_processor@DV?$string_output_adapter@D@__crt_stdio_output@@V?$standard_base@DV?$string_output_adapter@D@__crt_stdio_output@@@2@@__crt_stdio_output@@AAE_NQAH@Z 0049da45 f i libucrt:output.obj
 0001:0009cabd       ?parse_int_from_format_string@?$output_processor@_WV?$stream_output_adapter@_W@__crt_stdio_output@@V?$format_validation_base@_WV?$stream_output_adapter@_W@__crt_stdio_output@@@2@@__crt_stdio_output@@AAE_NQAH@Z 0049dabd f i libucrt:output.obj
 0001:0009cb37       ?parse_int_from_format_string@?$output_processor@_WV?$stream_output_adapter@_W@__crt_stdio_output@@V?$positional_parameter_base@_WV?$stream_output_adapter@_W@__crt_stdio_output@@@2@@__crt_stdio_output@@AAE_NQAH@Z 0049db37 f i libucrt:output.obj
 0001:0009cbb1       ?parse_int_from_format_string@?$output_processor@_WV?$stream_output_adapter@_W@__crt_stdio_output@@V?$standard_base@_WV?$stream_output_adapter@_W@__crt_stdio_output@@@2@@__crt_stdio_output@@AAE_NQAH@Z 0049dbb1 f i libucrt:output.obj
 0001:0009cc2b       ?parse_int_from_format_string@?$output_processor@_WV?$string_output_adapter@_W@__crt_stdio_output@@V?$format_validation_base@_WV?$string_output_adapter@_W@__crt_stdio_output@@@2@@__crt_stdio_output@@AAE_NQAH@Z 0049dc2b f i libucrt:output.obj
 0001:0009cca5       ?parse_int_from_format_string@?$output_processor@_WV?$string_output_adapter@_W@__crt_stdio_output@@V?$positional_parameter_base@_WV?$string_output_adapter@_W@__crt_stdio_output@@@2@@__crt_stdio_output@@AAE_NQAH@Z 0049dca5 f i libucrt:output.obj
 0001:0009cd1f       ?parse_int_from_format_string@?$output_processor@_WV?$string_output_adapter@_W@__crt_stdio_output@@V?$standard_base@_WV?$string_output_adapter@_W@__crt_stdio_output@@@2@@__crt_stdio_output@@AAE_NQAH@Z 0049dd1f f i libucrt:output.obj
 0001:0009cd99       ?process@?$output_processor@DV?$stream_output_adapter@D@__crt_stdio_output@@V?$format_validation_base@DV?$stream_output_adapter@D@__crt_stdio_output@@@2@@__crt_stdio_output@@QAEHXZ 0049dd99 f i libucrt:output.obj
 0001:0009d051       ?process@?$output_processor@DV?$stream_output_adapter@D@__crt_stdio_output@@V?$positional_parameter_base@DV?$stream_output_adapter@D@__crt_stdio_output@@@2@@__crt_stdio_output@@QAEHXZ 0049e051 f i libucrt:output.obj
 0001:0009d325       ?process@?$output_processor@DV?$stream_output_adapter@D@__crt_stdio_output@@V?$standard_base@DV?$stream_output_adapter@D@__crt_stdio_output@@@2@@__crt_stdio_output@@QAEHXZ 0049e325 f i libucrt:output.obj
 0001:0009d5d1       ?process@?$output_processor@DV?$string_output_adapter@D@__crt_stdio_output@@V?$format_validation_base@DV?$string_output_adapter@D@__crt_stdio_output@@@2@@__crt_stdio_output@@QAEHXZ 0049e5d1 f i libucrt:output.obj
 0001:0009d8b1       ?process@?$output_processor@DV?$string_output_adapter@D@__crt_stdio_output@@V?$positional_parameter_base@DV?$string_output_adapter@D@__crt_stdio_output@@@2@@__crt_stdio_output@@QAEHXZ 0049e8b1 f i libucrt:output.obj
 0001:0009dbb1       ?process@?$output_processor@DV?$string_output_adapter@D@__crt_stdio_output@@V?$standard_base@DV?$string_output_adapter@D@__crt_stdio_output@@@2@@__crt_stdio_output@@QAEHXZ 0049ebb1 f i libucrt:output.obj
 0001:0009de85       ?process@?$output_processor@_WV?$stream_output_adapter@_W@__crt_stdio_output@@V?$format_validation_base@_WV?$stream_output_adapter@_W@__crt_stdio_output@@@2@@__crt_stdio_output@@QAEHXZ 0049ee85 f i libucrt:output.obj
 0001:0009e0a1       ?process@?$output_processor@_WV?$stream_output_adapter@_W@__crt_stdio_output@@V?$positional_parameter_base@_WV?$stream_output_adapter@_W@__crt_stdio_output@@@2@@__crt_stdio_output@@QAEHXZ 0049f0a1 f i libucrt:output.obj
 0001:0009e2f5       ?process@?$output_processor@_WV?$stream_output_adapter@_W@__crt_stdio_output@@V?$standard_base@_WV?$stream_output_adapter@_W@__crt_stdio_output@@@2@@__crt_stdio_output@@QAEHXZ 0049f2f5 f i libucrt:output.obj
 0001:0009e505       ?process@?$output_processor@_WV?$string_output_adapter@_W@__crt_stdio_output@@V?$format_validation_base@_WV?$string_output_adapter@_W@__crt_stdio_output@@@2@@__crt_stdio_output@@QAEHXZ 0049f505 f i libucrt:output.obj
 0001:0009e755       ?process@?$output_processor@_WV?$string_output_adapter@_W@__crt_stdio_output@@V?$positional_parameter_base@_WV?$string_output_adapter@_W@__crt_stdio_output@@@2@@__crt_stdio_output@@QAEHXZ 0049f755 f i libucrt:output.obj
 0001:0009e9bd       ?process@?$output_processor@_WV?$string_output_adapter@_W@__crt_stdio_output@@V?$standard_base@_WV?$string_output_adapter@_W@__crt_stdio_output@@@2@@__crt_stdio_output@@QAEHXZ 0049f9bd f i libucrt:output.obj
 0001:0009ebfd       ?restore_state@?$c_string_character_source@D@__crt_strtox@@QAE_NQBD@Z 0049fbfd f i libucrt:output.obj
 0001:0009ec0d       ?restore_state@?$c_string_character_source@_W@__crt_strtox@@QAE_NQB_W@Z 0049fc0d f i libucrt:output.obj
 0001:0009ec1d       ?save_state@?$c_string_character_source@D@__crt_strtox@@QBEPBDXZ 0049fc1d f i libucrt:output.obj
 0001:0009ec20       ?save_state@?$c_string_character_source@_W@__crt_strtox@@QBEPB_WXZ 0049fc20 f i libucrt:output.obj
 0001:0009ec23       ?set_flag@?$output_processor@DV?$stream_output_adapter@D@__crt_stdio_output@@V?$format_validation_base@DV?$stream_output_adapter@D@__crt_stdio_output@@@2@@__crt_stdio_output@@AAEXI@Z 0049fc23 f i libucrt:output.obj
 0001:0009ec32       ?set_flag@?$output_processor@DV?$stream_output_adapter@D@__crt_stdio_output@@V?$positional_parameter_base@DV?$stream_output_adapter@D@__crt_stdio_output@@@2@@__crt_stdio_output@@AAEXI@Z 0049fc32 f i libucrt:output.obj
 0001:0009ec41       ?set_flag@?$output_processor@DV?$stream_output_adapter@D@__crt_stdio_output@@V?$standard_base@DV?$stream_output_adapter@D@__crt_stdio_output@@@2@@__crt_stdio_output@@AAEXI@Z 0049fc41 f i libucrt:output.obj
 0001:0009ec50       ?set_flag@?$output_processor@DV?$string_output_adapter@D@__crt_stdio_output@@V?$format_validation_base@DV?$string_output_adapter@D@__crt_stdio_output@@@2@@__crt_stdio_output@@AAEXI@Z 0049fc50 f i libucrt:output.obj
 0001:0009ec5f       ?set_flag@?$output_processor@DV?$string_output_adapter@D@__crt_stdio_output@@V?$positional_parameter_base@DV?$string_output_adapter@D@__crt_stdio_output@@@2@@__crt_stdio_output@@AAEXI@Z 0049fc5f f i libucrt:output.obj
 0001:0009ec6e       ?set_flag@?$output_processor@DV?$string_output_adapter@D@__crt_stdio_output@@V?$standard_base@DV?$string_output_adapter@D@__crt_stdio_output@@@2@@__crt_stdio_output@@AAEXI@Z 0049fc6e f i libucrt:output.obj
 0001:0009ec7d       ?set_flag@?$output_processor@_WV?$stream_output_adapter@_W@__crt_stdio_output@@V?$format_validation_base@_WV?$stream_output_adapter@_W@__crt_stdio_output@@@2@@__crt_stdio_output@@AAEXI@Z 0049fc7d f i libucrt:output.obj
 0001:0009ec8c       ?set_flag@?$output_processor@_WV?$stream_output_adapter@_W@__crt_stdio_output@@V?$positional_parameter_base@_WV?$stream_output_adapter@_W@__crt_stdio_output@@@2@@__crt_stdio_output@@AAEXI@Z 0049fc8c f i libucrt:output.obj
 0001:0009ec9b       ?set_flag@?$output_processor@_WV?$stream_output_adapter@_W@__crt_stdio_output@@V?$standard_base@_WV?$stream_output_adapter@_W@__crt_stdio_output@@@2@@__crt_stdio_output@@AAEXI@Z 0049fc9b f i libucrt:output.obj
 0001:0009ecaa       ?set_flag@?$output_processor@_WV?$string_output_adapter@_W@__crt_stdio_output@@V?$format_validation_base@_WV?$string_output_adapter@_W@__crt_stdio_output@@@2@@__crt_stdio_output@@AAEXI@Z 0049fcaa f i libucrt:output.obj
 0001:0009ecb9       ?set_flag@?$output_processor@_WV?$string_output_adapter@_W@__crt_stdio_output@@V?$positional_parameter_base@_WV?$string_output_adapter@_W@__crt_stdio_output@@@2@@__crt_stdio_output@@AAEXI@Z 0049fcb9 f i libucrt:output.obj
 0001:0009ecc8       ?set_flag@?$output_processor@_WV?$string_output_adapter@_W@__crt_stdio_output@@V?$standard_base@_WV?$string_output_adapter@_W@__crt_stdio_output@@@2@@__crt_stdio_output@@AAEXI@Z 0049fcc8 f i libucrt:output.obj
 0001:0009ecd7       ?should_format@?$positional_parameter_base@DV?$stream_output_adapter@D@__crt_stdio_output@@@__crt_stdio_output@@IAE_NXZ 0049fcd7 f i libucrt:output.obj
 0001:0009eced       ?should_format@?$positional_parameter_base@DV?$string_output_adapter@D@__crt_stdio_output@@@__crt_stdio_output@@IAE_NXZ 0049fced f i libucrt:output.obj
 0001:0009ed03       ?should_format@?$positional_parameter_base@_WV?$stream_output_adapter@_W@__crt_stdio_output@@@__crt_stdio_output@@IAE_NXZ 0049fd03 f i libucrt:output.obj
 0001:0009ed19       ?should_format@?$positional_parameter_base@_WV?$string_output_adapter@_W@__crt_stdio_output@@@__crt_stdio_output@@IAE_NXZ 0049fd19 f i libucrt:output.obj
 0001:0009ed2f       ?should_format@?$standard_base@DV?$stream_output_adapter@D@__crt_stdio_output@@@__crt_stdio_output@@IAE_NXZ 0049fd2f f i libucrt:output.obj
 0001:0009ed32       ?should_format@?$standard_base@DV?$string_output_adapter@D@__crt_stdio_output@@@__crt_stdio_output@@IAE_NXZ 0049fd32 f i libucrt:output.obj
 0001:0009ed35       ?should_format@?$standard_base@_WV?$stream_output_adapter@_W@__crt_stdio_output@@@__crt_stdio_output@@IAE_NXZ 0049fd35 f i libucrt:output.obj
 0001:0009ed38       ?should_format@?$standard_base@_WV?$string_output_adapter@_W@__crt_stdio_output@@@__crt_stdio_output@@IAE_NXZ 0049fd38 f i libucrt:output.obj
 0001:0009ed3b       ?should_skip_normal_state_processing@?$positional_parameter_base@DV?$stream_output_adapter@D@__crt_stdio_output@@@__crt_stdio_output@@IAE_NXZ 0049fd3b f i libucrt:output.obj
 0001:0009ed63       ?should_skip_normal_state_processing@?$positional_parameter_base@DV?$string_output_adapter@D@__crt_stdio_output@@@__crt_stdio_output@@IAE_NXZ 0049fd63 f i libucrt:output.obj
 0001:0009ed8b       ?should_skip_normal_state_processing@?$positional_parameter_base@_WV?$stream_output_adapter@_W@__crt_stdio_output@@@__crt_stdio_output@@IAE_NXZ 0049fd8b f i libucrt:output.obj
 0001:0009edb3       ?should_skip_normal_state_processing@?$positional_parameter_base@_WV?$string_output_adapter@_W@__crt_stdio_output@@@__crt_stdio_output@@IAE_NXZ 0049fdb3 f i libucrt:output.obj
 0001:0009eddb       ?should_skip_normal_state_processing@?$standard_base@DV?$stream_output_adapter@D@__crt_stdio_output@@@__crt_stdio_output@@IAE_NXZ 0049fddb f i libucrt:output.obj
 0001:0009edde       ?should_skip_normal_state_processing@?$standard_base@DV?$string_output_adapter@D@__crt_stdio_output@@@__crt_stdio_output@@IAE_NXZ 0049fdde f i libucrt:output.obj
 0001:0009ede1       ?should_skip_normal_state_processing@?$standard_base@_WV?$stream_output_adapter@_W@__crt_stdio_output@@@__crt_stdio_output@@IAE_NXZ 0049fde1 f i libucrt:output.obj
 0001:0009ede4       ?should_skip_normal_state_processing@?$standard_base@_WV?$string_output_adapter@_W@__crt_stdio_output@@@__crt_stdio_output@@IAE_NXZ 0049fde4 f i libucrt:output.obj
 0001:0009ede7       ?should_skip_type_state_output@?$positional_parameter_base@DV?$stream_output_adapter@D@__crt_stdio_output@@@__crt_stdio_output@@IBE_NXZ 0049fde7 f i libucrt:output.obj
 0001:0009edfe       ?should_skip_type_state_output@?$positional_parameter_base@DV?$string_output_adapter@D@__crt_stdio_output@@@__crt_stdio_output@@IBE_NXZ 0049fdfe f i libucrt:output.obj
 0001:0009ee15       ?should_skip_type_state_output@?$positional_parameter_base@_WV?$stream_output_adapter@_W@__crt_stdio_output@@@__crt_stdio_output@@IBE_NXZ 0049fe15 f i libucrt:output.obj
 0001:0009ee2c       ?should_skip_type_state_output@?$positional_parameter_base@_WV?$string_output_adapter@_W@__crt_stdio_output@@@__crt_stdio_output@@IBE_NXZ 0049fe2c f i libucrt:output.obj
 0001:0009ee43       ?should_skip_type_state_output@?$standard_base@DV?$stream_output_adapter@D@__crt_stdio_output@@@__crt_stdio_output@@IBE_NXZ 0049fe43 f i libucrt:output.obj
 0001:0009ee46       ?should_skip_type_state_output@?$standard_base@DV?$string_output_adapter@D@__crt_stdio_output@@@__crt_stdio_output@@IBE_NXZ 0049fe46 f i libucrt:output.obj
 0001:0009ee49       ?should_skip_type_state_output@?$standard_base@_WV?$stream_output_adapter@_W@__crt_stdio_output@@@__crt_stdio_output@@IBE_NXZ 0049fe49 f i libucrt:output.obj
 0001:0009ee4c       ?should_skip_type_state_output@?$standard_base@_WV?$string_output_adapter@_W@__crt_stdio_output@@@__crt_stdio_output@@IBE_NXZ 0049fe4c f i libucrt:output.obj
 0001:0009ee4f       ?state_case_dot@?$output_processor@DV?$stream_output_adapter@D@__crt_stdio_output@@V?$format_validation_base@DV?$stream_output_adapter@D@__crt_stdio_output@@@2@@__crt_stdio_output@@AAE_NXZ 0049fe4f f i libucrt:output.obj
 0001:0009ee56       ?state_case_dot@?$output_processor@DV?$stream_output_adapter@D@__crt_stdio_output@@V?$positional_parameter_base@DV?$stream_output_adapter@D@__crt_stdio_output@@@2@@__crt_stdio_output@@AAE_NXZ 0049fe56 f i libucrt:output.obj
 0001:0009ee5d       ?state_case_dot@?$output_processor@DV?$stream_output_adapter@D@__crt_stdio_output@@V?$standard_base@DV?$stream_output_adapter@D@__crt_stdio_output@@@2@@__crt_stdio_output@@AAE_NXZ 0049fe5d f i libucrt:output.obj
 0001:0009ee64       ?state_case_dot@?$output_processor@DV?$string_output_adapter@D@__crt_stdio_output@@V?$format_validation_base@DV?$string_output_adapter@D@__crt_stdio_output@@@2@@__crt_stdio_output@@AAE_NXZ 0049fe64 f i libucrt:output.obj
 0001:0009ee6b       ?state_case_dot@?$output_processor@DV?$string_output_adapter@D@__crt_stdio_output@@V?$positional_parameter_base@DV?$string_output_adapter@D@__crt_stdio_output@@@2@@__crt_stdio_output@@AAE_NXZ 0049fe6b f i libucrt:output.obj
 0001:0009ee72       ?state_case_dot@?$output_processor@DV?$string_output_adapter@D@__crt_stdio_output@@V?$standard_base@DV?$string_output_adapter@D@__crt_stdio_output@@@2@@__crt_stdio_output@@AAE_NXZ 0049fe72 f i libucrt:output.obj
 0001:0009ee79       ?state_case_dot@?$output_processor@_WV?$stream_output_adapter@_W@__crt_stdio_output@@V?$format_validation_base@_WV?$stream_output_adapter@_W@__crt_stdio_output@@@2@@__crt_stdio_output@@AAE_NXZ 0049fe79 f i libucrt:output.obj
 0001:0009ee80       ?state_case_dot@?$output_processor@_WV?$stream_output_adapter@_W@__crt_stdio_output@@V?$positional_parameter_base@_WV?$stream_output_adapter@_W@__crt_stdio_output@@@2@@__crt_stdio_output@@AAE_NXZ 0049fe80 f i libucrt:output.obj
 0001:0009ee87       ?state_case_dot@?$output_processor@_WV?$stream_output_adapter@_W@__crt_stdio_output@@V?$standard_base@_WV?$stream_output_adapter@_W@__crt_stdio_output@@@2@@__crt_stdio_output@@AAE_NXZ 0049fe87 f i libucrt:output.obj
 0001:0009ee8e       ?state_case_dot@?$output_processor@_WV?$string_output_adapter@_W@__crt_stdio_output@@V?$format_validation_base@_WV?$string_output_adapter@_W@__crt_stdio_output@@@2@@__crt_stdio_output@@AAE_NXZ 0049fe8e f i libucrt:output.obj
 0001:0009ee95       ?state_case_dot@?$output_processor@_WV?$string_output_adapter@_W@__crt_stdio_output@@V?$positional_parameter_base@_WV?$string_output_adapter@_W@__crt_stdio_output@@@2@@__crt_stdio_output@@AAE_NXZ 0049fe95 f i libucrt:output.obj
 0001:0009ee9c       ?state_case_dot@?$output_processor@_WV?$string_output_adapter@_W@__crt_stdio_output@@V?$standard_base@_WV?$string_output_adapter@_W@__crt_stdio_output@@@2@@__crt_stdio_output@@AAE_NXZ 0049fe9c f i libucrt:output.obj
 0001:0009eea3       ?state_case_flag@?$output_processor@DV?$stream_output_adapter@D@__crt_stdio_output@@V?$format_validation_base@DV?$stream_output_adapter@D@__crt_stdio_output@@@2@@__crt_stdio_output@@AAE_NXZ 0049fea3 f i libucrt:output.obj
 0001:0009eee0       ?state_case_flag@?$output_processor@DV?$stream_output_adapter@D@__crt_stdio_output@@V?$positional_parameter_base@DV?$stream_output_adapter@D@__crt_stdio_output@@@2@@__crt_stdio_output@@AAE_NXZ 0049fee0 f i libucrt:output.obj
 0001:0009ef1d       ?state_case_flag@?$output_processor@DV?$stream_output_adapter@D@__crt_stdio_output@@V?$standard_base@DV?$stream_output_adapter@D@__crt_stdio_output@@@2@@__crt_stdio_output@@AAE_NXZ 0049ff1d f i libucrt:output.obj
 0001:0009ef5a       ?state_case_flag@?$output_processor@DV?$string_output_adapter@D@__crt_stdio_output@@V?$format_validation_base@DV?$string_output_adapter@D@__crt_stdio_output@@@2@@__crt_stdio_output@@AAE_NXZ 0049ff5a f i libucrt:output.obj
 0001:0009ef97       ?state_case_flag@?$output_processor@DV?$string_output_adapter@D@__crt_stdio_output@@V?$positional_parameter_base@DV?$string_output_adapter@D@__crt_stdio_output@@@2@@__crt_stdio_output@@AAE_NXZ 0049ff97 f i libucrt:output.obj
 0001:0009efd4       ?state_case_flag@?$output_processor@DV?$string_output_adapter@D@__crt_stdio_output@@V?$standard_base@DV?$string_output_adapter@D@__crt_stdio_output@@@2@@__crt_stdio_output@@AAE_NXZ 0049ffd4 f i libucrt:output.obj
 0001:0009f011       ?state_case_flag@?$output_processor@_WV?$stream_output_adapter@_W@__crt_stdio_output@@V?$format_validation_base@_WV?$stream_output_adapter@_W@__crt_stdio_output@@@2@@__crt_stdio_output@@AAE_NXZ 004a0011 f i libucrt:output.obj
 0001:0009f04e       ?state_case_flag@?$output_processor@_WV?$stream_output_adapter@_W@__crt_stdio_output@@V?$positional_parameter_base@_WV?$stream_output_adapter@_W@__crt_stdio_output@@@2@@__crt_stdio_output@@AAE_NXZ 004a004e f i libucrt:output.obj
 0001:0009f08b       ?state_case_flag@?$output_processor@_WV?$stream_output_adapter@_W@__crt_stdio_output@@V?$standard_base@_WV?$stream_output_adapter@_W@__crt_stdio_output@@@2@@__crt_stdio_output@@AAE_NXZ 004a008b f i libucrt:output.obj
 0001:0009f0c8       ?state_case_flag@?$output_processor@_WV?$string_output_adapter@_W@__crt_stdio_output@@V?$format_validation_base@_WV?$string_output_adapter@_W@__crt_stdio_output@@@2@@__crt_stdio_output@@AAE_NXZ 004a00c8 f i libucrt:output.obj
 0001:0009f105       ?state_case_flag@?$output_processor@_WV?$string_output_adapter@_W@__crt_stdio_output@@V?$positional_parameter_base@_WV?$string_output_adapter@_W@__crt_stdio_output@@@2@@__crt_stdio_output@@AAE_NXZ 004a0105 f i libucrt:output.obj
 0001:0009f142       ?state_case_flag@?$output_processor@_WV?$string_output_adapter@_W@__crt_stdio_output@@V?$standard_base@_WV?$string_output_adapter@_W@__crt_stdio_output@@@2@@__crt_stdio_output@@AAE_NXZ 004a0142 f i libucrt:output.obj
 0001:0009f17f       ?state_case_normal@?$output_processor@DV?$stream_output_adapter@D@__crt_stdio_output@@V?$format_validation_base@DV?$stream_output_adapter@D@__crt_stdio_output@@@2@@__crt_stdio_output@@AAE_NXZ 004a017f f i libucrt:output.obj
 0001:0009f23f       ?state_case_normal@?$output_processor@DV?$stream_output_adapter@D@__crt_stdio_output@@V?$positional_parameter_base@DV?$stream_output_adapter@D@__crt_stdio_output@@@2@@__crt_stdio_output@@AAE_NXZ 004a023f f i libucrt:output.obj
 0001:0009f30a       ?state_case_normal@?$output_processor@DV?$stream_output_adapter@D@__crt_stdio_output@@V?$standard_base@DV?$stream_output_adapter@D@__crt_stdio_output@@@2@@__crt_stdio_output@@AAE_NXZ 004a030a f i libucrt:output.obj
 0001:0009f3ca       ?state_case_normal@?$output_processor@DV?$string_output_adapter@D@__crt_stdio_output@@V?$format_validation_base@DV?$string_output_adapter@D@__crt_stdio_output@@@2@@__crt_stdio_output@@AAE_NXZ 004a03ca f i libucrt:output.obj
 0001:0009f4c6       ?state_case_normal@?$output_processor@DV?$string_output_adapter@D@__crt_stdio_output@@V?$positional_parameter_base@DV?$string_output_adapter@D@__crt_stdio_output@@@2@@__crt_stdio_output@@AAE_NXZ 004a04c6 f i libucrt:output.obj
 0001:0009f5cd       ?state_case_normal@?$output_processor@DV?$string_output_adapter@D@__crt_stdio_output@@V?$standard_base@DV?$string_output_adapter@D@__crt_stdio_output@@@2@@__crt_stdio_output@@AAE_NXZ 004a05cd f i libucrt:output.obj
 0001:0009f6c9       ?state_case_normal@?$output_processor@_WV?$stream_output_adapter@_W@__crt_stdio_output@@V?$format_validation_base@_WV?$stream_output_adapter@_W@__crt_stdio_output@@@2@@__crt_stdio_output@@AAE_NXZ 004a06c9 f i libucrt:output.obj
 0001:0009f6e7       ?state_case_normal@?$output_processor@_WV?$stream_output_adapter@_W@__crt_stdio_output@@V?$positional_parameter_base@_WV?$stream_output_adapter@_W@__crt_stdio_output@@@2@@__crt_stdio_output@@AAE_NXZ 004a06e7 f i libucrt:output.obj
 0001:0009f714       ?state_case_normal@?$output_processor@_WV?$stream_output_adapter@_W@__crt_stdio_output@@V?$standard_base@_WV?$stream_output_adapter@_W@__crt_stdio_output@@@2@@__crt_stdio_output@@AAE_NXZ 004a0714 f i libucrt:output.obj
 0001:0009f732       ?state_case_normal@?$output_processor@_WV?$string_output_adapter@_W@__crt_stdio_output@@V?$format_validation_base@_WV?$string_output_adapter@_W@__crt_stdio_output@@@2@@__crt_stdio_output@@AAE_NXZ 004a0732 f i libucrt:output.obj
 0001:0009f77a       ?state_case_normal@?$output_processor@_WV?$string_output_adapter@_W@__crt_stdio_output@@V?$positional_parameter_base@_WV?$string_output_adapter@_W@__crt_stdio_output@@@2@@__crt_stdio_output@@AAE_NXZ 004a077a f i libucrt:output.obj
 0001:0009f7cd       ?state_case_normal@?$output_processor@_WV?$string_output_adapter@_W@__crt_stdio_output@@V?$standard_base@_WV?$string_output_adapter@_W@__crt_stdio_output@@@2@@__crt_stdio_output@@AAE_NXZ 004a07cd f i libucrt:output.obj
 0001:0009f815       ?state_case_normal_common@?$output_processor@DV?$stream_output_adapter@D@__crt_stdio_output@@V?$format_validation_base@DV?$stream_output_adapter@D@__crt_stdio_output@@@2@@__crt_stdio_output@@AAE_NXZ 004a0815 f i libucrt:output.obj
 0001:0009f8ac       ?state_case_normal_common@?$output_processor@DV?$stream_output_adapter@D@__crt_stdio_output@@V?$positional_parameter_base@DV?$stream_output_adapter@D@__crt_stdio_output@@@2@@__crt_stdio_output@@AAE_NXZ 004a08ac f i libucrt:output.obj
 0001:0009f943       ?state_case_normal_common@?$output_processor@DV?$stream_output_adapter@D@__crt_stdio_output@@V?$standard_base@DV?$stream_output_adapter@D@__crt_stdio_output@@@2@@__crt_stdio_output@@AAE_NXZ 004a0943 f i libucrt:output.obj
 0001:0009f9da       ?state_case_normal_common@?$output_processor@DV?$string_output_adapter@D@__crt_stdio_output@@V?$format_validation_base@DV?$string_output_adapter@D@__crt_stdio_output@@@2@@__crt_stdio_output@@AAE_NXZ 004a09da f i libucrt:output.obj
 0001:0009faba       ?state_case_normal_common@?$output_processor@DV?$string_output_adapter@D@__crt_stdio_output@@V?$positional_parameter_base@DV?$string_output_adapter@D@__crt_stdio_output@@@2@@__crt_stdio_output@@AAE_NXZ 004a0aba f i libucrt:output.obj
 0001:0009fb9a       ?state_case_normal_common@?$output_processor@DV?$string_output_adapter@D@__crt_stdio_output@@V?$standard_base@DV?$string_output_adapter@D@__crt_stdio_output@@@2@@__crt_stdio_output@@AAE_NXZ 004a0b9a f i libucrt:output.obj
 0001:0009fc7a       ?state_case_normal_common@?$output_processor@_WV?$stream_output_adapter@_W@__crt_stdio_output@@V?$format_validation_base@_WV?$stream_output_adapter@_W@__crt_stdio_output@@@2@@__crt_stdio_output@@AAE_NXZ 004a0c7a f i libucrt:output.obj
 0001:0009fc98       ?state_case_normal_common@?$output_processor@_WV?$stream_output_adapter@_W@__crt_stdio_output@@V?$positional_parameter_base@_WV?$stream_output_adapter@_W@__crt_stdio_output@@@2@@__crt_stdio_output@@AAE_NXZ 004a0c98 f i libucrt:output.obj
 0001:0009fcb6       ?state_case_normal_common@?$output_processor@_WV?$stream_output_adapter@_W@__crt_stdio_output@@V?$standard_base@_WV?$stream_output_adapter@_W@__crt_stdio_output@@@2@@__crt_stdio_output@@AAE_NXZ 004a0cb6 f i libucrt:output.obj
 0001:0009fcd4       ?state_case_normal_common@?$output_processor@_WV?$string_output_adapter@_W@__crt_stdio_output@@V?$format_validation_base@_WV?$string_output_adapter@_W@__crt_stdio_output@@@2@@__crt_stdio_output@@AAE_NXZ 004a0cd4 f i libucrt:output.obj
 0001:0009fd1c       ?state_case_normal_common@?$output_processor@_WV?$string_output_adapter@_W@__crt_stdio_output@@V?$positional_parameter_base@_WV?$string_output_adapter@_W@__crt_stdio_output@@@2@@__crt_stdio_output@@AAE_NXZ 004a0d1c f i libucrt:output.obj
 0001:0009fd64       ?state_case_normal_common@?$output_processor@_WV?$string_output_adapter@_W@__crt_stdio_output@@V?$standard_base@_WV?$string_output_adapter@_W@__crt_stdio_output@@@2@@__crt_stdio_output@@AAE_NXZ 004a0d64 f i libucrt:output.obj
 0001:0009fdac       ?state_case_normal_tchar@?$output_processor@DV?$stream_output_adapter@D@__crt_stdio_output@@V?$format_validation_base@DV?$stream_output_adapter@D@__crt_stdio_output@@@2@@__crt_stdio_output@@AAE_ND@Z 004a0dac f i libucrt:output.obj
 0001:0009fe33       ?state_case_normal_tchar@?$output_processor@DV?$stream_output_adapter@D@__crt_stdio_output@@V?$positional_parameter_base@DV?$stream_output_adapter@D@__crt_stdio_output@@@2@@__crt_stdio_output@@AAE_ND@Z 004a0e33 f i libucrt:output.obj
 0001:0009feba       ?state_case_normal_tchar@?$output_processor@DV?$stream_output_adapter@D@__crt_stdio_output@@V?$standard_base@DV?$stream_output_adapter@D@__crt_stdio_output@@@2@@__crt_stdio_output@@AAE_ND@Z 004a0eba f i libucrt:output.obj
 0001:0009ff41       ?state_case_normal_tchar@?$output_processor@DV?$string_output_adapter@D@__crt_stdio_output@@V?$format_validation_base@DV?$string_output_adapter@D@__crt_stdio_output@@@2@@__crt_stdio_output@@AAE_ND@Z 004a0f41 f i libucrt:output.obj
 0001:0009ffec       ?state_case_normal_tchar@?$output_processor@DV?$string_output_adapter@D@__crt_stdio_output@@V?$positional_parameter_base@DV?$string_output_adapter@D@__crt_stdio_output@@@2@@__crt_stdio_output@@AAE_ND@Z 004a0fec f i libucrt:output.obj
 0001:000a0097       ?state_case_normal_tchar@?$output_processor@DV?$string_output_adapter@D@__crt_stdio_output@@V?$standard_base@DV?$string_output_adapter@D@__crt_stdio_output@@@2@@__crt_stdio_output@@AAE_ND@Z 004a1097 f i libucrt:output.obj
 0001:000a0142       ?state_case_normal_tchar@?$output_processor@_WV?$stream_output_adapter@_W@__crt_stdio_output@@V?$format_validation_base@_WV?$stream_output_adapter@_W@__crt_stdio_output@@@2@@__crt_stdio_output@@AAE_N_W@Z 004a1142 f i libucrt:output.obj
 0001:000a014b       ?state_case_normal_tchar@?$output_processor@_WV?$stream_output_adapter@_W@__crt_stdio_output@@V?$positional_parameter_base@_WV?$stream_output_adapter@_W@__crt_stdio_output@@@2@@__crt_stdio_output@@AAE_N_W@Z 004a114b f i libucrt:output.obj
 0001:000a0154       ?state_case_normal_tchar@?$output_processor@_WV?$stream_output_adapter@_W@__crt_stdio_output@@V?$standard_base@_WV?$stream_output_adapter@_W@__crt_stdio_output@@@2@@__crt_stdio_output@@AAE_N_W@Z 004a1154 f i libucrt:output.obj
 0001:000a015d       ?state_case_normal_tchar@?$output_processor@_WV?$string_output_adapter@_W@__crt_stdio_output@@V?$format_validation_base@_WV?$string_output_adapter@_W@__crt_stdio_output@@@2@@__crt_stdio_output@@AAE_N_W@Z 004a115d f i libucrt:output.obj
 0001:000a0166       ?state_case_normal_tchar@?$output_processor@_WV?$string_output_adapter@_W@__crt_stdio_output@@V?$positional_parameter_base@_WV?$string_output_adapter@_W@__crt_stdio_output@@@2@@__crt_stdio_output@@AAE_N_W@Z 004a1166 f i libucrt:output.obj
 0001:000a016f       ?state_case_normal_tchar@?$output_processor@_WV?$string_output_adapter@_W@__crt_stdio_output@@V?$standard_base@_WV?$string_output_adapter@_W@__crt_stdio_output@@@2@@__crt_stdio_output@@AAE_N_W@Z 004a116f f i libucrt:output.obj
 0001:000a0178       ?state_case_percent@?$output_processor@DV?$stream_output_adapter@D@__crt_stdio_output@@V?$format_validation_base@DV?$stream_output_adapter@D@__crt_stdio_output@@@2@@__crt_stdio_output@@AAE_NXZ 004a1178 f i libucrt:output.obj
 0001:000a0190       ?state_case_percent@?$output_processor@DV?$stream_output_adapter@D@__crt_stdio_output@@V?$positional_parameter_base@DV?$stream_output_adapter@D@__crt_stdio_output@@@2@@__crt_stdio_output@@AAE_NXZ 004a1190 f i libucrt:output.obj
 0001:000a01a8       ?state_case_percent@?$output_processor@DV?$stream_output_adapter@D@__crt_stdio_output@@V?$standard_base@DV?$stream_output_adapter@D@__crt_stdio_output@@@2@@__crt_stdio_output@@AAE_NXZ 004a11a8 f i libucrt:output.obj
 0001:000a01c0       ?state_case_percent@?$output_processor@DV?$string_output_adapter@D@__crt_stdio_output@@V?$format_validation_base@DV?$string_output_adapter@D@__crt_stdio_output@@@2@@__crt_stdio_output@@AAE_NXZ 004a11c0 f i libucrt:output.obj
 0001:000a01d8       ?state_case_percent@?$output_processor@DV?$string_output_adapter@D@__crt_stdio_output@@V?$positional_parameter_base@DV?$string_output_adapter@D@__crt_stdio_output@@@2@@__crt_stdio_output@@AAE_NXZ 004a11d8 f i libucrt:output.obj
 0001:000a01f0       ?state_case_percent@?$output_processor@DV?$string_output_adapter@D@__crt_stdio_output@@V?$standard_base@DV?$string_output_adapter@D@__crt_stdio_output@@@2@@__crt_stdio_output@@AAE_NXZ 004a11f0 f i libucrt:output.obj
 0001:000a0208       ?state_case_percent@?$output_processor@_WV?$stream_output_adapter@_W@__crt_stdio_output@@V?$format_validation_base@_WV?$stream_output_adapter@_W@__crt_stdio_output@@@2@@__crt_stdio_output@@AAE_NXZ 004a1208 f i libucrt:output.obj
 0001:000a0220       ?state_case_percent@?$output_processor@_WV?$stream_output_adapter@_W@__crt_stdio_output@@V?$positional_parameter_base@_WV?$stream_output_adapter@_W@__crt_stdio_output@@@2@@__crt_stdio_output@@AAE_NXZ 004a1220 f i libucrt:output.obj
 0001:000a0238       ?state_case_percent@?$output_processor@_WV?$stream_output_adapter@_W@__crt_stdio_output@@V?$standard_base@_WV?$stream_output_adapter@_W@__crt_stdio_output@@@2@@__crt_stdio_output@@AAE_NXZ 004a1238 f i libucrt:output.obj
 0001:000a0250       ?state_case_percent@?$output_processor@_WV?$string_output_adapter@_W@__crt_stdio_output@@V?$format_validation_base@_WV?$string_output_adapter@_W@__crt_stdio_output@@@2@@__crt_stdio_output@@AAE_NXZ 004a1250 f i libucrt:output.obj
 0001:000a0268       ?state_case_percent@?$output_processor@_WV?$string_output_adapter@_W@__crt_stdio_output@@V?$positional_parameter_base@_WV?$string_output_adapter@_W@__crt_stdio_output@@@2@@__crt_stdio_output@@AAE_NXZ 004a1268 f i libucrt:output.obj
 0001:000a0280       ?state_case_percent@?$output_processor@_WV?$string_output_adapter@_W@__crt_stdio_output@@V?$standard_base@_WV?$string_output_adapter@_W@__crt_stdio_output@@@2@@__crt_stdio_output@@AAE_NXZ 004a1280 f i libucrt:output.obj
 0001:000a0298       ?state_case_precision@?$output_processor@DV?$stream_output_adapter@D@__crt_stdio_output@@V?$format_validation_base@DV?$stream_output_adapter@D@__crt_stdio_output@@@2@@__crt_stdio_output@@AAE_NXZ 004a1298 f i libucrt:output.obj
 0001:000a02be       ?state_case_precision@?$output_processor@DV?$stream_output_adapter@D@__crt_stdio_output@@V?$positional_parameter_base@DV?$stream_output_adapter@D@__crt_stdio_output@@@2@@__crt_stdio_output@@AAE_NXZ 004a12be f i libucrt:output.obj
 0001:000a02f8       ?state_case_precision@?$output_processor@DV?$stream_output_adapter@D@__crt_stdio_output@@V?$standard_base@DV?$stream_output_adapter@D@__crt_stdio_output@@@2@@__crt_stdio_output@@AAE_NXZ 004a12f8 f i libucrt:output.obj
 0001:000a031e       ?state_case_precision@?$output_processor@DV?$string_output_adapter@D@__crt_stdio_output@@V?$format_validation_base@DV?$string_output_adapter@D@__crt_stdio_output@@@2@@__crt_stdio_output@@AAE_NXZ 004a131e f i libucrt:output.obj
 0001:000a0344       ?state_case_precision@?$output_processor@DV?$string_output_adapter@D@__crt_stdio_output@@V?$positional_parameter_base@DV?$string_output_adapter@D@__crt_stdio_output@@@2@@__crt_stdio_output@@AAE_NXZ 004a1344 f i libucrt:output.obj
 0001:000a037e       ?state_case_precision@?$output_processor@DV?$string_output_adapter@D@__crt_stdio_output@@V?$standard_base@DV?$string_output_adapter@D@__crt_stdio_output@@@2@@__crt_stdio_output@@AAE_NXZ 004a137e f i libucrt:output.obj
 0001:000a03a4       ?state_case_precision@?$output_processor@_WV?$stream_output_adapter@_W@__crt_stdio_output@@V?$format_validation_base@_WV?$stream_output_adapter@_W@__crt_stdio_output@@@2@@__crt_stdio_output@@AAE_NXZ 004a13a4 f i libucrt:output.obj
 0001:000a03cb       ?state_case_precision@?$output_processor@_WV?$stream_output_adapter@_W@__crt_stdio_output@@V?$positional_parameter_base@_WV?$stream_output_adapter@_W@__crt_stdio_output@@@2@@__crt_stdio_output@@AAE_NXZ 004a13cb f i libucrt:output.obj
 0001:000a0406       ?state_case_precision@?$output_processor@_WV?$stream_output_adapter@_W@__crt_stdio_output@@V?$standard_base@_WV?$stream_output_adapter@_W@__crt_stdio_output@@@2@@__crt_stdio_output@@AAE_NXZ 004a1406 f i libucrt:output.obj
 0001:000a042d       ?state_case_precision@?$output_processor@_WV?$string_output_adapter@_W@__crt_stdio_output@@V?$format_validation_base@_WV?$string_output_adapter@_W@__crt_stdio_output@@@2@@__crt_stdio_output@@AAE_NXZ 004a142d f i libucrt:output.obj
 0001:000a0454       ?state_case_precision@?$output_processor@_WV?$string_output_adapter@_W@__crt_stdio_output@@V?$positional_parameter_base@_WV?$string_output_adapter@_W@__crt_stdio_output@@@2@@__crt_stdio_output@@AAE_NXZ 004a1454 f i libucrt:output.obj
 0001:000a048f       ?state_case_precision@?$output_processor@_WV?$string_output_adapter@_W@__crt_stdio_output@@V?$standard_base@_WV?$string_output_adapter@_W@__crt_stdio_output@@@2@@__crt_stdio_output@@AAE_NXZ 004a148f f i libucrt:output.obj
 0001:000a04b6       ?state_case_size@?$output_processor@DV?$stream_output_adapter@D@__crt_stdio_output@@V?$format_validation_base@DV?$stream_output_adapter@D@__crt_stdio_output@@@2@@__crt_stdio_output@@AAE_NXZ 004a14b6 f i libucrt:output.obj
 0001:000a0614       ?state_case_size@?$output_processor@DV?$stream_output_adapter@D@__crt_stdio_output@@V?$positional_parameter_base@DV?$stream_output_adapter@D@__crt_stdio_output@@@2@@__crt_stdio_output@@AAE_NXZ 004a1614 f i libucrt:output.obj
 0001:000a0772       ?state_case_size@?$output_processor@DV?$stream_output_adapter@D@__crt_stdio_output@@V?$standard_base@DV?$stream_output_adapter@D@__crt_stdio_output@@@2@@__crt_stdio_output@@AAE_NXZ 004a1772 f i libucrt:output.obj
 0001:000a08d0       ?state_case_size@?$output_processor@DV?$string_output_adapter@D@__crt_stdio_output@@V?$format_validation_base@DV?$string_output_adapter@D@__crt_stdio_output@@@2@@__crt_stdio_output@@AAE_NXZ 004a18d0 f i libucrt:output.obj
 0001:000a0a2e       ?state_case_size@?$output_processor@DV?$string_output_adapter@D@__crt_stdio_output@@V?$positional_parameter_base@DV?$string_output_adapter@D@__crt_stdio_output@@@2@@__crt_stdio_output@@AAE_NXZ 004a1a2e f i libucrt:output.obj
 0001:000a0b8c       ?state_case_size@?$output_processor@DV?$string_output_adapter@D@__crt_stdio_output@@V?$standard_base@DV?$string_output_adapter@D@__crt_stdio_output@@@2@@__crt_stdio_output@@AAE_NXZ 004a1b8c f i libucrt:output.obj
 0001:000a0cea       ?state_case_size@?$output_processor@_WV?$stream_output_adapter@_W@__crt_stdio_output@@V?$format_validation_base@_WV?$stream_output_adapter@_W@__crt_stdio_output@@@2@@__crt_stdio_output@@AAE_NXZ 004a1cea f i libucrt:output.obj
 0001:000a0e78       ?state_case_size@?$output_processor@_WV?$stream_output_adapter@_W@__crt_stdio_output@@V?$positional_parameter_base@_WV?$stream_output_adapter@_W@__crt_stdio_output@@@2@@__crt_stdio_output@@AAE_NXZ 004a1e78 f i libucrt:output.obj
 0001:000a1006       ?state_case_size@?$output_processor@_WV?$stream_output_adapter@_W@__crt_stdio_output@@V?$standard_base@_WV?$stream_output_adapter@_W@__crt_stdio_output@@@2@@__crt_stdio_output@@AAE_NXZ 004a2006 f i libucrt:output.obj
 0001:000a1194       ?state_case_size@?$output_processor@_WV?$string_output_adapter@_W@__crt_stdio_output@@V?$format_validation_base@_WV?$string_output_adapter@_W@__crt_stdio_output@@@2@@__crt_stdio_output@@AAE_NXZ 004a2194 f i libucrt:output.obj
 0001:000a1322       ?state_case_size@?$output_processor@_WV?$string_output_adapter@_W@__crt_stdio_output@@V?$positional_parameter_base@_WV?$string_output_adapter@_W@__crt_stdio_output@@@2@@__crt_stdio_output@@AAE_NXZ 004a2322 f i libucrt:output.obj
 0001:000a14b0       ?state_case_size@?$output_processor@_WV?$string_output_adapter@_W@__crt_stdio_output@@V?$standard_base@_WV?$string_output_adapter@_W@__crt_stdio_output@@@2@@__crt_stdio_output@@AAE_NXZ 004a24b0 f i libucrt:output.obj
 0001:000a163e       ?state_case_type@?$output_processor@DV?$stream_output_adapter@D@__crt_stdio_output@@V?$format_validation_base@DV?$stream_output_adapter@D@__crt_stdio_output@@@2@@__crt_stdio_output@@AAE_NXZ 004a263e f i libucrt:output.obj
 0001:000a1986       ?state_case_type@?$output_processor@DV?$stream_output_adapter@D@__crt_stdio_output@@V?$positional_parameter_base@DV?$stream_output_adapter@D@__crt_stdio_output@@@2@@__crt_stdio_output@@AAE_NXZ 004a2986 f i libucrt:output.obj
 0001:000a1cdd       ?state_case_type@?$output_processor@DV?$stream_output_adapter@D@__crt_stdio_output@@V?$standard_base@DV?$stream_output_adapter@D@__crt_stdio_output@@@2@@__crt_stdio_output@@AAE_NXZ 004a2cdd f i libucrt:output.obj
 0001:000a2025       ?state_case_type@?$output_processor@DV?$string_output_adapter@D@__crt_stdio_output@@V?$format_validation_base@DV?$string_output_adapter@D@__crt_stdio_output@@@2@@__crt_stdio_output@@AAE_NXZ 004a3025 f i libucrt:output.obj
 0001:000a23b3       ?state_case_type@?$output_processor@DV?$string_output_adapter@D@__crt_stdio_output@@V?$positional_parameter_base@DV?$string_output_adapter@D@__crt_stdio_output@@@2@@__crt_stdio_output@@AAE_NXZ 004a33b3 f i libucrt:output.obj
 0001:000a2750       ?state_case_type@?$output_processor@DV?$string_output_adapter@D@__crt_stdio_output@@V?$standard_base@DV?$string_output_adapter@D@__crt_stdio_output@@@2@@__crt_stdio_output@@AAE_NXZ 004a3750 f i libucrt:output.obj
 0001:000a2ade       ?state_case_type@?$output_processor@_WV?$stream_output_adapter@_W@__crt_stdio_output@@V?$format_validation_base@_WV?$stream_output_adapter@_W@__crt_stdio_output@@@2@@__crt_stdio_output@@AAE_NXZ 004a3ade f i libucrt:output.obj
 0001:000a2e43       ?state_case_type@?$output_processor@_WV?$stream_output_adapter@_W@__crt_stdio_output@@V?$positional_parameter_base@_WV?$stream_output_adapter@_W@__crt_stdio_output@@@2@@__crt_stdio_output@@AAE_NXZ 004a3e43 f i libucrt:output.obj
 0001:000a31b7       ?state_case_type@?$output_processor@_WV?$stream_output_adapter@_W@__crt_stdio_output@@V?$standard_base@_WV?$stream_output_adapter@_W@__crt_stdio_output@@@2@@__crt_stdio_output@@AAE_NXZ 004a41b7 f i libucrt:output.obj
 0001:000a351c       ?state_case_type@?$output_processor@_WV?$string_output_adapter@_W@__crt_stdio_output@@V?$format_validation_base@_WV?$string_output_adapter@_W@__crt_stdio_output@@@2@@__crt_stdio_output@@AAE_NXZ 004a451c f i libucrt:output.obj
 0001:000a393d       ?state_case_type@?$output_processor@_WV?$string_output_adapter@_W@__crt_stdio_output@@V?$positional_parameter_base@_WV?$string_output_adapter@_W@__crt_stdio_output@@@2@@__crt_stdio_output@@AAE_NXZ 004a493d f i libucrt:output.obj
 0001:000a3d6d       ?state_case_type@?$output_processor@_WV?$string_output_adapter@_W@__crt_stdio_output@@V?$standard_base@_WV?$string_output_adapter@_W@__crt_stdio_output@@@2@@__crt_stdio_output@@AAE_NXZ 004a4d6d f i libucrt:output.obj
 0001:000a418e       ?state_case_width@?$output_processor@DV?$stream_output_adapter@D@__crt_stdio_output@@V?$format_validation_base@DV?$stream_output_adapter@D@__crt_stdio_output@@@2@@__crt_stdio_output@@AAE_NXZ 004a518e f i libucrt:output.obj
 0001:000a41b9       ?state_case_width@?$output_processor@DV?$stream_output_adapter@D@__crt_stdio_output@@V?$positional_parameter_base@DV?$stream_output_adapter@D@__crt_stdio_output@@@2@@__crt_stdio_output@@AAE_NXZ 004a51b9 f i libucrt:output.obj
 0001:000a41f9       ?state_case_width@?$output_processor@DV?$stream_output_adapter@D@__crt_stdio_output@@V?$standard_base@DV?$stream_output_adapter@D@__crt_stdio_output@@@2@@__crt_stdio_output@@AAE_NXZ 004a51f9 f i libucrt:output.obj
 0001:000a4224       ?state_case_width@?$output_processor@DV?$string_output_adapter@D@__crt_stdio_output@@V?$format_validation_base@DV?$string_output_adapter@D@__crt_stdio_output@@@2@@__crt_stdio_output@@AAE_NXZ 004a5224 f i libucrt:output.obj
 0001:000a424f       ?state_case_width@?$output_processor@DV?$string_output_adapter@D@__crt_stdio_output@@V?$positional_parameter_base@DV?$string_output_adapter@D@__crt_stdio_output@@@2@@__crt_stdio_output@@AAE_NXZ 004a524f f i libucrt:output.obj
 0001:000a428f       ?state_case_width@?$output_processor@DV?$string_output_adapter@D@__crt_stdio_output@@V?$standard_base@DV?$string_output_adapter@D@__crt_stdio_output@@@2@@__crt_stdio_output@@AAE_NXZ 004a528f f i libucrt:output.obj
 0001:000a42ba       ?state_case_width@?$output_processor@_WV?$stream_output_adapter@_W@__crt_stdio_output@@V?$format_validation_base@_WV?$stream_output_adapter@_W@__crt_stdio_output@@@2@@__crt_stdio_output@@AAE_NXZ 004a52ba f i libucrt:output.obj
 0001:000a42e6       ?state_case_width@?$output_processor@_WV?$stream_output_adapter@_W@__crt_stdio_output@@V?$positional_parameter_base@_WV?$stream_output_adapter@_W@__crt_stdio_output@@@2@@__crt_stdio_output@@AAE_NXZ 004a52e6 f i libucrt:output.obj
 0001:000a4327       ?state_case_width@?$output_processor@_WV?$stream_output_adapter@_W@__crt_stdio_output@@V?$standard_base@_WV?$stream_output_adapter@_W@__crt_stdio_output@@@2@@__crt_stdio_output@@AAE_NXZ 004a5327 f i libucrt:output.obj
 0001:000a4353       ?state_case_width@?$output_processor@_WV?$string_output_adapter@_W@__crt_stdio_output@@V?$format_validation_base@_WV?$string_output_adapter@_W@__crt_stdio_output@@@2@@__crt_stdio_output@@AAE_NXZ 004a5353 f i libucrt:output.obj
 0001:000a437f       ?state_case_width@?$output_processor@_WV?$string_output_adapter@_W@__crt_stdio_output@@V?$positional_parameter_base@_WV?$string_output_adapter@_W@__crt_stdio_output@@@2@@__crt_stdio_output@@AAE_NXZ 004a537f f i libucrt:output.obj
 0001:000a43c0       ?state_case_width@?$output_processor@_WV?$string_output_adapter@_W@__crt_stdio_output@@V?$standard_base@_WV?$string_output_adapter@_W@__crt_stdio_output@@@2@@__crt_stdio_output@@AAE_NXZ 004a53c0 f i libucrt:output.obj
 0001:000a43ec       ?state_count@?$format_validation_base@DV?$stream_output_adapter@D@__crt_stdio_output@@@__crt_stdio_output@@KAIXZ 004a53ec f i libucrt:output.obj
 0001:000a43f0       ?state_count@?$format_validation_base@DV?$string_output_adapter@D@__crt_stdio_output@@@__crt_stdio_output@@KAIXZ 004a53f0 f i libucrt:output.obj
 0001:000a43f4       ?state_count@?$format_validation_base@_WV?$stream_output_adapter@_W@__crt_stdio_output@@@__crt_stdio_output@@KAIXZ 004a53f4 f i libucrt:output.obj
 0001:000a43f8       ?state_count@?$format_validation_base@_WV?$string_output_adapter@_W@__crt_stdio_output@@@__crt_stdio_output@@KAIXZ 004a53f8 f i libucrt:output.obj
 0001:000a43fc       ?state_count@?$standard_base@DV?$stream_output_adapter@D@__crt_stdio_output@@@__crt_stdio_output@@KAIXZ 004a53fc f i libucrt:output.obj
 0001:000a4400       ?state_count@?$standard_base@DV?$string_output_adapter@D@__crt_stdio_output@@@__crt_stdio_output@@KAIXZ 004a5400 f i libucrt:output.obj
 0001:000a4404       ?state_count@?$standard_base@_WV?$stream_output_adapter@_W@__crt_stdio_output@@@__crt_stdio_output@@KAIXZ 004a5404 f i libucrt:output.obj
 0001:000a4408       ?state_count@?$standard_base@_WV?$string_output_adapter@_W@__crt_stdio_output@@@__crt_stdio_output@@KAIXZ 004a5408 f i libucrt:output.obj
 0001:000a440c       ?state_transition_table@?$format_validation_base@DV?$stream_output_adapter@D@__crt_stdio_output@@@__crt_stdio_output@@KAABV?$spectre_mitigated_lookup_table@Ustate_transition_pair@__crt_stdio_output@@$0IA@@2@XZ 004a540c f i libucrt:output.obj
 0001:000a4412       ?state_transition_table@?$format_validation_base@DV?$string_output_adapter@D@__crt_stdio_output@@@__crt_stdio_output@@KAABV?$spectre_mitigated_lookup_table@Ustate_transition_pair@__crt_stdio_output@@$0IA@@2@XZ 004a5412 f i libucrt:output.obj
 0001:000a4418       ?state_transition_table@?$format_validation_base@_WV?$stream_output_adapter@_W@__crt_stdio_output@@@__crt_stdio_output@@KAABV?$spectre_mitigated_lookup_table@Ustate_transition_pair@__crt_stdio_output@@$0IA@@2@XZ 004a5418 f i libucrt:output.obj
 0001:000a441e       ?state_transition_table@?$format_validation_base@_WV?$string_output_adapter@_W@__crt_stdio_output@@@__crt_stdio_output@@KAABV?$spectre_mitigated_lookup_table@Ustate_transition_pair@__crt_stdio_output@@$0IA@@2@XZ 004a541e f i libucrt:output.obj
 0001:000a4424       ?state_transition_table@?$standard_base@DV?$stream_output_adapter@D@__crt_stdio_output@@@__crt_stdio_output@@KAABV?$spectre_mitigated_lookup_table@Ustate_transition_pair@__crt_stdio_output@@$0IA@@2@XZ 004a5424 f i libucrt:output.obj
 0001:000a442a       ?state_transition_table@?$standard_base@DV?$string_output_adapter@D@__crt_stdio_output@@@__crt_stdio_output@@KAABV?$spectre_mitigated_lookup_table@Ustate_transition_pair@__crt_stdio_output@@$0IA@@2@XZ 004a542a f i libucrt:output.obj
 0001:000a4430       ?state_transition_table@?$standard_base@_WV?$stream_output_adapter@_W@__crt_stdio_output@@@__crt_stdio_output@@KAABV?$spectre_mitigated_lookup_table@Ustate_transition_pair@__crt_stdio_output@@$0IA@@2@XZ 004a5430 f i libucrt:output.obj
 0001:000a4436       ?state_transition_table@?$standard_base@_WV?$string_output_adapter@_W@__crt_stdio_output@@@__crt_stdio_output@@KAABV?$spectre_mitigated_lookup_table@Ustate_transition_pair@__crt_stdio_output@@$0IA@@2@XZ 004a5436 f i libucrt:output.obj
 0001:000a443c       ?tchar_string@?$common_data@D@__crt_stdio_output@@IAEAAPADD@Z 004a543c f i libucrt:output.obj
 0001:000a4442       ?tchar_string@?$common_data@D@__crt_stdio_output@@IAEAAPADXZ 004a5442 f i libucrt:output.obj
 0001:000a4446       ?tchar_string@?$common_data@_W@__crt_stdio_output@@IAEAAPA_WXZ 004a5446 f i libucrt:output.obj
 0001:000a444a       ?tchar_string@?$common_data@_W@__crt_stdio_output@@IAEAAPA_W_W@Z 004a544a f i libucrt:output.obj
 0001:000a4450       ?to_integer_size@__crt_stdio_output@@YAIW4length_modifier@1@@Z 004a5450 f i libucrt:output.obj
 0001:000a44a4       ?type_case_X@?$output_processor@DV?$stream_output_adapter@D@__crt_stdio_output@@V?$format_validation_base@DV?$stream_output_adapter@D@__crt_stdio_output@@@2@@__crt_stdio_output@@AAE_NXZ 004a54a4 f i libucrt:output.obj
 0001:000a44ac       ?type_case_X@?$output_processor@DV?$stream_output_adapter@D@__crt_stdio_output@@V?$positional_parameter_base@DV?$stream_output_adapter@D@__crt_stdio_output@@@2@@__crt_stdio_output@@AAE_NXZ 004a54ac f i libucrt:output.obj
 0001:000a44b4       ?type_case_X@?$output_processor@DV?$stream_output_adapter@D@__crt_stdio_output@@V?$standard_base@DV?$stream_output_adapter@D@__crt_stdio_output@@@2@@__crt_stdio_output@@AAE_NXZ 004a54b4 f i libucrt:output.obj
 0001:000a44bc       ?type_case_X@?$output_processor@DV?$string_output_adapter@D@__crt_stdio_output@@V?$format_validation_base@DV?$string_output_adapter@D@__crt_stdio_output@@@2@@__crt_stdio_output@@AAE_NXZ 004a54bc f i libucrt:output.obj
 0001:000a44c4       ?type_case_X@?$output_processor@DV?$string_output_adapter@D@__crt_stdio_output@@V?$positional_parameter_base@DV?$string_output_adapter@D@__crt_stdio_output@@@2@@__crt_stdio_output@@AAE_NXZ 004a54c4 f i libucrt:output.obj
 0001:000a44cc       ?type_case_X@?$output_processor@DV?$string_output_adapter@D@__crt_stdio_output@@V?$standard_base@DV?$string_output_adapter@D@__crt_stdio_output@@@2@@__crt_stdio_output@@AAE_NXZ 004a54cc f i libucrt:output.obj
 0001:000a44d4       ?type_case_X@?$output_processor@_WV?$stream_output_adapter@_W@__crt_stdio_output@@V?$format_validation_base@_WV?$stream_output_adapter@_W@__crt_stdio_output@@@2@@__crt_stdio_output@@AAE_NXZ 004a54d4 f i libucrt:output.obj
 0001:000a44dc       ?type_case_X@?$output_processor@_WV?$stream_output_adapter@_W@__crt_stdio_output@@V?$positional_parameter_base@_WV?$stream_output_adapter@_W@__crt_stdio_output@@@2@@__crt_stdio_output@@AAE_NXZ 004a54dc f i libucrt:output.obj
 0001:000a44e4       ?type_case_X@?$output_processor@_WV?$stream_output_adapter@_W@__crt_stdio_output@@V?$standard_base@_WV?$stream_output_adapter@_W@__crt_stdio_output@@@2@@__crt_stdio_output@@AAE_NXZ 004a54e4 f i libucrt:output.obj
 0001:000a44ec       ?type_case_X@?$output_processor@_WV?$string_output_adapter@_W@__crt_stdio_output@@V?$format_validation_base@_WV?$string_output_adapter@_W@__crt_stdio_output@@@2@@__crt_stdio_output@@AAE_NXZ 004a54ec f i libucrt:output.obj
 0001:000a44f4       ?type_case_X@?$output_processor@_WV?$string_output_adapter@_W@__crt_stdio_output@@V?$positional_parameter_base@_WV?$string_output_adapter@_W@__crt_stdio_output@@@2@@__crt_stdio_output@@AAE_NXZ 004a54f4 f i libucrt:output.obj
 0001:000a44fc       ?type_case_X@?$output_processor@_WV?$string_output_adapter@_W@__crt_stdio_output@@V?$standard_base@_WV?$string_output_adapter@_W@__crt_stdio_output@@@2@@__crt_stdio_output@@AAE_NXZ 004a54fc f i libucrt:output.obj
 0001:000a4504       ?type_case_Z@?$output_processor@DV?$stream_output_adapter@D@__crt_stdio_output@@V?$format_validation_base@DV?$stream_output_adapter@D@__crt_stdio_output@@@2@@__crt_stdio_output@@AAE_NXZ 004a5504 f i libucrt:output.obj
 0001:000a455e       ?type_case_Z@?$output_processor@DV?$stream_output_adapter@D@__crt_stdio_output@@V?$positional_parameter_base@DV?$stream_output_adapter@D@__crt_stdio_output@@@2@@__crt_stdio_output@@AAE_NXZ 004a555e f i libucrt:output.obj
 0001:000a45d2       ?type_case_Z@?$output_processor@DV?$stream_output_adapter@D@__crt_stdio_output@@V?$standard_base@DV?$stream_output_adapter@D@__crt_stdio_output@@@2@@__crt_stdio_output@@AAE_NXZ 004a55d2 f i libucrt:output.obj
 0001:000a462c       ?type_case_Z@?$output_processor@DV?$string_output_adapter@D@__crt_stdio_output@@V?$format_validation_base@DV?$string_output_adapter@D@__crt_stdio_output@@@2@@__crt_stdio_output@@AAE_NXZ 004a562c f i libucrt:output.obj
 0001:000a4686       ?type_case_Z@?$output_processor@DV?$string_output_adapter@D@__crt_stdio_output@@V?$positional_parameter_base@DV?$string_output_adapter@D@__crt_stdio_output@@@2@@__crt_stdio_output@@AAE_NXZ 004a5686 f i libucrt:output.obj
 0001:000a46fa       ?type_case_Z@?$output_processor@DV?$string_output_adapter@D@__crt_stdio_output@@V?$standard_base@DV?$string_output_adapter@D@__crt_stdio_output@@@2@@__crt_stdio_output@@AAE_NXZ 004a56fa f i libucrt:output.obj
 0001:000a4754       ?type_case_Z@?$output_processor@_WV?$stream_output_adapter@_W@__crt_stdio_output@@V?$format_validation_base@_WV?$stream_output_adapter@_W@__crt_stdio_output@@@2@@__crt_stdio_output@@AAE_NXZ 004a5754 f i libucrt:output.obj
 0001:000a47ae       ?type_case_Z@?$output_processor@_WV?$stream_output_adapter@_W@__crt_stdio_output@@V?$positional_parameter_base@_WV?$stream_output_adapter@_W@__crt_stdio_output@@@2@@__crt_stdio_output@@AAE_NXZ 004a57ae f i libucrt:output.obj
 0001:000a4822       ?type_case_Z@?$output_processor@_WV?$stream_output_adapter@_W@__crt_stdio_output@@V?$standard_base@_WV?$stream_output_adapter@_W@__crt_stdio_output@@@2@@__crt_stdio_output@@AAE_NXZ 004a5822 f i libucrt:output.obj
 0001:000a487c       ?type_case_Z@?$output_processor@_WV?$string_output_adapter@_W@__crt_stdio_output@@V?$format_validation_base@_WV?$string_output_adapter@_W@__crt_stdio_output@@@2@@__crt_stdio_output@@AAE_NXZ 004a587c f i libucrt:output.obj
 0001:000a48d6       ?type_case_Z@?$output_processor@_WV?$string_output_adapter@_W@__crt_stdio_output@@V?$positional_parameter_base@_WV?$string_output_adapter@_W@__crt_stdio_output@@@2@@__crt_stdio_output@@AAE_NXZ 004a58d6 f i libucrt:output.obj
 0001:000a494a       ?type_case_Z@?$output_processor@_WV?$string_output_adapter@_W@__crt_stdio_output@@V?$standard_base@_WV?$string_output_adapter@_W@__crt_stdio_output@@@2@@__crt_stdio_output@@AAE_NXZ 004a594a f i libucrt:output.obj
 0001:000a49a4       ?type_case_a@?$output_processor@DV?$stream_output_adapter@D@__crt_stdio_output@@V?$format_validation_base@DV?$stream_output_adapter@D@__crt_stdio_output@@@2@@__crt_stdio_output@@AAE_NXZ 004a59a4 f i libucrt:output.obj
 0001:000a4b2e       ?type_case_a@?$output_processor@DV?$stream_output_adapter@D@__crt_stdio_output@@V?$positional_parameter_base@DV?$stream_output_adapter@D@__crt_stdio_output@@@2@@__crt_stdio_output@@AAE_NXZ 004a5b2e f i libucrt:output.obj
 0001:000a4cd9       ?type_case_a@?$output_processor@DV?$stream_output_adapter@D@__crt_stdio_output@@V?$standard_base@DV?$stream_output_adapter@D@__crt_stdio_output@@@2@@__crt_stdio_output@@AAE_NXZ 004a5cd9 f i libucrt:output.obj
 0001:000a4e63       ?type_case_a@?$output_processor@DV?$string_output_adapter@D@__crt_stdio_output@@V?$format_validation_base@DV?$string_output_adapter@D@__crt_stdio_output@@@2@@__crt_stdio_output@@AAE_NXZ 004a5e63 f i libucrt:output.obj
 0001:000a4fed       ?type_case_a@?$output_processor@DV?$string_output_adapter@D@__crt_stdio_output@@V?$positional_parameter_base@DV?$string_output_adapter@D@__crt_stdio_output@@@2@@__crt_stdio_output@@AAE_NXZ 004a5fed f i libucrt:output.obj
 0001:000a5198       ?type_case_a@?$output_processor@DV?$string_output_adapter@D@__crt_stdio_output@@V?$standard_base@DV?$string_output_adapter@D@__crt_stdio_output@@@2@@__crt_stdio_output@@AAE_NXZ 004a6198 f i libucrt:output.obj
 0001:000a5322       ?type_case_a@?$output_processor@_WV?$stream_output_adapter@_W@__crt_stdio_output@@V?$format_validation_base@_WV?$stream_output_adapter@_W@__crt_stdio_output@@@2@@__crt_stdio_output@@AAE_NXZ 004a6322 f i libucrt:output.obj
 0001:000a54c2       ?type_case_a@?$output_processor@_WV?$stream_output_adapter@_W@__crt_stdio_output@@V?$positional_parameter_base@_WV?$stream_output_adapter@_W@__crt_stdio_output@@@2@@__crt_stdio_output@@AAE_NXZ 004a64c2 f i libucrt:output.obj
 0001:000a5683       ?type_case_a@?$output_processor@_WV?$stream_output_adapter@_W@__crt_stdio_output@@V?$standard_base@_WV?$stream_output_adapter@_W@__crt_stdio_output@@@2@@__crt_stdio_output@@AAE_NXZ 004a6683 f i libucrt:output.obj
 0001:000a5823       ?type_case_a@?$output_processor@_WV?$string_output_adapter@_W@__crt_stdio_output@@V?$format_validation_base@_WV?$string_output_adapter@_W@__crt_stdio_output@@@2@@__crt_stdio_output@@AAE_NXZ 004a6823 f i libucrt:output.obj
 0001:000a59c3       ?type_case_a@?$output_processor@_WV?$string_output_adapter@_W@__crt_stdio_output@@V?$positional_parameter_base@_WV?$string_output_adapter@_W@__crt_stdio_output@@@2@@__crt_stdio_output@@AAE_NXZ 004a69c3 f i libucrt:output.obj
 0001:000a5b84       ?type_case_a@?$output_processor@_WV?$string_output_adapter@_W@__crt_stdio_output@@V?$standard_base@_WV?$string_output_adapter@_W@__crt_stdio_output@@@2@@__crt_stdio_output@@AAE_NXZ 004a6b84 f i libucrt:output.obj
 0001:000a5d24       ?type_case_c@?$output_processor@DV?$stream_output_adapter@D@__crt_stdio_output@@V?$format_validation_base@DV?$stream_output_adapter@D@__crt_stdio_output@@@2@@__crt_stdio_output@@AAE_NXZ 004a6d24 f i libucrt:output.obj
 0001:000a5d2c       ?type_case_c@?$output_processor@DV?$stream_output_adapter@D@__crt_stdio_output@@V?$positional_parameter_base@DV?$stream_output_adapter@D@__crt_stdio_output@@@2@@__crt_stdio_output@@AAE_NXZ 004a6d2c f i libucrt:output.obj
 0001:000a5d34       ?type_case_c@?$output_processor@DV?$stream_output_adapter@D@__crt_stdio_output@@V?$standard_base@DV?$stream_output_adapter@D@__crt_stdio_output@@@2@@__crt_stdio_output@@AAE_NXZ 004a6d34 f i libucrt:output.obj
 0001:000a5d3c       ?type_case_c@?$output_processor@DV?$string_output_adapter@D@__crt_stdio_output@@V?$format_validation_base@DV?$string_output_adapter@D@__crt_stdio_output@@@2@@__crt_stdio_output@@AAE_NXZ 004a6d3c f i libucrt:output.obj
 0001:000a5d44       ?type_case_c@?$output_processor@DV?$string_output_adapter@D@__crt_stdio_output@@V?$positional_parameter_base@DV?$string_output_adapter@D@__crt_stdio_output@@@2@@__crt_stdio_output@@AAE_NXZ 004a6d44 f i libucrt:output.obj
 0001:000a5d4c       ?type_case_c@?$output_processor@DV?$string_output_adapter@D@__crt_stdio_output@@V?$standard_base@DV?$string_output_adapter@D@__crt_stdio_output@@@2@@__crt_stdio_output@@AAE_NXZ 004a6d4c f i libucrt:output.obj
 0001:000a5d54       ?type_case_c@?$output_processor@_WV?$stream_output_adapter@_W@__crt_stdio_output@@V?$format_validation_base@_WV?$stream_output_adapter@_W@__crt_stdio_output@@@2@@__crt_stdio_output@@AAE_NXZ 004a6d54 f i libucrt:output.obj
 0001:000a5d5c       ?type_case_c@?$output_processor@_WV?$stream_output_adapter@_W@__crt_stdio_output@@V?$positional_parameter_base@_WV?$stream_output_adapter@_W@__crt_stdio_output@@@2@@__crt_stdio_output@@AAE_NXZ 004a6d5c f i libucrt:output.obj
 0001:000a5d64       ?type_case_c@?$output_processor@_WV?$stream_output_adapter@_W@__crt_stdio_output@@V?$standard_base@_WV?$stream_output_adapter@_W@__crt_stdio_output@@@2@@__crt_stdio_output@@AAE_NXZ 004a6d64 f i libucrt:output.obj
 0001:000a5d6c       ?type_case_c@?$output_processor@_WV?$string_output_adapter@_W@__crt_stdio_output@@V?$format_validation_base@_WV?$string_output_adapter@_W@__crt_stdio_output@@@2@@__crt_stdio_output@@AAE_NXZ 004a6d6c f i libucrt:output.obj
 0001:000a5d74       ?type_case_c@?$output_processor@_WV?$string_output_adapter@_W@__crt_stdio_output@@V?$positional_parameter_base@_WV?$string_output_adapter@_W@__crt_stdio_output@@@2@@__crt_stdio_output@@AAE_NXZ 004a6d74 f i libucrt:output.obj
 0001:000a5d7c       ?type_case_c@?$output_processor@_WV?$string_output_adapter@_W@__crt_stdio_output@@V?$standard_base@_WV?$string_output_adapter@_W@__crt_stdio_output@@@2@@__crt_stdio_output@@AAE_NXZ 004a6d7c f i libucrt:output.obj
 0001:000a5d84       ?type_case_c_tchar@?$output_processor@DV?$stream_output_adapter@D@__crt_stdio_output@@V?$format_validation_base@DV?$stream_output_adapter@D@__crt_stdio_output@@@2@@__crt_stdio_output@@AAE_ND@Z 004a6d84 f i libucrt:output.obj
 0001:000a5e19       ?type_case_c_tchar@?$output_processor@DV?$stream_output_adapter@D@__crt_stdio_output@@V?$positional_parameter_base@DV?$stream_output_adapter@D@__crt_stdio_output@@@2@@__crt_stdio_output@@AAE_ND@Z 004a6e19 f i libucrt:output.obj
 0001:000a5eda       ?type_case_c_tchar@?$output_processor@DV?$stream_output_adapter@D@__crt_stdio_output@@V?$standard_base@DV?$stream_output_adapter@D@__crt_stdio_output@@@2@@__crt_stdio_output@@AAE_ND@Z 004a6eda f i libucrt:output.obj
 0001:000a5f6f       ?type_case_c_tchar@?$output_processor@DV?$string_output_adapter@D@__crt_stdio_output@@V?$format_validation_base@DV?$string_output_adapter@D@__crt_stdio_output@@@2@@__crt_stdio_output@@AAE_ND@Z 004a6f6f f i libucrt:output.obj
 0001:000a6004       ?type_case_c_tchar@?$output_processor@DV?$string_output_adapter@D@__crt_stdio_output@@V?$positional_parameter_base@DV?$string_output_adapter@D@__crt_stdio_output@@@2@@__crt_stdio_output@@AAE_ND@Z 004a7004 f i libucrt:output.obj
 0001:000a60c5       ?type_case_c_tchar@?$output_processor@DV?$string_output_adapter@D@__crt_stdio_output@@V?$standard_base@DV?$string_output_adapter@D@__crt_stdio_output@@@2@@__crt_stdio_output@@AAE_ND@Z 004a70c5 f i libucrt:output.obj
 0001:000a615a       ?type_case_c_tchar@?$output_processor@_WV?$stream_output_adapter@_W@__crt_stdio_output@@V?$format_validation_base@_WV?$stream_output_adapter@_W@__crt_stdio_output@@@2@@__crt_stdio_output@@AAE_N_W@Z 004a715a f i libucrt:output.obj
