 vvis

 Timestamp is 6492dbee (Wed Jun 21 04:15:58 2023)

 Preferred load address is 10000000

 Start         Length     Name                   Class
 0001:00000000 0001a100H .text                   CODE
 0001:0001a100 000004b0H .text$di                CODE
 0001:0001a5b0 000ab490H .text$mn                CODE
 0001:000c5a40 00000970H .text$x                 CODE
 0001:000c63b0 00000350H .text$yc                CODE
 0001:000c6700 00000b7aH .text$yd                CODE
 0002:00000000 0000031cH .idata$5                DATA
 0002:0000031c 0000000cH .00cfg                  DATA
 0002:00000328 00000004H .CRT$XCA                DATA
 0002:0000032c 00000104H .CRT$XCU                DATA
 0002:00000430 00000004H .CRT$XCZ                DATA
 0002:00000434 00000004H .CRT$XIA                DATA
 0002:00000438 0000001cH .CRT$XIC                DATA
 0002:00000454 00000004H .CRT$XIZ                DATA
 0002:00000458 00000004H .CRT$XLA                DATA
 0002:0000045c 00000004H .CRT$XLZ                DATA
 0002:00000460 00000004H .CRT$XPA                DATA
 0002:00000464 0000000cH .CRT$XPX                DATA
 0002:00000470 00000004H .CRT$XPXA               DATA
 0002:00000474 00000004H .CRT$XPZ                DATA
 0002:00000478 00000004H .CRT$XTA                DATA
 0002:0000047c 00000004H .CRT$XTZ                DATA
 0002:00000480 00000000H .gfids$y                DATA
 0002:00000480 00015bc0H .rdata                  DATA
 0002:00016040 00000040H .rdata$CastGuardVftablesA DATA
 0002:00016080 00000040H .rdata$CastGuardVftablesC DATA
 0002:000160c0 00000018H .rdata$T                DATA
 0002:000160d8 00000d0cH .rdata$r                DATA
 0002:00016de4 0000014cH .rdata$voltmd           DATA
 0002:00016f30 0000042cH .rdata$zzzdbg           DATA
 0002:0001735c 00000004H .rtc$IAA                DATA
 0002:00017360 00000000H .rtc$IMZ                DATA
 0002:00017360 00000004H .rtc$IZZ                DATA
 0002:00017364 00000004H .rtc$TAA                DATA
 0002:00017368 00000000H .rtc$TMZ                DATA
 0002:00017368 00000004H .rtc$TZZ                DATA
 0002:0001736c 00000004H .tls                    DATA
 0002:00017370 00000004H .tls$                   DATA
 0002:00017374 00000004H .tls$ZZZ                DATA
 0002:00017378 00001878H .xdata$x                DATA
 0002:00018bf0 0000004cH .edata                  DATA
 0002:00018c3c 00000078H .idata$2                DATA
 0002:00018cb4 00000014H .idata$3                DATA
 0002:00018cc8 0000031cH .idata$4                DATA
 0002:00018fe4 00000da2H .idata$6                DATA
 0003:00000000 00002720H .data                   DATA
 0003:00002720 00000080H .data$r                 DATA
 0003:000027a0 00000548H .data$rs                DATA
 0003:00002ce8 040db30cH .bss                    DATA
 0004:00000000 00000060H .rsrc$01                DATA
 0004:00000060 00000180H .rsrc$02                DATA

  Address         Publics by Value              Rva+Base       Lib:Object

 0000:00000000       ___AbsoluteZero            00000000     <absolute>
 0000:00000000       ___arm64x_extra_rfe_table  00000000     <absolute>
 0000:00000000       ___arm64x_extra_rfe_table_size 00000000     <absolute>
 0000:00000000       ___arm64x_native_entrypoint 00000000     <absolute>
 0000:00000000       ___arm64x_redirection_metadata 00000000     <absolute>
 0000:00000000       ___arm64x_redirection_metadata_count 00000000     <absolute>
 0000:00000000       ___dynamic_value_reloc_table 00000000     <absolute>
 0000:00000000       ___enclave_config          00000000     <absolute>
 0000:00000000       ___guard_check_icall_a64n_fptr 00000000     <absolute>
 0000:00000000       ___guard_eh_cont_count     00000000     <absolute>
 0000:00000000       ___guard_eh_cont_table     00000000     <absolute>
 0000:00000000       ___guard_fids_count        00000000     <absolute>
 0000:00000000       ___guard_fids_table        00000000     <absolute>
 0000:00000000       ___guard_iat_count         00000000     <absolute>
 0000:00000000       ___guard_iat_table         00000000     <absolute>
 0000:00000000       ___guard_longjmp_count     00000000     <absolute>
 0000:00000000       ___guard_longjmp_table     00000000     <absolute>
 0000:00000000       ___hybrid_auxiliary_iat    00000000     <absolute>
 0000:00000000       ___hybrid_auxiliary_iat_copy 00000000     <absolute>
 0000:00000000       ___hybrid_code_map         00000000     <absolute>
 0000:00000000       ___hybrid_code_map_count   00000000     <absolute>
 0000:00000000       ___safe_se_handler_count   00000000     <absolute>
 0000:00000000       ___safe_se_handler_table   00000000     <absolute>
 0000:00000000       ___x64_code_ranges_to_entry_points 00000000     <absolute>
 0000:00000000       ___x64_code_ranges_to_entry_points_count 00000000     <absolute>
 0000:00000000       __except_list              00000000     <absolute>
 0000:0000002c       __tls_array                0000002c     <absolute>
 0000:00000100       ___guard_flags             00000100     <absolute>
 0000:00000000       ___ImageBase               10000000     <linker-defined>
 0001:00000000       ?FileSystem_Init_Normal@@YA_NPBDW4FSInitType_t@@_N@Z 10001000 f   vmpi:filesystem_tools.obj
 0001:00000270       ?FileSystem_Init@@YA_NPBDHW4FSInitType_t@@_N@Z 10001270 f   vmpi:filesystem_tools.obj
 0001:00000340       ?FileSystem_Term@@YAXXZ    10001340 f   vmpi:filesystem_tools.obj
 0001:000003a0       ?FileSystem_GetFactory@@YAP6APAXPBDPAH@ZXZ 100013a0 f   vmpi:filesystem_tools.obj
 0001:000003c0       ?FileSystem_SetGame@@YA_NPBD@Z 100013c0 f   vmpi:filesystem_tools.obj
 0001:00000430       ?GetSocket@CVMPIConnection@@QAEPAVIThreadedTCPSocket@@XZ 10001430 f i vmpi:vmpi.obj
 0001:00000440       ?HasMachineNameBeenSet@CVMPIConnection@@QAE_NXZ 10001440 f i vmpi:vmpi.obj
 0001:00000450       ?VMPI_FindArg@@YAPBDHPAPADPBD1@Z 10001450 f   vmpi:vmpi.obj
 0001:000004a0       ?ParseOptions@@YAXHPAPAD@Z 100014a0 f   vmpi:vmpi.obj
 0001:00000550       ?SetupDependencyFilename@@YAXPAVCDependencyInfo@@@Z 10001550 f   vmpi:vmpi.obj
 0001:00000610       ?ReadString@@YA_NPADHPAU_iobuf@@@Z 10001610 f   vmpi:vmpi.obj
 0001:00000660       ?UnixTimeToFileTime@@YAXJPAU_FILETIME@@@Z 10001660 f   vmpi:vmpi.obj
 0001:00000690       ?CopyFileAndSetDate@@YAXPAVCDependencyInfo@@PAVCDependencyFile@1@@Z 10001690 f   vmpi:vmpi.obj
 0001:000007c0       ??2@YAPAXIPAX@Z            100017c0 f i vmpi:vmpi.obj
 0001:000007d0       ?UpdateActiveConnectionsText@@YAXH@Z 100017d0 f   vmpi:vmpi.obj
 0001:00000830       ??0IHandlerCreator@@QAE@XZ 10001830 f i vmpi:vmpi.obj
 0001:00000840       ??0CCycleCount@@QAE@XZ     10001840 f i vmpi:vmpi.obj
 0001:00000850       ?Sample@CCycleCount@@QAEXXZ 10001850 f i vmpi:vmpi.obj
 0001:00000860       ?GetMicroseconds@CCycleCount@@QBEKXZ 10001860 f i vmpi:vmpi.obj
 0001:00000890       ?Term@CMasterBroadcaster@@QAEXXZ 10001890 f   vmpi:vmpi.obj
 0001:00000900       ?GetListenPort@CMasterBroadcaster@@QBEHXZ 10001900 f   vmpi:vmpi.obj
 0001:00000910       ??0CDispatchReg@@QAE@HP6A_NPAVMessageBuffer@@HH@Z@Z 10001910 f   vmpi:vmpi.obj
 0001:00000930       ?InitMasterLocalMode@@YA_NHPAPADH@Z 10001930 f   vmpi:vmpi.obj
 0001:00000ac0       ?abs@@YAJJ@Z               10001ac0 f i vmpi:vmpi.obj
 0001:00000ad0       ?VMPI_GetRunMode@@YA?AW4VMPIRunMode@@XZ 10001ad0 f   vmpi:vmpi.obj
 0001:00000ae0       ?VMPI_GetCurrentNumberOfConnections@@YAHXZ 10001ae0 f   vmpi:vmpi.obj
 0001:00000af0       ?VMPI_InternalDispatch@@YA_NPAVMessageBuffer@@H@Z 10001af0 f   vmpi:vmpi.obj
 0001:00000b40       ?GetConnection@@YAPAVCVMPIConnection@@H@Z 10001b40 f   vmpi:vmpi.obj
 0001:00000b50       ?VMPI_IsProcConnected@@YA_NH@Z 10001b50 f   vmpi:vmpi.obj
 0001:00000b80       ?VMPI_Sleep@@YAXK@Z        10001b80 f   vmpi:vmpi.obj
 0001:00000b90       ?VMPI_HasMachineNameBeenSet@@YA_NH@Z 10001b90 f   vmpi:vmpi.obj
 0001:00000bb0       ?VMPI_GetLocalMachineName@@YAPBDXZ 10001bb0 f   vmpi:vmpi.obj
 0001:00000be0       ?VMPI_GetJobWorkerID@@YAKH@Z 10001be0 f   vmpi:vmpi.obj
 0001:00000bf0       ?VMPI_SetJobWorkerID@@YAXHK@Z 10001bf0 f   vmpi:vmpi.obj
 0001:00000c10       ?VMPI_GetCurrentStage@@YAXPADH@Z 10001c10 f   vmpi:vmpi.obj
 0001:00000c50       ?VMPI_SetCurrentStage@@YAXPBD@Z 10001c50 f   vmpi:vmpi.obj
 0001:00000c90       ?UtlMemory_CalcNewAllocationCount@@YAHHHHH@Z 10001c90 f i vmpi:vmpi.obj
 0001:00000cd0       ?V_memmove@@YAXPAXPBXH@Z   10001cd0 f i vmpi:vmpi.obj
 0001:00000ce0       ?BitByte@@YAHH@Z           10001ce0 f i vmpi:vmpi.obj
 0001:00000cf0       ?GetBasePointer@bf_write@@QBEPAEXZ 10001cf0 f i vmpi:vmpi.obj
 0001:00000d00       ?GetNumBytesWritten@bf_write@@QAEHXZ 10001d00 f i vmpi:vmpi.obj
 0001:00000d10       ?InvalidIndex@?$CUtlLinkedList@PAV?$CUtlVector@DV?$CUtlMemory@D@@@@G@@SAGXZ 10001d10 f i vmpi:vmpi.obj
 0001:00000d20       ?InvalidIndex@?$CUtlLinkedList@PAVCTCPPacket@@H@@SAHXZ 10001d20 f i vmpi:vmpi.obj
 0001:00000d30       ?InvalidIndex@?$CUtlLinkedList@PAVCVMPIConnection@@H@@SAHXZ 10001d30 f i vmpi:vmpi.obj
 0001:00000d40       ?InvalidIndex@?$CUtlLinkedList@P6AXHPBD@ZH@@SAHXZ 10001d40 f i vmpi:vmpi.obj
 0001:00000d50       ?GetData@CTCPPacket@@QBEPBDXZ 10001d50 f i vmpi:vmpi.obj
 0001:00000d60       ?GetLen@CTCPPacket@@QBEHXZ 10001d60 f i vmpi:vmpi.obj
 0001:00000d70       ?Head@?$CUtlLinkedList@PAV?$CUtlVector@DV?$CUtlMemory@D@@@@G@@QBEGXZ 10001d70 f i vmpi:vmpi.obj
 0001:00000d80       ?Count@?$CUtlLinkedList@PAVCTCPPacket@@H@@QBEHXZ 10001d80 f i vmpi:vmpi.obj
 0001:00000d90       ?Head@?$CUtlLinkedList@PAVCTCPPacket@@H@@QBEHXZ 10001d90 f i vmpi:vmpi.obj
 0001:00000da0       ?Count@?$CUtlLinkedList@PAVCVMPIConnection@@H@@QBEHXZ 10001da0 f i vmpi:vmpi.obj
 0001:00000db0       ?Head@?$CUtlLinkedList@PAVCVMPIConnection@@H@@QBEHXZ 10001db0 f i vmpi:vmpi.obj
 0001:00000dc0       ?Head@?$CUtlLinkedList@P6AXHPBD@ZH@@QBEHXZ 10001dc0 f i vmpi:vmpi.obj
 0001:00000dd0       ?Count@?$CUtlVector@PAVCDependencyFile@CDependencyInfo@@V?$CUtlMemory@PAVCDependencyFile@CDependencyInfo@@@@@@QBEHXZ 10001dd0 f i vmpi:vmpi.obj
 0001:00000de0       ?Base@?$CUtlMemory@D@@QAEPADXZ 10001de0 f i vmpi:vmpi.obj
 0001:00000df0       ?Count@?$CUtlVector@DV?$CUtlMemory@D@@@@QBEHXZ 10001df0 f i vmpi:vmpi.obj
 0001:00000e00       ??$clamp@H@@YAHABH00@Z     10001e00 f i vmpi:vmpi.obj
 0001:00000e20       ?Count@?$CUtlVector@PAVCVMPIConnection@@V?$CUtlMemory@PAVCVMPIConnection@@@@@@QBEHXZ 10001e20 f i vmpi:vmpi.obj
 0001:00000e30       ?ConstructList@?$CUtlLinkedList@PAV?$CUtlVector@DV?$CUtlMemory@D@@@@G@@IAEXXZ 10001e30 f i vmpi:vmpi.obj
 0001:00000e50       ??A?$CUtlMemory@UListElem_t@?$CUtlLinkedList@PAV?$CUtlVector@DV?$CUtlMemory@D@@@@G@@@@QBEABUListElem_t@?$CUtlLinkedList@PAV?$CUtlVector@DV?$CUtlMemory@D@@@@G@@H@Z 10001e50 f i vmpi:vmpi.obj
 0001:00000e60       ??A?$CUtlMemory@UListElem_t@?$CUtlLinkedList@PAV?$CUtlVector@DV?$CUtlMemory@D@@@@G@@@@QAEAAUListElem_t@?$CUtlLinkedList@PAV?$CUtlVector@DV?$CUtlMemory@D@@@@G@@H@Z 10001e60 f i vmpi:vmpi.obj
 0001:00000e70       ?Base@?$CUtlMemory@UListElem_t@?$CUtlLinkedList@PAV?$CUtlVector@DV?$CUtlMemory@D@@@@G@@@@QAEPAUListElem_t@?$CUtlLinkedList@PAV?$CUtlVector@DV?$CUtlMemory@D@@@@G@@XZ 10001e70 f i vmpi:vmpi.obj
 0001:00000e80       ?ConstructList@?$CUtlLinkedList@PAVCTCPPacket@@H@@IAEXXZ 10001e80 f i vmpi:vmpi.obj
 0001:00000ea0       ??A?$CUtlMemory@UListElem_t@?$CUtlLinkedList@PAVCTCPPacket@@H@@@@QBEABUListElem_t@?$CUtlLinkedList@PAVCTCPPacket@@H@@H@Z 10001ea0 f i vmpi:vmpi.obj
 0001:00000eb0       ??A?$CUtlMemory@UListElem_t@?$CUtlLinkedList@PAVCTCPPacket@@H@@@@QAEAAUListElem_t@?$CUtlLinkedList@PAVCTCPPacket@@H@@H@Z 10001eb0 f i vmpi:vmpi.obj
 0001:00000ec0       ?Base@?$CUtlMemory@UListElem_t@?$CUtlLinkedList@PAVCTCPPacket@@H@@@@QAEPAUListElem_t@?$CUtlLinkedList@PAVCTCPPacket@@H@@XZ 10001ec0 f i vmpi:vmpi.obj
 0001:00000ed0       ?ConstructList@?$CUtlLinkedList@PAVCVMPIConnection@@H@@IAEXXZ 10001ed0 f i vmpi:vmpi.obj
 0001:00000ef0       ??A?$CUtlMemory@UListElem_t@?$CUtlLinkedList@PAVCVMPIConnection@@H@@@@QBEABUListElem_t@?$CUtlLinkedList@PAVCVMPIConnection@@H@@H@Z 10001ef0 f i vmpi:vmpi.obj
 0001:00000f00       ??A?$CUtlMemory@UListElem_t@?$CUtlLinkedList@PAVCVMPIConnection@@H@@@@QAEAAUListElem_t@?$CUtlLinkedList@PAVCVMPIConnection@@H@@H@Z 10001f00 f i vmpi:vmpi.obj
 0001:00000f10       ?Base@?$CUtlMemory@UListElem_t@?$CUtlLinkedList@PAVCVMPIConnection@@H@@@@QAEPAUListElem_t@?$CUtlLinkedList@PAVCVMPIConnection@@H@@XZ 10001f10 f i vmpi:vmpi.obj
 0001:00000f20       ?ConstructList@?$CUtlLinkedList@P6AXHPBD@ZH@@IAEXXZ 10001f20 f i vmpi:vmpi.obj
 0001:00000f40       ??A?$CUtlMemory@UListElem_t@?$CUtlLinkedList@P6AXHPBD@ZH@@@@QBEABUListElem_t@?$CUtlLinkedList@P6AXHPBD@ZH@@H@Z 10001f40 f i vmpi:vmpi.obj
 0001:00000f50       ??A?$CUtlMemory@UListElem_t@?$CUtlLinkedList@P6AXHPBD@ZH@@@@QAEAAUListElem_t@?$CUtlLinkedList@P6AXHPBD@ZH@@H@Z 10001f50 f i vmpi:vmpi.obj
 0001:00000f60       ?Base@?$CUtlMemory@UListElem_t@?$CUtlLinkedList@P6AXHPBD@ZH@@@@QAEPAUListElem_t@?$CUtlLinkedList@P6AXHPBD@ZH@@XZ 10001f60 f i vmpi:vmpi.obj
 0001:00000f70       ?Base@?$CUtlMemory@PAVCDependencyFile@CDependencyInfo@@@@QAEPAPAVCDependencyFile@CDependencyInfo@@XZ 10001f70 f i vmpi:vmpi.obj
 0001:00000f80       ?Base@?$CUtlMemory@PAVCVMPIConnection@@@@QAEPAPAVCVMPIConnection@@XZ 10001f80 f i vmpi:vmpi.obj
 0001:00000f90       ?InternalElement@?$CUtlLinkedList@PAV?$CUtlVector@DV?$CUtlMemory@D@@@@G@@IAEAAUListElem_t@1@G@Z 10001f90 f i vmpi:vmpi.obj
 0001:00000fa0       ?ValidateGrowSize@?$CUtlMemory@UListElem_t@?$CUtlLinkedList@PAV?$CUtlVector@DV?$CUtlMemory@D@@@@G@@@@IAEXXZ 10001fa0 f i vmpi:vmpi.obj
 0001:00000fb0       ?InternalElement@?$CUtlLinkedList@PAVCTCPPacket@@H@@IAEAAUListElem_t@1@H@Z 10001fb0 f i vmpi:vmpi.obj
 0001:00000fc0       ?ValidateGrowSize@?$CUtlMemory@UListElem_t@?$CUtlLinkedList@PAVCTCPPacket@@H@@@@IAEXXZ 10001fc0 f i vmpi:vmpi.obj
 0001:00000fd0       ?InternalElement@?$CUtlLinkedList@PAVCVMPIConnection@@H@@IAEAAUListElem_t@1@H@Z 10001fd0 f i vmpi:vmpi.obj
 0001:00000fe0       ?ValidateGrowSize@?$CUtlMemory@UListElem_t@?$CUtlLinkedList@PAVCVMPIConnection@@H@@@@IAEXXZ 10001fe0 f i vmpi:vmpi.obj
 0001:00000ff0       ?InternalElement@?$CUtlLinkedList@P6AXHPBD@ZH@@IAEAAUListElem_t@1@H@Z 10001ff0 f i vmpi:vmpi.obj
 0001:00001000       ?ValidateGrowSize@?$CUtlMemory@UListElem_t@?$CUtlLinkedList@P6AXHPBD@ZH@@@@IAEXXZ 10002000 f i vmpi:vmpi.obj
 0001:00001010       ?ValidateGrowSize@?$CUtlMemory@PAVCDependencyFile@CDependencyInfo@@@@IAEXXZ 10002010 f i vmpi:vmpi.obj
 0001:00001020       ?ValidateGrowSize@?$CUtlMemory@D@@IAEXXZ 10002020 f i vmpi:vmpi.obj
 0001:00001030       ?ValidateGrowSize@?$CUtlMemory@PAVCVMPIConnection@@@@IAEXXZ 10002030 f i vmpi:vmpi.obj
 0001:00001040       ?IsValidIndex@?$CUtlLinkedList@PAV?$CUtlVector@DV?$CUtlMemory@D@@@@G@@QBE_NG@Z 10002040 f i vmpi:vmpi.obj
 0001:00001070       ??$CopyConstruct@PAV?$CUtlVector@DV?$CUtlMemory@D@@@@@@YAXPAPAV?$CUtlVector@DV?$CUtlMemory@D@@@@ABQAV0@@Z 10002070 f i vmpi:vmpi.obj
 0001:00001090       ??$Destruct@PAV?$CUtlVector@DV?$CUtlMemory@D@@@@@@YAXPAPAV?$CUtlVector@DV?$CUtlMemory@D@@@@@Z 10002090 f i vmpi:vmpi.obj
 0001:000010a0       ??$Construct@D@@YAXPAD@Z   100020a0 f i vmpi:vmpi.obj
 0001:000010b0       ?Element@?$CUtlLinkedList@PAVCTCPPacket@@H@@QAEAAPAVCTCPPacket@@H@Z 100020b0 f i vmpi:vmpi.obj
 0001:000010c0       ?IsValidIndex@?$CUtlLinkedList@PAVCTCPPacket@@H@@QBE_NH@Z 100020c0 f i vmpi:vmpi.obj
 0001:000010f0       ??$Destruct@PAVCTCPPacket@@@@YAXPAPAVCTCPPacket@@@Z 100020f0 f i vmpi:vmpi.obj
 0001:00001100       ?IsExternallyAllocated@?$CUtlMemory@UListElem_t@?$CUtlLinkedList@PAVCTCPPacket@@H@@@@QBE_NXZ 10002100 f i vmpi:vmpi.obj
 0001:00001110       ?Element@?$CUtlLinkedList@PAVCVMPIConnection@@H@@QAEAAPAVCVMPIConnection@@H@Z 10002110 f i vmpi:vmpi.obj
 0001:00001120       ?IsValidIndex@?$CUtlLinkedList@PAVCVMPIConnection@@H@@QBE_NH@Z 10002120 f i vmpi:vmpi.obj
 0001:00001150       ??$Destruct@PAVCVMPIConnection@@@@YAXPAPAVCVMPIConnection@@@Z 10002150 f i vmpi:vmpi.obj
 0001:00001160       ?IsExternallyAllocated@?$CUtlMemory@UListElem_t@?$CUtlLinkedList@PAVCVMPIConnection@@H@@@@QBE_NXZ 10002160 f i vmpi:vmpi.obj
 0001:00001170       ?Element@?$CUtlLinkedList@P6AXHPBD@ZH@@QAEAAP6AXHPBD@ZH@Z 10002170 f i vmpi:vmpi.obj
 0001:00001180       ?IsValidIndex@?$CUtlLinkedList@P6AXHPBD@ZH@@QBE_NH@Z 10002180 f i vmpi:vmpi.obj
 0001:000011b0       ??$CopyConstruct@P6AXHPBD@Z@@YAXPAP6AXHPBD@ZABQ6AXH0@Z@Z 100021b0 f i vmpi:vmpi.obj
 0001:000011d0       ??$Destruct@P6AXHPBD@Z@@YAXPAP6AXHPBD@Z@Z 100021d0 f i vmpi:vmpi.obj
 0001:000011e0       ??$CopyConstruct@PAVCDependencyFile@CDependencyInfo@@@@YAXPAPAVCDependencyFile@CDependencyInfo@@ABQAV01@@Z 100021e0 f i vmpi:vmpi.obj
 0001:00001200       ?NumAllocated@?$CUtlMemory@UListElem_t@?$CUtlLinkedList@PAV?$CUtlVector@DV?$CUtlMemory@D@@@@G@@@@QBEHXZ 10002200 f i vmpi:vmpi.obj
 0001:00001210       ?IsExternallyAllocated@?$CUtlMemory@UListElem_t@?$CUtlLinkedList@PAV?$CUtlVector@DV?$CUtlMemory@D@@@@G@@@@QBE_NXZ 10002210 f i vmpi:vmpi.obj
 0001:00001220       ??$Destruct@D@@YAXPAD@Z    10002220 f i vmpi:vmpi.obj
 0001:00001230       ?NumAllocated@?$CUtlMemory@D@@QBEHXZ 10002230 f i vmpi:vmpi.obj
 0001:00001240       ?NumAllocated@?$CUtlMemory@UListElem_t@?$CUtlLinkedList@P6AXHPBD@ZH@@@@QBEHXZ 10002240 f i vmpi:vmpi.obj
 0001:00001250       ?IsExternallyAllocated@?$CUtlMemory@UListElem_t@?$CUtlLinkedList@P6AXHPBD@ZH@@@@QBE_NXZ 10002250 f i vmpi:vmpi.obj
 0001:00001260       ??$Destruct@PAVCDependencyFile@CDependencyInfo@@@@YAXPAPAVCDependencyFile@CDependencyInfo@@@Z 10002260 f i vmpi:vmpi.obj
 0001:00001270       ?NumAllocated@?$CUtlMemory@PAVCDependencyFile@CDependencyInfo@@@@QBEHXZ 10002270 f i vmpi:vmpi.obj
 0001:00001280       ?IsExternallyAllocated@?$CUtlMemory@PAVCDependencyFile@CDependencyInfo@@@@QBE_NXZ 10002280 f i vmpi:vmpi.obj
 0001:00001290       ?IsExternallyAllocated@?$CUtlMemory@PAVCVMPIConnection@@@@QBE_NXZ 10002290 f i vmpi:vmpi.obj
 0001:000012a0       ??$Construct@PAVCVMPIConnection@@@@YAXPAPAVCVMPIConnection@@@Z 100022a0 f i vmpi:vmpi.obj
 0001:000012b0       ?NumAllocated@?$CUtlMemory@PAVCVMPIConnection@@@@QBEHXZ 100022b0 f i vmpi:vmpi.obj
 0001:000012c0       ?Grow@?$CUtlMemory@PAVCVMPIConnection@@@@QAEXH@Z 100022c0 f i vmpi:vmpi.obj
 0001:00001330       ?GetCurMicrosecondsAndSleep@@YAHH@Z 10002330 f   vmpi:vmpi.obj
 0001:00001390       ??0CVMPIConnectionCreator@@QAE@XZ 10002390 f i vmpi:vmpi.obj
 0001:000013a0       ??1CMasterBroadcaster@@QAE@XZ 100023a0 f   vmpi:vmpi.obj
 0001:000013c0       ?CountActiveConnections@@YAHXZ 100023c0 f   vmpi:vmpi.obj
 0001:00001400       ?Base@?$CUtlVector@DV?$CUtlMemory@D@@@@QAEPADXZ 10002400 f i vmpi:vmpi.obj
 0001:00001410       ??A?$CUtlLinkedList@PAV?$CUtlVector@DV?$CUtlMemory@D@@@@G@@QAEAAPAV?$CUtlVector@DV?$CUtlMemory@D@@@@G@Z 10002410 f i vmpi:vmpi.obj
 0001:00001420       ??A?$CUtlLinkedList@PAVCTCPPacket@@H@@QAEAAPAVCTCPPacket@@H@Z 10002420 f i vmpi:vmpi.obj
 0001:00001430       ??A?$CUtlLinkedList@PAVCVMPIConnection@@H@@QAEAAPAVCVMPIConnection@@H@Z 10002430 f i vmpi:vmpi.obj
 0001:00001440       ??A?$CUtlLinkedList@P6AXHPBD@ZH@@QAEAAP6AXHPBD@ZH@Z 10002440 f i vmpi:vmpi.obj
 0001:00001450       ?InternalElement@?$CUtlLinkedList@PAV?$CUtlVector@DV?$CUtlMemory@D@@@@G@@IBEABUListElem_t@1@G@Z 10002450 f i vmpi:vmpi.obj
 0001:00001460       ?ResetDbgInfo@?$CUtlLinkedList@PAV?$CUtlVector@DV?$CUtlMemory@D@@@@G@@IAEXXZ 10002460 f i vmpi:vmpi.obj
 0001:00001470       ?InternalElement@?$CUtlLinkedList@PAVCTCPPacket@@H@@IBEABUListElem_t@1@H@Z 10002470 f i vmpi:vmpi.obj
 0001:00001480       ?ResetDbgInfo@?$CUtlLinkedList@PAVCTCPPacket@@H@@IAEXXZ 10002480 f i vmpi:vmpi.obj
 0001:00001490       ?InternalElement@?$CUtlLinkedList@PAVCVMPIConnection@@H@@IBEABUListElem_t@1@H@Z 10002490 f i vmpi:vmpi.obj
 0001:000014a0       ?ResetDbgInfo@?$CUtlLinkedList@PAVCVMPIConnection@@H@@IAEXXZ 100024a0 f i vmpi:vmpi.obj
 0001:000014b0       ?InternalElement@?$CUtlLinkedList@P6AXHPBD@ZH@@IBEABUListElem_t@1@H@Z 100024b0 f i vmpi:vmpi.obj
 0001:000014c0       ?ResetDbgInfo@?$CUtlLinkedList@P6AXHPBD@ZH@@IAEXXZ 100024c0 f i vmpi:vmpi.obj
 0001:000014d0       ?Base@?$CUtlVector@PAVCDependencyFile@CDependencyInfo@@V?$CUtlMemory@PAVCDependencyFile@CDependencyInfo@@@@@@QAEPAPAVCDependencyFile@CDependencyInfo@@XZ 100024d0 f i vmpi:vmpi.obj
 0001:000014e0       ?ResetDbgInfo@?$CUtlVector@PAVCDependencyFile@CDependencyInfo@@V?$CUtlMemory@PAVCDependencyFile@CDependencyInfo@@@@@@IAEXXZ 100024e0 f i vmpi:vmpi.obj
 0001:000014f0       ?ResetDbgInfo@?$CUtlVector@DV?$CUtlMemory@D@@@@IAEXXZ 100024f0 f i vmpi:vmpi.obj
 0001:00001500       ?Base@?$CUtlVector@PAVCVMPIConnection@@V?$CUtlMemory@PAVCVMPIConnection@@@@@@QAEPAPAVCVMPIConnection@@XZ 10002500 f i vmpi:vmpi.obj
 0001:00001510       ?ResetDbgInfo@?$CUtlVector@PAVCVMPIConnection@@V?$CUtlMemory@PAVCVMPIConnection@@@@@@IAEXXZ 10002510 f i vmpi:vmpi.obj
 0001:00001520       ?Element@?$CUtlLinkedList@PAV?$CUtlVector@DV?$CUtlMemory@D@@@@G@@QAEAAPAV?$CUtlVector@DV?$CUtlMemory@D@@@@G@Z 10002520 f i vmpi:vmpi.obj
 0001:00001530       ?RemoveAll@?$CUtlLinkedList@PAV?$CUtlVector@DV?$CUtlMemory@D@@@@G@@QAEXXZ 10002530 f i vmpi:vmpi.obj
 0001:00001590       ??0?$CUtlMemory@UListElem_t@?$CUtlLinkedList@PAV?$CUtlVector@DV?$CUtlMemory@D@@@@G@@@@QAE@HH@Z 10002590 f i vmpi:vmpi.obj
 0001:000015d0       ??A?$CUtlVector@DV?$CUtlMemory@D@@@@QAEAADH@Z 100025d0 f i vmpi:vmpi.obj
 0001:000015e0       ?RemoveAll@?$CUtlLinkedList@PAVCTCPPacket@@H@@QAEXXZ 100025e0 f i vmpi:vmpi.obj
 0001:00001630       ??0?$CUtlMemory@UListElem_t@?$CUtlLinkedList@PAVCTCPPacket@@H@@@@QAE@HH@Z 10002630 f i vmpi:vmpi.obj
 0001:00001670       ?Purge@?$CUtlMemory@UListElem_t@?$CUtlLinkedList@PAVCTCPPacket@@H@@@@QAEXXZ 10002670 f i vmpi:vmpi.obj
 0001:000016a0       ?RemoveAll@?$CUtlLinkedList@PAVCVMPIConnection@@H@@QAEXXZ 100026a0 f i vmpi:vmpi.obj
 0001:000016f0       ??0?$CUtlMemory@UListElem_t@?$CUtlLinkedList@PAVCVMPIConnection@@H@@@@QAE@HH@Z 100026f0 f i vmpi:vmpi.obj
 0001:00001730       ?Purge@?$CUtlMemory@UListElem_t@?$CUtlLinkedList@PAVCVMPIConnection@@H@@@@QAEXXZ 10002730 f i vmpi:vmpi.obj
 0001:00001760       ?RemoveAll@?$CUtlLinkedList@P6AXHPBD@ZH@@QAEXXZ 10002760 f i vmpi:vmpi.obj
 0001:000017b0       ??0?$CUtlMemory@UListElem_t@?$CUtlLinkedList@P6AXHPBD@ZH@@@@QAE@HH@Z 100027b0 f i vmpi:vmpi.obj
 0001:000017f0       ??0?$CUtlMemory@PAVCDependencyFile@CDependencyInfo@@@@QAE@HH@Z 100027f0 f i vmpi:vmpi.obj
 0001:00001830       ??0?$CUtlMemory@PAVCVMPIConnection@@@@QAE@HH@Z 10002830 f i vmpi:vmpi.obj
 0001:00001870       ?Purge@?$CUtlMemory@UListElem_t@?$CUtlLinkedList@PAV?$CUtlVector@DV?$CUtlMemory@D@@@@G@@@@QAEXXZ 10002870 f i vmpi:vmpi.obj
 0001:000018a0       ?Element@?$CUtlVector@DV?$CUtlMemory@D@@@@QAEAADH@Z 100028a0 f i vmpi:vmpi.obj
 0001:000018b0       ?Purge@?$CUtlMemory@UListElem_t@?$CUtlLinkedList@P6AXHPBD@ZH@@@@QAEXXZ 100028b0 f i vmpi:vmpi.obj
 0001:000018e0       ?Element@?$CUtlVector@PAVCDependencyFile@CDependencyInfo@@V?$CUtlMemory@PAVCDependencyFile@CDependencyInfo@@@@@@QAEAAPAVCDependencyFile@CDependencyInfo@@H@Z 100028e0 f i vmpi:vmpi.obj
 0001:000018f0       ?RemoveAll@?$CUtlVector@PAVCDependencyFile@CDependencyInfo@@V?$CUtlMemory@PAVCDependencyFile@CDependencyInfo@@@@@@QAEXXZ 100028f0 f i vmpi:vmpi.obj
 0001:00001900       ?ShiftElementsRight@?$CUtlVector@PAVCDependencyFile@CDependencyInfo@@V?$CUtlMemory@PAVCDependencyFile@CDependencyInfo@@@@@@IAEXHH@Z 10002900 f i vmpi:vmpi.obj
 0001:00001940       ?Purge@?$CUtlMemory@PAVCDependencyFile@CDependencyInfo@@@@QAEXXZ 10002940 f i vmpi:vmpi.obj
 0001:00001970       ?Purge@?$CUtlMemory@PAVCVMPIConnection@@@@QAEXXZ 10002970 f i vmpi:vmpi.obj
 0001:000019a0       ?Grow@?$CUtlMemory@UListElem_t@?$CUtlLinkedList@PAV?$CUtlVector@DV?$CUtlMemory@D@@@@G@@@@QAEXH@Z 100029a0 f i vmpi:vmpi.obj
 0001:00001a10       ?Grow@?$CUtlMemory@UListElem_t@?$CUtlLinkedList@P6AXHPBD@ZH@@@@QAEXH@Z 10002a10 f i vmpi:vmpi.obj
 0001:00001a80       ?Grow@?$CUtlMemory@PAVCDependencyFile@CDependencyInfo@@@@QAEXH@Z 10002a80 f i vmpi:vmpi.obj
 0001:00001af0       ?Element@?$CUtlVector@PAVCVMPIConnection@@V?$CUtlMemory@PAVCVMPIConnection@@@@@@QAEAAPAVCVMPIConnection@@H@Z 10002af0 f i vmpi:vmpi.obj
 0001:00001b00       ?Previous@?$CUtlLinkedList@PAVCTCPPacket@@H@@QBEHH@Z 10002b00 f i vmpi:vmpi.obj
 0001:00001b10       ?GrowVector@?$CUtlVector@PAVCVMPIConnection@@V?$CUtlMemory@PAVCVMPIConnection@@@@@@IAEXH@Z 10002b10 f i vmpi:vmpi.obj
 0001:00001b40       ?ShiftElementsRight@?$CUtlVector@PAVCVMPIConnection@@V?$CUtlMemory@PAVCVMPIConnection@@@@@@IAEXHH@Z 10002b40 f i vmpi:vmpi.obj
 0001:00001b80       ?Previous@?$CUtlLinkedList@PAV?$CUtlVector@DV?$CUtlMemory@D@@@@G@@QBEGG@Z 10002b80 f i vmpi:vmpi.obj
 0001:00001b90       ?Previous@?$CUtlLinkedList@P6AXHPBD@ZH@@QBEHH@Z 10002b90 f i vmpi:vmpi.obj
 0001:00001ba0       ?GetMachineName@CVMPIConnection@@QAEPBDXZ 10002ba0 f i vmpi:vmpi.obj
 0001:00001bb0       ??0CMasterBroadcaster@@QAE@XZ 10002bb0 f   vmpi:vmpi.obj
 0001:00001c00       ?VMPI_GetMachineName@@YAPBDH@Z 10002c00 f   vmpi:vmpi.obj
 0001:00001c30       ?Next@?$CUtlLinkedList@PAV?$CUtlVector@DV?$CUtlMemory@D@@@@G@@QBEGG@Z 10002c30 f i vmpi:vmpi.obj
 0001:00001c40       ?Purge@?$CUtlLinkedList@PAVCTCPPacket@@H@@QAEXXZ 10002c40 f i vmpi:vmpi.obj
 0001:00001c90       ?Next@?$CUtlLinkedList@PAVCTCPPacket@@H@@QBEHH@Z 10002c90 f i vmpi:vmpi.obj
 0001:00001ca0       ?Purge@?$CUtlLinkedList@PAVCVMPIConnection@@H@@QAEXXZ 10002ca0 f i vmpi:vmpi.obj
 0001:00001cf0       ?Next@?$CUtlLinkedList@PAVCVMPIConnection@@H@@QBEHH@Z 10002cf0 f i vmpi:vmpi.obj
 0001:00001d00       ?Next@?$CUtlLinkedList@P6AXHPBD@ZH@@QBEHH@Z 10002d00 f i vmpi:vmpi.obj
 0001:00001d10       ??A?$CUtlVector@PAVCDependencyFile@CDependencyInfo@@V?$CUtlMemory@PAVCDependencyFile@CDependencyInfo@@@@@@QAEAAPAVCDependencyFile@CDependencyInfo@@H@Z 10002d10 f i vmpi:vmpi.obj
 0001:00001d20       ??A?$CUtlVector@PAVCVMPIConnection@@V?$CUtlMemory@PAVCVMPIConnection@@@@@@QAEAAPAVCVMPIConnection@@H@Z 10002d20 f i vmpi:vmpi.obj
 0001:00001d30       ?Purge@?$CUtlLinkedList@PAV?$CUtlVector@DV?$CUtlMemory@D@@@@G@@QAEXXZ 10002d30 f i vmpi:vmpi.obj
 0001:00001d80       ??1?$CUtlMemory@UListElem_t@?$CUtlLinkedList@PAV?$CUtlVector@DV?$CUtlMemory@D@@@@G@@@@QAE@XZ 10002d80 f i vmpi:vmpi.obj
 0001:00001db0       ?Purge@?$CUtlVector@DV?$CUtlMemory@D@@@@QAEXXZ 10002db0 f i vmpi:vmpi.obj
 0001:00001df0       ??1?$CUtlMemory@UListElem_t@?$CUtlLinkedList@PAVCTCPPacket@@H@@@@QAE@XZ 10002df0 f i vmpi:vmpi.obj
 0001:00001e20       ??1?$CUtlMemory@UListElem_t@?$CUtlLinkedList@PAVCVMPIConnection@@H@@@@QAE@XZ 10002e20 f i vmpi:vmpi.obj
 0001:00001e50       ??1?$CUtlMemory@UListElem_t@?$CUtlLinkedList@P6AXHPBD@ZH@@@@QAE@XZ 10002e50 f i vmpi:vmpi.obj
 0001:00001e80       ?Purge@?$CUtlVector@PAVCDependencyFile@CDependencyInfo@@V?$CUtlMemory@PAVCDependencyFile@CDependencyInfo@@@@@@QAEXXZ 10002e80 f i vmpi:vmpi.obj
 0001:00001ec0       ??1?$CUtlMemory@PAVCDependencyFile@CDependencyInfo@@@@QAE@XZ 10002ec0 f i vmpi:vmpi.obj
 0001:00001ef0       ??1?$CUtlMemory@PAVCVMPIConnection@@@@QAE@XZ 10002ef0 f i vmpi:vmpi.obj
 0001:00001f20       ?AllocInternal@?$CUtlLinkedList@PAV?$CUtlVector@DV?$CUtlMemory@D@@@@G@@IAEG_N@Z 10002f20 f i vmpi:vmpi.obj
 0001:00001fc0       ?AllocInternal@?$CUtlLinkedList@P6AXHPBD@ZH@@IAEH_N@Z 10002fc0 f i vmpi:vmpi.obj
 0001:00002050       ?GrowVector@?$CUtlVector@PAVCDependencyFile@CDependencyInfo@@V?$CUtlMemory@PAVCDependencyFile@CDependencyInfo@@@@@@IAEXH@Z 10003050 f i vmpi:vmpi.obj
 0001:00002080       ?RemoveAll@?$CUtlVector@PAVCVMPIConnection@@V?$CUtlMemory@PAVCVMPIConnection@@@@@@QAEXXZ 10003080 f i vmpi:vmpi.obj
 0001:00002090       ?IsInList@?$CUtlLinkedList@PAVCTCPPacket@@H@@QBE_NH@Z 10003090 f i vmpi:vmpi.obj
 0001:000020c0       ?InsertMultipleBefore@?$CUtlVector@PAVCVMPIConnection@@V?$CUtlMemory@PAVCVMPIConnection@@@@@@QAEHHHPBQAVCVMPIConnection@@@Z 100030c0 f i vmpi:vmpi.obj
 0001:00002160       ?IsInList@?$CUtlLinkedList@PAV?$CUtlVector@DV?$CUtlMemory@D@@@@G@@QBE_NG@Z 10003160 f i vmpi:vmpi.obj
 0001:00002190       ?IsInList@?$CUtlLinkedList@P6AXHPBD@ZH@@QBE_NH@Z 10003190 f i vmpi:vmpi.obj
 0001:000021c0       ?HandleDisconnect@CVMPIConnection@@QAEXXZ 100031c0 f i vmpi:vmpi.obj
 0001:00002270       ??0?$CUtlLinkedList@PAV?$CUtlVector@DV?$CUtlMemory@D@@@@G@@QAE@HH@Z 10003270 f i vmpi:vmpi.obj
 0001:000022d0       ??1?$CUtlLinkedList@PAV?$CUtlVector@DV?$CUtlMemory@D@@@@G@@QAE@XZ 100032d0 f i vmpi:vmpi.obj
 0001:00002310       ??0?$CUtlLinkedList@PAVCTCPPacket@@H@@QAE@HH@Z 10003310 f i vmpi:vmpi.obj
 0001:00002370       ??1?$CUtlLinkedList@PAVCTCPPacket@@H@@QAE@XZ 10003370 f i vmpi:vmpi.obj
 0001:000023b0       ??0?$CUtlLinkedList@PAVCVMPIConnection@@H@@QAE@HH@Z 100033b0 f i vmpi:vmpi.obj
 0001:00002410       ??1?$CUtlLinkedList@PAVCVMPIConnection@@H@@QAE@XZ 10003410 f i vmpi:vmpi.obj
 0001:00002450       ??0?$CUtlLinkedList@P6AXHPBD@ZH@@QAE@HH@Z 10003450 f i vmpi:vmpi.obj
 0001:000024b0       ??1?$CUtlLinkedList@P6AXHPBD@ZH@@QAE@XZ 100034b0 f i vmpi:vmpi.obj
 0001:000024f0       ??0?$CUtlVector@PAVCDependencyFile@CDependencyInfo@@V?$CUtlMemory@PAVCDependencyFile@CDependencyInfo@@@@@@QAE@HH@Z 100034f0 f i vmpi:vmpi.obj
 0001:00002540       ??1?$CUtlVector@PAVCDependencyFile@CDependencyInfo@@V?$CUtlMemory@PAVCDependencyFile@CDependencyInfo@@@@@@QAE@XZ 10003540 f i vmpi:vmpi.obj
 0001:000025a0       ??0?$CUtlVector@DV?$CUtlMemory@D@@@@QAE@HH@Z 100035a0 f i vmpi:vmpi.obj
 0001:000025e0       ??0?$CUtlVector@PAVCVMPIConnection@@V?$CUtlMemory@PAVCVMPIConnection@@@@@@QAE@HH@Z 100035e0 f i vmpi:vmpi.obj
 0001:00002630       ??_G?$CUtlVector@DV?$CUtlMemory@D@@@@QAEPAXI@Z 10003630 f i vmpi:vmpi.obj
 0001:00002650       ?InsertMultipleBefore@?$CUtlVector@DV?$CUtlMemory@D@@@@QAEHHHPBD@Z 10003650 f i vmpi:vmpi.obj
 0001:000026e0       ?InsertBefore@?$CUtlVector@PAVCDependencyFile@CDependencyInfo@@V?$CUtlMemory@PAVCDependencyFile@CDependencyInfo@@@@@@QAEHHABQAVCDependencyFile@CDependencyInfo@@@Z 100036e0 f i vmpi:vmpi.obj
 0001:00002750       ?Purge@?$CUtlVector@PAVCVMPIConnection@@V?$CUtlMemory@PAVCVMPIConnection@@@@@@QAEXXZ 10003750 f i vmpi:vmpi.obj
 0001:00002790       ?Unlink@?$CUtlLinkedList@PAVCTCPPacket@@H@@QAEXH@Z 10003790 f i vmpi:vmpi.obj
 0001:00002810       ?AddMultipleToTail@?$CUtlVector@PAVCVMPIConnection@@V?$CUtlMemory@PAVCVMPIConnection@@@@@@QAEHHPBQAVCVMPIConnection@@@Z 10003810 f i vmpi:vmpi.obj
 0001:00002830       ?Unlink@?$CUtlLinkedList@PAV?$CUtlVector@DV?$CUtlMemory@D@@@@G@@QAEXG@Z 10003830 f i vmpi:vmpi.obj
 0001:000028c0       ?Unlink@?$CUtlLinkedList@P6AXHPBD@ZH@@QAEXH@Z 100038c0 f i vmpi:vmpi.obj
 0001:00002940       ??1CVMPIConnection@@QAE@XZ 10003940 f i vmpi:vmpi.obj
 0001:00002970       ?Init@CVMPIConnection@@UAEXPAVIThreadedTCPSocket@@@Z 10003970 f i vmpi:vmpi.obj
 0001:00002980       ??0CDependencyInfo@@QAE@XZ 10003980 f i vmpi:vmpi.obj
 0001:000029b0       ??1CDependencyInfo@@QAE@XZ 100039b0 f i vmpi:vmpi.obj
 0001:000029c0       ??_GCVMPIConnection@@QAEPAXI@Z 100039c0 f i vmpi:vmpi.obj
 0001:00002a00       ?PurgeAndDeleteElements@?$CUtlLinkedList@PAV?$CUtlVector@DV?$CUtlMemory@D@@@@G@@QAEXXZ 10003a00 f i vmpi:vmpi.obj
 0001:00002ac0       ?AddToTail@?$CUtlVector@PAVCDependencyFile@CDependencyInfo@@V?$CUtlMemory@PAVCDependencyFile@CDependencyInfo@@@@@@QAEHABQAVCDependencyFile@CDependencyInfo@@@Z 10003ac0 f i vmpi:vmpi.obj
 0001:00002ae0       ??1?$CUtlVector@PAVCVMPIConnection@@V?$CUtlMemory@PAVCVMPIConnection@@@@@@QAE@XZ 10003ae0 f i vmpi:vmpi.obj
 0001:00002b40       ?Free@?$CUtlLinkedList@PAVCTCPPacket@@H@@QAEXH@Z 10003b40 f i vmpi:vmpi.obj
 0001:00002b70       ?SetCount@?$CUtlVector@PAVCVMPIConnection@@V?$CUtlMemory@PAVCVMPIConnection@@@@@@QAEXH@Z 10003b70 f i vmpi:vmpi.obj
 0001:00002b90       ?LinkBefore@?$CUtlLinkedList@PAV?$CUtlVector@DV?$CUtlMemory@D@@@@G@@QAEXGG@Z 10003b90 f i vmpi:vmpi.obj
 0001:00002c10       ?LinkBefore@?$CUtlLinkedList@P6AXHPBD@ZH@@QAEXHH@Z 10003c10 f i vmpi:vmpi.obj
 0001:00002c80       ?ParseDependencyFile@@YAXPAVCDependencyInfo@@PBD@Z 10003c80 f   vmpi:vmpi.obj
 0001:00002f30       ?SetupDependencyInfo@@YAXPAVCDependencyInfo@@PBD@Z 10003f30 f   vmpi:vmpi.obj
 0001:00003150       ?VMPI_Finalize@@YAXXZ      10004150 f   vmpi:vmpi.obj
 0001:00003340       ?Remove@?$CUtlLinkedList@PAVCTCPPacket@@H@@QAEXH@Z 10004340 f i vmpi:vmpi.obj
 0001:00003370       ?SetSize@?$CUtlVector@PAVCVMPIConnection@@V?$CUtlMemory@PAVCVMPIConnection@@@@@@QAEXH@Z 10004370 f i vmpi:vmpi.obj
 0001:00003390       ?InsertBefore@?$CUtlLinkedList@PAV?$CUtlVector@DV?$CUtlMemory@D@@@@G@@QAEGGABQAV?$CUtlVector@DV?$CUtlMemory@D@@@@@Z 10004390 f i vmpi:vmpi.obj
 0001:000033d0       ?InsertBefore@?$CUtlLinkedList@P6AXHPBD@ZH@@QAEHHABQ6AXHPBD@Z@Z 100043d0 f i vmpi:vmpi.obj
 0001:00003460       ?InternalHandleSocketErrors@@YAXXZ 10004460 f   vmpi:vmpi.obj
 0001:00003600       ?VMPI_HandleSocketErrors@@YAXK@Z 10004600 f   vmpi:vmpi.obj
 0001:00003620       ?VMPI_GetNextMessage@@YA_NPAVMessageBuffer@@PAHK@Z 10004620 f   vmpi:vmpi.obj
 0001:000037a0       ?VMPI_DispatchNextMessage@@YA_NK@Z 100047a0 f   vmpi:vmpi.obj
 0001:00003830       ?VMPI_DispatchUntil@@YA_NPAVMessageBuffer@@PAHHH_N@Z 10004830 f   vmpi:vmpi.obj
 0001:00003900       ?AddToTail@?$CUtlLinkedList@PAV?$CUtlVector@DV?$CUtlMemory@D@@@@G@@QAEGABQAV?$CUtlVector@DV?$CUtlMemory@D@@@@@Z 10004900 f i vmpi:vmpi.obj
 0001:00003970       ?AddToTail@?$CUtlLinkedList@P6AXHPBD@ZH@@QAEHABQ6AXHPBD@Z@Z 10004970 f i vmpi:vmpi.obj
 0001:00003980       ?SetMachineName@CVMPIConnection@@QAEXPBD@Z 10004980 f i vmpi:vmpi.obj
 0001:000039c0       ?OnPacketReceived@CVMPIConnection@@UAEXPAVCTCPPacket@@@Z 100049c0 f i vmpi:vmpi.obj
 0001:00003a20       ?InsertBefore@?$CUtlLinkedList@PAVCTCPPacket@@H@@QAEHHABQAVCTCPPacket@@@Z 10004a20 f i vmpi:vmpi.obj
 0001:00003a60       ?AllocInternal@?$CUtlLinkedList@PAVCTCPPacket@@H@@IAEH_N@Z 10004a60 f i vmpi:vmpi.obj
 0001:00003af0       ?Grow@?$CUtlMemory@UListElem_t@?$CUtlLinkedList@PAVCTCPPacket@@H@@@@QAEXH@Z 10004af0 f i vmpi:vmpi.obj
 0001:00003b60       ?LinkBefore@?$CUtlLinkedList@PAVCTCPPacket@@H@@QAEXHH@Z 10004b60 f i vmpi:vmpi.obj
 0001:00003bd0       ?OnError@CVMPIConnection@@UAEXHPBD@Z 10004bd0 f i vmpi:vmpi.obj
 0001:00003c70       ?InsertBefore@?$CUtlLinkedList@PAVCVMPIConnection@@H@@QAEHHABQAVCVMPIConnection@@@Z 10004c70 f i vmpi:vmpi.obj
 0001:00003cb0       ?AllocInternal@?$CUtlLinkedList@PAVCVMPIConnection@@H@@IAEH_N@Z 10004cb0 f i vmpi:vmpi.obj
 0001:00003d40       ?Grow@?$CUtlMemory@UListElem_t@?$CUtlLinkedList@PAVCVMPIConnection@@H@@@@QAEXH@Z 10004d40 f i vmpi:vmpi.obj
 0001:00003db0       ?LinkBefore@?$CUtlLinkedList@PAVCVMPIConnection@@H@@QAEXHH@Z 10004db0 f i vmpi:vmpi.obj
 0001:00003e20       ?Unlink@?$CUtlLinkedList@PAVCVMPIConnection@@H@@QAEXH@Z 10004e20 f i vmpi:vmpi.obj
 0001:00003eb0       ?VMPI_SendChunks@@YA_NPBQBXPBHHH@Z 10004eb0 f   vmpi:vmpi.obj
 0001:00004140       ?VMPI_Send2Chunks@@YA_NPBXH0HH@Z 10005140 f   vmpi:vmpi.obj
 0001:00004180       ?VMPI_Send3Chunks@@YA_NPBXH0H0HH@Z 10005180 f   vmpi:vmpi.obj
 0001:000041d0       ?VMPI_AddDisconnectHandler@@YAXP6AXHPBD@Z@Z 100051d0 f   vmpi:vmpi.obj
 0001:000041f0       ?VMPI_SetMachineName@@YAXHPBD@Z 100051f0 f   vmpi:vmpi.obj
 0001:00004240       ?CreateNewHandler@CVMPIConnectionCreator@@UAEPAVITCPSocketHandler@@XZ 10005240 f i vmpi:vmpi.obj
 0001:00004280       ??0CVMPIConnection@@QAE@H@Z 10005280 f i vmpi:vmpi.obj
 0001:00004320       ?VMPI_InternalDispatchFn@@YA_NPAVMessageBuffer@@HH@Z 10005320 f   vmpi:vmpi.obj
 0001:00004360       ?VMPI_SendData@@YA_NPAXHH@Z 10005360 f   vmpi:vmpi.obj
 0001:00004380       ?VMPI_SendMachineNameTo@@YAXH@Z 10005380 f   vmpi:vmpi.obj
 0001:00004410       ?Update@CMasterBroadcaster@@AAE_NXZ 10005410 f   vmpi:vmpi.obj
 0001:00004580       ?ThreadFn@CMasterBroadcaster@@AAEXXZ 10005580 f   vmpi:vmpi.obj
 0001:000045d0       ?StaticThreadFn@CMasterBroadcaster@@CGKPAX@Z 100055d0 f   vmpi:vmpi.obj
 0001:000045e0       ?MPI_Init_Worker@@YA_NHPAPADQBHH@Z 100055e0 f   vmpi:vmpi.obj
 0001:00004720       ?Init@CMasterBroadcaster@@QAE_NHPAPADPBDHW4VMPIRunMode@@@Z 10005720 f   vmpi:vmpi.obj
 0001:00004c10       ?InitMaster@@YA_NHPAPADPBDW4VMPIRunMode@@@Z 10005c10 f   vmpi:vmpi.obj
 0001:00004d20       ?VMPI_Init@@YA_NHPAPADPBDP6AXH1@ZW4VMPIRunMode@@@Z 10005d20 f   vmpi:vmpi.obj
 0001:00004e10       ?Lock@CCriticalSection@@AAEXXZ 10005e10 f   vmpi:threadhelpers.obj
 0001:00004e20       ?Unlock@CCriticalSection@@AAEXXZ 10005e20 f   vmpi:threadhelpers.obj
 0001:00004e30       ??0CCriticalSectionLock@@QAE@PAVCCriticalSection@@@Z 10005e30 f   vmpi:threadhelpers.obj
 0001:00004e40       ??1CCriticalSectionLock@@QAE@XZ 10005e40 f   vmpi:threadhelpers.obj
 0001:00004e50       ?Lock@CCriticalSectionLock@@QAEXXZ 10005e50 f   vmpi:threadhelpers.obj
 0001:00004e60       ?Unlock@CCriticalSectionLock@@QAEXXZ 10005e60 f   vmpi:threadhelpers.obj
 0001:00004e70       ??0CEvent@@QAE@XZ          10005e70 f   vmpi:threadhelpers.obj
 0001:00004e80       ?Term@CEvent@@QAEXXZ       10005e80 f   vmpi:threadhelpers.obj
 0001:00004ea0       ?GetEventHandle@CEvent@@QBEPAXXZ 10005ea0 f   vmpi:threadhelpers.obj
 0001:00004eb0       ?SetEvent@CEvent@@QAE_NXZ  10005eb0 f   vmpi:threadhelpers.obj
 0001:00004ec0       ?ResetEvent@CEvent@@QAE_NXZ 10005ec0 f   vmpi:threadhelpers.obj
 0001:00004ed0       ?Base@?$CUtlMemory@UListElem_t@?$CUtlLinkedList@KH@@@@QAEPAUListElem_t@?$CUtlLinkedList@KH@@XZ 10005ed0 f i vmpi:threadhelpers.obj
 0001:00004ee0       ?InvalidIndex@?$CUtlLinkedList@KH@@SAHXZ 10005ee0 f i vmpi:threadhelpers.obj
 0001:00004ef0       ?ValidateGrowSize@?$CUtlMemory@UListElem_t@?$CUtlLinkedList@KH@@@@IAEXXZ 10005ef0 f i vmpi:threadhelpers.obj
 0001:00004f00       ??$Destruct@K@@YAXPAK@Z    10005f00 f i vmpi:threadhelpers.obj
 0001:00004f10       ??A?$CUtlMemory@UListElem_t@?$CUtlLinkedList@KH@@@@QAEAAUListElem_t@?$CUtlLinkedList@KH@@H@Z 10005f10 f i vmpi:threadhelpers.obj
 0001:00004f20       ??A?$CUtlMemory@UListElem_t@?$CUtlLinkedList@KH@@@@QBEABUListElem_t@?$CUtlLinkedList@KH@@H@Z 10005f20 f i vmpi:threadhelpers.obj
 0001:00004f30       ?IsExternallyAllocated@?$CUtlMemory@UListElem_t@?$CUtlLinkedList@KH@@@@QBE_NXZ 10005f30 f i vmpi:threadhelpers.obj
 0001:00004f40       ??1CEvent@@QAE@XZ          10005f40 f   vmpi:threadhelpers.obj
 0001:00004f60       ?Init@CEvent@@QAE_N_N0@Z   10005f60 f   vmpi:threadhelpers.obj
 0001:00004fa0       ?ResetDbgInfo@?$CUtlLinkedList@KH@@IAEXXZ 10005fa0 f i vmpi:threadhelpers.obj
 0001:00004fb0       ?ConstructList@?$CUtlLinkedList@KH@@IAEXXZ 10005fb0 f i vmpi:threadhelpers.obj
 0001:00004fd0       ??0?$CUtlMemory@UListElem_t@?$CUtlLinkedList@KH@@@@QAE@HH@Z 10005fd0 f i vmpi:threadhelpers.obj
 0001:00005010       ?InternalElement@?$CUtlLinkedList@KH@@IAEAAUListElem_t@1@H@Z 10006010 f i vmpi:threadhelpers.obj
 0001:00005020       ?Element@?$CUtlLinkedList@KH@@QAEAAKH@Z 10006020 f i vmpi:threadhelpers.obj
 0001:00005030       ?IsValidIndex@?$CUtlLinkedList@KH@@QBE_NH@Z 10006030 f i vmpi:threadhelpers.obj
 0001:00005060       ?Purge@?$CUtlMemory@UListElem_t@?$CUtlLinkedList@KH@@@@QAEXXZ 10006060 f i vmpi:threadhelpers.obj
 0001:00005090       ?RemoveAll@?$CUtlLinkedList@KH@@QAEXXZ 10006090 f i vmpi:threadhelpers.obj
 0001:000050e0       ??1?$CUtlMemory@UListElem_t@?$CUtlLinkedList@KH@@@@QAE@XZ 100060e0 f i vmpi:threadhelpers.obj
 0001:00005110       ??0?$CUtlLinkedList@KH@@QAE@HH@Z 10006110 f i vmpi:threadhelpers.obj
 0001:00005170       ??1?$CUtlLinkedList@KH@@QAE@XZ 10006170 f i vmpi:threadhelpers.obj
 0001:000051b0       ??0CCriticalSection@@QAE@XZ 100061b0 f   vmpi:threadhelpers.obj
 0001:000051e0       ??1CCriticalSection@@QAE@XZ 100061e0 f   vmpi:threadhelpers.obj
 0001:00005220       ??_I@YGXPAXIHP6EX0@Z@Z     10006220 f i vmpi:vmpi_distribute_work.obj
 0001:00005260       ?VMPI_GetNumWorkUnitsCompleted@@YAHH@Z 10006260 f   vmpi:vmpi_distribute_work.obj
 0001:00005270       ?PreDistributeWorkSync@@YAXPAVCDSInfo@@@Z 10006270 f   vmpi:vmpi_distribute_work.obj
 0001:00005310       ?DistributeWork_Cancel@@YAXXZ 10006310 f   vmpi:vmpi_distribute_work.obj
 0001:00005340       ?InvalidIndex@?$CUtlLinkedList@GH@@SAHXZ 10006340 f i vmpi:vmpi_distribute_work.obj
 0001:00005350       ?InvalidIndex@?$CUtlLinkedList@PAVCPartitionInfo@@H@@SAHXZ 10006350 f i vmpi:vmpi_distribute_work.obj
 0001:00005360       ?Count@?$CUtlLinkedList@HH@@QBEHXZ 10006360 f i vmpi:vmpi_distribute_work.obj
 0001:00005370       ?Head@?$CUtlLinkedList@HH@@QBEHXZ 10006370 f i vmpi:vmpi_distribute_work.obj
 0001:00005380       ?Count@?$CUtlVector@JV?$CUtlMemory@J@@@@QBEHXZ 10006380 f i vmpi:vmpi_distribute_work.obj
 0001:00005390       ?Count@?$CUtlLinkedList@GH@@QBEHXZ 10006390 f i vmpi:vmpi_distribute_work.obj
 0001:000053a0       ?Head@?$CUtlLinkedList@GH@@QBEHXZ 100063a0 f i vmpi:vmpi_distribute_work.obj
 0001:000053b0       ?Count@?$CUtlLinkedList@PAVCPartitionInfo@@H@@QBEHXZ 100063b0 f i vmpi:vmpi_distribute_work.obj
 0001:000053c0       ?Head@?$CUtlLinkedList@PAVCPartitionInfo@@H@@QBEHXZ 100063c0 f i vmpi:vmpi_distribute_work.obj
 0001:000053d0       ?Count@?$CUtlLinkedList@VCWorkUnitInfo@@H@@QBEHXZ 100063d0 f i vmpi:vmpi_distribute_work.obj
 0001:000053e0       ?Base@?$CUtlMemory@H@@QAEPAHXZ 100063e0 f i vmpi:vmpi_distribute_work.obj
 0001:000053f0       ?Count@?$CUtlVector@HV?$CUtlMemory@H@@@@QBEHXZ 100063f0 f i vmpi:vmpi_distribute_work.obj
 0001:00005400       ?InvalidIndex@?$CUtlLinkedList@HH@@SAHXZ 10006400 f i vmpi:vmpi_distribute_work.obj
 0001:00005410       ?InvalidIndex@?$CUtlLinkedList@VCWorkUnitInfo@@H@@SAHXZ 10006410 f i vmpi:vmpi_distribute_work.obj
 0001:00005420       ?ConstructList@?$CUtlLinkedList@HH@@IAEXXZ 10006420 f i vmpi:vmpi_distribute_work.obj
 0001:00005440       ??A?$CUtlMemory@UListElem_t@?$CUtlLinkedList@HH@@@@QAEAAUListElem_t@?$CUtlLinkedList@HH@@H@Z 10006440 f i vmpi:vmpi_distribute_work.obj
 0001:00005450       ?Base@?$CUtlMemory@UListElem_t@?$CUtlLinkedList@HH@@@@QAEPAUListElem_t@?$CUtlLinkedList@HH@@XZ 10006450 f i vmpi:vmpi_distribute_work.obj
 0001:00005460       ?Base@?$CUtlMemory@J@@QAEPAJXZ 10006460 f i vmpi:vmpi_distribute_work.obj
 0001:00005470       ??0Vector2D@@QAE@MM@Z      10006470 f i vmpi:vmpi_distribute_work.obj
 0001:00005490       ?ConstructList@?$CUtlLinkedList@GH@@IAEXXZ 10006490 f i vmpi:vmpi_distribute_work.obj
 0001:000054b0       ??A?$CUtlMemory@UListElem_t@?$CUtlLinkedList@GH@@@@QBEABUListElem_t@?$CUtlLinkedList@GH@@H@Z 100064b0 f i vmpi:vmpi_distribute_work.obj
 0001:000054c0       ??A?$CUtlMemory@UListElem_t@?$CUtlLinkedList@GH@@@@QAEAAUListElem_t@?$CUtlLinkedList@GH@@H@Z 100064c0 f i vmpi:vmpi_distribute_work.obj
 0001:000054d0       ?Base@?$CUtlMemory@UListElem_t@?$CUtlLinkedList@GH@@@@QAEPAUListElem_t@?$CUtlLinkedList@GH@@XZ 100064d0 f i vmpi:vmpi_distribute_work.obj
 0001:000054e0       ?ConstructList@?$CUtlLinkedList@PAVCPartitionInfo@@H@@IAEXXZ 100064e0 f i vmpi:vmpi_distribute_work.obj
 0001:00005500       ??A?$CUtlMemory@UListElem_t@?$CUtlLinkedList@PAVCPartitionInfo@@H@@@@QBEABUListElem_t@?$CUtlLinkedList@PAVCPartitionInfo@@H@@H@Z 10006500 f i vmpi:vmpi_distribute_work.obj
 0001:00005510       ??A?$CUtlMemory@UListElem_t@?$CUtlLinkedList@PAVCPartitionInfo@@H@@@@QAEAAUListElem_t@?$CUtlLinkedList@PAVCPartitionInfo@@H@@H@Z 10006510 f i vmpi:vmpi_distribute_work.obj
 0001:00005520       ?Base@?$CUtlMemory@UListElem_t@?$CUtlLinkedList@PAVCPartitionInfo@@H@@@@QAEPAUListElem_t@?$CUtlLinkedList@PAVCPartitionInfo@@H@@XZ 10006520 f i vmpi:vmpi_distribute_work.obj
 0001:00005530       ?Base@?$CUtlMemory@VCWULookupInfo@@@@QAEPAVCWULookupInfo@@XZ 10006530 f i vmpi:vmpi_distribute_work.obj
 0001:00005540       ?ConstructList@?$CUtlLinkedList@VCWorkUnitInfo@@H@@IAEXXZ 10006540 f i vmpi:vmpi_distribute_work.obj
 0001:00005560       ?Base@?$CUtlMemory@UListElem_t@?$CUtlLinkedList@VCWorkUnitInfo@@H@@@@QAEPAUListElem_t@?$CUtlLinkedList@VCWorkUnitInfo@@H@@XZ 10006560 f i vmpi:vmpi_distribute_work.obj
 0001:00005570       ?InternalElement@?$CUtlLinkedList@HH@@IAEAAUListElem_t@1@H@Z 10006570 f i vmpi:vmpi_distribute_work.obj
 0001:00005580       ?ValidateGrowSize@?$CUtlMemory@UListElem_t@?$CUtlLinkedList@HH@@@@IAEXXZ 10006580 f i vmpi:vmpi_distribute_work.obj
 0001:00005590       ?ValidateGrowSize@?$CUtlMemory@J@@IAEXXZ 10006590 f i vmpi:vmpi_distribute_work.obj
 0001:000055a0       ?InternalElement@?$CUtlLinkedList@GH@@IAEAAUListElem_t@1@H@Z 100065a0 f i vmpi:vmpi_distribute_work.obj
 0001:000055b0       ?ValidateGrowSize@?$CUtlMemory@UListElem_t@?$CUtlLinkedList@GH@@@@IAEXXZ 100065b0 f i vmpi:vmpi_distribute_work.obj
 0001:000055c0       ?InternalElement@?$CUtlLinkedList@PAVCPartitionInfo@@H@@IAEAAUListElem_t@1@H@Z 100065c0 f i vmpi:vmpi_distribute_work.obj
 0001:000055d0       ?ValidateGrowSize@?$CUtlMemory@UListElem_t@?$CUtlLinkedList@PAVCPartitionInfo@@H@@@@IAEXXZ 100065d0 f i vmpi:vmpi_distribute_work.obj
 0001:000055e0       ?ValidateGrowSize@?$CUtlMemory@VCWULookupInfo@@@@IAEXXZ 100065e0 f i vmpi:vmpi_distribute_work.obj
 0001:000055f0       ?ValidateGrowSize@?$CUtlMemory@UListElem_t@?$CUtlLinkedList@VCWorkUnitInfo@@H@@@@IAEXXZ 100065f0 f i vmpi:vmpi_distribute_work.obj
 0001:00005600       ?ValidateGrowSize@?$CUtlMemory@H@@IAEXXZ 10006600 f i vmpi:vmpi_distribute_work.obj
 0001:00005610       ?Element@?$CUtlLinkedList@HH@@QAEAAHH@Z 10006610 f i vmpi:vmpi_distribute_work.obj
 0001:00005620       ??$CopyConstruct@H@@YAXPAHABH@Z 10006620 f i vmpi:vmpi_distribute_work.obj
 0001:00005640       ??$Destruct@H@@YAXPAH@Z    10006640 f i vmpi:vmpi_distribute_work.obj
 0001:00005650       ?IsExternallyAllocated@?$CUtlMemory@UListElem_t@?$CUtlLinkedList@HH@@@@QBE_NXZ 10006650 f i vmpi:vmpi_distribute_work.obj
 0001:00005660       ?Element@?$CUtlLinkedList@GH@@QAEAAGH@Z 10006660 f i vmpi:vmpi_distribute_work.obj
 0001:00005670       ?IsValidIndex@?$CUtlLinkedList@GH@@QBE_NH@Z 10006670 f i vmpi:vmpi_distribute_work.obj
 0001:000056a0       ??$CopyConstruct@G@@YAXPAGABG@Z 100066a0 f i vmpi:vmpi_distribute_work.obj
 0001:000056c0       ??$Destruct@G@@YAXPAG@Z    100066c0 f i vmpi:vmpi_distribute_work.obj
 0001:000056d0       ?Element@?$CUtlLinkedList@PAVCPartitionInfo@@H@@QAEAAPAVCPartitionInfo@@H@Z 100066d0 f i vmpi:vmpi_distribute_work.obj
 0001:000056e0       ?IsValidIndex@?$CUtlLinkedList@PAVCPartitionInfo@@H@@QBE_NH@Z 100066e0 f i vmpi:vmpi_distribute_work.obj
 0001:00005710       ??$CopyConstruct@PAVCPartitionInfo@@@@YAXPAPAVCPartitionInfo@@ABQAV0@@Z 10006710 f i vmpi:vmpi_distribute_work.obj
 0001:00005730       ??$Destruct@PAVCPartitionInfo@@@@YAXPAPAVCPartitionInfo@@@Z 10006730 f i vmpi:vmpi_distribute_work.obj
 0001:00005740       ??$Destruct@VCWULookupInfo@@@@YAXPAVCWULookupInfo@@@Z 10006740 f i vmpi:vmpi_distribute_work.obj
 0001:00005750       ??$CopyConstruct@VCWorkUnitInfo@@@@YAXPAVCWorkUnitInfo@@ABV0@@Z 10006750 f i vmpi:vmpi_distribute_work.obj
 0001:00005770       ??$Destruct@VCWorkUnitInfo@@@@YAXPAVCWorkUnitInfo@@@Z 10006770 f i vmpi:vmpi_distribute_work.obj
 0001:00005780       ??A?$CUtlMemory@UListElem_t@?$CUtlLinkedList@VCWorkUnitInfo@@H@@@@QAEAAUListElem_t@?$CUtlLinkedList@VCWorkUnitInfo@@H@@H@Z 10006780 f i vmpi:vmpi_distribute_work.obj
 0001:00005790       ??_H@YGXPAXIHP6EPAX0@Z@Z   10006790 f i vmpi:vmpi_distribute_work.obj
 0001:000057d0       ??A?$CUtlMemory@UListElem_t@?$CUtlLinkedList@HH@@@@QBEABUListElem_t@?$CUtlLinkedList@HH@@H@Z 100067d0 f i vmpi:vmpi_distribute_work.obj
 0001:000057e0       ?NumAllocated@?$CUtlMemory@UListElem_t@?$CUtlLinkedList@HH@@@@QBEHXZ 100067e0 f i vmpi:vmpi_distribute_work.obj
 0001:000057f0       ?Grow@?$CUtlMemory@UListElem_t@?$CUtlLinkedList@HH@@@@QAEXH@Z 100067f0 f i vmpi:vmpi_distribute_work.obj
 0001:00005860       ??$Destruct@J@@YAXPAJ@Z    10006860 f i vmpi:vmpi_distribute_work.obj
 0001:00005870       ?IsExternallyAllocated@?$CUtlMemory@J@@QBE_NXZ 10006870 f i vmpi:vmpi_distribute_work.obj
 0001:00005880       ?NumAllocated@?$CUtlMemory@UListElem_t@?$CUtlLinkedList@GH@@@@QBEHXZ 10006880 f i vmpi:vmpi_distribute_work.obj
 0001:00005890       ?IsExternallyAllocated@?$CUtlMemory@UListElem_t@?$CUtlLinkedList@GH@@@@QBE_NXZ 10006890 f i vmpi:vmpi_distribute_work.obj
 0001:000058a0       ?NumAllocated@?$CUtlMemory@UListElem_t@?$CUtlLinkedList@PAVCPartitionInfo@@H@@@@QBEHXZ 100068a0 f i vmpi:vmpi_distribute_work.obj
 0001:000058b0       ?IsExternallyAllocated@?$CUtlMemory@UListElem_t@?$CUtlLinkedList@PAVCPartitionInfo@@H@@@@QBE_NXZ 100068b0 f i vmpi:vmpi_distribute_work.obj
 0001:000058c0       ??$Construct@VCWULookupInfo@@@@YAXPAVCWULookupInfo@@@Z 100068c0 f i vmpi:vmpi_distribute_work.obj
 0001:000058d0       ?IsExternallyAllocated@?$CUtlMemory@VCWULookupInfo@@@@QBE_NXZ 100068d0 f i vmpi:vmpi_distribute_work.obj
 0001:000058e0       ??A?$CUtlMemory@UListElem_t@?$CUtlLinkedList@VCWorkUnitInfo@@H@@@@QBEABUListElem_t@?$CUtlLinkedList@VCWorkUnitInfo@@H@@H@Z 100068e0 f i vmpi:vmpi_distribute_work.obj
 0001:000058f0       ?NumAllocated@?$CUtlMemory@UListElem_t@?$CUtlLinkedList@VCWorkUnitInfo@@H@@@@QBEHXZ 100068f0 f i vmpi:vmpi_distribute_work.obj
 0001:00005900       ?IsExternallyAllocated@?$CUtlMemory@UListElem_t@?$CUtlLinkedList@VCWorkUnitInfo@@H@@@@QBE_NXZ 10006900 f i vmpi:vmpi_distribute_work.obj
 0001:00005910       ??$Construct@H@@YAXPAH@Z   10006910 f i vmpi:vmpi_distribute_work.obj
 0001:00005920       ??$Construct@J@@YAXPAJ@Z   10006920 f i vmpi:vmpi_distribute_work.obj
 0001:00005930       ?NumAllocated@?$CUtlMemory@VCWULookupInfo@@@@QBEHXZ 10006930 f i vmpi:vmpi_distribute_work.obj
 0001:00005940       ?Grow@?$CUtlMemory@VCWULookupInfo@@@@QAEXH@Z 10006940 f i vmpi:vmpi_distribute_work.obj
 0001:000059b0       ?NumAllocated@?$CUtlMemory@H@@QBEHXZ 100069b0 f i vmpi:vmpi_distribute_work.obj
 0001:000059c0       ?InternalElement@?$CUtlLinkedList@HH@@IBEABUListElem_t@1@H@Z 100069c0 f i vmpi:vmpi_distribute_work.obj
 0001:000059d0       ?InternalElement@?$CUtlLinkedList@VCWorkUnitInfo@@H@@IBEABUListElem_t@1@H@Z 100069d0 f i vmpi:vmpi_distribute_work.obj
 0001:000059e0       ?NumAllocated@?$CUtlMemory@J@@QBEHXZ 100069e0 f i vmpi:vmpi_distribute_work.obj
 0001:000059f0       ?Grow@?$CUtlMemory@J@@QAEXH@Z 100069f0 f i vmpi:vmpi_distribute_work.obj
 0001:00005a60       ?Base@?$CUtlVector@HV?$CUtlMemory@H@@@@QAEPAHXZ 10006a60 f i vmpi:vmpi_distribute_work.obj
 0001:00005a70       ??A?$CUtlLinkedList@HH@@QAEAAHH@Z 10006a70 f i vmpi:vmpi_distribute_work.obj
 0001:00005a80       ??A?$CUtlLinkedList@GH@@QAEAAGH@Z 10006a80 f i vmpi:vmpi_distribute_work.obj
 0001:00005a90       ??A?$CUtlLinkedList@PAVCPartitionInfo@@H@@QAEAAPAVCPartitionInfo@@H@Z 10006a90 f i vmpi:vmpi_distribute_work.obj
 0001:00005aa0       ??A?$CUtlVector@HV?$CUtlMemory@H@@@@QAEAAHH@Z 10006aa0 f i vmpi:vmpi_distribute_work.obj
 0001:00005ab0       ?ResetDbgInfo@?$CUtlLinkedList@HH@@IAEXXZ 10006ab0 f i vmpi:vmpi_distribute_work.obj
 0001:00005ac0       ?Base@?$CUtlVector@JV?$CUtlMemory@J@@@@QAEPAJXZ 10006ac0 f i vmpi:vmpi_distribute_work.obj
 0001:00005ad0       ?ResetDbgInfo@?$CUtlVector@JV?$CUtlMemory@J@@@@IAEXXZ 10006ad0 f i vmpi:vmpi_distribute_work.obj
 0001:00005ae0       ?InternalElement@?$CUtlLinkedList@GH@@IBEABUListElem_t@1@H@Z 10006ae0 f i vmpi:vmpi_distribute_work.obj
 0001:00005af0       ?ResetDbgInfo@?$CUtlLinkedList@GH@@IAEXXZ 10006af0 f i vmpi:vmpi_distribute_work.obj
 0001:00005b00       ?InternalElement@?$CUtlLinkedList@PAVCPartitionInfo@@H@@IBEABUListElem_t@1@H@Z 10006b00 f i vmpi:vmpi_distribute_work.obj
 0001:00005b10       ?ResetDbgInfo@?$CUtlLinkedList@PAVCPartitionInfo@@H@@IAEXXZ 10006b10 f i vmpi:vmpi_distribute_work.obj
 0001:00005b20       ?Base@?$CUtlVector@VCWULookupInfo@@V?$CUtlMemory@VCWULookupInfo@@@@@@QAEPAVCWULookupInfo@@XZ 10006b20 f i vmpi:vmpi_distribute_work.obj
 0001:00005b30       ?ResetDbgInfo@?$CUtlVector@VCWULookupInfo@@V?$CUtlMemory@VCWULookupInfo@@@@@@IAEXXZ 10006b30 f i vmpi:vmpi_distribute_work.obj
 0001:00005b40       ?ResetDbgInfo@?$CUtlLinkedList@VCWorkUnitInfo@@H@@IAEXXZ 10006b40 f i vmpi:vmpi_distribute_work.obj
 0001:00005b50       ?ResetDbgInfo@?$CUtlVector@HV?$CUtlMemory@H@@@@IAEXXZ 10006b50 f i vmpi:vmpi_distribute_work.obj
 0001:00005b60       ??0?$CUtlMemory@UListElem_t@?$CUtlLinkedList@HH@@@@QAE@HH@Z 10006b60 f i vmpi:vmpi_distribute_work.obj
 0001:00005ba0       ?Purge@?$CUtlMemory@UListElem_t@?$CUtlLinkedList@HH@@@@QAEXXZ 10006ba0 f i vmpi:vmpi_distribute_work.obj
 0001:00005bd0       ??0?$CUtlMemory@J@@QAE@HH@Z 10006bd0 f i vmpi:vmpi_distribute_work.obj
 0001:00005c10       ?RemoveAll@?$CUtlLinkedList@GH@@QAEXXZ 10006c10 f i vmpi:vmpi_distribute_work.obj
 0001:00005c60       ??0?$CUtlMemory@UListElem_t@?$CUtlLinkedList@GH@@@@QAE@HH@Z 10006c60 f i vmpi:vmpi_distribute_work.obj
 0001:00005ca0       ?RemoveAll@?$CUtlLinkedList@PAVCPartitionInfo@@H@@QAEXXZ 10006ca0 f i vmpi:vmpi_distribute_work.obj
 0001:00005cf0       ??0?$CUtlMemory@UListElem_t@?$CUtlLinkedList@PAVCPartitionInfo@@H@@@@QAE@HH@Z 10006cf0 f i vmpi:vmpi_distribute_work.obj
 0001:00005d30       ??0?$CUtlMemory@VCWULookupInfo@@@@QAE@HH@Z 10006d30 f i vmpi:vmpi_distribute_work.obj
 0001:00005d70       ??0?$CUtlMemory@UListElem_t@?$CUtlLinkedList@VCWorkUnitInfo@@H@@@@QAE@HH@Z 10006d70 f i vmpi:vmpi_distribute_work.obj
 0001:00005db0       ?InternalElement@?$CUtlLinkedList@VCWorkUnitInfo@@H@@IAEAAUListElem_t@1@H@Z 10006db0 f i vmpi:vmpi_distribute_work.obj
 0001:00005dc0       ?IsValidIndex@?$CUtlLinkedList@HH@@QBE_NH@Z 10006dc0 f i vmpi:vmpi_distribute_work.obj
 0001:00005df0       ?AllocInternal@?$CUtlLinkedList@HH@@IAEH_N@Z 10006df0 f i vmpi:vmpi_distribute_work.obj
 0001:00005e80       ?Purge@?$CUtlMemory@J@@QAEXXZ 10006e80 f i vmpi:vmpi_distribute_work.obj
 0001:00005eb0       ?Purge@?$CUtlMemory@UListElem_t@?$CUtlLinkedList@GH@@@@QAEXXZ 10006eb0 f i vmpi:vmpi_distribute_work.obj
 0001:00005ee0       ?Purge@?$CUtlMemory@UListElem_t@?$CUtlLinkedList@PAVCPartitionInfo@@H@@@@QAEXXZ 10006ee0 f i vmpi:vmpi_distribute_work.obj
 0001:00005f10       ?Element@?$CUtlVector@VCWULookupInfo@@V?$CUtlMemory@VCWULookupInfo@@@@@@QAEAAVCWULookupInfo@@H@Z 10006f10 f i vmpi:vmpi_distribute_work.obj
 0001:00005f20       ?Purge@?$CUtlMemory@VCWULookupInfo@@@@QAEXXZ 10006f20 f i vmpi:vmpi_distribute_work.obj
 0001:00005f50       ?Element@?$CUtlLinkedList@VCWorkUnitInfo@@H@@QAEAAVCWorkUnitInfo@@H@Z 10006f50 f i vmpi:vmpi_distribute_work.obj
 0001:00005f60       ?IsValidIndex@?$CUtlLinkedList@VCWorkUnitInfo@@H@@QBE_NH@Z 10006f60 f i vmpi:vmpi_distribute_work.obj
 0001:00005f90       ?Purge@?$CUtlMemory@UListElem_t@?$CUtlLinkedList@VCWorkUnitInfo@@H@@@@QAEXXZ 10006f90 f i vmpi:vmpi_distribute_work.obj
 0001:00005fc0       ?Element@?$CUtlVector@HV?$CUtlMemory@H@@@@QAEAAHH@Z 10006fc0 f i vmpi:vmpi_distribute_work.obj
 0001:00005fd0       ?Element@?$CUtlVector@JV?$CUtlMemory@J@@@@QAEAAJH@Z 10006fd0 f i vmpi:vmpi_distribute_work.obj
 0001:00005fe0       ?Grow@?$CUtlMemory@UListElem_t@?$CUtlLinkedList@GH@@@@QAEXH@Z 10006fe0 f i vmpi:vmpi_distribute_work.obj
 0001:00006050       ?Grow@?$CUtlMemory@UListElem_t@?$CUtlLinkedList@PAVCPartitionInfo@@H@@@@QAEXH@Z 10007050 f i vmpi:vmpi_distribute_work.obj
 0001:000060c0       ?GrowVector@?$CUtlVector@VCWULookupInfo@@V?$CUtlMemory@VCWULookupInfo@@@@@@IAEXH@Z 100070c0 f i vmpi:vmpi_distribute_work.obj
 0001:000060f0       ?ShiftElementsRight@?$CUtlVector@VCWULookupInfo@@V?$CUtlMemory@VCWULookupInfo@@@@@@IAEXHH@Z 100070f0 f i vmpi:vmpi_distribute_work.obj
 0001:00006130       ?Grow@?$CUtlMemory@UListElem_t@?$CUtlLinkedList@VCWorkUnitInfo@@H@@@@QAEXH@Z 10007130 f i vmpi:vmpi_distribute_work.obj
 0001:000061a0       ?Previous@?$CUtlLinkedList@HH@@QBEHH@Z 100071a0 f i vmpi:vmpi_distribute_work.obj
 0001:000061b0       ?GrowVector@?$CUtlVector@JV?$CUtlMemory@J@@@@IAEXH@Z 100071b0 f i vmpi:vmpi_distribute_work.obj
 0001:000061e0       ?ShiftElementsRight@?$CUtlVector@JV?$CUtlMemory@J@@@@IAEXHH@Z 100071e0 f i vmpi:vmpi_distribute_work.obj
 0001:00006220       ?Previous@?$CUtlLinkedList@GH@@QBEHH@Z 10007220 f i vmpi:vmpi_distribute_work.obj
 0001:00006230       ?Previous@?$CUtlLinkedList@PAVCPartitionInfo@@H@@QBEHH@Z 10007230 f i vmpi:vmpi_distribute_work.obj
 0001:00006240       ?Previous@?$CUtlLinkedList@VCWorkUnitInfo@@H@@QBEHH@Z 10007240 f i vmpi:vmpi_distribute_work.obj
 0001:00006250       ?SortByWUCount@@YAHPBX0@Z  10007250 f   vmpi:vmpi_distribute_work.obj
 0001:00006280       ??A?$CUtlVector@JV?$CUtlMemory@J@@@@QAEAAJH@Z 10007280 f i vmpi:vmpi_distribute_work.obj
 0001:00006290       ?Next@?$CUtlLinkedList@GH@@QBEHH@Z 10007290 f i vmpi:vmpi_distribute_work.obj
 0001:000062a0       ?Next@?$CUtlLinkedList@PAVCPartitionInfo@@H@@QBEHH@Z 100072a0 f i vmpi:vmpi_distribute_work.obj
 0001:000062b0       ??A?$CUtlVector@VCWULookupInfo@@V?$CUtlMemory@VCWULookupInfo@@@@@@QAEAAVCWULookupInfo@@H@Z 100072b0 f i vmpi:vmpi_distribute_work.obj
 0001:000062c0       ?RemoveAll@?$CUtlLinkedList@HH@@QAEXXZ 100072c0 f i vmpi:vmpi_distribute_work.obj
 0001:00006310       ??1?$CUtlMemory@UListElem_t@?$CUtlLinkedList@HH@@@@QAE@XZ 10007310 f i vmpi:vmpi_distribute_work.obj
 0001:00006340       ??1?$CUtlMemory@J@@QAE@XZ  10007340 f i vmpi:vmpi_distribute_work.obj
 0001:00006370       ??1?$CUtlMemory@UListElem_t@?$CUtlLinkedList@GH@@@@QAE@XZ 10007370 f i vmpi:vmpi_distribute_work.obj
 0001:000063a0       ??1?$CUtlMemory@UListElem_t@?$CUtlLinkedList@PAVCPartitionInfo@@H@@@@QAE@XZ 100073a0 f i vmpi:vmpi_distribute_work.obj
 0001:000063d0       ?RemoveAll@?$CUtlVector@VCWULookupInfo@@V?$CUtlMemory@VCWULookupInfo@@@@@@QAEXXZ 100073d0 f i vmpi:vmpi_distribute_work.obj
 0001:000063e0       ?Purge@?$CUtlVector@VCWULookupInfo@@V?$CUtlMemory@VCWULookupInfo@@@@@@QAEXXZ 100073e0 f i vmpi:vmpi_distribute_work.obj
 0001:00006420       ??1?$CUtlMemory@VCWULookupInfo@@@@QAE@XZ 10007420 f i vmpi:vmpi_distribute_work.obj
 0001:00006450       ?RemoveAll@?$CUtlLinkedList@VCWorkUnitInfo@@H@@QAEXXZ 10007450 f i vmpi:vmpi_distribute_work.obj
 0001:000064a0       ??1?$CUtlMemory@UListElem_t@?$CUtlLinkedList@VCWorkUnitInfo@@H@@@@QAE@XZ 100074a0 f i vmpi:vmpi_distribute_work.obj
 0001:000064d0       ?Purge@?$CUtlVector@HV?$CUtlMemory@H@@@@QAEXXZ 100074d0 f i vmpi:vmpi_distribute_work.obj
 0001:00006510       ?RemoveAll@?$CUtlVector@JV?$CUtlMemory@J@@@@QAEXXZ 10007510 f i vmpi:vmpi_distribute_work.obj
 0001:00006520       ?AllocInternal@?$CUtlLinkedList@GH@@IAEH_N@Z 10007520 f i vmpi:vmpi_distribute_work.obj
 0001:000065b0       ?AllocInternal@?$CUtlLinkedList@PAVCPartitionInfo@@H@@IAEH_N@Z 100075b0 f i vmpi:vmpi_distribute_work.obj
 0001:00006640       ?InsertMultipleBefore@?$CUtlVector@VCWULookupInfo@@V?$CUtlMemory@VCWULookupInfo@@@@@@QAEHHHPBVCWULookupInfo@@@Z 10007640 f i vmpi:vmpi_distribute_work.obj
 0001:000066f0       ?AllocInternal@?$CUtlLinkedList@VCWorkUnitInfo@@H@@IAEH_N@Z 100076f0 f i vmpi:vmpi_distribute_work.obj
 0001:00006780       ?InsertMultipleBefore@?$CUtlVector@HV?$CUtlMemory@H@@@@QAEHHHPBH@Z 10007780 f i vmpi:vmpi_distribute_work.obj
 0001:00006820       ?IsInList@?$CUtlLinkedList@HH@@QBE_NH@Z 10007820 f i vmpi:vmpi_distribute_work.obj
 0001:00006850       ?InsertMultipleBefore@?$CUtlVector@JV?$CUtlMemory@J@@@@QAEHHHPBJ@Z 10007850 f i vmpi:vmpi_distribute_work.obj
 0001:000068f0       ?IsInList@?$CUtlLinkedList@GH@@QBE_NH@Z 100078f0 f i vmpi:vmpi_distribute_work.obj
 0001:00006920       ?IsInList@?$CUtlLinkedList@PAVCPartitionInfo@@H@@QBE_NH@Z 10007920 f i vmpi:vmpi_distribute_work.obj
 0001:00006950       ?IsInList@?$CUtlLinkedList@VCWorkUnitInfo@@H@@QBE_NH@Z 10007950 f i vmpi:vmpi_distribute_work.obj
 0001:00006980       ?FindPartitionByWorker@@YAHPAVCMasterInfo@@H@Z 10007980 f   vmpi:vmpi_distribute_work.obj
 0001:000069c0       ?SendPartitionToWorker@@YAXPAVCDSInfo@@PAVCPartitionInfo@@H@Z 100079c0 f   vmpi:vmpi_distribute_work.obj
 0001:00006a70       ?FindLargestPartition@@YAHPAVCMasterInfo@@@Z 10007a70 f   vmpi:vmpi_distribute_work.obj
 0001:00006ab0       ?VMPI_DistributeWork_DisconnectHandler@@YAXHPBD@Z 10007ab0 f   vmpi:vmpi_distribute_work.obj
 0001:00006b20       ??0?$CUtlLinkedList@HH@@QAE@HH@Z 10007b20 f i vmpi:vmpi_distribute_work.obj
 0001:00006b80       ??1?$CUtlLinkedList@HH@@QAE@XZ 10007b80 f i vmpi:vmpi_distribute_work.obj
 0001:00006bc0       ?Purge@?$CUtlLinkedList@HH@@QAEXXZ 10007bc0 f i vmpi:vmpi_distribute_work.obj
 0001:00006c10       ??0?$CUtlVector@JV?$CUtlMemory@J@@@@QAE@HH@Z 10007c10 f i vmpi:vmpi_distribute_work.obj
 0001:00006c60       ??0?$CUtlLinkedList@GH@@QAE@HH@Z 10007c60 f i vmpi:vmpi_distribute_work.obj
 0001:00006cc0       ??1?$CUtlLinkedList@GH@@QAE@XZ 10007cc0 f i vmpi:vmpi_distribute_work.obj
 0001:00006d00       ??0?$CUtlLinkedList@PAVCPartitionInfo@@H@@QAE@HH@Z 10007d00 f i vmpi:vmpi_distribute_work.obj
 0001:00006d60       ??1?$CUtlLinkedList@PAVCPartitionInfo@@H@@QAE@XZ 10007d60 f i vmpi:vmpi_distribute_work.obj
 0001:00006da0       ??0?$CUtlVector@VCWULookupInfo@@V?$CUtlMemory@VCWULookupInfo@@@@@@QAE@HH@Z 10007da0 f i vmpi:vmpi_distribute_work.obj
 0001:00006df0       ??1?$CUtlVector@VCWULookupInfo@@V?$CUtlMemory@VCWULookupInfo@@@@@@QAE@XZ 10007df0 f i vmpi:vmpi_distribute_work.obj
 0001:00006e50       ??0?$CUtlLinkedList@VCWorkUnitInfo@@H@@QAE@HH@Z 10007e50 f i vmpi:vmpi_distribute_work.obj
 0001:00006eb0       ??1?$CUtlLinkedList@VCWorkUnitInfo@@H@@QAE@XZ 10007eb0 f i vmpi:vmpi_distribute_work.obj
 0001:00006ef0       ??0?$CUtlVector@HV?$CUtlMemory@H@@@@QAE@HH@Z 10007ef0 f i vmpi:vmpi_distribute_work.obj
 0001:00006f40       ?Purge@?$CUtlVector@JV?$CUtlMemory@J@@@@QAEXXZ 10007f40 f i vmpi:vmpi_distribute_work.obj
 0001:00006f80       ?AddMultipleToTail@?$CUtlVector@VCWULookupInfo@@V?$CUtlMemory@VCWULookupInfo@@@@@@QAEHHPBVCWULookupInfo@@@Z 10007f80 f i vmpi:vmpi_distribute_work.obj
 0001:00006fa0       ?AddMultipleToTail@?$CUtlVector@HV?$CUtlMemory@H@@@@QAEHHPBH@Z 10007fa0 f i vmpi:vmpi_distribute_work.obj
 0001:00006fc0       ?Unlink@?$CUtlLinkedList@HH@@QAEXH@Z 10007fc0 f i vmpi:vmpi_distribute_work.obj
 0001:00007040       ?AddMultipleToTail@?$CUtlVector@JV?$CUtlMemory@J@@@@QAEHHPBJ@Z 10008040 f i vmpi:vmpi_distribute_work.obj
 0001:00007060       ?Unlink@?$CUtlLinkedList@GH@@QAEXH@Z 10008060 f i vmpi:vmpi_distribute_work.obj
 0001:000070e0       ?Unlink@?$CUtlLinkedList@PAVCPartitionInfo@@H@@QAEXH@Z 100080e0 f i vmpi:vmpi_distribute_work.obj
 0001:00007160       ?Unlink@?$CUtlLinkedList@VCWorkUnitInfo@@H@@QAEXH@Z 10008160 f i vmpi:vmpi_distribute_work.obj
 0001:000071e0       ??0CMasterInfo@@QAE@XZ     100081e0 f i vmpi:vmpi_distribute_work.obj
 0001:00007230       ??1CMasterInfo@@QAE@XZ     10008230 f i vmpi:vmpi_distribute_work.obj
 0001:000072b0       ??0CPartitionInfo@@QAE@XZ  100082b0 f i vmpi:vmpi_distribute_work.obj
 0001:000072e0       ??1CPartitionInfo@@QAE@XZ  100082e0 f i vmpi:vmpi_distribute_work.obj
 0001:00007320       ??1?$CUtlVector@JV?$CUtlMemory@J@@@@QAE@XZ 10008320 f i vmpi:vmpi_distribute_work.obj
 0001:00007380       ?SetCount@?$CUtlVector@VCWULookupInfo@@V?$CUtlMemory@VCWULookupInfo@@@@@@QAEXH@Z 10008380 f i vmpi:vmpi_distribute_work.obj
 0001:000073a0       ?Free@?$CUtlLinkedList@HH@@QAEXH@Z 100083a0 f i vmpi:vmpi_distribute_work.obj
 0001:000073d0       ?SetCount@?$CUtlVector@JV?$CUtlMemory@J@@@@QAEXH@Z 100083d0 f i vmpi:vmpi_distribute_work.obj
 0001:000073f0       ?Free@?$CUtlLinkedList@GH@@QAEXH@Z 100083f0 f i vmpi:vmpi_distribute_work.obj
 0001:00007420       ?Free@?$CUtlLinkedList@PAVCPartitionInfo@@H@@QAEXH@Z 10008420 f i vmpi:vmpi_distribute_work.obj
 0001:00007450       ?Free@?$CUtlLinkedList@VCWorkUnitInfo@@H@@QAEXH@Z 10008450 f i vmpi:vmpi_distribute_work.obj
 0001:00007480       ?LinkBefore@?$CUtlLinkedList@HH@@QAEXHH@Z 10008480 f i vmpi:vmpi_distribute_work.obj
 0001:000074f0       ?LinkBefore@?$CUtlLinkedList@GH@@QAEXHH@Z 100084f0 f i vmpi:vmpi_distribute_work.obj
 0001:00007560       ?LinkAfter@?$CUtlLinkedList@GH@@QAEXHH@Z 10008560 f i vmpi:vmpi_distribute_work.obj
 0001:000075e0       ?LinkBefore@?$CUtlLinkedList@PAVCPartitionInfo@@H@@QAEXHH@Z 100085e0 f i vmpi:vmpi_distribute_work.obj
 0001:00007650       ?LinkBefore@?$CUtlLinkedList@VCWorkUnitInfo@@H@@QAEXHH@Z 10008650 f i vmpi:vmpi_distribute_work.obj
 0001:000076c0       ??0CWorkerInfo@@QAE@XZ     100086c0 f i vmpi:vmpi_distribute_work.obj
 0001:00007710       ??1CWorkerInfo@@QAE@XZ     10008710 f i vmpi:vmpi_distribute_work.obj
 0001:00007760       ??_GCPartitionInfo@@QAEPAXI@Z 10008760 f i vmpi:vmpi_distribute_work.obj
 0001:000077b0       ?Remove@?$CUtlLinkedList@HH@@QAEXH@Z 100087b0 f i vmpi:vmpi_distribute_work.obj
 0001:000077e0       ?SetSize@?$CUtlVector@JV?$CUtlMemory@J@@@@QAEXH@Z 100087e0 f i vmpi:vmpi_distribute_work.obj
 0001:00007800       ?Remove@?$CUtlLinkedList@GH@@QAEXH@Z 10008800 f i vmpi:vmpi_distribute_work.obj
 0001:00007830       ?Remove@?$CUtlLinkedList@PAVCPartitionInfo@@H@@QAEXH@Z 10008830 f i vmpi:vmpi_distribute_work.obj
 0001:00007860       ?Remove@?$CUtlLinkedList@VCWorkUnitInfo@@H@@QAEXH@Z 10008860 f i vmpi:vmpi_distribute_work.obj
 0001:00007890       ?SetSize@?$CUtlVector@HV?$CUtlMemory@H@@@@QAEXH@Z 10008890 f i vmpi:vmpi_distribute_work.obj
 0001:000078b0       ?InsertBefore@?$CUtlLinkedList@HH@@QAEHHABH@Z 100088b0 f i vmpi:vmpi_distribute_work.obj
 0001:00007940       ?InsertBefore@?$CUtlLinkedList@GH@@QAEHHABG@Z 10008940 f i vmpi:vmpi_distribute_work.obj
 0001:000079d0       ?InsertAfter@?$CUtlLinkedList@GH@@QAEHHABG@Z 100089d0 f i vmpi:vmpi_distribute_work.obj
 0001:00007a60       ?InsertBefore@?$CUtlLinkedList@PAVCPartitionInfo@@H@@QAEHHABQAVCPartitionInfo@@@Z 10008a60 f i vmpi:vmpi_distribute_work.obj
 0001:00007af0       ?InsertBefore@?$CUtlLinkedList@VCWorkUnitInfo@@H@@QAEHHABVCWorkUnitInfo@@@Z 10008af0 f i vmpi:vmpi_distribute_work.obj
 0001:00007b80       ??0CDSInfo@@QAE@XZ         10008b80 f i vmpi:vmpi_distribute_work.obj
 0001:00007c60       ??1CDSInfo@@QAE@XZ         10008c60 f i vmpi:vmpi_distribute_work.obj
 0001:00007cc0       ?ShowMPIStats@@YAXNKKKK@Z  10008cc0 f   vmpi:vmpi_distribute_work.obj
 0001:00007f30       ?VMPI_WorkerThread@@YAXHPAX@Z 10008f30 f   vmpi:vmpi_distribute_work.obj
 0001:000080e0       ?DistributeWork_Worker@@YAXPAVCDSInfo@@P6AXHHPAVMessageBuffer@@@Z@Z 100090e0 f   vmpi:vmpi_distribute_work.obj
 0001:000081b0       ?AddToTail@?$CUtlLinkedList@HH@@QAEHABH@Z 100091b0 f i vmpi:vmpi_distribute_work.obj
 0001:000081c0       ?AddToHead@?$CUtlLinkedList@GH@@QAEHABG@Z 100091c0 f i vmpi:vmpi_distribute_work.obj
 0001:000081d0       ?AddToTail@?$CUtlLinkedList@GH@@QAEHABG@Z 100091d0 f i vmpi:vmpi_distribute_work.obj
 0001:000081e0       ?AddToTail@?$CUtlLinkedList@PAVCPartitionInfo@@H@@QAEHABQAVCPartitionInfo@@@Z 100091e0 f i vmpi:vmpi_distribute_work.obj
 0001:000081f0       ?AddToTail@?$CUtlLinkedList@VCWorkUnitInfo@@H@@QAEHABVCWorkUnitInfo@@@Z 100091f0 f i vmpi:vmpi_distribute_work.obj
 0001:00008200       ?AddPartition@@YAPAVCPartitionInfo@@PAVCDSInfo@@H@Z 10009200 f   vmpi:vmpi_distribute_work.obj
 0001:00008260       ?TransferWUs@@YAXPAVCDSInfo@@PAVCPartitionInfo@@1H_N@Z 10009260 f   vmpi:vmpi_distribute_work.obj
 0001:00008310       ?AssignWUsToWorker@@YAXPAVCDSInfo@@H@Z 10009310 f   vmpi:vmpi_distribute_work.obj
 0001:000085e0       ?DistributeWorkDispatch@@YA_NPAVMessageBuffer@@HH@Z 100095e0 f   vmpi:vmpi_distribute_work.obj
 0001:000088e0       ?DistributeWork_Master@@YAXPAVCDSInfo@@P6AXHPAVMessageBuffer@@H@Z@Z 100098e0 f   vmpi:vmpi_distribute_work.obj
 0001:000089d0       ?DistributeWork@@YANHDP6AXHHPAVMessageBuffer@@@ZP6AXH0H@Z@Z 100099d0 f   vmpi:vmpi_distribute_work.obj
 0001:00008b80       ??0MessageBuffer@@QAE@XZ   10009b80 f   vmpi:messbuf.obj
 0001:00008bb0       ??0MessageBuffer@@QAE@H@Z  10009bb0 f   vmpi:messbuf.obj
 0001:00008be0       ??1MessageBuffer@@QAE@XZ   10009be0 f   vmpi:messbuf.obj
 0001:00008bf0       ?getSize@MessageBuffer@@QAEHXZ 10009bf0 f   vmpi:messbuf.obj
 0001:00008c00       ?getLen@MessageBuffer@@QAEHXZ 10009c00 f   vmpi:messbuf.obj
 0001:00008c10       ?getOffset@MessageBuffer@@QAEHXZ 10009c10 f   vmpi:messbuf.obj
 0001:00008c20       ?setOffset@MessageBuffer@@QAEHH@Z 10009c20 f   vmpi:messbuf.obj
 0001:00008c40       ?extract@MessageBuffer@@QAEHHPAXH@Z 10009c40 f   vmpi:messbuf.obj
 0001:00008c80       ?read@MessageBuffer@@QAEHPAXH@Z 10009c80 f   vmpi:messbuf.obj
 0001:00008cc0       ?clear@MessageBuffer@@QAEXXZ 10009cc0 f   vmpi:messbuf.obj
 0001:00008cf0       ?resize@MessageBuffer@@AAEXH@Z 10009cf0 f   vmpi:messbuf.obj
 0001:00008d50       ?print@MessageBuffer@@QAEXPAU_iobuf@@H@Z 10009d50 f   vmpi:messbuf.obj
 0001:00008dc0       ?setLen@MessageBuffer@@QAEHH@Z 10009dc0 f   vmpi:messbuf.obj
 0001:00008df0       ?write@MessageBuffer@@QAEHPAXH@Z 10009df0 f   vmpi:messbuf.obj
 0001:00008e40       ?update@MessageBuffer@@QAEHHPAXH@Z 10009e40 f   vmpi:messbuf.obj
 0001:00008e90       ?clear@MessageBuffer@@QAEXH@Z 10009e90 f   vmpi:messbuf.obj
 0001:00008ed0       ?reset@MessageBuffer@@QAEXH@Z 10009ed0 f   vmpi:messbuf.obj
 0001:00008ef0       ?GetVMPIFileSystem@@YAPAXXZ 10009ef0 f   vmpi:vmpi_filesystem.obj
 0001:00008f00       ?VMPI_FileSystem_Init@@YAPAVIFileSystem@@HPAV1@@Z 10009f00 f   vmpi:vmpi_filesystem.obj
 0001:00008f40       ?VMPI_FileSystem_Term@@YAPAVIFileSystem@@XZ 10009f40 f   vmpi:vmpi_filesystem.obj
 0001:00008fc0       ?VMPI_FileSystem_DisableFileAccess@@YAXXZ 10009fc0 f   vmpi:vmpi_filesystem.obj
 0001:00008fd0       ?VMPI_FileSystem_GetFactory@@YAP6APAXPBDPAH@ZXZ 10009fd0 f   vmpi:vmpi_filesystem.obj
 0001:00008fe0       ?VMPI_FileSystem_CreateVirtualFile@@YAXPBDPBXK@Z 10009fe0 f   vmpi:vmpi_filesystem.obj
 0001:00009000       ?FileSystemRecv@@YA_NPAVMessageBuffer@@HH@Z 1000a000 f   vmpi:vmpi_filesystem.obj
 0001:00009030       ?Init@CVMPIFile_Memory@@QAEXPBDJ@Z 1000a030 f   vmpi:vmpi_filesystem.obj
 0001:00009050       ?Close@CVMPIFile_Memory@@UAEXXZ 1000a050 f   vmpi:vmpi_filesystem.obj
 0001:00009060       ?Seek@CVMPIFile_Memory@@UAEXHW4FileSystemSeek_t@@@Z 1000a060 f   vmpi:vmpi_filesystem.obj
 0001:00009090       ?Tell@CVMPIFile_Memory@@UAEIXZ 1000a090 f   vmpi:vmpi_filesystem.obj
 0001:000090a0       ?Size@CVMPIFile_Memory@@UAEIXZ 1000a0a0 f   vmpi:vmpi_filesystem.obj
 0001:000090b0       ?Flush@CVMPIFile_Memory@@UAEXXZ 1000a0b0 f   vmpi:vmpi_filesystem.obj
 0001:000090c0       ?Read@CVMPIFile_Memory@@UAEHPAXH@Z 1000a0c0 f   vmpi:vmpi_filesystem.obj
 0001:00009100       ?Write@CVMPIFile_Memory@@UAEHPBXH@Z 1000a100 f   vmpi:vmpi_filesystem.obj
 0001:00009110       ??1CBaseVMPIFileSystem@@UAE@XZ 1000a110 f   vmpi:vmpi_filesystem.obj
 0001:00009120       ??_ECBaseVMPIFileSystem@@UAEPAXI@Z 1000a120 f i vmpi:vmpi_filesystem.obj
 0001:00009120       ??_GCBaseVMPIFileSystem@@UAEPAXI@Z 1000a120 f i vmpi:vmpi_filesystem.obj
 0001:00009150       ?Release@CBaseVMPIFileSystem@@UAEXXZ 1000a150 f   vmpi:vmpi_filesystem.obj
 0001:00009160       ?Close@CBaseVMPIFileSystem@@UAEXPAX@Z 1000a160 f   vmpi:vmpi_filesystem.obj
 0001:00009170       ?Read@CBaseVMPIFileSystem@@UAEHPAXH0@Z 1000a170 f   vmpi:vmpi_filesystem.obj
 0001:00009190       ?Write@CBaseVMPIFileSystem@@UAEHPBXHPAX@Z 1000a190 f   vmpi:vmpi_filesystem.obj
 0001:000091b0       ?Seek@CBaseVMPIFileSystem@@UAEXPAXHW4FileSystemSeek_t@@@Z 1000a1b0 f   vmpi:vmpi_filesystem.obj
 0001:000091d0       ?Tell@CBaseVMPIFileSystem@@UAEIPAX@Z 1000a1d0 f   vmpi:vmpi_filesystem.obj
 0001:000091e0       ?Size@CBaseVMPIFileSystem@@UAEIPAX@Z 1000a1e0 f   vmpi:vmpi_filesystem.obj
 0001:000091f0       ?Size@CBaseVMPIFileSystem@@UAEIPBD0@Z 1000a1f0 f   vmpi:vmpi_filesystem.obj
 0001:00009230       ?FileExists@CBaseVMPIFileSystem@@UAE_NPBD0@Z 1000a230 f   vmpi:vmpi_filesystem.obj
 0001:00009260       ?Flush@CBaseVMPIFileSystem@@UAEXPAX@Z 1000a260 f   vmpi:vmpi_filesystem.obj
 0001:00009270       ?Precache@CBaseVMPIFileSystem@@UAE_NPBD0@Z 1000a270 f   vmpi:vmpi_filesystem.obj
 0001:00009280       ?InitPassThru@?$CInternalFileSystemPassThru@VIFileSystem@@@@UAEXPAVIBaseFileSystem@@@Z 1000a280 f i vmpi:vmpi_filesystem.obj
 0001:00009290       ?Open@?$CInternalFileSystemPassThru@VIFileSystem@@@@UAEPAXPBD00@Z 1000a290 f i vmpi:vmpi_filesystem.obj
 0001:000092a0       ?IsFileWritable@?$CInternalFileSystemPassThru@VIFileSystem@@@@UAE_NPBD0@Z 1000a2a0 f i vmpi:vmpi_filesystem.obj
 0001:000092b0       ?SetFileWritable@?$CInternalFileSystemPassThru@VIFileSystem@@@@UAE_NPBD_N0@Z 1000a2b0 f i vmpi:vmpi_filesystem.obj
 0001:000092c0       ?GetFileTime@?$CInternalFileSystemPassThru@VIFileSystem@@@@UAEJPBD0@Z 1000a2c0 f i vmpi:vmpi_filesystem.obj
 0001:000092d0       ??A?$CUtlMemory@E@@QAEAAEH@Z 1000a2d0 f i vmpi:vmpi_filesystem.obj
 0001:000092e0       ?Base@?$CUtlMemory@E@@QAEPAEXZ 1000a2e0 f i vmpi:vmpi_filesystem.obj
 0001:000092f0       ?InitPassThru@CFileSystemPassThru@@UAEXPAVIFileSystem@@_N@Z 1000a2f0 f i vmpi:vmpi_filesystem.obj
 0001:00009320       ?Connect@CFileSystemPassThru@@UAE_NP6APAXPBDPAH@Z@Z 1000a320 f i vmpi:vmpi_filesystem.obj
 0001:00009330       ?Disconnect@CFileSystemPassThru@@UAEXXZ 1000a330 f i vmpi:vmpi_filesystem.obj
 0001:00009340       ?QueryInterface@CFileSystemPassThru@@UAEPAXPBD@Z 1000a340 f i vmpi:vmpi_filesystem.obj
 0001:00009350       ?Init@CFileSystemPassThru@@UAE?AW4InitReturnVal_t@@XZ 1000a350 f i vmpi:vmpi_filesystem.obj
 0001:00009360       ?Shutdown@CFileSystemPassThru@@UAEXXZ 1000a360 f i vmpi:vmpi_filesystem.obj
 0001:00009370       ?ConnectApp@CFileSystemPassThru@@UAE_NP6APAXPBDPAH@Z@Z 1000a370 f i vmpi:vmpi_filesystem.obj
 0001:00009380       ?DisconnectApp@CFileSystemPassThru@@UAEXXZ 1000a380 f i vmpi:vmpi_filesystem.obj
 0001:00009390       ?InitApp@CFileSystemPassThru@@UAE?AW4InitReturnVal_t@@XZ 1000a390 f i vmpi:vmpi_filesystem.obj
 0001:000093a0       ?ShutdownApp@CFileSystemPassThru@@UAEXXZ 1000a3a0 f i vmpi:vmpi_filesystem.obj
 0001:000093b0       ?RemoveAllSearchPaths@CFileSystemPassThru@@UAEXXZ 1000a3b0 f i vmpi:vmpi_filesystem.obj
 0001:000093c0       ?AddSearchPath@CFileSystemPassThru@@UAEXPBD0W4SearchPathAdd_t@@@Z 1000a3c0 f i vmpi:vmpi_filesystem.obj
 0001:000093d0       ?RemoveSearchPath@CFileSystemPassThru@@UAE_NPBD0@Z 1000a3d0 f i vmpi:vmpi_filesystem.obj
 0001:000093e0       ?RemoveFile@CFileSystemPassThru@@UAEXPBD0@Z 1000a3e0 f i vmpi:vmpi_filesystem.obj
 0001:000093f0       ?RenameFile@CFileSystemPassThru@@UAEXPBD00@Z 1000a3f0 f i vmpi:vmpi_filesystem.obj
 0001:00009400       ?CreateDirHierarchy@CFileSystemPassThru@@UAEXPBD0@Z 1000a400 f i vmpi:vmpi_filesystem.obj
 0001:00009410       ?IsDirectory@CFileSystemPassThru@@UAE_NPBD0@Z 1000a410 f i vmpi:vmpi_filesystem.obj
 0001:00009420       ?FileTimeToString@CFileSystemPassThru@@UAEXPADHJ@Z 1000a420 f i vmpi:vmpi_filesystem.obj
 0001:00009430       ?SetBufferSize@CFileSystemPassThru@@UAEXPAXI@Z 1000a430 f i vmpi:vmpi_filesystem.obj
 0001:00009440       ?IsOk@CFileSystemPassThru@@UAE_NPAX@Z 1000a440 f i vmpi:vmpi_filesystem.obj
 0001:00009450       ?EndOfFile@CFileSystemPassThru@@UAE_NPAX@Z 1000a450 f i vmpi:vmpi_filesystem.obj
 0001:00009460       ?ReadLine@CFileSystemPassThru@@UAEPADPADHPAX@Z 1000a460 f i vmpi:vmpi_filesystem.obj
 0001:00009470       ?FPrintf@CFileSystemPassThru@@UAAHPAXPADZZ 1000a470 f i vmpi:vmpi_filesystem.obj
 0001:000094d0       ?LoadModule@CFileSystemPassThru@@UAEPAVCSysModule@@PBD0_N@Z 1000a4d0 f i vmpi:vmpi_filesystem.obj
 0001:000094e0       ?UnloadModule@CFileSystemPassThru@@UAEXPAVCSysModule@@@Z 1000a4e0 f i vmpi:vmpi_filesystem.obj
 0001:000094f0       ?FindFirst@CFileSystemPassThru@@UAEPBDPBDPAH@Z 1000a4f0 f i vmpi:vmpi_filesystem.obj
 0001:00009500       ?FindNext@CFileSystemPassThru@@UAEPBDH@Z 1000a500 f i vmpi:vmpi_filesystem.obj
 0001:00009510       ?FindIsDirectory@CFileSystemPassThru@@UAE_NH@Z 1000a510 f i vmpi:vmpi_filesystem.obj
 0001:00009520       ?FindClose@CFileSystemPassThru@@UAEXH@Z 1000a520 f i vmpi:vmpi_filesystem.obj
 0001:00009530       ?GetLocalPath@CFileSystemPassThru@@UAEPBDPBDPADH@Z 1000a530 f i vmpi:vmpi_filesystem.obj
 0001:00009540       ?FullPathToRelativePath@CFileSystemPassThru@@UAE_NPBDPADH@Z 1000a540 f i vmpi:vmpi_filesystem.obj
 0001:00009550       ?GetCurrentDirectory@CFileSystemPassThru@@UAE_NPADH@Z 1000a550 f i vmpi:vmpi_filesystem.obj
 0001:00009560       ?PrintOpenedFiles@CFileSystemPassThru@@UAEXXZ 1000a560 f i vmpi:vmpi_filesystem.obj
 0001:00009570       ?PrintSearchPaths@CFileSystemPassThru@@UAEXXZ 1000a570 f i vmpi:vmpi_filesystem.obj
 0001:00009580       ?SetWarningFunc@CFileSystemPassThru@@UAEXP6AXPBDZZ@Z 1000a580 f i vmpi:vmpi_filesystem.obj
 0001:00009590       ?SetWarningLevel@CFileSystemPassThru@@UAEXW4FileWarningLevel_t@@@Z 1000a590 f i vmpi:vmpi_filesystem.obj
 0001:000095a0       ?AddLoggingFunc@CFileSystemPassThru@@UAEXP6AXPBD0@Z@Z 1000a5a0 f i vmpi:vmpi_filesystem.obj
 0001:000095b0       ?RemoveLoggingFunc@CFileSystemPassThru@@UAEXP6AXPBD0@Z@Z 1000a5b0 f i vmpi:vmpi_filesystem.obj
 0001:000095c0       ?AsyncReadMultiple@CFileSystemPassThru@@UAE?AW4FSAsyncStatus_t@@PBUFileAsyncRequest_t@@HPAPAUFSAsyncControl_t__@@@Z 1000a5c0 f i vmpi:vmpi_filesystem.obj
 0001:000095d0       ?AsyncReadMultipleCreditAlloc@CFileSystemPassThru@@UAE?AW4FSAsyncStatus_t@@PBUFileAsyncRequest_t@@HPBDHPAPAUFSAsyncControl_t__@@@Z 1000a5d0 f i vmpi:vmpi_filesystem.obj
 0001:000095e0       ?AsyncFinish@CFileSystemPassThru@@UAE?AW4FSAsyncStatus_t@@PAUFSAsyncControl_t__@@_N@Z 1000a5e0 f i vmpi:vmpi_filesystem.obj
 0001:000095f0       ?AsyncGetResult@CFileSystemPassThru@@UAE?AW4FSAsyncStatus_t@@PAUFSAsyncControl_t__@@PAPAXPAH@Z 1000a5f0 f i vmpi:vmpi_filesystem.obj
 0001:00009600       ?AsyncAbort@CFileSystemPassThru@@UAE?AW4FSAsyncStatus_t@@PAUFSAsyncControl_t__@@@Z 1000a600 f i vmpi:vmpi_filesystem.obj
 0001:00009610       ?AsyncStatus@CFileSystemPassThru@@UAE?AW4FSAsyncStatus_t@@PAUFSAsyncControl_t__@@@Z 1000a610 f i vmpi:vmpi_filesystem.obj
 0001:00009620       ?AsyncFlush@CFileSystemPassThru@@UAE?AW4FSAsyncStatus_t@@XZ 1000a620 f i vmpi:vmpi_filesystem.obj
 0001:00009630       ?AsyncAddRef@CFileSystemPassThru@@UAEXPAUFSAsyncControl_t__@@@Z 1000a630 f i vmpi:vmpi_filesystem.obj
 0001:00009640       ?AsyncRelease@CFileSystemPassThru@@UAEXPAUFSAsyncControl_t__@@@Z 1000a640 f i vmpi:vmpi_filesystem.obj
 0001:00009650       ?AsyncBeginRead@CFileSystemPassThru@@UAE?AW4FSAsyncStatus_t@@PBDPAPAUFSAsyncFile_t__@@@Z 1000a650 f i vmpi:vmpi_filesystem.obj
 0001:00009660       ?AsyncEndRead@CFileSystemPassThru@@UAE?AW4FSAsyncStatus_t@@PAUFSAsyncFile_t__@@@Z 1000a660 f i vmpi:vmpi_filesystem.obj
 0001:00009670       ?GetFilesystemStatistics@CFileSystemPassThru@@UAEPBUFileSystemStatistics@@XZ 1000a670 f i vmpi:vmpi_filesystem.obj
 0001:00009680       ?WaitForResources@CFileSystemPassThru@@UAEHPBD@Z 1000a680 f i vmpi:vmpi_filesystem.obj
 0001:00009690       ?GetWaitForResourcesProgress@CFileSystemPassThru@@UAE_NHPAMPA_N@Z 1000a690 f i vmpi:vmpi_filesystem.obj
 0001:000096a0       ?CancelWaitForResources@CFileSystemPassThru@@UAEXH@Z 1000a6a0 f i vmpi:vmpi_filesystem.obj
 0001:000096b0       ?HintResourceNeed@CFileSystemPassThru@@UAEHPBDH@Z 1000a6b0 f i vmpi:vmpi_filesystem.obj
 0001:000096c0       ?IsFileImmediatelyAvailable@CFileSystemPassThru@@UAE_NPBD@Z 1000a6c0 f i vmpi:vmpi_filesystem.obj
 0001:000096d0       ?GetLocalCopy@CFileSystemPassThru@@UAEXPBD@Z 1000a6d0 f i vmpi:vmpi_filesystem.obj
 0001:000096e0       ?FindOrAddFileName@CFileSystemPassThru@@UAEPAXPBD@Z 1000a6e0 f i vmpi:vmpi_filesystem.obj
 0001:000096f0       ?FindFileName@CFileSystemPassThru@@UAEPAXPBD@Z 1000a6f0 f i vmpi:vmpi_filesystem.obj
 0001:00009700       ?String@CFileSystemPassThru@@UAE_NABQAXPADH@Z 1000a700 f i vmpi:vmpi_filesystem.obj
 0001:00009710       ?IsOk2@CFileSystemPassThru@@UAE_NPAX@Z 1000a710 f i vmpi:vmpi_filesystem.obj
 0001:00009720       ?RemoveSearchPaths@CFileSystemPassThru@@UAEXPBD@Z 1000a720 f i vmpi:vmpi_filesystem.obj
 0001:00009730       ?IsSteam@CFileSystemPassThru@@UBE_NXZ 1000a730 f i vmpi:vmpi_filesystem.obj
 0001:00009740       ?MountSteamContent@CFileSystemPassThru@@UAE?AW4FilesystemMountRetval_t@@H@Z 1000a740 f i vmpi:vmpi_filesystem.obj
 0001:00009750       ?FindFirstEx@CFileSystemPassThru@@UAEPBDPBD0PAH@Z 1000a750 f i vmpi:vmpi_filesystem.obj
 0001:00009760       ?MarkPathIDByRequestOnly@CFileSystemPassThru@@UAEXPBD_N@Z 1000a760 f i vmpi:vmpi_filesystem.obj
 0001:00009770       ?AddPackFile@CFileSystemPassThru@@UAE_NPBD0@Z 1000a770 f i vmpi:vmpi_filesystem.obj
 0001:00009780       ?AsyncAppend@CFileSystemPassThru@@UAE?AW4FSAsyncStatus_t@@PBDPBXH_NPAPAUFSAsyncControl_t__@@@Z 1000a780 f i vmpi:vmpi_filesystem.obj
 0001:00009790       ?AsyncWrite@CFileSystemPassThru@@UAE?AW4FSAsyncStatus_t@@PBDPBXH_N2PAPAUFSAsyncControl_t__@@@Z 1000a790 f i vmpi:vmpi_filesystem.obj
 0001:000097a0       ?AsyncAppendFile@CFileSystemPassThru@@UAE?AW4FSAsyncStatus_t@@PBD0PAPAUFSAsyncControl_t__@@@Z 1000a7a0 f i vmpi:vmpi_filesystem.obj
 0001:000097b0       ?AsyncFinishAll@CFileSystemPassThru@@UAEXH@Z 1000a7b0 f i vmpi:vmpi_filesystem.obj
 0001:000097c0       ?AsyncFinishAllWrites@CFileSystemPassThru@@UAEXXZ 1000a7c0 f i vmpi:vmpi_filesystem.obj
 0001:000097d0       ?AsyncSetPriority@CFileSystemPassThru@@UAE?AW4FSAsyncStatus_t@@PAUFSAsyncControl_t__@@H@Z 1000a7d0 f i vmpi:vmpi_filesystem.obj
 0001:000097e0       ?AsyncSuspend@CFileSystemPassThru@@UAE_NXZ 1000a7e0 f i vmpi:vmpi_filesystem.obj
 0001:000097f0       ?AsyncResume@CFileSystemPassThru@@UAE_NXZ 1000a7f0 f i vmpi:vmpi_filesystem.obj
 0001:00009800       ?RelativePathToFullPath@CFileSystemPassThru@@UAEPBDPBD0PADH@Z 1000a800 f i vmpi:vmpi_filesystem.obj
 0001:00009810       ?GetSearchPath@CFileSystemPassThru@@UAEHPBD_NPADH@Z 1000a810 f i vmpi:vmpi_filesystem.obj
 0001:00009820       ?OpenEx@CFileSystemPassThru@@UAEPAXPBD0I0PAPAD@Z 1000a820 f i vmpi:vmpi_filesystem.obj
 0001:00009830       ?ReadEx@CFileSystemPassThru@@UAEHPAXHH0@Z 1000a830 f i vmpi:vmpi_filesystem.obj
 0001:00009840       ?ReadFileEx@CFileSystemPassThru@@UAEHPBD0PAPAX_N2HHP6APAX0I@Z@Z 1000a840 f i vmpi:vmpi_filesystem.obj
 0001:00009850       ?PurgePreloadedData@CFileSystemPassThru@@UAEXXZ 1000a850 f i vmpi:vmpi_filesystem.obj
 0001:00009860       ?PreloadData@CFileSystemPassThru@@UAEXXZ 1000a860 f i vmpi:vmpi_filesystem.obj
 0001:00009870       ?LoadCompiledKeyValues@CFileSystemPassThru@@UAEXW4KeyValuesPreloadType_t@IFileSystem@@PBD@Z 1000a870 f i vmpi:vmpi_filesystem.obj
 0001:00009880       ?LoadKeyValues@CFileSystemPassThru@@UAEPAVKeyValues@@W4KeyValuesPreloadType_t@IFileSystem@@PBD1@Z 1000a880 f i vmpi:vmpi_filesystem.obj
 0001:00009890       ?LoadKeyValues@CFileSystemPassThru@@UAE_NAAVKeyValues@@W4KeyValuesPreloadType_t@IFileSystem@@PBD2@Z 1000a890 f i vmpi:vmpi_filesystem.obj
 0001:000098a0       ?ExtractRootKeyName@CFileSystemPassThru@@UAE_NW4KeyValuesPreloadType_t@IFileSystem@@PADIPBD2@Z 1000a8a0 f i vmpi:vmpi_filesystem.obj
 0001:000098b0       ?GetFileTypeForFullPath@CFileSystemPassThru@@UAE_NPBDPAGI@Z 1000a8b0 f i vmpi:vmpi_filesystem.obj
 0001:000098c0       ?GetOptimalIOConstraints@CFileSystemPassThru@@UAE_NPAXPAI11@Z 1000a8c0 f i vmpi:vmpi_filesystem.obj
 0001:000098d0       ?AllocOptimalReadBuffer@CFileSystemPassThru@@UAEPAXPAXII@Z 1000a8d0 f i vmpi:vmpi_filesystem.obj
 0001:000098f0       ?FreeOptimalReadBuffer@CFileSystemPassThru@@UAEXPAX@Z 1000a8f0 f i vmpi:vmpi_filesystem.obj
 0001:00009900       ?BeginMapAccess@CFileSystemPassThru@@UAEXXZ 1000a900 f i vmpi:vmpi_filesystem.obj
 0001:00009910       ?EndMapAccess@CFileSystemPassThru@@UAEXXZ 1000a910 f i vmpi:vmpi_filesystem.obj
 0001:00009920       ?ReadToBuffer@CFileSystemPassThru@@UAE_NPAXAAVCUtlBuffer@@HP6APAXPBDI@Z@Z 1000a920 f i vmpi:vmpi_filesystem.obj
 0001:00009930       ?FullPathToRelativePathEx@CFileSystemPassThru@@UAE_NPBD0PADH@Z 1000a930 f i vmpi:vmpi_filesystem.obj
 0001:00009940       ?GetPathIndex@CFileSystemPassThru@@UAEHABQAX@Z 1000a940 f i vmpi:vmpi_filesystem.obj
 0001:00009950       ?GetPathTime@CFileSystemPassThru@@UAEJPBD0@Z 1000a950 f i vmpi:vmpi_filesystem.obj
 0001:00009960       ?TellPut@CUtlBuffer@@QBEHXZ 1000a960 f i vmpi:vmpi_filesystem.obj
 0001:00009970       ?PeekPut@CUtlBuffer@@QAEPAXH@Z 1000a970 f i vmpi:vmpi_filesystem.obj
 0001:00009980       ?IsText@CUtlBuffer@@QBE_NXZ 1000a980 f i vmpi:vmpi_filesystem.obj
 0001:00009990       ?ContainsCRLF@CUtlBuffer@@QBE_NXZ 1000a990 f i vmpi:vmpi_filesystem.obj
 0001:000099b0       ?Base@CUtlBuffer@@QAEPAXXZ 1000a9b0 f i vmpi:vmpi_filesystem.obj
 0001:000099c0       ?ReadFile@CBaseVMPIFileSystem@@UAE_NPBD0AAVCUtlBuffer@@HHP6APAX0I@Z@Z 1000a9c0 f   vmpi:vmpi_filesystem.obj
 0001:00009a70       ?WriteFile@CBaseVMPIFileSystem@@UAE_NPBD0AAVCUtlBuffer@@@Z 1000aa70 f   vmpi:vmpi_filesystem.obj
 0001:00009ad0       ??0CIPStarter@@QAE@XZ      1000aad0 f i vmpi:iphelpers.obj
 0001:00009b00       ??0CChunkWalker@@QAE@PBQBXPBHH@Z 1000ab00 f   vmpi:iphelpers.obj
 0001:00009b50       ?GetTotalLength@CChunkWalker@@QBEHXZ 1000ab50 f   vmpi:iphelpers.obj
 0001:00009b60       ?CopyTo@CChunkWalker@@QAEXPAXH@Z 1000ab60 f   vmpi:iphelpers.obj
 0001:00009be0       ?Init@CIPAddr@@QAEXHHHHH@Z 1000abe0 f   vmpi:iphelpers.obj
 0001:00009c10       ??8CIPAddr@@QBE_NABV0@@Z   1000ac10 f   vmpi:iphelpers.obj
 0001:00009c50       ??9CIPAddr@@QBE_NABV0@@Z   1000ac50 f   vmpi:iphelpers.obj
 0001:00009ca0       ?SetupLocal@CIPAddr@@QAEXH@Z 1000aca0 f   vmpi:iphelpers.obj
 0001:00009cc0       ?SetupTimeVal@@YA?AUtimeval@@N@Z 1000acc0 f   vmpi:iphelpers.obj
 0001:00009d00       ?IPAddrToInAddr@@YAXPBVCIPAddr@@PAUin_addr@@@Z 1000ad00 f   vmpi:iphelpers.obj
 0001:00009d30       ?IPAddrToSockAddr@@YAXPBVCIPAddr@@PAUsockaddr_in@@@Z 1000ad30 f   vmpi:iphelpers.obj
 0001:00009d80       ?SockAddrToIPAddr@@YAXPBUsockaddr_in@@PAVCIPAddr@@@Z 1000ad80 f   vmpi:iphelpers.obj
 0001:00009dc0       ??0ISocket@@QAE@XZ         1000adc0 f i vmpi:iphelpers.obj
 0001:00009dd0       ?ConvertStringToIPAddr@@YA_NPBDPAVCIPAddr@@@Z 1000add0 f   vmpi:iphelpers.obj
 0001:00009f00       ?ConvertIPAddrToString@@YA_NPBVCIPAddr@@PADH@Z 1000af00 f   vmpi:iphelpers.obj
 0001:00009f60       ?IP_GetLastErrorString@@YAXPADH@Z 1000af60 f   vmpi:iphelpers.obj
 0001:00009fb0       ?GetMilliseconds@CCycleCount@@QBEKXZ 1000afb0 f i vmpi:iphelpers.obj
 0001:00009fe0       ?SampleMilliseconds@@YAKXZ 1000afe0 f   vmpi:iphelpers.obj
 0001:0000a030       ??0CWaitTimer@@QAE@N@Z     1000b030 f   vmpi:iphelpers.obj
 0001:0000a0c0       ?ShouldKeepWaiting@CWaitTimer@@QAE_NXZ 1000b0c0 f   vmpi:iphelpers.obj
 0001:0000a0f0       ??0CIPAddr@@QAE@XZ         1000b0f0 f   vmpi:iphelpers.obj
 0001:0000a110       ??0CIPAddr@@QAE@QBHH@Z     1000b110 f   vmpi:iphelpers.obj
 0001:0000a150       ??0CIPAddr@@QAE@HHHHH@Z    1000b150 f   vmpi:iphelpers.obj
 0001:0000a180       ??0CIPSocket@@QAE@XZ       1000b180 f i vmpi:iphelpers.obj
 0001:0000a1a0       ?Release@CIPSocket@@UAEXXZ 1000b1a0 f i vmpi:iphelpers.obj
 0001:0000a1b0       ?Bind@CIPSocket@@UAE_NPBVCIPAddr@@@Z 1000b1b0 f i vmpi:iphelpers.obj
 0001:0000a1d0       ?ListenToMulticastStream@CIPSocket@@UAE_NABVCIPAddr@@0@Z 1000b1d0 f i vmpi:iphelpers.obj
 0001:0000a280       ?SendTo@CIPSocket@@UAE_NPBVCIPAddr@@PBXH@Z 1000b280 f i vmpi:iphelpers.obj
 0001:0000a2a0       ?SendChunksTo@CIPSocket@@UAE_NPBVCIPAddr@@PBQBXPBHH@Z 1000b2a0 f i vmpi:iphelpers.obj
 0001:0000a3a0       ?CreateSocket@CIPSocket@@UAE_NXZ 1000b3a0 f i vmpi:iphelpers.obj
 0001:0000a3f0       ?Term@CIPSocket@@AAEXXZ    1000b3f0 f i vmpi:iphelpers.obj
 0001:0000a430       ?BindPart2@CIPSocket@@UAE_NPBVCIPAddr@@@Z 1000b430 f i vmpi:iphelpers.obj
 0001:0000a4f0       ?BindToAny@CIPSocket@@UAE_NG@Z 1000b4f0 f i vmpi:iphelpers.obj
 0001:0000a520       ?Broadcast@CIPSocket@@UAE_NPBXHG@Z 1000b520 f i vmpi:iphelpers.obj
 0001:0000a5a0       ?RecvFrom@CIPSocket@@UAEHPAXHPAVCIPAddr@@@Z 1000b5a0 f i vmpi:iphelpers.obj
 0001:0000a6a0       ?GetRecvTimeout@CIPSocket@@UAENXZ 1000b6a0 f i vmpi:iphelpers.obj
 0001:0000a6e0       ??_ECIPSocket@@UAEPAXI@Z   1000b6e0 f i vmpi:iphelpers.obj
 0001:0000a6e0       ??_GCIPSocket@@UAEPAXI@Z   1000b6e0 f i vmpi:iphelpers.obj
 0001:0000a710       ?CreateIPSocket@@YAPAVISocket@@XZ 1000b710 f   vmpi:iphelpers.obj
 0001:0000a740       ?CreateMulticastListenSocket@@YAPAVISocket@@ABVCIPAddr@@0@Z 1000b740 f   vmpi:iphelpers.obj
 0001:0000a7d0       ?SetRestoreOriginalValue@CTempEnvVar@@QAEX_N@Z 1000b7d0 f i vmpi:filesystem_init.obj
 0001:0000a7e0       ?GetValue@CTempEnvVar@@QAEHPADH@Z 1000b7e0 f i vmpi:filesystem_init.obj
 0001:0000a810       ?SetValue@CTempEnvVar@@QAAXPBDZZ 1000b810 f i vmpi:filesystem_init.obj
 0001:0000a880       ?ClearValue@CTempEnvVar@@QAEXXZ 1000b880 f i vmpi:filesystem_init.obj
 0001:0000a8b0       ?SetRestoreOriginalValue_ALL@CSteamEnvVars@@QAEX_N@Z 1000b8b0 f i vmpi:filesystem_init.obj
 0001:0000a8d0       ?Q_getwd@@YAXPADH@Z        1000b8d0 f   vmpi:filesystem_init.obj
 0001:0000a900       ??0CFSSearchPathsInit@@QAE@XZ 1000b900 f   vmpi:filesystem_init.obj
 0001:0000a910       ??0CFSSteamSetupInfo@@QAE@XZ 1000b910 f   vmpi:filesystem_init.obj
 0001:0000a930       ??0CFSLoadModuleInfo@@QAE@XZ 1000b930 f   vmpi:filesystem_init.obj
 0001:0000a960       ??0CFSMountContentInfo@@QAE@XZ 1000b960 f   vmpi:filesystem_init.obj
 0001:0000a970       ?FileSystem_GetLastErrorString@@YAPBDXZ 1000b970 f   vmpi:filesystem_init.obj
 0001:0000a980       ?AddGameBinDir@@YAXPAVIFileSystem@@PBD@Z 1000b980 f   vmpi:filesystem_init.obj
 0001:0000a9f0       ?GetVProjectCmdLineValue@@YAPBDXZ 1000b9f0 f   vmpi:filesystem_init.obj
 0001:0000aa20       ?DoesFileExistIn@@YA_NPBD0@Z 1000ba20 f   vmpi:filesystem_init.obj
 0001:0000aa90       ?DoesPathExistAlready@@YA_NPBD0@Z 1000ba90 f   vmpi:filesystem_init.obj
 0001:0000abd0       ?SetSteamUserPassphrase@@YAXPAVKeyValues@@AAVCSteamEnvVars@@@Z 1000bbd0 f   vmpi:filesystem_init.obj
 0001:0000ac30       ?SetSteamAppId@@YAXPAVKeyValues@@PBDAAVCSteamEnvVars@@@Z 1000bc30 f   vmpi:filesystem_init.obj
 0001:0000ac80       ?FileSystem_SetErrorMode@@YAXW4FSErrorMode_t@@@Z 1000bc80 f   vmpi:filesystem_init.obj
 0001:0000ac90       ?FileSystem_AddSearchPath_Platform@@YAXPAVIFileSystem@@PBD@Z 1000bc90 f   vmpi:filesystem_init.obj
 0001:0000ad20       ?V_strlen@@YAHPBD@Z        1000bd20 f i vmpi:filesystem_init.obj
 0001:0000ad40       ?V_stricmp@@YAHPBD0@Z      1000bd40 f i vmpi:filesystem_init.obj
 0001:0000ad50       ?V_strstr@@YAPADPBD0@Z     1000bd50 f i vmpi:filesystem_init.obj
 0001:0000ad60       ?V_strlower@@YAPADPAD@Z    1000bd60 f i vmpi:filesystem_init.obj
 0001:0000ad70       ?AddLanguageGameDir@@YAXPAVIFileSystem@@PBD1@Z 1000bd70 f   vmpi:filesystem_init.obj
 0001:0000ae40       ?FileSystem_GetExecutableDir@@YA_NPADH@Z 1000be40 f   vmpi:filesystem_init.obj
 0001:0000af00       ?LaunchVConfig@@YAXXZ      1000bf00 f   vmpi:filesystem_init.obj
 0001:0000af70       ?SetupFileSystemError@@YA?AW4FSReturnCode_t@@_NW41@PBDZZ 1000bf70 f   vmpi:filesystem_init.obj
 0001:0000b000       ?IsLowViolenceBuild@@YA_NXZ 1000c000 f   vmpi:filesystem_init.obj
 0001:0000b0d0       ?LocateGameInfoFile@@YA?AW4FSReturnCode_t@@ABVCFSSteamSetupInfo@@PADH@Z 1000c0d0 f   vmpi:filesystem_init.obj
 0001:0000b2a0       ?SetSteamInstallPath@@YA?AW4FSReturnCode_t@@PADHAAVCSteamEnvVars@@_N@Z 1000c2a0 f   vmpi:filesystem_init.obj
 0001:0000b440       ?GetSteamCfgPath@@YA?AW4FSReturnCode_t@@PADH@Z 1000c440 f   vmpi:filesystem_init.obj
 0001:0000b580       ?FileSystem_SetBasePaths@@YA?AW4FSReturnCode_t@@PAVIFileSystem@@@Z 1000c580 f   vmpi:filesystem_init.obj
 0001:0000b5f0       ?FileSystem_GetFileSystemDLLName@@YA?AW4FSReturnCode_t@@PADHAA_N@Z 1000c5f0 f   vmpi:filesystem_init.obj
 0001:0000b6c0       ??1CTempEnvVar@@QAE@XZ     1000c6c0 f i vmpi:filesystem_init.obj
 0001:0000b730       ??1CSteamEnvVars@@QAE@XZ   1000c730 f i vmpi:filesystem_init.obj
 0001:0000b760       ??0CTempEnvVar@@QAE@PBD@Z  1000c760 f i vmpi:filesystem_init.obj
 0001:0000b800       ??0CSteamEnvVars@@QAE@XZ   1000c800 f i vmpi:filesystem_init.obj
 0001:0000b840       ?ReadKeyValuesFile@@YAPAVKeyValues@@PBD@Z 1000c840 f   vmpi:filesystem_init.obj
 0001:0000b920       ?LoadGameInfoFile@@YA?AW4FSReturnCode_t@@PBDAAPAVKeyValues@@11@Z 1000c920 f   vmpi:filesystem_init.obj
 0001:0000ba10       ?FileSystem_LoadSearchPaths@@YA?AW4FSReturnCode_t@@AAVCFSSearchPathsInit@@@Z 1000ca10 f   vmpi:filesystem_init.obj
 0001:0000bcb0       ?SetSteamAppUser@@YAXPAVKeyValues@@PBDAAVCSteamEnvVars@@@Z 1000ccb0 f   vmpi:filesystem_init.obj
 0001:0000bde0       ?SetupSteamStartupEnvironment@@YA?AW4FSReturnCode_t@@PAVKeyValues@@PBDAAVCSteamEnvVars@@@Z 1000cde0 f   vmpi:filesystem_init.obj
 0001:0000bed0       ?GetSteamExtraAppId@@YA?AW4FSReturnCode_t@@PBDPAH@Z 1000ced0 f   vmpi:filesystem_init.obj
 0001:0000bf20       ?FileSystem_SetupSteamInstallPath@@YA?AW4FSReturnCode_t@@XZ 1000cf20 f   vmpi:filesystem_init.obj
 0001:0000bfb0       ?FileSystem_SetupSteamEnvironment@@YA?AW4FSReturnCode_t@@AAVCFSSteamSetupInfo@@@Z 1000cfb0 f   vmpi:filesystem_init.obj
 0001:0000c0e0       ?FileSystem_LoadFileSystemModule@@YA?AW4FSReturnCode_t@@AAVCFSLoadModuleInfo@@@Z 1000d0e0 f   vmpi:filesystem_init.obj
 0001:0000c190       ?FileSystem_MountContent@@YA?AW4FSReturnCode_t@@AAVCFSMountContentInfo@@@Z 1000d190 f   vmpi:filesystem_init.obj
 0001:0000c2b0       ?FileSystem_ClearSteamEnvVars@@YAXXZ 1000d2b0 f   vmpi:filesystem_init.obj
 0001:0000c3d0       ?Init@CVMPIFile_PassThru@@QAEXPAVIBaseFileSystem@@PAX@Z 1000d3d0 f i vmpi:vmpi_filesystem_master.obj
 0001:0000c3f0       ?BroadcastPresence@CTransmitRateMgr@@QAEXXZ 1000d3f0 f   vmpi:vmpi_filesystem_master.obj
 0001:0000c460       ?GetMicrosecondsPerByte@CTransmitRateMgr@@QBENXZ 1000d460 f i vmpi:vmpi_filesystem_master.obj
 0001:0000c470       ?Sub@CCycleCount@@SAXABV1@0AAV1@@Z 1000d470 f i vmpi:vmpi_filesystem_master.obj
 0001:0000c490       ?Start@CFastTimer@@QAEXXZ  1000d490 f i vmpi:vmpi_filesystem_master.obj
 0001:0000c4a0       ?End@CFastTimer@@QAEXXZ    1000d4a0 f i vmpi:vmpi_filesystem_master.obj
 0001:0000c4e0       ?GetDuration@CFastTimer@@QBEABVCCycleCount@@XZ 1000d4e0 f i vmpi:vmpi_filesystem_master.obj
 0001:0000c4f0       ??0IVMPIFile@@QAE@XZ       1000d4f0 f i vmpi:vmpi_filesystem_master.obj
 0001:0000c500       ?LoadModule@CMasterVMPIFileSystem@@UAEPAVCSysModule@@PBD0_N@Z 1000d500 f   vmpi:vmpi_filesystem_master.obj
 0001:0000c510       ?UnloadModule@CMasterVMPIFileSystem@@UAEXPAVCSysModule@@@Z 1000d510 f   vmpi:vmpi_filesystem_master.obj
 0001:0000c520       ?InvalidIndex@?$CUtlLinkedList@PAVCChunkInfo@CMasterMulticastThread@@H@@SAHXZ 1000d520 f i vmpi:vmpi_filesystem_master.obj
 0001:0000c530       ?InvalidIndex@?$CUtlLinkedList@PAVCClientFileInfo@CMasterMulticastThread@@H@@SAHXZ 1000d530 f i vmpi:vmpi_filesystem_master.obj
 0001:0000c540       ?InvalidIndex@?$CUtlLinkedList@PAVCMulticastFile@CMasterMulticastThread@@H@@SAHXZ 1000d540 f i vmpi:vmpi_filesystem_master.obj
 0001:0000c550       ?InvalidIndex@?$CUtlLinkedList@PADH@@SAHXZ 1000d550 f i vmpi:vmpi_filesystem_master.obj
 0001:0000c560       ??0IAppSystem@@QAE@XZ      1000d560 f i vmpi:vmpi_filesystem_master.obj
 0001:0000c570       ??0IBaseFileSystem@@QAE@XZ 1000d570 f i vmpi:vmpi_filesystem_master.obj
 0001:0000c580       ?Base@?$CUtlMemory@D@@QBEPBDXZ 1000d580 f i vmpi:vmpi_filesystem_master.obj
 0001:0000c590       ?Count@?$CUtlVector@VCMachineRecord@CTransmitRateMgr@@V?$CUtlMemory@VCMachineRecord@CTransmitRateMgr@@@@@@QBEHXZ 1000d590 f i vmpi:vmpi_filesystem_master.obj
 0001:0000c5a0       ?Count@?$CUtlVector@EV?$CUtlMemory@E@@@@QBEHXZ 1000d5a0 f i vmpi:vmpi_filesystem_master.obj
 0001:0000c5b0       ?Count@?$CUtlVector@VCChunkInfo@CMasterMulticastThread@@V?$CUtlMemory@VCChunkInfo@CMasterMulticastThread@@@@@@QBEHXZ 1000d5b0 f i vmpi:vmpi_filesystem_master.obj
 0001:0000c5c0       ?IsValidIndex@?$CUtlVector@VCChunkInfo@CMasterMulticastThread@@V?$CUtlMemory@VCChunkInfo@CMasterMulticastThread@@@@@@QBE_NH@Z 1000d5c0 f i vmpi:vmpi_filesystem_master.obj
 0001:0000c5e0       ?Count@?$CUtlLinkedList@PAVCChunkInfo@CMasterMulticastThread@@H@@QBEHXZ 1000d5e0 f i vmpi:vmpi_filesystem_master.obj
 0001:0000c5f0       ?Head@?$CUtlLinkedList@PAVCChunkInfo@CMasterMulticastThread@@H@@QBEHXZ 1000d5f0 f i vmpi:vmpi_filesystem_master.obj
 0001:0000c600       ?Head@?$CUtlLinkedList@PAVCClientFileInfo@CMasterMulticastThread@@H@@QBEHXZ 1000d600 f i vmpi:vmpi_filesystem_master.obj
 0001:0000c610       ?Head@?$CUtlLinkedList@PAVCMulticastFile@CMasterMulticastThread@@H@@QBEHXZ 1000d610 f i vmpi:vmpi_filesystem_master.obj
 0001:0000c620       ?Head@?$CUtlLinkedList@PADH@@QBEHXZ 1000d620 f i vmpi:vmpi_filesystem_master.obj
 0001:0000c630       ?Base@?$CUtlMemory@VCMachineRecord@CTransmitRateMgr@@@@QAEPAVCMachineRecord@CTransmitRateMgr@@XZ 1000d630 f i vmpi:vmpi_filesystem_master.obj
 0001:0000c640       ??$Destruct@VCMachineRecord@CTransmitRateMgr@@@@YAXPAVCMachineRecord@CTransmitRateMgr@@@Z 1000d640 f i vmpi:vmpi_filesystem_master.obj
 0001:0000c650       ?Base@?$CUtlMemory@E@@QBEPBEXZ 1000d650 f i vmpi:vmpi_filesystem_master.obj
 0001:0000c660       ?Base@?$CUtlMemory@VCChunkInfo@CMasterMulticastThread@@@@QAEPAVCChunkInfo@CMasterMulticastThread@@XZ 1000d660 f i vmpi:vmpi_filesystem_master.obj
 0001:0000c670       ?ConstructList@?$CUtlLinkedList@PAVCChunkInfo@CMasterMulticastThread@@H@@IAEXXZ 1000d670 f i vmpi:vmpi_filesystem_master.obj
 0001:0000c690       ??A?$CUtlMemory@UListElem_t@?$CUtlLinkedList@PAVCChunkInfo@CMasterMulticastThread@@H@@@@QBEABUListElem_t@?$CUtlLinkedList@PAVCChunkInfo@CMasterMulticastThread@@H@@H@Z 1000d690 f i vmpi:vmpi_filesystem_master.obj
 0001:0000c6a0       ??A?$CUtlMemory@UListElem_t@?$CUtlLinkedList@PAVCChunkInfo@CMasterMulticastThread@@H@@@@QAEAAUListElem_t@?$CUtlLinkedList@PAVCChunkInfo@CMasterMulticastThread@@H@@H@Z 1000d6a0 f i vmpi:vmpi_filesystem_master.obj
 0001:0000c6b0       ?Base@?$CUtlMemory@UListElem_t@?$CUtlLinkedList@PAVCChunkInfo@CMasterMulticastThread@@H@@@@QAEPAUListElem_t@?$CUtlLinkedList@PAVCChunkInfo@CMasterMulticastThread@@H@@XZ 1000d6b0 f i vmpi:vmpi_filesystem_master.obj
 0001:0000c6c0       ?ConstructList@?$CUtlLinkedList@PAVCClientFileInfo@CMasterMulticastThread@@H@@IAEXXZ 1000d6c0 f i vmpi:vmpi_filesystem_master.obj
 0001:0000c6e0       ??A?$CUtlMemory@UListElem_t@?$CUtlLinkedList@PAVCClientFileInfo@CMasterMulticastThread@@H@@@@QBEABUListElem_t@?$CUtlLinkedList@PAVCClientFileInfo@CMasterMulticastThread@@H@@H@Z 1000d6e0 f i vmpi:vmpi_filesystem_master.obj
 0001:0000c6f0       ??A?$CUtlMemory@UListElem_t@?$CUtlLinkedList@PAVCClientFileInfo@CMasterMulticastThread@@H@@@@QAEAAUListElem_t@?$CUtlLinkedList@PAVCClientFileInfo@CMasterMulticastThread@@H@@H@Z 1000d6f0 f i vmpi:vmpi_filesystem_master.obj
 0001:0000c700       ?Base@?$CUtlMemory@UListElem_t@?$CUtlLinkedList@PAVCClientFileInfo@CMasterMulticastThread@@H@@@@QAEPAUListElem_t@?$CUtlLinkedList@PAVCClientFileInfo@CMasterMulticastThread@@H@@XZ 1000d700 f i vmpi:vmpi_filesystem_master.obj
 0001:0000c710       ?ConstructList@?$CUtlLinkedList@PAVCMulticastFile@CMasterMulticastThread@@H@@IAEXXZ 1000d710 f i vmpi:vmpi_filesystem_master.obj
 0001:0000c730       ??A?$CUtlMemory@UListElem_t@?$CUtlLinkedList@PAVCMulticastFile@CMasterMulticastThread@@H@@@@QBEABUListElem_t@?$CUtlLinkedList@PAVCMulticastFile@CMasterMulticastThread@@H@@H@Z 1000d730 f i vmpi:vmpi_filesystem_master.obj
 0001:0000c740       ??A?$CUtlMemory@UListElem_t@?$CUtlLinkedList@PAVCMulticastFile@CMasterMulticastThread@@H@@@@QAEAAUListElem_t@?$CUtlLinkedList@PAVCMulticastFile@CMasterMulticastThread@@H@@H@Z 1000d740 f i vmpi:vmpi_filesystem_master.obj
 0001:0000c750       ?Base@?$CUtlMemory@UListElem_t@?$CUtlLinkedList@PAVCMulticastFile@CMasterMulticastThread@@H@@@@QAEPAUListElem_t@?$CUtlLinkedList@PAVCMulticastFile@CMasterMulticastThread@@H@@XZ 1000d750 f i vmpi:vmpi_filesystem_master.obj
 0001:0000c760       ?ConstructList@?$CUtlLinkedList@PADH@@IAEXXZ 1000d760 f i vmpi:vmpi_filesystem_master.obj
 0001:0000c780       ??A?$CUtlMemory@UListElem_t@?$CUtlLinkedList@PADH@@@@QBEABUListElem_t@?$CUtlLinkedList@PADH@@H@Z 1000d780 f i vmpi:vmpi_filesystem_master.obj
 0001:0000c790       ??A?$CUtlMemory@UListElem_t@?$CUtlLinkedList@PADH@@@@QAEAAUListElem_t@?$CUtlLinkedList@PADH@@H@Z 1000d790 f i vmpi:vmpi_filesystem_master.obj
 0001:0000c7a0       ?Base@?$CUtlMemory@UListElem_t@?$CUtlLinkedList@PADH@@@@QAEPAUListElem_t@?$CUtlLinkedList@PADH@@XZ 1000d7a0 f i vmpi:vmpi_filesystem_master.obj
 0001:0000c7b0       ?ValidateGrowSize@?$CUtlMemory@VCMachineRecord@CTransmitRateMgr@@@@IAEXXZ 1000d7b0 f i vmpi:vmpi_filesystem_master.obj
 0001:0000c7c0       ?ValidateGrowSize@?$CUtlMemory@E@@IAEXXZ 1000d7c0 f i vmpi:vmpi_filesystem_master.obj
 0001:0000c7d0       ?ValidateGrowSize@?$CUtlMemory@VCChunkInfo@CMasterMulticastThread@@@@IAEXXZ 1000d7d0 f i vmpi:vmpi_filesystem_master.obj
 0001:0000c7e0       ?InternalElement@?$CUtlLinkedList@PAVCChunkInfo@CMasterMulticastThread@@H@@IAEAAUListElem_t@1@H@Z 1000d7e0 f i vmpi:vmpi_filesystem_master.obj
 0001:0000c7f0       ?ValidateGrowSize@?$CUtlMemory@UListElem_t@?$CUtlLinkedList@PAVCChunkInfo@CMasterMulticastThread@@H@@@@IAEXXZ 1000d7f0 f i vmpi:vmpi_filesystem_master.obj
 0001:0000c800       ?InternalElement@?$CUtlLinkedList@PAVCClientFileInfo@CMasterMulticastThread@@H@@IAEAAUListElem_t@1@H@Z 1000d800 f i vmpi:vmpi_filesystem_master.obj
 0001:0000c810       ?ValidateGrowSize@?$CUtlMemory@UListElem_t@?$CUtlLinkedList@PAVCClientFileInfo@CMasterMulticastThread@@H@@@@IAEXXZ 1000d810 f i vmpi:vmpi_filesystem_master.obj
 0001:0000c820       ?InternalElement@?$CUtlLinkedList@PAVCMulticastFile@CMasterMulticastThread@@H@@IAEAAUListElem_t@1@H@Z 1000d820 f i vmpi:vmpi_filesystem_master.obj
 0001:0000c830       ?ValidateGrowSize@?$CUtlMemory@UListElem_t@?$CUtlLinkedList@PAVCMulticastFile@CMasterMulticastThread@@H@@@@IAEXXZ 1000d830 f i vmpi:vmpi_filesystem_master.obj
 0001:0000c840       ?InternalElement@?$CUtlLinkedList@PADH@@IAEAAUListElem_t@1@H@Z 1000d840 f i vmpi:vmpi_filesystem_master.obj
 0001:0000c850       ?ValidateGrowSize@?$CUtlMemory@UListElem_t@?$CUtlLinkedList@PADH@@@@IAEXXZ 1000d850 f i vmpi:vmpi_filesystem_master.obj
 0001:0000c860       ??$Construct@VCMachineRecord@CTransmitRateMgr@@@@YAXPAVCMachineRecord@CTransmitRateMgr@@@Z 1000d860 f i vmpi:vmpi_filesystem_master.obj
 0001:0000c870       ?Element@?$CUtlLinkedList@PAVCChunkInfo@CMasterMulticastThread@@H@@QAEAAPAVCChunkInfo@CMasterMulticastThread@@H@Z 1000d870 f i vmpi:vmpi_filesystem_master.obj
 0001:0000c880       ?IsValidIndex@?$CUtlLinkedList@PAVCChunkInfo@CMasterMulticastThread@@H@@QBE_NH@Z 1000d880 f i vmpi:vmpi_filesystem_master.obj
 0001:0000c8b0       ??$CopyConstruct@PAVCChunkInfo@CMasterMulticastThread@@@@YAXPAPAVCChunkInfo@CMasterMulticastThread@@ABQAV01@@Z 1000d8b0 f i vmpi:vmpi_filesystem_master.obj
 0001:0000c8d0       ??$Destruct@PAVCChunkInfo@CMasterMulticastThread@@@@YAXPAPAVCChunkInfo@CMasterMulticastThread@@@Z 1000d8d0 f i vmpi:vmpi_filesystem_master.obj
 0001:0000c8e0       ?IsValidIndex@?$CUtlLinkedList@PAVCClientFileInfo@CMasterMulticastThread@@H@@QBE_NH@Z 1000d8e0 f i vmpi:vmpi_filesystem_master.obj
 0001:0000c910       ??$CopyConstruct@PAVCClientFileInfo@CMasterMulticastThread@@@@YAXPAPAVCClientFileInfo@CMasterMulticastThread@@ABQAV01@@Z 1000d910 f i vmpi:vmpi_filesystem_master.obj
 0001:0000c930       ??$Destruct@PAVCClientFileInfo@CMasterMulticastThread@@@@YAXPAPAVCClientFileInfo@CMasterMulticastThread@@@Z 1000d930 f i vmpi:vmpi_filesystem_master.obj
 0001:0000c940       ??$CopyConstruct@PAVCMulticastFile@CMasterMulticastThread@@@@YAXPAPAVCMulticastFile@CMasterMulticastThread@@ABQAV01@@Z 1000d940 f i vmpi:vmpi_filesystem_master.obj
 0001:0000c960       ??$Destruct@PAVCMulticastFile@CMasterMulticastThread@@@@YAXPAPAVCMulticastFile@CMasterMulticastThread@@@Z 1000d960 f i vmpi:vmpi_filesystem_master.obj
 0001:0000c970       ?Element@?$CUtlLinkedList@PADH@@QAEAAPADH@Z 1000d970 f i vmpi:vmpi_filesystem_master.obj
 0001:0000c980       ?IsValidIndex@?$CUtlLinkedList@PADH@@QBE_NH@Z 1000d980 f i vmpi:vmpi_filesystem_master.obj
 0001:0000c9b0       ??$CopyConstruct@PAD@@YAXPAPADABQAD@Z 1000d9b0 f i vmpi:vmpi_filesystem_master.obj
 0001:0000c9d0       ??$Destruct@PAD@@YAXPAPAD@Z 1000d9d0 f i vmpi:vmpi_filesystem_master.obj
 0001:0000c9e0       ?NumAllocated@?$CUtlMemory@VCMachineRecord@CTransmitRateMgr@@@@QBEHXZ 1000d9e0 f i vmpi:vmpi_filesystem_master.obj
 0001:0000c9f0       ?IsExternallyAllocated@?$CUtlMemory@VCMachineRecord@CTransmitRateMgr@@@@QBE_NXZ 1000d9f0 f i vmpi:vmpi_filesystem_master.obj
 0001:0000ca00       ??$Destruct@E@@YAXPAE@Z    1000da00 f i vmpi:vmpi_filesystem_master.obj
 0001:0000ca10       ??$Destruct@VCChunkInfo@CMasterMulticastThread@@@@YAXPAVCChunkInfo@CMasterMulticastThread@@@Z 1000da10 f i vmpi:vmpi_filesystem_master.obj
 0001:0000ca20       ?IsExternallyAllocated@?$CUtlMemory@VCChunkInfo@CMasterMulticastThread@@@@QBE_NXZ 1000da20 f i vmpi:vmpi_filesystem_master.obj
 0001:0000ca30       ?NumAllocated@?$CUtlMemory@UListElem_t@?$CUtlLinkedList@PAVCChunkInfo@CMasterMulticastThread@@H@@@@QBEHXZ 1000da30 f i vmpi:vmpi_filesystem_master.obj
 0001:0000ca40       ?IsExternallyAllocated@?$CUtlMemory@UListElem_t@?$CUtlLinkedList@PAVCChunkInfo@CMasterMulticastThread@@H@@@@QBE_NXZ 1000da40 f i vmpi:vmpi_filesystem_master.obj
 0001:0000ca50       ?NumAllocated@?$CUtlMemory@UListElem_t@?$CUtlLinkedList@PAVCClientFileInfo@CMasterMulticastThread@@H@@@@QBEHXZ 1000da50 f i vmpi:vmpi_filesystem_master.obj
 0001:0000ca60       ?IsExternallyAllocated@?$CUtlMemory@UListElem_t@?$CUtlLinkedList@PAVCClientFileInfo@CMasterMulticastThread@@H@@@@QBE_NXZ 1000da60 f i vmpi:vmpi_filesystem_master.obj
 0001:0000ca70       ?NumAllocated@?$CUtlMemory@UListElem_t@?$CUtlLinkedList@PAVCMulticastFile@CMasterMulticastThread@@H@@@@QBEHXZ 1000da70 f i vmpi:vmpi_filesystem_master.obj
 0001:0000ca80       ?IsExternallyAllocated@?$CUtlMemory@UListElem_t@?$CUtlLinkedList@PAVCMulticastFile@CMasterMulticastThread@@H@@@@QBE_NXZ 1000da80 f i vmpi:vmpi_filesystem_master.obj
 0001:0000ca90       ?NumAllocated@?$CUtlMemory@UListElem_t@?$CUtlLinkedList@PADH@@@@QBEHXZ 1000da90 f i vmpi:vmpi_filesystem_master.obj
 0001:0000caa0       ?IsExternallyAllocated@?$CUtlMemory@UListElem_t@?$CUtlLinkedList@PADH@@@@QBE_NXZ 1000daa0 f i vmpi:vmpi_filesystem_master.obj
 0001:0000cab0       ??$Construct@E@@YAXPAE@Z   1000dab0 f i vmpi:vmpi_filesystem_master.obj
 0001:0000cac0       ??$Construct@VCChunkInfo@CMasterMulticastThread@@@@YAXPAVCChunkInfo@CMasterMulticastThread@@@Z 1000dac0 f i vmpi:vmpi_filesystem_master.obj
 0001:0000cad0       ?NumAllocated@?$CUtlMemory@E@@QBEHXZ 1000dad0 f i vmpi:vmpi_filesystem_master.obj
 0001:0000cae0       ?NumAllocated@?$CUtlMemory@VCChunkInfo@CMasterMulticastThread@@@@QBEHXZ 1000dae0 f i vmpi:vmpi_filesystem_master.obj
 0001:0000caf0       ?Grow@?$CUtlMemory@VCChunkInfo@CMasterMulticastThread@@@@QAEXH@Z 1000daf0 f i vmpi:vmpi_filesystem_master.obj
 0001:0000cb60       ??0CRateLimiter@@QAE@XZ    1000db60 f   vmpi:vmpi_filesystem_master.obj
 0001:0000cb90       ?NoteExcessTimeTaken@CRateLimiter@@QAEXK@Z 1000db90 f   vmpi:vmpi_filesystem_master.obj
 0001:0000cc30       ??0CFastTimer@@QAE@XZ      1000dc30 f i vmpi:vmpi_filesystem_master.obj
 0001:0000cc40       ??0CVMPIFile_PassThru@@QAE@XZ 1000dc40 f i vmpi:vmpi_filesystem_master.obj
 0001:0000cc50       ?Close@CVMPIFile_PassThru@@UAEXXZ 1000dc50 f i vmpi:vmpi_filesystem_master.obj
 0001:0000cc70       ?Seek@CVMPIFile_PassThru@@UAEXHW4FileSystemSeek_t@@@Z 1000dc70 f i vmpi:vmpi_filesystem_master.obj
 0001:0000cc90       ?Tell@CVMPIFile_PassThru@@UAEIXZ 1000dc90 f i vmpi:vmpi_filesystem_master.obj
 0001:0000cca0       ?Size@CVMPIFile_PassThru@@UAEIXZ 1000dca0 f i vmpi:vmpi_filesystem_master.obj
 0001:0000ccb0       ?Flush@CVMPIFile_PassThru@@UAEXXZ 1000dcb0 f i vmpi:vmpi_filesystem_master.obj
 0001:0000ccc0       ?Read@CVMPIFile_PassThru@@UAEHPAXH@Z 1000dcc0 f i vmpi:vmpi_filesystem_master.obj
 0001:0000cce0       ?Write@CVMPIFile_PassThru@@UAEHPBXH@Z 1000dce0 f i vmpi:vmpi_filesystem_master.obj
 0001:0000cd00       ??0CVMPIFile_Memory@@QAE@XZ 1000dd00 f i vmpi:vmpi_filesystem_master.obj
 0001:0000cd10       ?Base@?$CUtlVector@DV?$CUtlMemory@D@@@@QBEPBDXZ 1000dd10 f i vmpi:vmpi_filesystem_master.obj
 0001:0000cd20       ?Base@?$CUtlVector@EV?$CUtlMemory@E@@@@QAEPAEXZ 1000dd20 f i vmpi:vmpi_filesystem_master.obj
 0001:0000cd30       ??0IFileSystem@@QAE@XZ     1000dd30 f i vmpi:vmpi_filesystem_master.obj
 0001:0000cd50       ??A?$CUtlVector@EV?$CUtlMemory@E@@@@QAEAAEH@Z 1000dd50 f i vmpi:vmpi_filesystem_master.obj
 0001:0000cd60       ??A?$CUtlLinkedList@PAVCChunkInfo@CMasterMulticastThread@@H@@QAEAAPAVCChunkInfo@CMasterMulticastThread@@H@Z 1000dd60 f i vmpi:vmpi_filesystem_master.obj
 0001:0000cd70       ??A?$CUtlLinkedList@PAVCClientFileInfo@CMasterMulticastThread@@H@@QAEAAPAVCClientFileInfo@CMasterMulticastThread@@H@Z 1000dd70 f i vmpi:vmpi_filesystem_master.obj
 0001:0000cd80       ??A?$CUtlLinkedList@PAVCMulticastFile@CMasterMulticastThread@@H@@QBEABQAVCMulticastFile@CMasterMulticastThread@@H@Z 1000dd80 f i vmpi:vmpi_filesystem_master.obj
 0001:0000cd90       ??A?$CUtlLinkedList@PAVCMulticastFile@CMasterMulticastThread@@H@@QAEAAPAVCMulticastFile@CMasterMulticastThread@@H@Z 1000dd90 f i vmpi:vmpi_filesystem_master.obj
 0001:0000cda0       ?IsValidIndex@?$CUtlLinkedList@PAVCMulticastFile@CMasterMulticastThread@@H@@QBE_NH@Z 1000dda0 f i vmpi:vmpi_filesystem_master.obj
 0001:0000cdd0       ??A?$CUtlLinkedList@PADH@@QAEAAPADH@Z 1000ddd0 f i vmpi:vmpi_filesystem_master.obj
 0001:0000cde0       ?Base@?$CUtlVector@VCMachineRecord@CTransmitRateMgr@@V?$CUtlMemory@VCMachineRecord@CTransmitRateMgr@@@@@@QAEPAVCMachineRecord@CTransmitRateMgr@@XZ 1000dde0 f i vmpi:vmpi_filesystem_master.obj
 0001:0000cdf0       ?ResetDbgInfo@?$CUtlVector@VCMachineRecord@CTransmitRateMgr@@V?$CUtlMemory@VCMachineRecord@CTransmitRateMgr@@@@@@IAEXXZ 1000ddf0 f i vmpi:vmpi_filesystem_master.obj
 0001:0000ce00       ?Base@?$CUtlVector@EV?$CUtlMemory@E@@@@QBEPBEXZ 1000de00 f i vmpi:vmpi_filesystem_master.obj
 0001:0000ce10       ?ResetDbgInfo@?$CUtlVector@EV?$CUtlMemory@E@@@@IAEXXZ 1000de10 f i vmpi:vmpi_filesystem_master.obj
 0001:0000ce20       ?Base@?$CUtlVector@VCChunkInfo@CMasterMulticastThread@@V?$CUtlMemory@VCChunkInfo@CMasterMulticastThread@@@@@@QAEPAVCChunkInfo@CMasterMulticastThread@@XZ 1000de20 f i vmpi:vmpi_filesystem_master.obj
 0001:0000ce30       ?ResetDbgInfo@?$CUtlVector@VCChunkInfo@CMasterMulticastThread@@V?$CUtlMemory@VCChunkInfo@CMasterMulticastThread@@@@@@IAEXXZ 1000de30 f i vmpi:vmpi_filesystem_master.obj
 0001:0000ce40       ?InternalElement@?$CUtlLinkedList@PAVCChunkInfo@CMasterMulticastThread@@H@@IBEABUListElem_t@1@H@Z 1000de40 f i vmpi:vmpi_filesystem_master.obj
 0001:0000ce50       ?ResetDbgInfo@?$CUtlLinkedList@PAVCChunkInfo@CMasterMulticastThread@@H@@IAEXXZ 1000de50 f i vmpi:vmpi_filesystem_master.obj
 0001:0000ce60       ?InternalElement@?$CUtlLinkedList@PAVCClientFileInfo@CMasterMulticastThread@@H@@IBEABUListElem_t@1@H@Z 1000de60 f i vmpi:vmpi_filesystem_master.obj
 0001:0000ce70       ?ResetDbgInfo@?$CUtlLinkedList@PAVCClientFileInfo@CMasterMulticastThread@@H@@IAEXXZ 1000de70 f i vmpi:vmpi_filesystem_master.obj
 0001:0000ce80       ?InternalElement@?$CUtlLinkedList@PAVCMulticastFile@CMasterMulticastThread@@H@@IBEABUListElem_t@1@H@Z 1000de80 f i vmpi:vmpi_filesystem_master.obj
 0001:0000ce90       ?ResetDbgInfo@?$CUtlLinkedList@PAVCMulticastFile@CMasterMulticastThread@@H@@IAEXXZ 1000de90 f i vmpi:vmpi_filesystem_master.obj
 0001:0000cea0       ?InternalElement@?$CUtlLinkedList@PADH@@IBEABUListElem_t@1@H@Z 1000dea0 f i vmpi:vmpi_filesystem_master.obj
 0001:0000ceb0       ?ResetDbgInfo@?$CUtlLinkedList@PADH@@IAEXXZ 1000deb0 f i vmpi:vmpi_filesystem_master.obj
 0001:0000cec0       ?ShiftElementsLeft@?$CUtlVector@DV?$CUtlMemory@D@@@@IAEXHH@Z 1000dec0 f i vmpi:vmpi_filesystem_master.obj
 0001:0000cef0       ?Element@?$CUtlVector@VCMachineRecord@CTransmitRateMgr@@V?$CUtlMemory@VCMachineRecord@CTransmitRateMgr@@@@@@QAEAAVCMachineRecord@CTransmitRateMgr@@H@Z 1000def0 f i vmpi:vmpi_filesystem_master.obj
 0001:0000cf00       ?ShiftElementsLeft@?$CUtlVector@VCMachineRecord@CTransmitRateMgr@@V?$CUtlMemory@VCMachineRecord@CTransmitRateMgr@@@@@@IAEXHH@Z 1000df00 f i vmpi:vmpi_filesystem_master.obj
 0001:0000cf40       ??0?$CUtlMemory@VCMachineRecord@CTransmitRateMgr@@@@QAE@HH@Z 1000df40 f i vmpi:vmpi_filesystem_master.obj
 0001:0000cf80       ??0?$CUtlMemory@VCChunkInfo@CMasterMulticastThread@@@@QAE@HH@Z 1000df80 f i vmpi:vmpi_filesystem_master.obj
 0001:0000cfc0       ?RemoveAll@?$CUtlLinkedList@PAVCChunkInfo@CMasterMulticastThread@@H@@QAEXXZ 1000dfc0 f i vmpi:vmpi_filesystem_master.obj
 0001:0000d010       ??0?$CUtlMemory@UListElem_t@?$CUtlLinkedList@PAVCChunkInfo@CMasterMulticastThread@@H@@@@QAE@HH@Z 1000e010 f i vmpi:vmpi_filesystem_master.obj
 0001:0000d050       ?Element@?$CUtlLinkedList@PAVCClientFileInfo@CMasterMulticastThread@@H@@QAEAAPAVCClientFileInfo@CMasterMulticastThread@@H@Z 1000e050 f i vmpi:vmpi_filesystem_master.obj
 0001:0000d060       ?RemoveAll@?$CUtlLinkedList@PAVCClientFileInfo@CMasterMulticastThread@@H@@QAEXXZ 1000e060 f i vmpi:vmpi_filesystem_master.obj
 0001:0000d0b0       ??0?$CUtlMemory@UListElem_t@?$CUtlLinkedList@PAVCClientFileInfo@CMasterMulticastThread@@H@@@@QAE@HH@Z 1000e0b0 f i vmpi:vmpi_filesystem_master.obj
 0001:0000d0f0       ?Element@?$CUtlLinkedList@PAVCMulticastFile@CMasterMulticastThread@@H@@QAEAAPAVCMulticastFile@CMasterMulticastThread@@H@Z 1000e0f0 f i vmpi:vmpi_filesystem_master.obj
 0001:0000d100       ?RemoveAll@?$CUtlLinkedList@PAVCMulticastFile@CMasterMulticastThread@@H@@QAEXXZ 1000e100 f i vmpi:vmpi_filesystem_master.obj
 0001:0000d150       ??0?$CUtlMemory@UListElem_t@?$CUtlLinkedList@PAVCMulticastFile@CMasterMulticastThread@@H@@@@QAE@HH@Z 1000e150 f i vmpi:vmpi_filesystem_master.obj
 0001:0000d190       ?RemoveAll@?$CUtlLinkedList@PADH@@QAEXXZ 1000e190 f i vmpi:vmpi_filesystem_master.obj
 0001:0000d1e0       ??0?$CUtlMemory@UListElem_t@?$CUtlLinkedList@PADH@@@@QAE@HH@Z 1000e1e0 f i vmpi:vmpi_filesystem_master.obj
 0001:0000d220       ?RemoveAll@?$CUtlVector@VCMachineRecord@CTransmitRateMgr@@V?$CUtlMemory@VCMachineRecord@CTransmitRateMgr@@@@@@QAEXXZ 1000e220 f i vmpi:vmpi_filesystem_master.obj
 0001:0000d230       ?ShiftElementsRight@?$CUtlVector@VCMachineRecord@CTransmitRateMgr@@V?$CUtlMemory@VCMachineRecord@CTransmitRateMgr@@@@@@IAEXHH@Z 1000e230 f i vmpi:vmpi_filesystem_master.obj
 0001:0000d270       ?Purge@?$CUtlMemory@VCMachineRecord@CTransmitRateMgr@@@@QAEXXZ 1000e270 f i vmpi:vmpi_filesystem_master.obj
 0001:0000d2a0       ?Purge@?$CUtlMemory@VCChunkInfo@CMasterMulticastThread@@@@QAEXXZ 1000e2a0 f i vmpi:vmpi_filesystem_master.obj
 0001:0000d2d0       ?Purge@?$CUtlMemory@UListElem_t@?$CUtlLinkedList@PAVCChunkInfo@CMasterMulticastThread@@H@@@@QAEXXZ 1000e2d0 f i vmpi:vmpi_filesystem_master.obj
 0001:0000d300       ?Purge@?$CUtlMemory@UListElem_t@?$CUtlLinkedList@PAVCClientFileInfo@CMasterMulticastThread@@H@@@@QAEXXZ 1000e300 f i vmpi:vmpi_filesystem_master.obj
 0001:0000d330       ?Purge@?$CUtlMemory@UListElem_t@?$CUtlLinkedList@PAVCMulticastFile@CMasterMulticastThread@@H@@@@QAEXXZ 1000e330 f i vmpi:vmpi_filesystem_master.obj
 0001:0000d360       ?Purge@?$CUtlMemory@UListElem_t@?$CUtlLinkedList@PADH@@@@QAEXXZ 1000e360 f i vmpi:vmpi_filesystem_master.obj
 0001:0000d390       ?Grow@?$CUtlMemory@VCMachineRecord@CTransmitRateMgr@@@@QAEXH@Z 1000e390 f i vmpi:vmpi_filesystem_master.obj
 0001:0000d400       ?Element@?$CUtlVector@EV?$CUtlMemory@E@@@@QAEAAEH@Z 1000e400 f i vmpi:vmpi_filesystem_master.obj
 0001:0000d410       ?Element@?$CUtlVector@VCChunkInfo@CMasterMulticastThread@@V?$CUtlMemory@VCChunkInfo@CMasterMulticastThread@@@@@@QAEAAVCChunkInfo@CMasterMulticastThread@@H@Z 1000e410 f i vmpi:vmpi_filesystem_master.obj
 0001:0000d420       ?Grow@?$CUtlMemory@UListElem_t@?$CUtlLinkedList@PAVCChunkInfo@CMasterMulticastThread@@H@@@@QAEXH@Z 1000e420 f i vmpi:vmpi_filesystem_master.obj
 0001:0000d490       ?Grow@?$CUtlMemory@UListElem_t@?$CUtlLinkedList@PAVCClientFileInfo@CMasterMulticastThread@@H@@@@QAEXH@Z 1000e490 f i vmpi:vmpi_filesystem_master.obj
 0001:0000d500       ?Grow@?$CUtlMemory@UListElem_t@?$CUtlLinkedList@PAVCMulticastFile@CMasterMulticastThread@@H@@@@QAEXH@Z 1000e500 f i vmpi:vmpi_filesystem_master.obj
 0001:0000d570       ?Grow@?$CUtlMemory@UListElem_t@?$CUtlLinkedList@PADH@@@@QAEXH@Z 1000e570 f i vmpi:vmpi_filesystem_master.obj
 0001:0000d5e0       ?GrowVector@?$CUtlVector@VCChunkInfo@CMasterMulticastThread@@V?$CUtlMemory@VCChunkInfo@CMasterMulticastThread@@@@@@IAEXH@Z 1000e5e0 f i vmpi:vmpi_filesystem_master.obj
 0001:0000d610       ?ShiftElementsRight@?$CUtlVector@VCChunkInfo@CMasterMulticastThread@@V?$CUtlMemory@VCChunkInfo@CMasterMulticastThread@@@@@@IAEXHH@Z 1000e610 f i vmpi:vmpi_filesystem_master.obj
 0001:0000d650       ?Previous@?$CUtlLinkedList@PAVCChunkInfo@CMasterMulticastThread@@H@@QBEHH@Z 1000e650 f i vmpi:vmpi_filesystem_master.obj
 0001:0000d660       ?Previous@?$CUtlLinkedList@PAVCClientFileInfo@CMasterMulticastThread@@H@@QBEHH@Z 1000e660 f i vmpi:vmpi_filesystem_master.obj
 0001:0000d670       ?Previous@?$CUtlLinkedList@PAVCMulticastFile@CMasterMulticastThread@@H@@QBEHH@Z 1000e670 f i vmpi:vmpi_filesystem_master.obj
 0001:0000d680       ?Previous@?$CUtlLinkedList@PADH@@QBEHH@Z 1000e680 f i vmpi:vmpi_filesystem_master.obj
 0001:0000d690       ?GiveUpTimeSlice@CRateLimiter@@QAEXXZ 1000e690 f   vmpi:vmpi_filesystem_master.obj
 0001:0000d790       ?GetFilename@CMulticastFile@CMasterMulticastThread@@QAEPBDXZ 1000e790 f i vmpi:vmpi_filesystem_master.obj
 0001:0000d7a0       ?GetPathID@CMulticastFile@CMasterMulticastThread@@QAEPBDXZ 1000e7a0 f i vmpi:vmpi_filesystem_master.obj
 0001:0000d7b0       ?GetFileData@CMasterMulticastThread@@QBEABV?$CUtlVector@DV?$CUtlMemory@D@@@@H@Z 1000e7b0 f   vmpi:vmpi_filesystem_master.obj
 0001:0000d7d0       ??0?$CInternalFileSystemPassThru@VIFileSystem@@@@QAE@XZ 1000e7d0 f i vmpi:vmpi_filesystem_master.obj
 0001:0000d7f0       ?Read@?$CInternalFileSystemPassThru@VIFileSystem@@@@UAEHPAXH0@Z 1000e7f0 f i vmpi:vmpi_filesystem_master.obj
 0001:0000d800       ?Write@?$CInternalFileSystemPassThru@VIFileSystem@@@@UAEHPBXHPAX@Z 1000e800 f i vmpi:vmpi_filesystem_master.obj
 0001:0000d810       ?Close@?$CInternalFileSystemPassThru@VIFileSystem@@@@UAEXPAX@Z 1000e810 f i vmpi:vmpi_filesystem_master.obj
 0001:0000d820       ?Seek@?$CInternalFileSystemPassThru@VIFileSystem@@@@UAEXPAXHW4FileSystemSeek_t@@@Z 1000e820 f i vmpi:vmpi_filesystem_master.obj
 0001:0000d830       ?Tell@?$CInternalFileSystemPassThru@VIFileSystem@@@@UAEIPAX@Z 1000e830 f i vmpi:vmpi_filesystem_master.obj
 0001:0000d840       ?Size@?$CInternalFileSystemPassThru@VIFileSystem@@@@UAEIPAX@Z 1000e840 f i vmpi:vmpi_filesystem_master.obj
 0001:0000d850       ?Size@?$CInternalFileSystemPassThru@VIFileSystem@@@@UAEIPBD0@Z 1000e850 f i vmpi:vmpi_filesystem_master.obj
 0001:0000d860       ?Flush@?$CInternalFileSystemPassThru@VIFileSystem@@@@UAEXPAX@Z 1000e860 f i vmpi:vmpi_filesystem_master.obj
 0001:0000d870       ?Precache@?$CInternalFileSystemPassThru@VIFileSystem@@@@UAE_NPBD0@Z 1000e870 f i vmpi:vmpi_filesystem_master.obj
 0001:0000d880       ?FileExists@?$CInternalFileSystemPassThru@VIFileSystem@@@@UAE_NPBD0@Z 1000e880 f i vmpi:vmpi_filesystem_master.obj
 0001:0000d890       ?ReadFile@?$CInternalFileSystemPassThru@VIFileSystem@@@@UAE_NPBD0AAVCUtlBuffer@@HHP6APAX0I@Z@Z 1000e890 f i vmpi:vmpi_filesystem_master.obj
 0001:0000d8a0       ?WriteFile@?$CInternalFileSystemPassThru@VIFileSystem@@@@UAE_NPBD0AAVCUtlBuffer@@@Z 1000e8a0 f i vmpi:vmpi_filesystem_master.obj
 0001:0000d8b0       ?RemoveMultiple@?$CUtlVector@DV?$CUtlMemory@D@@@@QAEXHH@Z 1000e8b0 f i vmpi:vmpi_filesystem_master.obj
 0001:0000d8f0       ??A?$CUtlVector@VCMachineRecord@CTransmitRateMgr@@V?$CUtlMemory@VCMachineRecord@CTransmitRateMgr@@@@@@QAEAAVCMachineRecord@CTransmitRateMgr@@H@Z 1000e8f0 f i vmpi:vmpi_filesystem_master.obj
 0001:0000d900       ?Remove@?$CUtlVector@VCMachineRecord@CTransmitRateMgr@@V?$CUtlMemory@VCMachineRecord@CTransmitRateMgr@@@@@@QAEXH@Z 1000e900 f i vmpi:vmpi_filesystem_master.obj
 0001:0000d940       ??A?$CUtlVector@EV?$CUtlMemory@E@@@@QBEABEH@Z 1000e940 f i vmpi:vmpi_filesystem_master.obj
 0001:0000d950       ??A?$CUtlVector@VCChunkInfo@CMasterMulticastThread@@V?$CUtlMemory@VCChunkInfo@CMasterMulticastThread@@@@@@QAEAAVCChunkInfo@CMasterMulticastThread@@H@Z 1000e950 f i vmpi:vmpi_filesystem_master.obj
 0001:0000d960       ??0CFileSystemPassThru@@QAE@XZ 1000e960 f i vmpi:vmpi_filesystem_master.obj
 0001:0000d980       ?GetCurrentDirectoryA@CFileSystemPassThru@@UAE_NPADH@Z 1000e980 f i vmpi:vmpi_filesystem_master.obj
 0001:0000d990       ?Next@?$CUtlLinkedList@PAVCChunkInfo@CMasterMulticastThread@@H@@QBEHH@Z 1000e990 f i vmpi:vmpi_filesystem_master.obj
 0001:0000d9a0       ?Next@?$CUtlLinkedList@PAVCClientFileInfo@CMasterMulticastThread@@H@@QBEHH@Z 1000e9a0 f i vmpi:vmpi_filesystem_master.obj
 0001:0000d9b0       ?Next@?$CUtlLinkedList@PAVCMulticastFile@CMasterMulticastThread@@H@@QBEHH@Z 1000e9b0 f i vmpi:vmpi_filesystem_master.obj
 0001:0000d9c0       ?Next@?$CUtlLinkedList@PADH@@QBEHH@Z 1000e9c0 f i vmpi:vmpi_filesystem_master.obj
 0001:0000d9d0       ?Purge@?$CUtlVector@VCMachineRecord@CTransmitRateMgr@@V?$CUtlMemory@VCMachineRecord@CTransmitRateMgr@@@@@@QAEXXZ 1000e9d0 f i vmpi:vmpi_filesystem_master.obj
 0001:0000da10       ??1?$CUtlMemory@VCMachineRecord@CTransmitRateMgr@@@@QAE@XZ 1000ea10 f i vmpi:vmpi_filesystem_master.obj
 0001:0000da40       ??1?$CUtlMemory@VCChunkInfo@CMasterMulticastThread@@@@QAE@XZ 1000ea40 f i vmpi:vmpi_filesystem_master.obj
 0001:0000da70       ??1?$CUtlMemory@UListElem_t@?$CUtlLinkedList@PAVCChunkInfo@CMasterMulticastThread@@H@@@@QAE@XZ 1000ea70 f i vmpi:vmpi_filesystem_master.obj
 0001:0000daa0       ?Purge@?$CUtlLinkedList@PAVCClientFileInfo@CMasterMulticastThread@@H@@QAEXXZ 1000eaa0 f i vmpi:vmpi_filesystem_master.obj
 0001:0000daf0       ??1?$CUtlMemory@UListElem_t@?$CUtlLinkedList@PAVCClientFileInfo@CMasterMulticastThread@@H@@@@QAE@XZ 1000eaf0 f i vmpi:vmpi_filesystem_master.obj
 0001:0000db20       ?Purge@?$CUtlLinkedList@PAVCMulticastFile@CMasterMulticastThread@@H@@QAEXXZ 1000eb20 f i vmpi:vmpi_filesystem_master.obj
 0001:0000db70       ??1?$CUtlMemory@UListElem_t@?$CUtlLinkedList@PAVCMulticastFile@CMasterMulticastThread@@H@@@@QAE@XZ 1000eb70 f i vmpi:vmpi_filesystem_master.obj
 0001:0000dba0       ??1?$CUtlMemory@UListElem_t@?$CUtlLinkedList@PADH@@@@QAE@XZ 1000eba0 f i vmpi:vmpi_filesystem_master.obj
 0001:0000dbd0       ?GrowVector@?$CUtlVector@VCMachineRecord@CTransmitRateMgr@@V?$CUtlMemory@VCMachineRecord@CTransmitRateMgr@@@@@@IAEXH@Z 1000ebd0 f i vmpi:vmpi_filesystem_master.obj
 0001:0000dc00       ?RemoveAll@?$CUtlVector@VCChunkInfo@CMasterMulticastThread@@V?$CUtlMemory@VCChunkInfo@CMasterMulticastThread@@@@@@QAEXXZ 1000ec00 f i vmpi:vmpi_filesystem_master.obj
 0001:0000dc10       ?AllocInternal@?$CUtlLinkedList@PAVCChunkInfo@CMasterMulticastThread@@H@@IAEH_N@Z 1000ec10 f i vmpi:vmpi_filesystem_master.obj
 0001:0000dca0       ?AllocInternal@?$CUtlLinkedList@PAVCClientFileInfo@CMasterMulticastThread@@H@@IAEH_N@Z 1000eca0 f i vmpi:vmpi_filesystem_master.obj
 0001:0000dd30       ?AllocInternal@?$CUtlLinkedList@PAVCMulticastFile@CMasterMulticastThread@@H@@IAEH_N@Z 1000ed30 f i vmpi:vmpi_filesystem_master.obj
 0001:0000ddc0       ?AllocInternal@?$CUtlLinkedList@PADH@@IAEH_N@Z 1000edc0 f i vmpi:vmpi_filesystem_master.obj
 0001:0000de50       ?InsertMultipleBefore@?$CUtlVector@EV?$CUtlMemory@E@@@@QAEHHHPBE@Z 1000ee50 f i vmpi:vmpi_filesystem_master.obj
 0001:0000dee0       ?InsertMultipleBefore@?$CUtlVector@VCChunkInfo@CMasterMulticastThread@@V?$CUtlMemory@VCChunkInfo@CMasterMulticastThread@@@@@@QAEHHHPBVCChunkInfo@CMasterMulticastThread@@@Z 1000eee0 f i vmpi:vmpi_filesystem_master.obj
 0001:0000df90       ?IsInList@?$CUtlLinkedList@PAVCChunkInfo@CMasterMulticastThread@@H@@QBE_NH@Z 1000ef90 f i vmpi:vmpi_filesystem_master.obj
 0001:0000dfc0       ?IsInList@?$CUtlLinkedList@PAVCClientFileInfo@CMasterMulticastThread@@H@@QBE_NH@Z 1000efc0 f i vmpi:vmpi_filesystem_master.obj
 0001:0000dff0       ?IsInList@?$CUtlLinkedList@PAVCMulticastFile@CMasterMulticastThread@@H@@QBE_NH@Z 1000eff0 f i vmpi:vmpi_filesystem_master.obj
 0001:0000e020       ?IsInList@?$CUtlLinkedList@PADH@@QBE_NH@Z 1000f020 f i vmpi:vmpi_filesystem_master.obj
 0001:0000e050       ?NeedsChunk@CClientFileInfo@CMasterMulticastThread@@QBE_NH@Z 1000f050 f i vmpi:vmpi_filesystem_master.obj
 0001:0000e080       ?FindFile@CMasterMulticastThread@@AAEHPBD0@Z 1000f080 f   vmpi:vmpi_filesystem_master.obj
 0001:0000e0f0       ?FindWarningSuppression@CMasterMulticastThread@@AAE_NPBD@Z 1000f0f0 f   vmpi:vmpi_filesystem_master.obj
 0001:0000e140       ?EnsureMemoryLimit@CMasterMulticastThread@@AAEXPAVCMulticastFile@1@@Z 1000f140 f   vmpi:vmpi_filesystem_master.obj
 0001:0000e1b0       ??0CBaseVMPIFileSystem@@QAE@XZ 1000f1b0 f i vmpi:vmpi_filesystem_master.obj
 0001:0000e1e0       ??0?$CUtlVector@VCMachineRecord@CTransmitRateMgr@@V?$CUtlMemory@VCMachineRecord@CTransmitRateMgr@@@@@@QAE@HH@Z 1000f1e0 f i vmpi:vmpi_filesystem_master.obj
 0001:0000e230       ??1?$CUtlVector@VCMachineRecord@CTransmitRateMgr@@V?$CUtlMemory@VCMachineRecord@CTransmitRateMgr@@@@@@QAE@XZ 1000f230 f i vmpi:vmpi_filesystem_master.obj
 0001:0000e290       ??0?$CUtlVector@EV?$CUtlMemory@E@@@@QAE@HH@Z 1000f290 f i vmpi:vmpi_filesystem_master.obj
 0001:0000e2d0       ??0?$CUtlVector@VCChunkInfo@CMasterMulticastThread@@V?$CUtlMemory@VCChunkInfo@CMasterMulticastThread@@@@@@QAE@HH@Z 1000f2d0 f i vmpi:vmpi_filesystem_master.obj
 0001:0000e320       ??0?$CUtlLinkedList@PAVCChunkInfo@CMasterMulticastThread@@H@@QAE@HH@Z 1000f320 f i vmpi:vmpi_filesystem_master.obj
 0001:0000e380       ??1?$CUtlLinkedList@PAVCChunkInfo@CMasterMulticastThread@@H@@QAE@XZ 1000f380 f i vmpi:vmpi_filesystem_master.obj
 0001:0000e3c0       ??0?$CUtlLinkedList@PAVCClientFileInfo@CMasterMulticastThread@@H@@QAE@HH@Z 1000f3c0 f i vmpi:vmpi_filesystem_master.obj
 0001:0000e420       ??1?$CUtlLinkedList@PAVCClientFileInfo@CMasterMulticastThread@@H@@QAE@XZ 1000f420 f i vmpi:vmpi_filesystem_master.obj
 0001:0000e460       ??0?$CUtlLinkedList@PAVCMulticastFile@CMasterMulticastThread@@H@@QAE@HH@Z 1000f460 f i vmpi:vmpi_filesystem_master.obj
 0001:0000e4c0       ??1?$CUtlLinkedList@PAVCMulticastFile@CMasterMulticastThread@@H@@QAE@XZ 1000f4c0 f i vmpi:vmpi_filesystem_master.obj
 0001:0000e500       ??0?$CUtlLinkedList@PADH@@QAE@HH@Z 1000f500 f i vmpi:vmpi_filesystem_master.obj
 0001:0000e560       ??1?$CUtlLinkedList@PADH@@QAE@XZ 1000f560 f i vmpi:vmpi_filesystem_master.obj
 0001:0000e5a0       ?InsertBefore@?$CUtlVector@VCMachineRecord@CTransmitRateMgr@@V?$CUtlMemory@VCMachineRecord@CTransmitRateMgr@@@@@@QAEHH@Z 1000f5a0 f i vmpi:vmpi_filesystem_master.obj
 0001:0000e600       ?Purge@?$CUtlVector@EV?$CUtlMemory@E@@@@QAEXXZ 1000f600 f i vmpi:vmpi_filesystem_master.obj
 0001:0000e640       ?Purge@?$CUtlVector@VCChunkInfo@CMasterMulticastThread@@V?$CUtlMemory@VCChunkInfo@CMasterMulticastThread@@@@@@QAEXXZ 1000f640 f i vmpi:vmpi_filesystem_master.obj
 0001:0000e680       ?AddMultipleToTail@?$CUtlVector@EV?$CUtlMemory@E@@@@QAEHHPBE@Z 1000f680 f i vmpi:vmpi_filesystem_master.obj
 0001:0000e6a0       ?AddMultipleToTail@?$CUtlVector@VCChunkInfo@CMasterMulticastThread@@V?$CUtlMemory@VCChunkInfo@CMasterMulticastThread@@@@@@QAEHHPBVCChunkInfo@CMasterMulticastThread@@@Z 1000f6a0 f i vmpi:vmpi_filesystem_master.obj
 0001:0000e6c0       ?Unlink@?$CUtlLinkedList@PAVCChunkInfo@CMasterMulticastThread@@H@@QAEXH@Z 1000f6c0 f i vmpi:vmpi_filesystem_master.obj
 0001:0000e740       ?Unlink@?$CUtlLinkedList@PAVCClientFileInfo@CMasterMulticastThread@@H@@QAEXH@Z 1000f740 f i vmpi:vmpi_filesystem_master.obj
 0001:0000e7c0       ?Unlink@?$CUtlLinkedList@PAVCMulticastFile@CMasterMulticastThread@@H@@QAEXH@Z 1000f7c0 f i vmpi:vmpi_filesystem_master.obj
 0001:0000e840       ?Unlink@?$CUtlLinkedList@PADH@@QAEXH@Z 1000f840 f i vmpi:vmpi_filesystem_master.obj
 0001:0000e8c0       ??0CTransmitRateMgr@@QAE@XZ 1000f8c0 f   vmpi:vmpi_filesystem_master.obj
 0001:0000e990       ??0CMasterMulticastThread@@QAE@XZ 1000f990 f   vmpi:vmpi_filesystem_master.obj
 0001:0000ea20       ??1CTransmitRateMgr@@QAE@XZ 1000fa20 f i vmpi:vmpi_filesystem_master.obj
 0001:0000ea30       ?AddToTail@?$CUtlVector@VCMachineRecord@CTransmitRateMgr@@V?$CUtlMemory@VCMachineRecord@CTransmitRateMgr@@@@@@QAEHXZ 1000fa30 f i vmpi:vmpi_filesystem_master.obj
 0001:0000ea40       ??1?$CUtlVector@VCChunkInfo@CMasterMulticastThread@@V?$CUtlMemory@VCChunkInfo@CMasterMulticastThread@@@@@@QAE@XZ 1000fa40 f i vmpi:vmpi_filesystem_master.obj
 0001:0000eaa0       ?SetCount@?$CUtlVector@VCChunkInfo@CMasterMulticastThread@@V?$CUtlMemory@VCChunkInfo@CMasterMulticastThread@@@@@@QAEXH@Z 1000faa0 f i vmpi:vmpi_filesystem_master.obj
 0001:0000eac0       ?Free@?$CUtlLinkedList@PAVCChunkInfo@CMasterMulticastThread@@H@@QAEXH@Z 1000fac0 f i vmpi:vmpi_filesystem_master.obj
 0001:0000eaf0       ?Free@?$CUtlLinkedList@PAVCClientFileInfo@CMasterMulticastThread@@H@@QAEXH@Z 1000faf0 f i vmpi:vmpi_filesystem_master.obj
 0001:0000eb20       ?LinkBefore@?$CUtlLinkedList@PAVCChunkInfo@CMasterMulticastThread@@H@@QAEXHH@Z 1000fb20 f i vmpi:vmpi_filesystem_master.obj
 0001:0000eb90       ?LinkAfter@?$CUtlLinkedList@PAVCChunkInfo@CMasterMulticastThread@@H@@QAEXHH@Z 1000fb90 f i vmpi:vmpi_filesystem_master.obj
 0001:0000ec10       ?LinkBefore@?$CUtlLinkedList@PAVCClientFileInfo@CMasterMulticastThread@@H@@QAEXHH@Z 1000fc10 f i vmpi:vmpi_filesystem_master.obj
 0001:0000ec80       ?LinkBefore@?$CUtlLinkedList@PAVCMulticastFile@CMasterMulticastThread@@H@@QAEXHH@Z 1000fc80 f i vmpi:vmpi_filesystem_master.obj
 0001:0000ecf0       ?LinkBefore@?$CUtlLinkedList@PADH@@QAEXHH@Z 1000fcf0 f i vmpi:vmpi_filesystem_master.obj
 0001:0000ed60       ?ReadPackets@CTransmitRateMgr@@QAEXXZ 1000fd60 f   vmpi:vmpi_filesystem_master.obj
 0001:0000eec0       ??0CClientFileInfo@CMasterMulticastThread@@QAE@XZ 1000fec0 f i vmpi:vmpi_filesystem_master.obj
 0001:0000eee0       ??1CClientFileInfo@CMasterMulticastThread@@QAE@XZ 1000fee0 f i vmpi:vmpi_filesystem_master.obj
 0001:0000eef0       ??0CMulticastFile@CMasterMulticastThread@@QAE@XZ 1000fef0 f i vmpi:vmpi_filesystem_master.obj
 0001:0000efb0       ?SetSize@?$CUtlVector@VCChunkInfo@CMasterMulticastThread@@V?$CUtlMemory@VCChunkInfo@CMasterMulticastThread@@@@@@QAEXH@Z 1000ffb0 f i vmpi:vmpi_filesystem_master.obj
 0001:0000efd0       ?Remove@?$CUtlLinkedList@PAVCChunkInfo@CMasterMulticastThread@@H@@QAEXH@Z 1000ffd0 f i vmpi:vmpi_filesystem_master.obj
 0001:0000f000       ?Remove@?$CUtlLinkedList@PAVCClientFileInfo@CMasterMulticastThread@@H@@QAEXH@Z 10010000 f i vmpi:vmpi_filesystem_master.obj
 0001:0000f030       ?InsertBefore@?$CUtlLinkedList@PAVCChunkInfo@CMasterMulticastThread@@H@@QAEHHABQAVCChunkInfo@CMasterMulticastThread@@@Z 10010030 f i vmpi:vmpi_filesystem_master.obj
 0001:0000f0c0       ?InsertAfter@?$CUtlLinkedList@PAVCChunkInfo@CMasterMulticastThread@@H@@QAEHHABQAVCChunkInfo@CMasterMulticastThread@@@Z 100100c0 f i vmpi:vmpi_filesystem_master.obj
 0001:0000f150       ?InsertBefore@?$CUtlLinkedList@PAVCClientFileInfo@CMasterMulticastThread@@H@@QAEHHABQAVCClientFileInfo@CMasterMulticastThread@@@Z 10010150 f i vmpi:vmpi_filesystem_master.obj
 0001:0000f1e0       ?InsertBefore@?$CUtlLinkedList@PAVCMulticastFile@CMasterMulticastThread@@H@@QAEHHABQAVCMulticastFile@CMasterMulticastThread@@@Z 100101e0 f i vmpi:vmpi_filesystem_master.obj
 0001:0000f270       ?InsertBefore@?$CUtlLinkedList@PADH@@QAEHHABQAD@Z 10010270 f i vmpi:vmpi_filesystem_master.obj
 0001:0000f450       ??_GCClientFileInfo@CMasterMulticastThread@@QAEPAXI@Z 10010450 f i vmpi:vmpi_filesystem_master.obj
 0001:0000f480       ?AddToHead@?$CUtlLinkedList@PAVCChunkInfo@CMasterMulticastThread@@H@@QAEHABQAVCChunkInfo@CMasterMulticastThread@@@Z 10010480 f i vmpi:vmpi_filesystem_master.obj
 0001:0000f490       ?AddToTail@?$CUtlLinkedList@PAVCChunkInfo@CMasterMulticastThread@@H@@QAEHABQAVCChunkInfo@CMasterMulticastThread@@@Z 10010490 f i vmpi:vmpi_filesystem_master.obj
 0001:0000f4a0       ?PurgeAndDeleteElements@?$CUtlLinkedList@PAVCClientFileInfo@CMasterMulticastThread@@H@@QAEXXZ 100104a0 f i vmpi:vmpi_filesystem_master.obj
 0001:0000f560       ?AddToTail@?$CUtlLinkedList@PAVCClientFileInfo@CMasterMulticastThread@@H@@QAEHABQAVCClientFileInfo@CMasterMulticastThread@@@Z 10010560 f i vmpi:vmpi_filesystem_master.obj
 0001:0000f570       ?AddToTail@?$CUtlLinkedList@PAVCMulticastFile@CMasterMulticastThread@@H@@QAEHABQAVCMulticastFile@CMasterMulticastThread@@@Z 10010570 f i vmpi:vmpi_filesystem_master.obj
 0001:0000f580       ?AddToTail@?$CUtlLinkedList@PADH@@QAEHABQAD@Z 10010580 f i vmpi:vmpi_filesystem_master.obj
 0001:0000f590       ??1CMulticastFile@CMasterMulticastThread@@QAE@XZ 10010590 f i vmpi:vmpi_filesystem_master.obj
 0001:0000f630       ?IncrementChunkRefCount@CMasterMulticastThread@@AAEXPAVCMulticastFile@1@H@Z 10010630 f   vmpi:vmpi_filesystem_master.obj
 0001:0000f690       ?DecrementChunkRefCount@CMasterMulticastThread@@AAEXHH@Z 10010690 f   vmpi:vmpi_filesystem_master.obj
 0001:0000f730       ?AddWarningSuppression@CMasterMulticastThread@@AAEXPBD@Z 10010730 f   vmpi:vmpi_filesystem_master.obj
 0001:0000f790       ??_GCMulticastFile@CMasterMulticastThread@@QAEPAXI@Z 10010790 f i vmpi:vmpi_filesystem_master.obj
 0001:0000f7b0       ?PurgeAndDeleteElements@?$CUtlLinkedList@PAVCMulticastFile@CMasterMulticastThread@@H@@QAEXXZ 100107b0 f i vmpi:vmpi_filesystem_master.obj
 0001:0000f840       ?Term@CMasterMulticastThread@@QAEXXZ 10010840 f   vmpi:vmpi_filesystem_master.obj
 0001:0000f8a0       ?OnChunkReceived@CMasterMulticastThread@@QAEXHHH@Z 100108a0 f   vmpi:vmpi_filesystem_master.obj
 0001:0000f9d0       ?OnFileReceived@CMasterMulticastThread@@QAEXHH@Z 100109d0 f   vmpi:vmpi_filesystem_master.obj
 0001:0000fa40       ?OnClientDisconnect@CMasterMulticastThread@@QAEXH_N@Z 10010a40 f   vmpi:vmpi_filesystem_master.obj
 0001:0000fbc0       ?CheckClientTimeouts@CMasterMulticastThread@@AAE_NXZ 10010bc0 f   vmpi:vmpi_filesystem_master.obj
 0001:0000fd10       ?MulticastThread@CMasterMulticastThread@@AAEKXZ 10010d10 f   vmpi:vmpi_filesystem_master.obj
 0001:00010230       ?FinishFileSetup@CMasterMulticastThread@@AAEHPAVCMulticastFile@1@PBD1_N@Z 10011230 f   vmpi:vmpi_filesystem_master.obj
 0001:000103c0       ?Term@CMasterVMPIFileSystem@@UAEXXZ 100113c0 f   vmpi:vmpi_filesystem_master.obj
 0001:000103d0       ?OnClientDisconnect@CMasterVMPIFileSystem@@CAXHPBD@Z 100113d0 f   vmpi:vmpi_filesystem_master.obj
 0001:000103f0       ??1CMasterMulticastThread@@QAE@XZ 100113f0 f   vmpi:vmpi_filesystem_master.obj
 0001:00010470       ?CreateVirtualFile@CMasterMulticastThread@@QAEXPBDPBXK@Z 10011470 f   vmpi:vmpi_filesystem_master.obj
 0001:000104e0       ?StaticMulticastThread@CMasterMulticastThread@@CGKPAX@Z 100114e0 f   vmpi:vmpi_filesystem_master.obj
 0001:000104f0       ?FindOrAddFile@CMasterMulticastThread@@QAEHPBD0@Z 100114f0 f   vmpi:vmpi_filesystem_master.obj
 0001:00010600       ??0CMasterVMPIFileSystem@@QAE@XZ 10011600 f   vmpi:vmpi_filesystem_master.obj
 0001:00010650       ??1CMasterVMPIFileSystem@@UAE@XZ 10011650 f   vmpi:vmpi_filesystem_master.obj
 0001:00010680       ?Open@CMasterVMPIFileSystem@@UAEPAXPBD00@Z 10011680 f   vmpi:vmpi_filesystem_master.obj
 0001:00010780       ?CreateVirtualFile@CMasterVMPIFileSystem@@UAEXPBDPBXH@Z 10011780 f   vmpi:vmpi_filesystem_master.obj
 0001:00010790       ?Init@CMasterMulticastThread@@QAE_NPAVIBaseFileSystem@@GPBVCIPAddr@@H@Z 10011790 f   vmpi:vmpi_filesystem_master.obj
 0001:00010930       ?AddFileRequest@CMasterMulticastThread@@QAEHPBD0HPA_N@Z 10011930 f   vmpi:vmpi_filesystem_master.obj
 0001:00010ab0       ??_ECMasterVMPIFileSystem@@UAEPAXI@Z 10011ab0 f i vmpi:vmpi_filesystem_master.obj
 0001:00010ab0       ??_GCMasterVMPIFileSystem@@UAEPAXI@Z 10011ab0 f i vmpi:vmpi_filesystem_master.obj
 0001:00010af0       ?Init@CMasterVMPIFileSystem@@QAE_NHPAVIFileSystem@@@Z 10011af0 f   vmpi:vmpi_filesystem_master.obj
 0001:00010c70       ?HandleFileSystemPacket@CMasterVMPIFileSystem@@UAE_NPAVMessageBuffer@@HH@Z 10011c70 f   vmpi:vmpi_filesystem_master.obj
 0001:00010de0       ?CreateMasterVMPIFileSystem@@YAPAVCBaseVMPIFileSystem@@HPAVIFileSystem@@@Z 10011de0 f   vmpi:vmpi_filesystem_master.obj
 0001:00010ea0       ?GetUserData@CTCPPacket@@QBEHXZ 10011ea0 f   vmpi:ThreadedTCPSocket.obj
 0001:00010eb0       ?SetUserData@CTCPPacket@@QAEXH@Z 10011eb0 f   vmpi:ThreadedTCPSocket.obj
 0001:00010ec0       ?Release@CTCPPacket@@QAEXXZ 10011ec0 f   vmpi:ThreadedTCPSocket.obj
 0001:00010ed0       ??0ITCPConnectSocket@@QAE@XZ 10011ed0 f i vmpi:ThreadedTCPSocket.obj
 0001:00010ee0       ??0CTCPConnectSocket_Connector@@QAE@XZ 10011ee0 f i vmpi:ThreadedTCPSocket.obj
 0001:00010f10       ?Create@CTCPConnectSocket_Connector@@SAPAVITCPConnectSocket@@ABVCIPAddr@@0PAVIHandlerCreator@@@Z 10011f10 f i vmpi:ThreadedTCPSocket.obj
 0001:00011000       ?Release@CTCPConnectSocket_Connector@@UAEXXZ 10012000 f i vmpi:ThreadedTCPSocket.obj
 0001:00011010       ??_ECTCPConnectSocket_Connector@@UAEPAXI@Z 10012010 f i vmpi:ThreadedTCPSocket.obj
 0001:00011010       ??_GCTCPConnectSocket_Connector@@UAEPAXI@Z 10012010 f i vmpi:ThreadedTCPSocket.obj
 0001:00011040       ?ThreadedTCP_CreateConnector@@YAPAVITCPConnectSocket@@ABVCIPAddr@@0PAVIHandlerCreator@@@Z 10012040 f   vmpi:ThreadedTCPSocket.obj
 0001:00011050       ?ThreadedTCP_EnableTimeouts@@YAX_N@Z 10012050 f   vmpi:ThreadedTCPSocket.obj
 0001:00011060       ??0CTCPConnectSocket_Listener@@QAE@XZ 10012060 f i vmpi:ThreadedTCPSocket.obj
 0001:00011070       ?Release@CTCPConnectSocket_Listener@@UAEXXZ 10012070 f i vmpi:ThreadedTCPSocket.obj
 0001:00011080       ??_ECTCPConnectSocket_Listener@@UAEPAXI@Z 10012080 f i vmpi:ThreadedTCPSocket.obj
 0001:00011080       ??_GCTCPConnectSocket_Listener@@UAEPAXI@Z 10012080 f i vmpi:ThreadedTCPSocket.obj
 0001:000110b0       ?Create@CTCPConnectSocket_Listener@@SAPAVITCPConnectSocket@@PAVIHandlerCreator@@GH@Z 100120b0 f i vmpi:ThreadedTCPSocket.obj
 0001:00011150       ?ThreadedTCP_CreateListener@@YAPAVITCPConnectSocket@@PAVIHandlerCreator@@GH@Z 10012150 f   vmpi:ThreadedTCPSocket.obj
 0001:00011160       ?Update@CTCPConnectSocket_Listener@@UAE_NPAPAVIThreadedTCPSocket@@K@Z 10012160 f i vmpi:ThreadedTCPSocket.obj
 0001:00011290       ?Create@CThreadedTCPSocket@@SAPAVIThreadedTCPSocket@@IVCIPAddr@@PAVITCPSocketHandler@@@Z 10012290 f i vmpi:ThreadedTCPSocket.obj
 0001:000112f0       ??0CThreadedTCPSocket@@AAE@XZ 100122f0 f i vmpi:ThreadedTCPSocket.obj
 0001:000113a0       ?Release@CThreadedTCPSocket@@UAEXXZ 100123a0 f i vmpi:ThreadedTCPSocket.obj
 0001:000113b0       ?GetRemoteAddr@CThreadedTCPSocket@@UBE?AVCIPAddr@@XZ 100123b0 f i vmpi:ThreadedTCPSocket.obj
 0001:000113d0       ?Send@CThreadedTCPSocket@@UAE_NPBXH@Z 100123d0 f i vmpi:ThreadedTCPSocket.obj
 0001:000113f0       ?IsValid@CThreadedTCPSocket@@UAE_NXZ 100123f0 f i vmpi:ThreadedTCPSocket.obj
 0001:00011420       ??0?$CUtlLinkedList@PAUSendData_t@CThreadedTCPSocket@@H@@QAE@HH@Z 10012420 f i vmpi:ThreadedTCPSocket.obj
 0001:00011480       ??_ECThreadedTCPSocket@@EAEPAXI@Z 10012480 f i vmpi:ThreadedTCPSocket.obj
 0001:00011480       ??_GCThreadedTCPSocket@@EAEPAXI@Z 10012480 f i vmpi:ThreadedTCPSocket.obj
 0001:000114a0       ??1CThreadedTCPSocket@@EAE@XZ 100124a0 f i vmpi:ThreadedTCPSocket.obj
 0001:00011500       ?Term@CThreadedTCPSocket@@AAEXXZ 10012500 f i vmpi:ThreadedTCPSocket.obj
 0001:00011590       ?Purge@?$CUtlMemory@UListElem_t@?$CUtlLinkedList@PAUSendData_t@CThreadedTCPSocket@@H@@@@QAEXXZ 10012590 f i vmpi:ThreadedTCPSocket.obj
 0001:000115c0       ?RemoveAll@?$CUtlLinkedList@PAUSendData_t@CThreadedTCPSocket@@H@@QAEXXZ 100125c0 f i vmpi:ThreadedTCPSocket.obj
 0001:00011610       ?SendChunks@CThreadedTCPSocket@@UAE_NPBQBXPBHH@Z 10012610 f i vmpi:ThreadedTCPSocket.obj
 0001:00011660       ?InternalSend@CThreadedTCPSocket@@AAE_NPBQBXPBHH_N@Z 10012660 f i vmpi:ThreadedTCPSocket.obj
 0001:00011750       ?InsertBefore@?$CUtlLinkedList@PAUSendData_t@CThreadedTCPSocket@@H@@QAEHHABQAUSendData_t@CThreadedTCPSocket@@@Z 10012750 f i vmpi:ThreadedTCPSocket.obj
 0001:00011790       ?AllocInternal@?$CUtlLinkedList@PAUSendData_t@CThreadedTCPSocket@@H@@IAEH_N@Z 10012790 f i vmpi:ThreadedTCPSocket.obj
 0001:00011820       ?Grow@?$CUtlMemory@UListElem_t@?$CUtlLinkedList@PAUSendData_t@CThreadedTCPSocket@@H@@@@QAEXH@Z 10012820 f i vmpi:ThreadedTCPSocket.obj
 0001:00011890       ?LinkBefore@?$CUtlLinkedList@PAUSendData_t@CThreadedTCPSocket@@H@@QAEXHH@Z 10012890 f i vmpi:ThreadedTCPSocket.obj
 0001:00011900       ?Unlink@?$CUtlLinkedList@PAUSendData_t@CThreadedTCPSocket@@H@@QAEXH@Z 10012900 f i vmpi:ThreadedTCPSocket.obj
 0001:00011980       ?Init@CThreadedTCPSocket@@AAE_NIVCIPAddr@@PAVITCPSocketHandler@@@Z 10012980 f i vmpi:ThreadedTCPSocket.obj
 0001:00011aa0       ?SetInitialSocketOptions@CThreadedTCPSocket@@AAEXXZ 10012aa0 f i vmpi:ThreadedTCPSocket.obj
 0001:00011b00       ?StaticRecvThreadFn@CThreadedTCPSocket@@CGKPAX@Z 10012b00 f i vmpi:ThreadedTCPSocket.obj
 0001:00011b10       ?RecvThreadFn@CThreadedTCPSocket@@AAEKXZ 10012b10 f i vmpi:ThreadedTCPSocket.obj
 0001:00011c80       ?HandleError@CThreadedTCPSocket@@AAEXK@Z 10012c80 f i vmpi:ThreadedTCPSocket.obj
 0001:00011d20       ?RecvThread_InternalRecv@CThreadedTCPSocket@@AAE_NPAXH_N1@Z 10012d20 f i vmpi:ThreadedTCPSocket.obj
 0001:00011dd0       ?RecvThread_HandleRecvCompletionEvent@CThreadedTCPSocket@@AAE_NXZ 10012dd0 f i vmpi:ThreadedTCPSocket.obj
 0001:00011e20       ?RecvThread_InternalHandleRecvCompletion@CThreadedTCPSocket@@AAE_NK@Z 10012e20 f i vmpi:ThreadedTCPSocket.obj
 0001:00011fd0       ?StaticSendThreadFn@CThreadedTCPSocket@@CGKPAX@Z 10012fd0 f i vmpi:ThreadedTCPSocket.obj
 0001:00011fe0       ?SendThreadFn@CThreadedTCPSocket@@AAEKXZ 10012fe0 f i vmpi:ThreadedTCPSocket.obj
 0001:00012120       ?SendThread_HandleReadyToSendEvent@CThreadedTCPSocket@@AAE_NXZ 10013120 f i vmpi:ThreadedTCPSocket.obj
 0001:000121e0       ?SendThread_HandleSendCompletionEvent@CThreadedTCPSocket@@AAE_NXZ 100131e0 f i vmpi:ThreadedTCPSocket.obj
 0001:00012310       ?SendThread_HandleTimeout@CThreadedTCPSocket@@AAEXXZ 10013310 f i vmpi:ThreadedTCPSocket.obj
 0001:00012380       ?Update@CTCPConnectSocket_Connector@@UAE_NPAPAVIThreadedTCPSocket@@K@Z 10013380 f i vmpi:ThreadedTCPSocket.obj
 0001:000124a0       ?IsReadyToRead@CWorkerFile@@QBE_NXZ 100134a0 f i vmpi:vmpi_filesystem_worker.obj
 0001:000125b0       ?Init@CWorkerMulticastListener@@QAE_NABVCIPAddr@@W4VMPIRunMode@@@Z 100135b0 f i vmpi:vmpi_filesystem_worker.obj
 0001:000125e0       ?FlushAckChunks@CWorkerMulticastListener@@QAEXQAY01GAAHAAK@Z 100135e0 f i vmpi:vmpi_filesystem_worker.obj
 0001:00012650       ?MaybeFlushAckChunks@CWorkerMulticastListener@@QAEXQAY01GAAHAAK@Z 10013650 f i vmpi:vmpi_filesystem_worker.obj
 0001:00012690       ?AddAckChunk@CWorkerMulticastListener@@QAEXQAY01GAAHAAKHH@Z 10013690 f i vmpi:vmpi_filesystem_worker.obj
 0001:000126d0       ?Init@CWorkerVMPIFileSystem@@UAE?AW4InitReturnVal_t@@XZ 100136d0 f   vmpi:vmpi_filesystem_worker.obj
 0001:00012720       ?CreateVirtualFile@CWorkerVMPIFileSystem@@UAEXPBDPBXH@Z 10013720 f   vmpi:vmpi_filesystem_worker.obj
 0001:00012730       ?GetFileTime@CWorkerVMPIFileSystem@@UAEJPBD0@Z 10013730 f   vmpi:vmpi_filesystem_worker.obj
 0001:00012750       ?IsFileWritable@CWorkerVMPIFileSystem@@UAE_NPBD0@Z 10013750 f   vmpi:vmpi_filesystem_worker.obj
 0001:00012770       ?SetFileWritable@CWorkerVMPIFileSystem@@UAE_NPBD_N0@Z 10013770 f   vmpi:vmpi_filesystem_worker.obj
 0001:00012790       ?LoadModule@CWorkerVMPIFileSystem@@UAEPAVCSysModule@@PBD0_N@Z 10013790 f   vmpi:vmpi_filesystem_worker.obj
 0001:000127a0       ?UnloadModule@CWorkerVMPIFileSystem@@UAEXPAVCSysModule@@@Z 100137a0 f   vmpi:vmpi_filesystem_worker.obj
 0001:000127b0       ?GetSeconds@CCycleCount@@QBENXZ 100137b0 f i vmpi:vmpi_filesystem_worker.obj
 0001:000127c0       ?InvalidIndex@?$CUtlLinkedList@PAVCWorkerFile@@H@@SAHXZ 100137c0 f i vmpi:vmpi_filesystem_worker.obj
 0001:000127d0       ?Count@?$CUtlVector@VCFileResponse@@V?$CUtlMemory@VCFileResponse@@@@@@QBEHXZ 100137d0 f i vmpi:vmpi_filesystem_worker.obj
 0001:000127e0       ?Head@?$CUtlLinkedList@PAVCWorkerFile@@H@@QBEHXZ 100137e0 f i vmpi:vmpi_filesystem_worker.obj
 0001:000127f0       ?Base@?$CUtlMemory@VCFileResponse@@@@QAEPAVCFileResponse@@XZ 100137f0 f i vmpi:vmpi_filesystem_worker.obj
 0001:00012800       ??$Destruct@VCFileResponse@@@@YAXPAVCFileResponse@@@Z 10013800 f i vmpi:vmpi_filesystem_worker.obj
 0001:00012810       ?ConstructList@?$CUtlLinkedList@PAVCWorkerFile@@H@@IAEXXZ 10013810 f i vmpi:vmpi_filesystem_worker.obj
 0001:00012830       ??A?$CUtlMemory@UListElem_t@?$CUtlLinkedList@PAVCWorkerFile@@H@@@@QBEABUListElem_t@?$CUtlLinkedList@PAVCWorkerFile@@H@@H@Z 10013830 f i vmpi:vmpi_filesystem_worker.obj
 0001:00012840       ??A?$CUtlMemory@UListElem_t@?$CUtlLinkedList@PAVCWorkerFile@@H@@@@QAEAAUListElem_t@?$CUtlLinkedList@PAVCWorkerFile@@H@@H@Z 10013840 f i vmpi:vmpi_filesystem_worker.obj
 0001:00012850       ?Base@?$CUtlMemory@UListElem_t@?$CUtlLinkedList@PAVCWorkerFile@@H@@@@QAEPAUListElem_t@?$CUtlLinkedList@PAVCWorkerFile@@H@@XZ 10013850 f i vmpi:vmpi_filesystem_worker.obj
 0001:00012860       ?ValidateGrowSize@?$CUtlMemory@VCFileResponse@@@@IAEXXZ 10013860 f i vmpi:vmpi_filesystem_worker.obj
 0001:00012870       ?InternalElement@?$CUtlLinkedList@PAVCWorkerFile@@H@@IAEAAUListElem_t@1@H@Z 10013870 f i vmpi:vmpi_filesystem_worker.obj
 0001:00012880       ?ValidateGrowSize@?$CUtlMemory@UListElem_t@?$CUtlLinkedList@PAVCWorkerFile@@H@@@@IAEXXZ 10013880 f i vmpi:vmpi_filesystem_worker.obj
 0001:00012890       ??$CopyConstruct@VCFileResponse@@@@YAXPAVCFileResponse@@ABV0@@Z 10013890 f i vmpi:vmpi_filesystem_worker.obj
 0001:000128b0       ?IsValidIndex@?$CUtlLinkedList@PAVCWorkerFile@@H@@QBE_NH@Z 100138b0 f i vmpi:vmpi_filesystem_worker.obj
 0001:000128e0       ??$CopyConstruct@PAVCWorkerFile@@@@YAXPAPAVCWorkerFile@@ABQAV0@@Z 100138e0 f i vmpi:vmpi_filesystem_worker.obj
 0001:00012900       ??$Destruct@PAVCWorkerFile@@@@YAXPAPAVCWorkerFile@@@Z 10013900 f i vmpi:vmpi_filesystem_worker.obj
 0001:00012910       ?NumAllocated@?$CUtlMemory@VCFileResponse@@@@QBEHXZ 10013910 f i vmpi:vmpi_filesystem_worker.obj
 0001:00012920       ?IsExternallyAllocated@?$CUtlMemory@VCFileResponse@@@@QBE_NXZ 10013920 f i vmpi:vmpi_filesystem_worker.obj
 0001:00012930       ?NumAllocated@?$CUtlMemory@UListElem_t@?$CUtlLinkedList@PAVCWorkerFile@@H@@@@QBEHXZ 10013930 f i vmpi:vmpi_filesystem_worker.obj
 0001:00012940       ?IsExternallyAllocated@?$CUtlMemory@UListElem_t@?$CUtlLinkedList@PAVCWorkerFile@@H@@@@QBE_NXZ 10013940 f i vmpi:vmpi_filesystem_worker.obj
 0001:00012950       ??A?$CUtlLinkedList@PAVCWorkerFile@@H@@QAEAAPAVCWorkerFile@@H@Z 10013950 f i vmpi:vmpi_filesystem_worker.obj
 0001:00012960       ?Base@?$CUtlVector@VCFileResponse@@V?$CUtlMemory@VCFileResponse@@@@@@QAEPAVCFileResponse@@XZ 10013960 f i vmpi:vmpi_filesystem_worker.obj
 0001:00012970       ?ResetDbgInfo@?$CUtlVector@VCFileResponse@@V?$CUtlMemory@VCFileResponse@@@@@@IAEXXZ 10013970 f i vmpi:vmpi_filesystem_worker.obj
 0001:00012980       ?InternalElement@?$CUtlLinkedList@PAVCWorkerFile@@H@@IBEABUListElem_t@1@H@Z 10013980 f i vmpi:vmpi_filesystem_worker.obj
 0001:00012990       ?ResetDbgInfo@?$CUtlLinkedList@PAVCWorkerFile@@H@@IAEXXZ 10013990 f i vmpi:vmpi_filesystem_worker.obj
 0001:000129a0       ?Element@?$CUtlVector@VCFileResponse@@V?$CUtlMemory@VCFileResponse@@@@@@QAEAAVCFileResponse@@H@Z 100139a0 f i vmpi:vmpi_filesystem_worker.obj
 0001:000129b0       ?ShiftElementsLeft@?$CUtlVector@VCFileResponse@@V?$CUtlMemory@VCFileResponse@@@@@@IAEXHH@Z 100139b0 f i vmpi:vmpi_filesystem_worker.obj
 0001:000129f0       ??0?$CUtlMemory@VCFileResponse@@@@QAE@HH@Z 100139f0 f i vmpi:vmpi_filesystem_worker.obj
 0001:00012a30       ?Element@?$CUtlLinkedList@PAVCWorkerFile@@H@@QAEAAPAVCWorkerFile@@H@Z 10013a30 f i vmpi:vmpi_filesystem_worker.obj
 0001:00012a40       ?RemoveAll@?$CUtlLinkedList@PAVCWorkerFile@@H@@QAEXXZ 10013a40 f i vmpi:vmpi_filesystem_worker.obj
 0001:00012a90       ??0?$CUtlMemory@UListElem_t@?$CUtlLinkedList@PAVCWorkerFile@@H@@@@QAE@HH@Z 10013a90 f i vmpi:vmpi_filesystem_worker.obj
 0001:00012ad0       ?RemoveAll@?$CUtlVector@VCFileResponse@@V?$CUtlMemory@VCFileResponse@@@@@@QAEXXZ 10013ad0 f i vmpi:vmpi_filesystem_worker.obj
 0001:00012ae0       ?ShiftElementsRight@?$CUtlVector@VCFileResponse@@V?$CUtlMemory@VCFileResponse@@@@@@IAEXHH@Z 10013ae0 f i vmpi:vmpi_filesystem_worker.obj
 0001:00012b20       ?Purge@?$CUtlMemory@VCFileResponse@@@@QAEXXZ 10013b20 f i vmpi:vmpi_filesystem_worker.obj
 0001:00012b50       ?Purge@?$CUtlMemory@UListElem_t@?$CUtlLinkedList@PAVCWorkerFile@@H@@@@QAEXXZ 10013b50 f i vmpi:vmpi_filesystem_worker.obj
 0001:00012b80       ?Grow@?$CUtlMemory@VCFileResponse@@@@QAEXH@Z 10013b80 f i vmpi:vmpi_filesystem_worker.obj
 0001:00012bf0       ?Grow@?$CUtlMemory@UListElem_t@?$CUtlLinkedList@PAVCWorkerFile@@H@@@@QAEXH@Z 10013bf0 f i vmpi:vmpi_filesystem_worker.obj
 0001:00012c60       ?Previous@?$CUtlLinkedList@PAVCWorkerFile@@H@@QBEHH@Z 10013c60 f i vmpi:vmpi_filesystem_worker.obj
 0001:00012c70       ?GetFilename@CWorkerFile@@QAEPBDXZ 10013c70 f i vmpi:vmpi_filesystem_worker.obj
 0001:00012c80       ?GetPathID@CWorkerFile@@QAEPBDXZ 10013c80 f i vmpi:vmpi_filesystem_worker.obj
 0001:00012c90       ??A?$CUtlVector@VCFileResponse@@V?$CUtlMemory@VCFileResponse@@@@@@QAEAAVCFileResponse@@H@Z 10013c90 f i vmpi:vmpi_filesystem_worker.obj
 0001:00012ca0       ?Remove@?$CUtlVector@VCFileResponse@@V?$CUtlMemory@VCFileResponse@@@@@@QAEXH@Z 10013ca0 f i vmpi:vmpi_filesystem_worker.obj
 0001:00012ce0       ?Next@?$CUtlLinkedList@PAVCWorkerFile@@H@@QBEHH@Z 10013ce0 f i vmpi:vmpi_filesystem_worker.obj
 0001:00012cf0       ?Purge@?$CUtlVector@VCFileResponse@@V?$CUtlMemory@VCFileResponse@@@@@@QAEXXZ 10013cf0 f i vmpi:vmpi_filesystem_worker.obj
 0001:00012d30       ??1?$CUtlMemory@VCFileResponse@@@@QAE@XZ 10013d30 f i vmpi:vmpi_filesystem_worker.obj
 0001:00012d60       ?Purge@?$CUtlLinkedList@PAVCWorkerFile@@H@@QAEXXZ 10013d60 f i vmpi:vmpi_filesystem_worker.obj
 0001:00012db0       ??1?$CUtlMemory@UListElem_t@?$CUtlLinkedList@PAVCWorkerFile@@H@@@@QAE@XZ 10013db0 f i vmpi:vmpi_filesystem_worker.obj
 0001:00012de0       ?GrowVector@?$CUtlVector@VCFileResponse@@V?$CUtlMemory@VCFileResponse@@@@@@IAEXH@Z 10013de0 f i vmpi:vmpi_filesystem_worker.obj
 0001:00012e10       ?AllocInternal@?$CUtlLinkedList@PAVCWorkerFile@@H@@IAEH_N@Z 10013e10 f i vmpi:vmpi_filesystem_worker.obj
 0001:00012ea0       ?IsInList@?$CUtlLinkedList@PAVCWorkerFile@@H@@QBE_NH@Z 10013ea0 f i vmpi:vmpi_filesystem_worker.obj
 0001:00012ed0       ?FindWorkerFile@CWorkerMulticastListener@@QAEPAVCWorkerFile@@PBD0@Z 10013ed0 f i vmpi:vmpi_filesystem_worker.obj
 0001:00012f40       ?FindWorkerFile@CWorkerMulticastListener@@QAEPAVCWorkerFile@@H@Z 10013f40 f i vmpi:vmpi_filesystem_worker.obj
 0001:00012f80       ??0?$CUtlVector@VCFileResponse@@V?$CUtlMemory@VCFileResponse@@@@@@QAE@HH@Z 10013f80 f i vmpi:vmpi_filesystem_worker.obj
 0001:00012fd0       ??1?$CUtlVector@VCFileResponse@@V?$CUtlMemory@VCFileResponse@@@@@@QAE@XZ 10013fd0 f i vmpi:vmpi_filesystem_worker.obj
 0001:00013030       ??0?$CUtlLinkedList@PAVCWorkerFile@@H@@QAE@HH@Z 10014030 f i vmpi:vmpi_filesystem_worker.obj
 0001:00013090       ??1?$CUtlLinkedList@PAVCWorkerFile@@H@@QAE@XZ 10014090 f i vmpi:vmpi_filesystem_worker.obj
 0001:000130d0       ?InsertBefore@?$CUtlVector@VCFileResponse@@V?$CUtlMemory@VCFileResponse@@@@@@QAEHHABVCFileResponse@@@Z 100140d0 f i vmpi:vmpi_filesystem_worker.obj
 0001:00013150       ?Unlink@?$CUtlLinkedList@PAVCWorkerFile@@H@@QAEXH@Z 10014150 f i vmpi:vmpi_filesystem_worker.obj
 0001:000131d0       ??0CWorkerMulticastListener@@QAE@XZ 100141d0 f i vmpi:vmpi_filesystem_worker.obj
 0001:00013200       ?AddToTail@?$CUtlVector@VCFileResponse@@V?$CUtlMemory@VCFileResponse@@@@@@QAEHABVCFileResponse@@@Z 10014200 f i vmpi:vmpi_filesystem_worker.obj
 0001:00013220       ??1CWorkerFile@@QAE@XZ     10014220 f i vmpi:vmpi_filesystem_worker.obj
 0001:00013250       ?LinkBefore@?$CUtlLinkedList@PAVCWorkerFile@@H@@QAEXHH@Z 10014250 f i vmpi:vmpi_filesystem_worker.obj
 0001:000132c0       ??0CWorkerFile@@QAE@XZ     100142c0 f i vmpi:vmpi_filesystem_worker.obj
 0001:00013320       ?HandleFileSystemPacket@CWorkerVMPIFileSystem@@UAE_NPAVMessageBuffer@@HH@Z 10014320 f   vmpi:vmpi_filesystem_worker.obj
 0001:000133c0       ??_GCWorkerFile@@QAEPAXI@Z 100143c0 f i vmpi:vmpi_filesystem_worker.obj
 0001:00013410       ?InsertBefore@?$CUtlLinkedList@PAVCWorkerFile@@H@@QAEHHABQAVCWorkerFile@@@Z 10014410 f i vmpi:vmpi_filesystem_worker.obj
 0001:000134a0       ?PurgeAndDeleteElements@?$CUtlLinkedList@PAVCWorkerFile@@H@@QAEXXZ 100144a0 f i vmpi:vmpi_filesystem_worker.obj
 0001:00013680       ?AddToTail@?$CUtlLinkedList@PAVCWorkerFile@@H@@QAEHABQAVCWorkerFile@@@Z 10014680 f i vmpi:vmpi_filesystem_worker.obj
 0001:00013690       ?Term@CWorkerMulticastListener@@QAEXXZ 10014690 f i vmpi:vmpi_filesystem_worker.obj
 0001:000136a0       ?RequestFileFromServer@CWorkerMulticastListener@@QAEPAVCWorkerFile@@PBD0@Z 100146a0 f i vmpi:vmpi_filesystem_worker.obj
 0001:000139e0       ?ListenFor@CWorkerMulticastListener@@QAEPAVCWorkerFile@@PBD0@Z 100149e0 f i vmpi:vmpi_filesystem_worker.obj
 0001:00013ef0       ?Term@CWorkerVMPIFileSystem@@UAEXXZ 10014ef0 f   vmpi:vmpi_filesystem_worker.obj
 0001:00013f00       ?Open@CWorkerVMPIFileSystem@@UAEPAXPBD00@Z 10014f00 f   vmpi:vmpi_filesystem_worker.obj
 0001:00013fb0       ??1CWorkerMulticastListener@@QAE@XZ 10014fb0 f i vmpi:vmpi_filesystem_worker.obj
 0001:00013ff0       ??0CWorkerVMPIFileSystem@@QAE@XZ 10014ff0 f i vmpi:vmpi_filesystem_worker.obj
 0001:00014060       ?CreateWorkerVMPIFileSystem@@YAPAVCBaseVMPIFileSystem@@XZ 10015060 f   vmpi:vmpi_filesystem_worker.obj
 0001:000140b0       ??_ECWorkerVMPIFileSystem@@UAEPAXI@Z 100150b0 f i vmpi:vmpi_filesystem_worker.obj
 0001:000140b0       ??_GCWorkerVMPIFileSystem@@UAEPAXI@Z 100150b0 f i vmpi:vmpi_filesystem_worker.obj
 0001:000140e0       _deflateInit_              100150e0 f   vmpi:deflate.obj
 0001:00014110       _deflateInit2_             10015110 f   vmpi:deflate.obj
 0001:00014310       _deflateSetDictionary      10015310 f   vmpi:deflate.obj
 0001:00014410       _deflateReset              10015410 f   vmpi:deflate.obj
 0001:00014490       _deflateParams             10015490 f   vmpi:deflate.obj
 0001:00014560       _deflate                   10015560 f   vmpi:deflate.obj
 0001:000148c0       _deflateEnd                100158c0 f   vmpi:deflate.obj
 0001:00014970       _deflateCopy               10015970 f   vmpi:deflate.obj
 0001:000157a0       _inflateReset              100167a0 f   vmpi:inflate.obj
 0001:000157f0       _inflateEnd                100167f0 f   vmpi:inflate.obj
 0001:00015840       _inflateInit2_             10016840 f   vmpi:inflate.obj
 0001:00015950       _inflateInit_              10016950 f   vmpi:inflate.obj
 0001:00015970       _inflate                   10016970 f   vmpi:inflate.obj
 0001:00015da0       _inflateSetDictionary      10016da0 f   vmpi:inflate.obj
 0001:00015e30       _inflateSync               10016e30 f   vmpi:inflate.obj
 0001:00015f00       _inflateSyncPoint          10016f00 f   vmpi:inflate.obj
 0001:00015f30       _zlibVersion               10016f30 f   vmpi:zutil.obj
 0001:00015f40       _zError                    10016f40 f   vmpi:zutil.obj
 0001:00015f60       _zcalloc                   10016f60 f   vmpi:zutil.obj
 0001:00015f80       _zcfree                    10016f80 f   vmpi:zutil.obj
 0001:00015f90       _adler32                   10016f90 f   vmpi:adler32.obj
 0001:000160c0       __tr_init                  100170c0 f   vmpi:trees.obj
 0001:000161b0       __tr_stored_block          100171b0 f   vmpi:trees.obj
 0001:00016250       __tr_align                 10017250 f   vmpi:trees.obj
 0001:00016460       __tr_flush_block           10017460 f   vmpi:trees.obj
 0001:000174b0       __tr_tally                 100184b0 f   vmpi:trees.obj
 0001:00017bc0       _inflate_blocks_reset      10018bc0 f   vmpi:infblock.obj
 0001:00017c40       _inflate_blocks_new        10018c40 f   vmpi:infblock.obj
 0001:00017ce0       _inflate_blocks            10018ce0 f   vmpi:infblock.obj
 0001:00018930       _inflate_blocks_free       10019930 f   vmpi:infblock.obj
 0001:00018970       _inflate_set_dictionary    10019970 f   vmpi:infblock.obj
 0001:000189b0       _inflate_blocks_sync_point 100199b0 f   vmpi:infblock.obj
 0001:000189c0       _inflate_codes_new         100199c0 f   vmpi:infcodes.obj
 0001:00018a00       _inflate_codes             10019a00 f   vmpi:infcodes.obj
 0001:00019100       _inflate_codes_free        1001a100 f   vmpi:infcodes.obj
 0001:00019120       _inflate_trees_bits        1001a120 f   vmpi:inftrees.obj
 0001:00019680       _inflate_trees_dynamic     1001a680 f   vmpi:inftrees.obj
 0001:00019810       _inflate_trees_fixed       1001a810 f   vmpi:inftrees.obj
 0001:00019840       _inflate_flush             1001a840 f   vmpi:infutil.obj
 0001:00019980       _inflate_fast              1001a980 f   vmpi:inffast.obj
 0001:00019ce0       ?ConnectTier2Libraries@@YAXPAP6APAXPBDPAH@ZH@Z 1001ace0 f   tier2:tier2.obj
 0001:00019f60       ?DisconnectTier2Libraries@@YAXXZ 1001af60 f   tier2:tier2.obj
 0001:00019fe0       ?IsValid@Vector2D@@QBE_NXZ 1001afe0 f i tier2:tier2.obj
 0001:0001a070       ?IsFinite@@YA_NM@Z         1001b070 f i tier2:tier2.obj
 0001:0001a0d0       ?FloatBits@@YAAAKAAM@Z     1001b0d0 f i tier2:tier2.obj
 0001:0001a5b0       ??0Vector2D@@QAE@XZ        1001b5b0 f i collisionutils.obj
 0001:0001a5c0       ??0Vector@@QAE@XZ          1001b5c0 f i collisionutils.obj
 0001:0001a5d0       ??_H@YGXPAXIIP6EPAX0@Z@Z   1001b5d0 f i collisionutils.obj
 0001:0001a600       ?AxisTestEdgeCrossX2@@YA_NMMMMABVVector@@00M@Z 1001b600 f i collisionutils.obj
 0001:0001a690       ?AxisTestEdgeCrossY2@@YA_NMMMMABVVector@@00M@Z 1001b690 f i collisionutils.obj
 0001:0001a720       ?AxisTestEdgeCrossZ1@@YA_NMMMMABVVector@@00M@Z 1001b720 f i collisionutils.obj
 0001:0001a920       ?ComputeIntersectionBarycentricCoordinates@@YA_NABURay_t@@ABVVector@@11AAM2PAM@Z 1001b920 f   collisionutils.obj
 0001:0001ab50       ?ComputePointFromBarycentric@@YAXABVVector2D@@00MMAAV1@@Z 1001bb50 f   collisionutils.obj
 0001:0001abd0       ?ComputePointFromBarycentric@@YAXABVVector@@00MMAAV1@@Z 1001bbd0 f   collisionutils.obj
 0001:0001b460       ?ComputeSeparatingPlane@@YA_NABVVector@@ABVQAngle@@000100MPAUcplane_t@@@Z 1001c460 f   collisionutils.obj
 0001:0001b650       ?GetNonMajorAxes@@YAXABVVector@@AAVVector2D@@@Z 1001c650 f   collisionutils.obj
 0001:0001b6b0       ?IntersectInfiniteRayWithSphere@@YA_NABVVector@@00MPAM1@Z 1001c6b0 f   collisionutils.obj
 0001:0001b820       ?IntersectRayWithAAPlane@@YAMABVVector@@0HMM@Z 1001c820 f   collisionutils.obj
 0001:0001b880       ?IntersectRayWithBox@@YA_NABURay_t@@ABVVector@@1MPAVCBaseTrace@@@Z 1001c880 f   collisionutils.obj
 0001:0001b9a0       ?IntersectRayWithBox@@YA_NABVVector@@000MPAUBoxTraceInfo_t@@@Z 1001c9a0 f   collisionutils.obj
 0001:0001bad0       ?IntersectRayWithBox@@YA_NABVVector@@000MPAVCBaseTrace@@@Z 1001cad0 f   collisionutils.obj
 0001:0001bcb0       ?IntersectRayWithOBB@@YA_NABURay_t@@ABUmatrix3x4_t@@ABVVector@@2MPAVCBaseTrace@@@Z 1001ccb0 f   collisionutils.obj
 0001:0001c740       ?IntersectRayWithOBB@@YA_NABURay_t@@ABVVector@@ABVQAngle@@11MPAVCBaseTrace@@@Z 1001d740 f   collisionutils.obj
 0001:0001c9f0       ?IntersectRayWithOBB@@YA_NABVVector@@00ABVQAngle@@00MPAVCBaseTrace@@@Z 1001d9f0 f   collisionutils.obj
 0001:0001cb00       ?IntersectRayWithOBB@@YA_NABVVector@@0ABUmatrix3x4_t@@00MPAUBoxTraceInfo_t@@@Z 1001db00 f   collisionutils.obj
 0001:0001cb50       ?IntersectRayWithOBB@@YA_NABVVector@@0ABUmatrix3x4_t@@00MPAVCBaseTrace@@@Z 1001db50 f   collisionutils.obj
 0001:0001cf00       ?IntersectRayWithPlane@@YAMABURay_t@@ABUcplane_t@@@Z 1001df00 f   collisionutils.obj
 0001:0001cf90       ?IntersectRayWithPlane@@YAMABVVector@@00M@Z 1001df90 f   collisionutils.obj
 0001:0001d020       ?IntersectRayWithPlane@@YAMABVVector@@0ABUcplane_t@@@Z 1001e020 f   collisionutils.obj
 0001:0001d0b0       ?IntersectRayWithRay@@YA_NABURay_t@@0AAM1@Z 1001e0b0 f   collisionutils.obj
 0001:0001d2f0       ?IntersectRayWithSphere@@YA_NABVVector@@00MPAM1@Z 1001e2f0 f   collisionutils.obj
 0001:0001d4a0       ?IntersectRayWithTriangle@@YAMABURay_t@@ABVVector@@11_N@Z 1001e4a0 f   collisionutils.obj
 0001:0001d750       ?IntersectTriangleWithPlaneBarycentric@@YAHABVVector@@00ABVVector4D@@PAVVector2D@@@Z 1001e750 f   collisionutils.obj
 0001:0001d890       ?IsBoxIntersectingBox@@YA_NABVVector@@000@Z 1001e890 f   collisionutils.obj
 0001:0001d8f0       ?IsBoxIntersectingBoxExtents@@YA_NABVVector@@000@Z 1001e8f0 f   collisionutils.obj
 0001:0001d970       ?IsBoxIntersectingRay@@YI_NABVVector@@0000M@Z 1001e970 f   collisionutils.obj
 0001:0001da60       ?IsBoxIntersectingRay@@YI_NABVVector@@000M@Z 1001ea60 f   collisionutils.obj
 0001:0001db50       ?IsBoxIntersectingRay@@YI_NABVVector@@0ABURay_t@@M@Z 1001eb50 f   collisionutils.obj
 0001:0001dd60       ?IsBoxIntersectingSphere@@YA_NABVVector@@00M@Z 1001ed60 f   collisionutils.obj
 0001:0001de30       ?IsBoxIntersectingSphereExtents@@YA_NABVVector@@00M@Z 1001ee30 f   collisionutils.obj
 0001:0001dec0       ?IsBoxIntersectingTriangle@@YA_NABVVector@@0000ABUcplane_t@@M@Z 1001eec0 f   collisionutils.obj
 0001:0001e500       ?IsCircleIntersectingRectangle@@YA_NABVVector2D@@00M@Z 1001f500 f   collisionutils.obj
 0001:0001e5a0       ?IsOBBIntersectingOBB@@YA_NABVVector@@ABVQAngle@@000100M@Z 1001f5a0 f   collisionutils.obj
 0001:0001e5e0       ?IsPointInBox@@YA_NABVVector@@00@Z 1001f5e0 f   collisionutils.obj
 0001:0001e630       ?IsPointInCone@@YA_NABVVector@@00MM@Z 1001f630 f   collisionutils.obj
 0001:0001e6c0       ?IsRayIntersectingOBB@@YA_NABURay_t@@ABVVector@@ABVQAngle@@11@Z 1001f6c0 f   collisionutils.obj
 0001:0001ece0       ?IsRayIntersectingSphere@@YA_NABVVector@@00MM@Z 1001fce0 f   collisionutils.obj
 0001:0001edd0       ?IsSphereIntersectingSphere@@YA_NABVVector@@M0M@Z 1001fdd0 f   collisionutils.obj
 0001:0001ee20       ?PointInQuadFromBarycentric@@YAXABVVector@@000ABVVector2D@@AAV1@@Z 1001fe20 f   collisionutils.obj
 0001:0001ef00       ?PointInQuadToBarycentric@@YA?AW4QuadBarycentricRetval_t@@ABVVector@@0000AAVVector2D@@@Z 1001ff00 f   collisionutils.obj
 0001:0001f7c0       ?QuadWithParallelEdges@@YA?AW4QuadBarycentricRetval_t@@ABVVector@@0M0M0AAVVector2D@@@Z 100207c0 f   collisionutils.obj
 0001:0001f940       ?ResolveQuadratic@@YAXNNVVector@@00000HAAN1@Z 10020940 f   collisionutils.obj
 0001:0001fb10       ?TexCoordInQuadFromBarycentric@@YAXABVVector2D@@0000AAV1@@Z 10020b10 f   collisionutils.obj
 0001:0001fba0       ?ParseFile@@YAPADPAD0PA_N@Z 10020ba0 f   filesystem_helpers.obj
 0001:0001fbc0       ?ParseFile@@YAPBDPBDPADPA_NPAUcharacterset_s@@@Z 10020bc0 f   filesystem_helpers.obj
 0001:0001fef0       ?DeleteCmdLine@@YAXHPAPAD@Z 10020ef0 f   loadcmdline.obj
 0001:0001ff30       ?LoadCmdLineFromFile@@YAXAAHAAPAPADPBD2@Z 10020f30 f   loadcmdline.obj
 0001:0001fff0       ?GenerateLumpFileName@@YAXPBDPADHH@Z 10020ff0 f   lumpfiles.obj
 0001:00020030       ??0?$CUtlMemory@D@@QAE@HH@Z 10021030 f i scratchpad3d.obj
 0001:00020070       ??0?$CUtlMemory@PAVCBaseCommand@CScratchPad3D@@@@QAE@HH@Z 10021070 f i scratchpad3d.obj
 0001:000200b0       ??0?$CUtlMemory@VCSPVert@@@@QAE@HH@Z 100210b0 f i scratchpad3d.obj
 0001:000200f0       ??0CCommand_Text@CScratchPad3D@@QAE@XZ 100210f0 f i scratchpad3d.obj
 0001:00020190       ??0CSPVert@@QAE@XZ         10021190 f i scratchpad3d.obj
 0001:000201a0       ??0CSPVertList@@QAE@PBVVector@@HVCSPColor@@@Z 100211a0 f i scratchpad3d.obj
 0001:00020240       ??0CScratchPad3D@@QAE@PBDPAVIFileSystem@@_N@Z 10021240 f   scratchpad3d.obj
 0001:000202e0       ??1?$CUtlMemory@D@@QAE@XZ  100212e0 f i scratchpad3d.obj
 0001:00020310       ??1?$CUtlMemory@PAVCBaseCommand@CScratchPad3D@@@@QAE@XZ 10021310 f i scratchpad3d.obj
 0001:00020340       ??1?$CUtlMemory@VCSPVert@@@@QAE@XZ 10021340 f i scratchpad3d.obj
 0001:00020370       ??1?$CUtlVector@PAVCBaseCommand@CScratchPad3D@@V?$CUtlMemory@PAVCBaseCommand@CScratchPad3D@@@@@@QAE@XZ 10021370 f i scratchpad3d.obj
 0001:000203d0       ??1?$CUtlVector@VCSPVert@@V?$CUtlMemory@VCSPVert@@@@@@QAE@XZ 100213d0 f i scratchpad3d.obj
 0001:00020430       ??1IScratchPad3D@@MAE@XZ   10021430 f i scratchpad3d.obj
 0001:00020440       ??_ECScratchPad3D@@UAEPAXI@Z 10021440 f i scratchpad3d.obj
 0001:00020440       ??_GCScratchPad3D@@UAEPAXI@Z 10021440 f i scratchpad3d.obj
 0001:00020470       ??_EIScratchPad3D@@MAEPAXI@Z 10021470 f i scratchpad3d.obj
 0001:00020470       ??_GIScratchPad3D@@MAEPAXI@Z 10021470 f i scratchpad3d.obj
 0001:000204a0       ?AddToTail@?$CUtlVector@PAVCBaseCommand@CScratchPad3D@@V?$CUtlMemory@PAVCBaseCommand@CScratchPad3D@@@@@@QAEHABQAVCBaseCommand@CScratchPad3D@@@Z 100214a0 f i scratchpad3d.obj
 0001:00020550       ?AddVectorToTail@?$CUtlVector@VCSPVert@@V?$CUtlMemory@VCSPVert@@@@@@QAEHABV1@@Z 10021550 f i scratchpad3d.obj
 0001:000205f0       ?AutoFlush@CScratchPad3D@@QAEXXZ 100215f0 f   scratchpad3d.obj
 0001:00020600       ?Clear@CScratchPad3D@@UAEXXZ 10021600 f   scratchpad3d.obj
 0001:00020660       ?CopyArray@?$CUtlVector@DV?$CUtlMemory@D@@@@QAEXPBDH@Z 10021660 f i scratchpad3d.obj
 0001:000206a0       ?DeleteCommands@CScratchPad3D@@QAEXXZ 100216a0 f   scratchpad3d.obj
 0001:00020700       ?DrawImageBW@CScratchPad3D@@UAEXPBEHHH_N1PAVVector@@@Z 10021700 f   scratchpad3d.obj
 0001:000207c0       ?DrawImageRGBA@CScratchPad3D@@UAEXPAVSPRGBA@@HHH_N1PAVVector@@@Z 100217c0 f   scratchpad3d.obj
 0001:000208a0       ?DrawLine@CScratchPad3D@@UAEXABVCSPVert@@0@Z 100218a0 f   scratchpad3d.obj
 0001:00020960       ?DrawPoint@CScratchPad3D@@UAEXABVCSPVert@@M@Z 10021960 f   scratchpad3d.obj
 0001:000209f0       ?DrawPolygon@CScratchPad3D@@UAEXABVCSPVertList@@@Z 100219f0 f   scratchpad3d.obj
 0001:00020af0       ?DrawPolygonsForPixels@CScratchPad3D@@QAEXPAVSPRGBA@@HHHPAVVector@@@Z 10021af0 f   scratchpad3d.obj
 0001:00021340       ?DrawRectGeneric@CScratchPad3D@@QAEXHHHMABVVector2D@@0ABVCSPColor@@@Z 10022340 f   scratchpad3d.obj
 0001:000213f0       ?DrawRectXY@CScratchPad3D@@UAEXMABVVector2D@@0ABVCSPColor@@@Z 100223f0 f   scratchpad3d.obj
 0001:00021490       ?DrawRectXZ@CScratchPad3D@@UAEXMABVVector2D@@0ABVCSPColor@@@Z 10022490 f   scratchpad3d.obj
 0001:00021530       ?DrawRectYZ@CScratchPad3D@@UAEXMABVVector2D@@0ABVCSPColor@@@Z 10022530 f   scratchpad3d.obj
 0001:000215d0       ?DrawText@CScratchPad3D@@UAEXPBDABVCTextParams@@@Z 100225d0 f   scratchpad3d.obj
 0001:000216c0       ?DrawWireframeBox@CScratchPad3D@@UAEXABVVector@@00@Z 100226c0 f   scratchpad3d.obj
 0001:00021ca0       ?Flush@CScratchPad3D@@UAEXXZ 10022ca0 f   scratchpad3d.obj
 0001:00021d80       ?GetAutoFlush@CScratchPad3D@@UAE_NXZ 10022d80 f   scratchpad3d.obj
 0001:00021d90       ?Grow@?$CUtlMemory@D@@QAEXH@Z 10022d90 f i scratchpad3d.obj
 0001:00021e00       ?Grow@?$CUtlMemory@PAVCBaseCommand@CScratchPad3D@@@@QAEXH@Z 10022e00 f i scratchpad3d.obj
 0001:00021e70       ?Grow@?$CUtlMemory@VCSPVert@@@@QAEXH@Z 10022e70 f i scratchpad3d.obj
 0001:00021ef0       ?GrowVector@?$CUtlVector@DV?$CUtlMemory@D@@@@IAEXH@Z 10022ef0 f i scratchpad3d.obj
 0001:00021f80       ?GrowVector@?$CUtlVector@PAVCBaseCommand@CScratchPad3D@@V?$CUtlMemory@PAVCBaseCommand@CScratchPad3D@@@@@@IAEXH@Z 10022f80 f i scratchpad3d.obj
 0001:00022010       ?GrowVector@?$CUtlVector@VCSPVert@@V?$CUtlMemory@VCSPVert@@@@@@IAEXH@Z 10023010 f i scratchpad3d.obj
 0001:000220a0       ?InsertBefore@?$CUtlVector@PAVCBaseCommand@CScratchPad3D@@V?$CUtlMemory@PAVCBaseCommand@CScratchPad3D@@@@@@QAEHHABQAVCBaseCommand@CScratchPad3D@@@Z 100230a0 f i scratchpad3d.obj
 0001:00022150       ?InsertMultipleBefore@?$CUtlVector@VCSPVert@@V?$CUtlMemory@VCSPVert@@@@@@QAEHHHPBVCSPVert@@@Z 10023150 f i scratchpad3d.obj
 0001:00022310       ?IsExternallyAllocated@?$CUtlMemory@D@@QBE_NXZ 10023310 f i scratchpad3d.obj
 0001:00022320       ?IsExternallyAllocated@?$CUtlMemory@PAVCBaseCommand@CScratchPad3D@@@@QBE_NXZ 10023320 f i scratchpad3d.obj
 0001:00022330       ?IsExternallyAllocated@?$CUtlMemory@VCSPVert@@@@QBE_NXZ 10023330 f i scratchpad3d.obj
 0001:00022340       ?LoadCommandsFromFile@CScratchPad3D@@QAE_NXZ 10023340 f   scratchpad3d.obj
 0001:000225e0       ?Purge@?$CUtlMemory@D@@QAEXXZ 100235e0 f i scratchpad3d.obj
 0001:00022610       ?Purge@?$CUtlMemory@PAVCBaseCommand@CScratchPad3D@@@@QAEXXZ 10023610 f i scratchpad3d.obj
 0001:00022640       ?Purge@?$CUtlMemory@VCSPVert@@@@QAEXXZ 10023640 f i scratchpad3d.obj
 0001:00022670       ?Read@CCommand_Line@CScratchPad3D@@UAEXPAVCFileRead@@@Z 10023670 f   scratchpad3d.obj
 0001:000226a0       ?Read@CCommand_Matrix@CScratchPad3D@@UAEXPAVCFileRead@@@Z 100236a0 f   scratchpad3d.obj
 0001:000226d0       ?Read@CCommand_Point@CScratchPad3D@@UAEXPAVCFileRead@@@Z 100236d0 f   scratchpad3d.obj
 0001:00022710       ?Read@CCommand_Polygon@CScratchPad3D@@UAEXPAVCFileRead@@@Z 10023710 f   scratchpad3d.obj
 0001:00022780       ?Read@CCommand_RenderState@CScratchPad3D@@UAEXPAVCFileRead@@@Z 10023780 f   scratchpad3d.obj
 0001:000227c0       ?Read@CCommand_Text@CScratchPad3D@@UAEXPAVCFileRead@@@Z 100237c0 f   scratchpad3d.obj
 0001:00022820       ?Release@CScratchPad3D@@UAEXXZ 10023820 f   scratchpad3d.obj
 0001:00022840       ?RemoveAll@?$CUtlVector@DV?$CUtlMemory@D@@@@QAEXXZ 10023840 f i scratchpad3d.obj
 0001:00022850       ?RemoveAll@?$CUtlVector@PAVCBaseCommand@CScratchPad3D@@V?$CUtlMemory@PAVCBaseCommand@CScratchPad3D@@@@@@QAEXXZ 10023850 f i scratchpad3d.obj
 0001:00022860       ?RemoveAll@?$CUtlVector@VCSPVert@@V?$CUtlMemory@VCSPVert@@@@@@QAEXXZ 10023860 f i scratchpad3d.obj
 0001:00022870       ?ScratchPad3D_Create@@YAPAVIScratchPad3D@@PBD@Z 10023870 f   scratchpad3d.obj
 0001:00022970       ?ScratchPad3D_SetupFileSystem@@YAPAVIFileSystem@@XZ 10023970 f   scratchpad3d.obj
 0001:000229b0       ?SetAutoFlush@CScratchPad3D@@UAEX_N@Z 100239b0 f   scratchpad3d.obj
 0001:000229d0       ?SetCount@?$CUtlVector@DV?$CUtlMemory@D@@@@QAEXH@Z 100239d0 f i scratchpad3d.obj
 0001:00022a70       ?SetMapping@CScratchPad3D@@UAEXABVVector@@000@Z 10023a70 f   scratchpad3d.obj
 0001:00022c30       ?SetRenderState@CScratchPad3D@@UAEXW4RenderState@IScratchPad3D@@K@Z 10023c30 f   scratchpad3d.obj
 0001:00022c80       ?SetSize@?$CUtlVector@DV?$CUtlMemory@D@@@@QAEXH@Z 10023c80 f i scratchpad3d.obj
 0001:00022d20       ?ShiftElementsRight@?$CUtlVector@DV?$CUtlMemory@D@@@@IAEXHH@Z 10023d20 f i scratchpad3d.obj
 0001:00022d60       ?ShiftElementsRight@?$CUtlVector@PAVCBaseCommand@CScratchPad3D@@V?$CUtlMemory@PAVCBaseCommand@CScratchPad3D@@@@@@IAEXHH@Z 10023d60 f i scratchpad3d.obj
 0001:00022da0       ?ShiftElementsRight@?$CUtlVector@VCSPVert@@V?$CUtlMemory@VCSPVert@@@@@@IAEXHH@Z 10023da0 f i scratchpad3d.obj
 0001:00022e00       ?Write@CCommand_Line@CScratchPad3D@@UAEXPAVIFileSystem@@PAX@Z 10023e00 f   scratchpad3d.obj
 0001:00022e20       ?Write@CCommand_Matrix@CScratchPad3D@@UAEXPAVIFileSystem@@PAX@Z 10023e20 f   scratchpad3d.obj
 0001:00022e40       ?Write@CCommand_Point@CScratchPad3D@@UAEXPAVIFileSystem@@PAX@Z 10023e40 f   scratchpad3d.obj
 0001:00022e80       ?Write@CCommand_Polygon@CScratchPad3D@@UAEXPAVIFileSystem@@PAX@Z 10023e80 f   scratchpad3d.obj
 0001:00022ed0       ?Write@CCommand_RenderState@CScratchPad3D@@UAEXPAVIFileSystem@@PAX@Z 10023ed0 f   scratchpad3d.obj
 0001:00022f10       ?Write@CCommand_Text@CScratchPad3D@@UAEXPAVIFileSystem@@PAX@Z 10023f10 f   scratchpad3d.obj
 0001:00022f60       ??$PutTypeBin@D@CUtlBuffer@@IAEXD@Z 10023f60 f i zip_utils.obj
 0001:00022f90       ??0?$CUtlMemory@UNode_t@?$CUtlRBTree@VCZipEntry@CZipFile@@HP6A_NABV12@0@Z@@@@QAE@HH@Z 10023f90 f i zip_utils.obj
 0001:00022fd0       ??0CZip@@QAE@XZ            10023fd0 f   zip_utils.obj
 0001:00023050       ??0CZipEntry@CZipFile@@QAE@ABV01@@Z 10024050 f   zip_utils.obj
 0001:000230b0       ??0CZipEntry@CZipFile@@QAE@XZ 100240b0 f   zip_utils.obj
 0001:000230f0       ??0CZipFile@@QAE@XZ        100240f0 f   zip_utils.obj
 0001:00023150       ??0TmpFileInfo_t@CZipFile@@QAE@XZ 10024150 f i zip_utils.obj
 0001:00023160       ??1?$CUtlMemory@E@@QAE@XZ  10024160 f i zip_utils.obj
 0001:00023190       ??1?$CUtlMemory@UNode_t@?$CUtlRBTree@VCZipEntry@CZipFile@@HP6A_NABV12@0@Z@@@@QAE@XZ 10024190 f i zip_utils.obj
 0001:000231c0       ??1?$CUtlRBTree@VCZipEntry@CZipFile@@HP6A_NABV12@0@Z@@QAE@XZ 100241c0 f i zip_utils.obj
 0001:00023270       ??1CZip@@UAE@XZ            10024270 f   zip_utils.obj
 0001:000232a0       ??1CZipEntry@CZipFile@@QAE@XZ 100242a0 f   zip_utils.obj
 0001:000232b0       ??1CZipFile@@QAE@XZ        100242b0 f   zip_utils.obj
 0001:000232d0       ??_ECZip@@UAEPAXI@Z        100242d0 f i zip_utils.obj
 0001:000232d0       ??_GCZip@@UAEPAXI@Z        100242d0 f i zip_utils.obj
 0001:00023310       ?AddBufferToZip@CZip@@UAEXPBDPAXH_N@Z 10024310 f   zip_utils.obj
 0001:00023320       ?AddBufferToZip@CZipFile@@QAEXPBDPAXH_N@Z 10024320 f   zip_utils.obj
 0001:000234e0       ?AddFileToZip@CZip@@UAEXPBD0@Z 100244e0 f   zip_utils.obj
 0001:00023560       ?AddFileToZip@CZipFile@@QAEXPBD0@Z 10024560 f   zip_utils.obj
 0001:000235e0       ?CalculatePadding@CZipFile@@AAEGIH@Z 100245e0 f   zip_utils.obj
 0001:00023610       ?CalculateSize@CZipFile@@QAEHXZ 10024610 f   zip_utils.obj
 0001:00023750       ?EstimateSize@CZip@@UAEHXZ 10024750 f   zip_utils.obj
 0001:00023860       ?FileExistsInZip@CZip@@UAE_NPBD@Z 10024860 f   zip_utils.obj
 0001:000238f0       ?FileExistsInZip@CZipFile@@QAE_NPBD@Z 100248f0 f   zip_utils.obj
 0001:00023980       ?Find@?$CUtlRBTree@VCZipEntry@CZipFile@@HP6A_NABV12@0@Z@@QBEHABVCZipEntry@CZipFile@@@Z 10024980 f i zip_utils.obj
 0001:000239f0       ?FindInsertionPosition@?$CUtlRBTree@VCZipEntry@CZipFile@@HP6A_NABV12@0@Z@@IAEXABVCZipEntry@CZipFile@@AAHAA_N@Z 100249f0 f i zip_utils.obj
 0001:00023a60       ?FirstInorder@?$CUtlRBTree@VCZipEntry@CZipFile@@HP6A_NABV12@0@Z@@QBEHXZ 10024a60 f i zip_utils.obj
 0001:00023a90       ?ForceAlignment@CZip@@UAEX_NI@Z 10024a90 f   zip_utils.obj
 0001:00023ab0       ?ForceAlignment@CZipFile@@QAEX_NI@Z 10024ab0 f   zip_utils.obj
 0001:00023ad0       ?FreeNode@?$CUtlRBTree@VCZipEntry@CZipFile@@HP6A_NABV12@0@Z@@QAEXH@Z 10024ad0 f i zip_utils.obj
 0001:00023b10       ?GetAlignment@CZip@@UAEIXZ 10024b10 f   zip_utils.obj
 0001:00023b20       ?GetAlignment@CZipFile@@QAEIXZ 10024b20 f   zip_utils.obj
 0001:00023b30       ?GetNextFilename@CZip@@UAEHHPADHAAH@Z 10024b30 f   zip_utils.obj
 0001:00023bc0       ?GetNextFilename@CZipFile@@QAEHHPADHAAH@Z 10024bc0 f   zip_utils.obj
 0001:00023c50       ?Grow@?$CUtlMemory@UNode_t@?$CUtlRBTree@VCZipEntry@CZipFile@@HP6A_NABV12@0@Z@@@@QAEXH@Z 10024c50 f i zip_utils.obj
 0001:00023cc0       ?Insert@?$CUtlRBTree@VCZipEntry@CZipFile@@HP6A_NABV12@0@Z@@QAEHABVCZipEntry@CZipFile@@@Z 10024cc0 f i zip_utils.obj
 0001:00023d90       ?InsertAt@?$CUtlRBTree@VCZipEntry@CZipFile@@HP6A_NABV12@0@Z@@IAEHH_N@Z 10024d90 f i zip_utils.obj
 0001:00023ec0       ?InsertRebalance@?$CUtlRBTree@VCZipEntry@CZipFile@@HP6A_NABV12@0@Z@@IAEXH@Z 10024ec0 f i zip_utils.obj
 0001:000240c0       ?IsExternallyAllocated@?$CUtlMemory@E@@QBE_NXZ 100250c0 f i zip_utils.obj
 0001:000240d0       ?IsExternallyAllocated@?$CUtlMemory@UNode_t@?$CUtlRBTree@VCZipEntry@CZipFile@@HP6A_NABV12@0@Z@@@@QBE_NXZ 100250d0 f i zip_utils.obj
 0001:000240e0       ?LinkToParent@?$CUtlRBTree@VCZipEntry@CZipFile@@HP6A_NABV12@0@Z@@IAEXHH_N@Z 100250e0 f i zip_utils.obj
 0001:00024150       ?Links@?$CUtlRBTree@VCZipEntry@CZipFile@@HP6A_NABV12@0@Z@@IBEABULinks_t@1@H@Z 10025150 f i zip_utils.obj
 0001:000241d0       ?NewNode@?$CUtlRBTree@VCZipEntry@CZipFile@@HP6A_NABV12@0@Z@@QAEHXZ 100251d0 f i zip_utils.obj
 0001:000242b0       ?NextInorder@?$CUtlRBTree@VCZipEntry@CZipFile@@HP6A_NABV12@0@Z@@QBEHH@Z 100252b0 f i zip_utils.obj
 0001:00024360       ?ParseFromBuffer@CZip@@UAEXPAEH@Z 10025360 f   zip_utils.obj
 0001:00024380       ?ParseFromBuffer@CZipFile@@QAEXPAEH@Z 10025380 f   zip_utils.obj
 0001:00024630       ?PrintDirectory@CZip@@UAEXXZ 10025630 f   zip_utils.obj
 0001:000246a0       ?PrintDirectory@CZipFile@@QAEXXZ 100256a0 f   zip_utils.obj
 0001:00024720       ?Purge@?$CUtlMemory@E@@QAEXXZ 10025720 f i zip_utils.obj
 0001:00024750       ?Purge@?$CUtlMemory@UNode_t@?$CUtlRBTree@VCZipEntry@CZipFile@@HP6A_NABV12@0@Z@@@@QAEXXZ 10025750 f i zip_utils.obj
 0001:00024780       ?Purge@?$CUtlRBTree@VCZipEntry@CZipFile@@HP6A_NABV12@0@Z@@QAEXXZ 10025780 f i zip_utils.obj
 0001:00024810       ?Put@CBufferStream@@UAEXPBXH@Z 10025810 f i zip_utils.obj
 0001:00024820       ?Put@CFileStream@@UAEXPBXH@Z 10025820 f i zip_utils.obj
 0001:00024840       ?ReadFileFromZip@CZip@@UAE_NPBD_NAAVCUtlBuffer@@@Z 10025840 f   zip_utils.obj
 0001:00024930       ?ReadFileFromZip@CZipFile@@QAE_NPBD_NAAVCUtlBuffer@@@Z 10025930 f   zip_utils.obj
 0001:00024c50       ?Remove@?$CUtlRBTree@VCZipEntry@CZipFile@@HP6A_NABV12@0@Z@@QAE_NABVCZipEntry@CZipFile@@@Z 10025c50 f i zip_utils.obj
 0001:00024cb0       ?RemoveAll@?$CUtlRBTree@VCZipEntry@CZipFile@@HP6A_NABV12@0@Z@@QAEXXZ 10025cb0 f i zip_utils.obj
 0001:00024d30       ?RemoveAt@?$CUtlRBTree@VCZipEntry@CZipFile@@HP6A_NABV12@0@Z@@QAEXH@Z 10025d30 f i zip_utils.obj
 0001:00024d80       ?RemoveFileFromZip@CZip@@UAEXPBD@Z 10025d80 f   zip_utils.obj
 0001:00024e50       ?RemoveFileFromZip@CZipFile@@QAEXPBD@Z 10025e50 f   zip_utils.obj
 0001:00024f20       ?RemoveRebalance@?$CUtlRBTree@VCZipEntry@CZipFile@@HP6A_NABV12@0@Z@@IAEXH@Z 10025f20 f i zip_utils.obj
 0001:00025220       ?Reset@CZip@@UAEXXZ        10026220 f   zip_utils.obj
 0001:00025230       ?Reset@CZipFile@@QAEXXZ    10026230 f   zip_utils.obj
 0001:000252b0       ?RotateLeft@?$CUtlRBTree@VCZipEntry@CZipFile@@HP6A_NABV12@0@Z@@IAEXH@Z 100262b0 f i zip_utils.obj
 0001:000253a0       ?RotateRight@?$CUtlRBTree@VCZipEntry@CZipFile@@HP6A_NABV12@0@Z@@IAEXH@Z 100263a0 f i zip_utils.obj
 0001:00025490       ?SaveDirectory@CZipFile@@AAEXAAVIWriteStream@@@Z 10026490 f   zip_utils.obj
 0001:00025800       ?SaveToBuffer@CZip@@UAEXAAVCUtlBuffer@@@Z 10026800 f   zip_utils.obj
 0001:00025830       ?SaveToBuffer@CZipFile@@QAEXAAVCUtlBuffer@@@Z 10026830 f   zip_utils.obj
 0001:00025860       ?SaveToDisk@CZip@@UAEXPAU_iobuf@@@Z 10026860 f   zip_utils.obj
 0001:00025890       ?SaveToDisk@CZipFile@@QAEXPAU_iobuf@@@Z 10026890 f   zip_utils.obj
 0001:000258c0       ?SetAlignment@@YAXAAPAXAAI@Z 100268c0 f   zip_utils.obj
 0001:00025900       ?Tell@CBufferStream@@UAEHXZ 10026900 f i zip_utils.obj
 0001:00025910       ?Tell@CFileStream@@UAEHXZ  10026910 f i zip_utils.obj
 0001:00025920       ?Unlink@?$CUtlRBTree@VCZipEntry@CZipFile@@HP6A_NABV12@0@Z@@IAEXH@Z 10026920 f i zip_utils.obj
 0001:00025b40       ?ZipFileLessFunc@CZipEntry@CZipFile@@SA_NABV12@0@Z 10026b40 f   zip_utils.obj
 0001:00025bd0       ??$CopyLump@D@@YAXHAAV?$CUtlVector@DV?$CUtlMemory@D@@@@H@Z 10026bd0 f i bsplib.obj
 0001:00025c40       ??$CopyLump@E@@YAXHAAV?$CUtlVector@EV?$CUtlMemory@E@@@@H@Z 10026c40 f i bsplib.obj
 0001:00025cb0       ??$CopyLump@H@@YAXHAAV?$CUtlVector@HV?$CUtlMemory@H@@@@H@Z 10026cb0 f i bsplib.obj
 0001:00025d70       ??$CopyLump@Utexinfo_s@@@@YAXHAAV?$CUtlVector@Utexinfo_s@@V?$CUtlMemory@Utexinfo_s@@@@@@H@Z 10026d70 f i bsplib.obj
 0001:00025e30       ??$CopyLump@VCDispTri@@@@YAXHAAV?$CUtlVector@VCDispTri@@V?$CUtlMemory@VCDispTri@@@@@@H@Z 10026e30 f i bsplib.obj
 0001:00025f40       ??$CopyLump@VCDispVert@@@@YAXHAAV?$CUtlVector@VCDispVert@@V?$CUtlMemory@VCDispVert@@@@@@H@Z 10026f40 f i bsplib.obj
 0001:00026000       ??$CopyLump@VCFaceMacroTextureInfo@@@@YAXHAAV?$CUtlVector@VCFaceMacroTextureInfo@@V?$CUtlMemory@VCFaceMacroTextureInfo@@@@@@H@Z 10027000 f i bsplib.obj
 0001:00026110       ??$CopyLump@Vddispinfo_t@@@@YAXHAAV?$CUtlVector@Vddispinfo_t@@V?$CUtlMemory@Vddispinfo_t@@@@@@H@Z 10027110 f i bsplib.obj
 0001:000261d0       ??$CopyOptionalLump@E@@YAXHAAV?$CUtlVector@EV?$CUtlMemory@E@@@@H@Z 100271d0 f i bsplib.obj
 0001:00026240       ??$CopyOptionalLump@UCompressedLightCube@@@@YAXHAAV?$CUtlVector@UCompressedLightCube@@V?$CUtlMemory@UCompressedLightCube@@@@@@H@Z 10027240 f i bsplib.obj
 0001:00026300       ??$CopyOptionalLump@Udlightmappage_t@@@@YAXHAAV?$CUtlVector@Udlightmappage_t@@V?$CUtlMemory@Udlightmappage_t@@@@@@H@Z 10027300 f i bsplib.obj
 0001:00026440       ??$CopyOptionalLump@Udlightmappageinfo_t@@@@YAXHAAV?$CUtlVector@Udlightmappageinfo_t@@V?$CUtlMemory@Udlightmappageinfo_t@@@@@@H@Z 10027440 f i bsplib.obj
 0001:00026570       ??$GetType@H@CUtlBuffer@@IAEXAAHPBD@Z 10027570 f i bsplib.obj
 0001:000265d0       ??0?$CUtlLinkedList@UGameLump_t@@G@@QAE@HH@Z 100275d0 f i bsplib.obj
 0001:00026630       ??0?$CUtlMemory@E@@QAE@HH@Z 10027630 f i bsplib.obj
 0001:00026670       ??0?$CUtlMemory@H@@QAE@HH@Z 10027670 f i bsplib.obj
 0001:000266b0       ??0?$CUtlMemory@UCompressedLightCube@@@@QAE@HH@Z 100276b0 f i bsplib.obj
 0001:000266f0       ??0?$CUtlMemory@UListElem_t@?$CUtlLinkedList@UGameLump_t@@G@@@@QAE@HH@Z 100276f0 f i bsplib.obj
 0001:00026730       ??0?$CUtlMemory@Uclusterlist_t@@@@QAE@HH@Z 10027730 f i bsplib.obj
 0001:00026770       ??0?$CUtlMemory@Udlightmappage_t@@@@QAE@HH@Z 10027770 f i bsplib.obj
 0001:000267b0       ??0?$CUtlMemory@Udlightmappageinfo_t@@@@QAE@HH@Z 100277b0 f i bsplib.obj
 0001:000267f0       ??0?$CUtlMemory@Udoccluderdata_t@@@@QAE@HH@Z 100277f0 f i bsplib.obj
 0001:00026830       ??0?$CUtlMemory@Udoccluderpolydata_t@@@@QAE@HH@Z 10027830 f i bsplib.obj
 0001:00026870       ??0?$CUtlMemory@Utexinfo_s@@@@QAE@HH@Z 10027870 f i bsplib.obj
 0001:000268b0       ??0?$CUtlMemory@VCDispTri@@@@QAE@HH@Z 100278b0 f i bsplib.obj
 0001:000268f0       ??0?$CUtlMemory@VCDispVert@@@@QAE@HH@Z 100278f0 f i bsplib.obj
 0001:00026930       ??0?$CUtlMemory@VCFaceMacroTextureInfo@@@@QAE@HH@Z 10027930 f i bsplib.obj
 0001:00026970       ??0?$CUtlMemory@Vddispinfo_t@@@@QAE@HH@Z 10027970 f i bsplib.obj
 0001:000269b0       ??0dmodel_t@@QAE@XZ        100279b0 f i bsplib.obj
 0001:000269c0       ??0doverlay_t@@QAE@XZ      100279c0 f i bsplib.obj
 0001:000269d0       ??0dplane_t@@QAE@XZ        100279d0 f i bsplib.obj
 0001:000269e0       ??0dprimvert_t@@QAE@XZ     100279e0 f i bsplib.obj
 0001:000269f0       ??0dtexdata_t@@QAE@XZ      100279f0 f i bsplib.obj
 0001:00026a00       ??0dvertex_t@@QAE@XZ       10027a00 f i bsplib.obj
 0001:00026a10       ??0dwateroverlay_t@@QAE@XZ 10027a10 f i bsplib.obj
 0001:00026a20       ??0dworldlight_t@@QAE@XZ   10027a20 f i bsplib.obj
 0001:00026a30       ??0entity_t@@QAE@XZ        10027a30 f i bsplib.obj
 0001:00026a40       ??1?$CUtlLinkedList@UGameLump_t@@G@@QAE@XZ 10027a40 f i bsplib.obj
 0001:00026a70       ??1?$CUtlMemory@H@@QAE@XZ  10027a70 f i bsplib.obj
 0001:00026aa0       ??1?$CUtlMemory@UCompressedLightCube@@@@QAE@XZ 10027aa0 f i bsplib.obj
 0001:00026ad0       ??1?$CUtlMemory@UListElem_t@?$CUtlLinkedList@UGameLump_t@@G@@@@QAE@XZ 10027ad0 f i bsplib.obj
 0001:00026b00       ??1?$CUtlMemory@Uclusterlist_t@@@@QAE@XZ 10027b00 f i bsplib.obj
 0001:00026b30       ??1?$CUtlMemory@Udlightmappage_t@@@@QAE@XZ 10027b30 f i bsplib.obj
 0001:00026b60       ??1?$CUtlMemory@Udlightmappageinfo_t@@@@QAE@XZ 10027b60 f i bsplib.obj
 0001:00026b90       ??1?$CUtlMemory@Udoccluderdata_t@@@@QAE@XZ 10027b90 f i bsplib.obj
 0001:00026bc0       ??1?$CUtlMemory@Udoccluderpolydata_t@@@@QAE@XZ 10027bc0 f i bsplib.obj
 0001:00026bf0       ??1?$CUtlMemory@Utexinfo_s@@@@QAE@XZ 10027bf0 f i bsplib.obj
 0001:00026c20       ??1?$CUtlMemory@VCDispTri@@@@QAE@XZ 10027c20 f i bsplib.obj
 0001:00026c50       ??1?$CUtlMemory@VCDispVert@@@@QAE@XZ 10027c50 f i bsplib.obj
 0001:00026c80       ??1?$CUtlMemory@VCFaceMacroTextureInfo@@@@QAE@XZ 10027c80 f i bsplib.obj
 0001:00026cb0       ??1?$CUtlMemory@Vddispinfo_t@@@@QAE@XZ 10027cb0 f i bsplib.obj
 0001:00026ce0       ??1?$CUtlVector@DV?$CUtlMemory@D@@@@QAE@XZ 10027ce0 f i bsplib.obj
 0001:00026d40       ??1?$CUtlVector@EV?$CUtlMemory@E@@@@QAE@XZ 10027d40 f i bsplib.obj
 0001:00026da0       ??1?$CUtlVector@HV?$CUtlMemory@H@@@@QAE@XZ 10027da0 f i bsplib.obj
 0001:00026e00       ??1?$CUtlVector@UCompressedLightCube@@V?$CUtlMemory@UCompressedLightCube@@@@@@QAE@XZ 10027e00 f i bsplib.obj
 0001:00026e60       ?AddBufferToPack@@YAXPBDPAXH_N@Z 10027e60 f   bsplib.obj
 0001:00026e80       ?AddFileToPack@@YAXPBD0@Z  10027e80 f   bsplib.obj
 0001:000270a0       ?AddMultipleToTail@?$CUtlVector@DV?$CUtlMemory@D@@@@QAEHHPBD@Z 100280a0 f i bsplib.obj
 0001:00027170       ?AllocInternal@?$CUtlLinkedList@UGameLump_t@@G@@IAEG_N@Z 10028170 f i bsplib.obj
 0001:00027260       ?ArrayUsage@@YAHPADHHH@Z   10028260 f   bsplib.obj
 0001:00027340       ?BuildClusterTable@@YAXXZ  10028340 f   bsplib.obj
 0001:00027470       ?BuildFaceCalcWindingData@@YAXPAUdface_t@@PAH@Z 10028470 f   bsplib.obj
 0001:000274d0       ?CalcFaceExtents@@YAXPAUdface_t@@QAH1@Z 100284d0 f   bsplib.obj
 0001:00027860       ?CalcTextureCoordsAtPoints@@YAXQAY03$$CBMQBHPBVVector@@HPAVVector2D@@@Z 10028860 f   bsplib.obj
 0001:00027960       ?ClearPackFile@@YAXXZ      10028960 f   bsplib.obj
 0001:00027970       ?CloseBSPFile@@YAXXZ       10028970 f   bsplib.obj
 0001:00027980       ?CompressVis@@YAHPAE0@Z    10028980 f   bsplib.obj
 0001:000279e0       ?ConstructList@?$CUtlLinkedList@UGameLump_t@@G@@IAEXXZ 100289e0 f i bsplib.obj
 0001:00027a00       ?CopyArray@?$CUtlVector@HV?$CUtlMemory@H@@@@QAEXPBHH@Z 10028a00 f i bsplib.obj
 0001:00027a60       ?CopyLump@@YAHHPAXHH@Z     10028a60 f   bsplib.obj
 0001:00027af0       ?CopyVariableLump@@YAHHPAPAXHH@Z 10028af0 f   bsplib.obj
 0001:00027b80       ?CreateGameLump@@YAGHHHH@Z 10028b80 f   bsplib.obj
 0001:00027c90       ?DecompressVis@@YAXPAE0@Z  10028c90 f   bsplib.obj
 0001:00027d30       ?DestroyAllGameLumps@@YAXXZ 10028d30 f   bsplib.obj
 0001:00027d40       ?DestroyGameLump@@YAXG@Z   10028d40 f   bsplib.obj
 0001:00027da0       ?EnumerateLeavesAlongRay@CToolBSPTree@@UAE_NABURay_t@@PAVISpatialLeafEnumerator@@H@Z 10028da0 f   bsplib.obj
 0001:00028060       ?EnumerateLeavesAtPoint@CToolBSPTree@@UAE_NABVVector@@PAVISpatialLeafEnumerator@@H@Z 10029060 f   bsplib.obj
 0001:000280f0       ?EnumerateLeavesInBox@CToolBSPTree@@UAE_NABVVector@@0PAVISpatialLeafEnumerator@@H@Z 100290f0 f   bsplib.obj
 0001:00028260       ?EnumerateLeavesInSphere@CToolBSPTree@@UAE_NABVVector@@MPAVISpatialLeafEnumerator@@H@Z 10029260 f   bsplib.obj
 0001:00028380       ?EnumerateNodesAlongRay@@YA_NABURay_t@@PAVIBSPNodeEnumerator@@H@Z 10029380 f   bsplib.obj
 0001:000285b0       ?ExtractZipFileFromBSP@@YAXPAD0@Z 100295b0 f   bsplib.obj
 0001:000287b0       ?FileExistsInPack@@YA_NPBD@Z 100297b0 f   bsplib.obj
 0001:000287d0       ?FirstGameLump@@YAGXZ      100297d0 f   bsplib.obj
 0001:000287f0       ?FloatForKey@@YAMPAUentity_t@@PAD@Z 100297f0 f   bsplib.obj
 0001:00028820       ?ForceAlignment@@YAX_NI@Z  10029820 f   bsplib.obj
 0001:00028840       ?Free@?$CUtlLinkedList@UGameLump_t@@G@@QAEXG@Z 10029840 f i bsplib.obj
 0001:000288a0       ?GameLumpSize@@YAHG@Z      100298a0 f   bsplib.obj
 0001:000288c0       ?GenerateNextLumpFileName@@YA_NPBDPADH@Z 100298c0 f   bsplib.obj
 0001:00028910       ?GetAnglesForKey@@YAXPAUentity_t@@PADAAVQAngle@@@Z 10029910 f   bsplib.obj
 0001:00028980       ?GetGameLump@@YAPAXG@Z     10029980 f   bsplib.obj
 0001:000289a0       ?GetGameLumpFlags@@YAHG@Z  100299a0 f   bsplib.obj
 0001:000289c0       ?GetGameLumpHandle@@YAGH@Z 100299c0 f   bsplib.obj
 0001:00028a10       ?GetGameLumpId@@YAHG@Z     10029a10 f   bsplib.obj
 0001:00028a30       ?GetGameLumpVersion@@YAHG@Z 10029a30 f   bsplib.obj
 0001:00028a50       ?GetNextFilename@@YAHHPADHAAH@Z 10029a50 f   bsplib.obj
 0001:00028a70       ?GetPakFile@@YAPAVIZip@@XZ 10029a70 f   bsplib.obj
 0001:00028a80       ?GetPlatformMapPath@@YAXPBDPADHH@Z 10029a80 f   bsplib.obj
 0001:00028ab0       ?GetVector2DForKey@@YAXPAUentity_t@@PADAAVVector2D@@@Z 10029ab0 f   bsplib.obj
 0001:00028b10       ?GetVectorForKey@@YAXPAUentity_t@@PADAAVVector@@@Z 10029b10 f   bsplib.obj
 0001:00028b80       ?GlobUsage@@YAHPADHH@Z     10029b80 f   bsplib.obj
 0001:00028c50       ?Grow@?$CUtlMemory@E@@QAEXH@Z 10029c50 f i bsplib.obj
 0001:00028cc0       ?Grow@?$CUtlMemory@H@@QAEXH@Z 10029cc0 f i bsplib.obj
 0001:00028d30       ?Grow@?$CUtlMemory@UCompressedLightCube@@@@QAEXH@Z 10029d30 f i bsplib.obj
 0001:00028da0       ?Grow@?$CUtlMemory@UListElem_t@?$CUtlLinkedList@UGameLump_t@@G@@@@QAEXH@Z 10029da0 f i bsplib.obj
 0001:00028e10       ?Grow@?$CUtlMemory@Uclusterlist_t@@@@QAEXH@Z 10029e10 f i bsplib.obj
 0001:00028e80       ?Grow@?$CUtlMemory@Udlightmappage_t@@@@QAEXH@Z 10029e80 f i bsplib.obj
 0001:00028ef0       ?Grow@?$CUtlMemory@Udlightmappageinfo_t@@@@QAEXH@Z 10029ef0 f i bsplib.obj
 0001:00028f60       ?Grow@?$CUtlMemory@Udoccluderdata_t@@@@QAEXH@Z 10029f60 f i bsplib.obj
 0001:00028fd0       ?Grow@?$CUtlMemory@Udoccluderpolydata_t@@@@QAEXH@Z 10029fd0 f i bsplib.obj
 0001:00029040       ?Grow@?$CUtlMemory@Utexinfo_s@@@@QAEXH@Z 1002a040 f i bsplib.obj
 0001:000290b0       ?Grow@?$CUtlMemory@VCDispTri@@@@QAEXH@Z 1002a0b0 f i bsplib.obj
 0001:00029120       ?Grow@?$CUtlMemory@VCDispVert@@@@QAEXH@Z 1002a120 f i bsplib.obj
 0001:00029190       ?Grow@?$CUtlMemory@VCFaceMacroTextureInfo@@@@QAEXH@Z 1002a190 f i bsplib.obj
 0001:00029200       ?Grow@?$CUtlMemory@Vddispinfo_t@@@@QAEXH@Z 1002a200 f i bsplib.obj
 0001:00029270       ?GrowVector@?$CUtlVector@EV?$CUtlMemory@E@@@@IAEXH@Z 1002a270 f i bsplib.obj
 0001:00029300       ?GrowVector@?$CUtlVector@HV?$CUtlMemory@H@@@@IAEXH@Z 1002a300 f i bsplib.obj
 0001:00029390       ?GrowVector@?$CUtlVector@UCompressedLightCube@@V?$CUtlMemory@UCompressedLightCube@@@@@@IAEXH@Z 1002a390 f i bsplib.obj
 0001:00029420       ?GrowVector@?$CUtlVector@Uclusterlist_t@@V?$CUtlMemory@Uclusterlist_t@@@@@@IAEXH@Z 1002a420 f i bsplib.obj
 0001:000294b0       ?GrowVector@?$CUtlVector@Udlightmappage_t@@V?$CUtlMemory@Udlightmappage_t@@@@@@IAEXH@Z 1002a4b0 f i bsplib.obj
 0001:00029540       ?GrowVector@?$CUtlVector@Udlightmappageinfo_t@@V?$CUtlMemory@Udlightmappageinfo_t@@@@@@IAEXH@Z 1002a540 f i bsplib.obj
 0001:000295d0       ?GrowVector@?$CUtlVector@Udoccluderdata_t@@V?$CUtlMemory@Udoccluderdata_t@@@@@@IAEXH@Z 1002a5d0 f i bsplib.obj
 0001:00029660       ?GrowVector@?$CUtlVector@Udoccluderpolydata_t@@V?$CUtlMemory@Udoccluderpolydata_t@@@@@@IAEXH@Z 1002a660 f i bsplib.obj
 0001:000296f0       ?GrowVector@?$CUtlVector@Utexinfo_s@@V?$CUtlMemory@Utexinfo_s@@@@@@IAEXH@Z 1002a6f0 f i bsplib.obj
 0001:00029780       ?GrowVector@?$CUtlVector@VCDispTri@@V?$CUtlMemory@VCDispTri@@@@@@IAEXH@Z 1002a780 f i bsplib.obj
 0001:00029810       ?GrowVector@?$CUtlVector@VCDispVert@@V?$CUtlMemory@VCDispVert@@@@@@IAEXH@Z 1002a810 f i bsplib.obj
 0001:000298a0       ?GrowVector@?$CUtlVector@VCFaceMacroTextureInfo@@V?$CUtlMemory@VCFaceMacroTextureInfo@@@@@@IAEXH@Z 1002a8a0 f i bsplib.obj
 0001:00029930       ?GrowVector@?$CUtlVector@Vddispinfo_t@@V?$CUtlMemory@Vddispinfo_t@@@@@@IAEXH@Z 1002a930 f i bsplib.obj
 0001:000299c0       ?HasLump@@YA_NH@Z          1002a9c0 f   bsplib.obj
 0001:000299e0       ?InsertBefore@?$CUtlLinkedList@UGameLump_t@@G@@QAEGG@Z 1002a9e0 f i bsplib.obj
 0001:00029a90       ?InsertBefore@?$CUtlVector@HV?$CUtlMemory@H@@@@QAEHHABH@Z 1002aa90 f i bsplib.obj
 0001:00029ae0       ?InsertMultipleBefore@?$CUtlVector@UCompressedLightCube@@V?$CUtlMemory@UCompressedLightCube@@@@@@QAEHHHPBUCompressedLightCube@@@Z 1002aae0 f i bsplib.obj
 0001:00029be0       ?InsertMultipleBefore@?$CUtlVector@Uclusterlist_t@@V?$CUtlMemory@Uclusterlist_t@@@@@@QAEHHHPBUclusterlist_t@@@Z 1002abe0 f i bsplib.obj
 0001:00029de0       ?InsertMultipleBefore@?$CUtlVector@Udoccluderdata_t@@V?$CUtlMemory@Udoccluderdata_t@@@@@@QAEHHHPBUdoccluderdata_t@@@Z 1002ade0 f i bsplib.obj
 0001:00029f10       ?InsertMultipleBefore@?$CUtlVector@Udoccluderpolydata_t@@V?$CUtlMemory@Udoccluderpolydata_t@@@@@@QAEHHHPBUdoccluderpolydata_t@@@Z 1002af10 f i bsplib.obj
 0001:0002a010       ?InsertMultipleBefore@?$CUtlVector@Utexinfo_s@@V?$CUtlMemory@Utexinfo_s@@@@@@QAEHHHPBUtexinfo_s@@@Z 1002b010 f i bsplib.obj
 0001:0002a130       ?InsertMultipleBefore@?$CUtlVector@VCDispVert@@V?$CUtlMemory@VCDispVert@@@@@@QAEHHHPBVCDispVert@@@Z 1002b130 f i bsplib.obj
 0001:0002a250       ?InsertMultipleBefore@?$CUtlVector@Vddispinfo_t@@V?$CUtlMemory@Vddispinfo_t@@@@@@QAEHHHPBVddispinfo_t@@@Z 1002b250 f i bsplib.obj
 0001:0002a4e0       ?IntForKey@@YAHPAUentity_t@@PAD@Z 1002b4e0 f   bsplib.obj
 0001:0002a500       ?InvalidGameLump@@YAGXZ    1002b500 f   bsplib.obj
 0001:0002a510       ?IsExternallyAllocated@?$CUtlMemory@H@@QBE_NXZ 1002b510 f i bsplib.obj
 0001:0002a520       ?IsExternallyAllocated@?$CUtlMemory@UCompressedLightCube@@@@QBE_NXZ 1002b520 f i bsplib.obj
 0001:0002a530       ?IsExternallyAllocated@?$CUtlMemory@UListElem_t@?$CUtlLinkedList@UGameLump_t@@G@@@@QBE_NXZ 1002b530 f i bsplib.obj
 0001:0002a540       ?IsExternallyAllocated@?$CUtlMemory@Uclusterlist_t@@@@QBE_NXZ 1002b540 f i bsplib.obj
 0001:0002a550       ?IsExternallyAllocated@?$CUtlMemory@Udlightmappage_t@@@@QBE_NXZ 1002b550 f i bsplib.obj
 0001:0002a560       ?IsExternallyAllocated@?$CUtlMemory@Udlightmappageinfo_t@@@@QBE_NXZ 1002b560 f i bsplib.obj
 0001:0002a570       ?IsExternallyAllocated@?$CUtlMemory@Udoccluderdata_t@@@@QBE_NXZ 1002b570 f i bsplib.obj
 0001:0002a580       ?IsExternallyAllocated@?$CUtlMemory@Udoccluderpolydata_t@@@@QBE_NXZ 1002b580 f i bsplib.obj
 0001:0002a590       ?IsExternallyAllocated@?$CUtlMemory@Utexinfo_s@@@@QBE_NXZ 1002b590 f i bsplib.obj
 0001:0002a5a0       ?IsExternallyAllocated@?$CUtlMemory@VCDispTri@@@@QBE_NXZ 1002b5a0 f i bsplib.obj
 0001:0002a5b0       ?IsExternallyAllocated@?$CUtlMemory@VCDispVert@@@@QBE_NXZ 1002b5b0 f i bsplib.obj
 0001:0002a5c0       ?IsExternallyAllocated@?$CUtlMemory@VCFaceMacroTextureInfo@@@@QBE_NXZ 1002b5c0 f i bsplib.obj
 0001:0002a5d0       ?IsExternallyAllocated@?$CUtlMemory@Vddispinfo_t@@@@QBE_NXZ 1002b5d0 f i bsplib.obj
 0001:0002a5e0       ?LeafCount@CToolBSPTree@@UBEHXZ 1002b5e0 f   bsplib.obj
 0001:0002a5f0       ?LinkBefore@?$CUtlLinkedList@UGameLump_t@@G@@QAEXGG@Z 1002b5f0 f i bsplib.obj
 0001:0002a670       ?LoadBSPFile@@YAXPAD@Z     1002b670 f   bsplib.obj
 0001:0002be60       ?LoadBSPFileTexinfo@@YAXPAD@Z 1002ce60 f   bsplib.obj
 0001:0002bfa0       ?LoadBSPFile_FileSystemOnly@@YAXPAD@Z 1002cfa0 f   bsplib.obj
 0001:0002c080       ?LoadLeafs@@YAHXZ          1002d080 f   bsplib.obj
 0001:0002c3e0       ?LumpVersion@@YAHH@Z       1002d3e0 f   bsplib.obj
 0001:0002c400       ?Lumps_Init@@YAXXZ         1002d400 f   bsplib.obj
 0001:0002c420       ?Lumps_Parse@@YAXXZ        1002d420 f   bsplib.obj
 0001:0002c4b0       ?Lumps_Write@@YAXXZ        1002d4b0 f   bsplib.obj
 0001:0002c580       ?NextGameLump@@YAGG@Z      1002d580 f   bsplib.obj
 0001:0002c5a0       ?OpenBSPFile@@YAXPAD@Z     1002d5a0 f   bsplib.obj
 0001:0002c640       ?ParseEntities@@YAXXZ      1002d640 f   bsplib.obj
 0001:0002c840       ?ParseEntity@@YAHXZ        1002d840 f   bsplib.obj
 0001:0002ca20       ?ParseEpair@@YAPAUepair_t@@XZ 1002da20 f   bsplib.obj
 0001:0002cb10       ?PrintBSPFileSizes@@YAXXZ  1002db10 f   bsplib.obj
 0001:0002d1b0       ?PrintBSPPackDirectory@@YAXXZ 1002e1b0 f   bsplib.obj
 0001:0002d1c0       ?PrintEntity@@YAXPAUentity_t@@@Z 1002e1c0 f   bsplib.obj
 0001:0002d200       ?Purge@?$CUtlMemory@H@@QAEXXZ 1002e200 f i bsplib.obj
 0001:0002d230       ?Purge@?$CUtlMemory@UCompressedLightCube@@@@QAEXXZ 1002e230 f i bsplib.obj
 0001:0002d260       ?Purge@?$CUtlMemory@UListElem_t@?$CUtlLinkedList@UGameLump_t@@G@@@@QAEXXZ 1002e260 f i bsplib.obj
 0001:0002d290       ?Purge@?$CUtlMemory@Uclusterlist_t@@@@QAEXXZ 1002e290 f i bsplib.obj
 0001:0002d2c0       ?Purge@?$CUtlMemory@Udlightmappage_t@@@@QAEXXZ 1002e2c0 f i bsplib.obj
 0001:0002d2f0       ?Purge@?$CUtlMemory@Udlightmappageinfo_t@@@@QAEXXZ 1002e2f0 f i bsplib.obj
 0001:0002d320       ?Purge@?$CUtlMemory@Udoccluderdata_t@@@@QAEXXZ 1002e320 f i bsplib.obj
 0001:0002d350       ?Purge@?$CUtlMemory@Udoccluderpolydata_t@@@@QAEXXZ 1002e350 f i bsplib.obj
 0001:0002d380       ?Purge@?$CUtlMemory@Utexinfo_s@@@@QAEXXZ 1002e380 f i bsplib.obj
 0001:0002d3b0       ?Purge@?$CUtlMemory@VCDispTri@@@@QAEXXZ 1002e3b0 f i bsplib.obj
 0001:0002d3e0       ?Purge@?$CUtlMemory@VCDispVert@@@@QAEXXZ 1002e3e0 f i bsplib.obj
 0001:0002d410       ?Purge@?$CUtlMemory@VCFaceMacroTextureInfo@@@@QAEXXZ 1002e410 f i bsplib.obj
 0001:0002d440       ?Purge@?$CUtlMemory@Vddispinfo_t@@@@QAEXXZ 1002e440 f i bsplib.obj
 0001:0002d470       ?ReadFileFromPack@@YA_NPBD_NAAVCUtlBuffer@@@Z 1002e470 f   bsplib.obj
 0001:0002d490       ?Remove@?$CUtlLinkedList@UGameLump_t@@G@@QAEXG@Z 1002e490 f i bsplib.obj
 0001:0002d4f0       ?RemoveAll@?$CUtlLinkedList@UGameLump_t@@G@@QAEXXZ 1002e4f0 f i bsplib.obj
 0001:0002d5c0       ?RemoveAll@?$CUtlVector@EV?$CUtlMemory@E@@@@QAEXXZ 1002e5c0 f i bsplib.obj
 0001:0002d5d0       ?RemoveAll@?$CUtlVector@HV?$CUtlMemory@H@@@@QAEXXZ 1002e5d0 f i bsplib.obj
 0001:0002d5e0       ?RemoveAll@?$CUtlVector@UCompressedLightCube@@V?$CUtlMemory@UCompressedLightCube@@@@@@QAEXXZ 1002e5e0 f i bsplib.obj
 0001:0002d5f0       ?RemoveAll@?$CUtlVector@Uclusterlist_t@@V?$CUtlMemory@Uclusterlist_t@@@@@@QAEXXZ 1002e5f0 f i bsplib.obj
 0001:0002d630       ?RemoveAll@?$CUtlVector@Udlightmappage_t@@V?$CUtlMemory@Udlightmappage_t@@@@@@QAEXXZ 1002e630 f i bsplib.obj
 0001:0002d640       ?RemoveAll@?$CUtlVector@Udlightmappageinfo_t@@V?$CUtlMemory@Udlightmappageinfo_t@@@@@@QAEXXZ 1002e640 f i bsplib.obj
 0001:0002d650       ?RemoveAll@?$CUtlVector@Udoccluderdata_t@@V?$CUtlMemory@Udoccluderdata_t@@@@@@QAEXXZ 1002e650 f i bsplib.obj
 0001:0002d660       ?RemoveAll@?$CUtlVector@Udoccluderpolydata_t@@V?$CUtlMemory@Udoccluderpolydata_t@@@@@@QAEXXZ 1002e660 f i bsplib.obj
 0001:0002d670       ?RemoveAll@?$CUtlVector@Utexinfo_s@@V?$CUtlMemory@Utexinfo_s@@@@@@QAEXXZ 1002e670 f i bsplib.obj
 0001:0002d680       ?RemoveAll@?$CUtlVector@VCDispTri@@V?$CUtlMemory@VCDispTri@@@@@@QAEXXZ 1002e680 f i bsplib.obj
 0001:0002d690       ?RemoveAll@?$CUtlVector@VCDispVert@@V?$CUtlMemory@VCDispVert@@@@@@QAEXXZ 1002e690 f i bsplib.obj
 0001:0002d6a0       ?RemoveAll@?$CUtlVector@VCFaceMacroTextureInfo@@V?$CUtlMemory@VCFaceMacroTextureInfo@@@@@@QAEXXZ 1002e6a0 f i bsplib.obj
 0001:0002d6b0       ?RemoveAll@?$CUtlVector@Vddispinfo_t@@V?$CUtlMemory@Vddispinfo_t@@@@@@QAEXXZ 1002e6b0 f i bsplib.obj
 0001:0002d6c0       ?RemoveFileFromPack@@YAXPBD@Z 1002e6c0 f   bsplib.obj
 0001:0002d6e0       ?SetCount@?$CUtlVector@EV?$CUtlMemory@E@@@@QAEXH@Z 1002e6e0 f i bsplib.obj
 0001:0002d780       ?SetCount@?$CUtlVector@HV?$CUtlMemory@H@@@@QAEXH@Z 1002e780 f i bsplib.obj
 0001:0002d7d0       ?SetCount@?$CUtlVector@UCompressedLightCube@@V?$CUtlMemory@UCompressedLightCube@@@@@@QAEXH@Z 1002e7d0 f i bsplib.obj
 0001:0002d7f0       ?SetCount@?$CUtlVector@Uclusterlist_t@@V?$CUtlMemory@Uclusterlist_t@@@@@@QAEXH@Z 1002e7f0 f i bsplib.obj
 0001:0002d840       ?SetCount@?$CUtlVector@Udlightmappage_t@@V?$CUtlMemory@Udlightmappage_t@@@@@@QAEXH@Z 1002e840 f i bsplib.obj
 0001:0002d8f0       ?SetCount@?$CUtlVector@Udlightmappageinfo_t@@V?$CUtlMemory@Udlightmappageinfo_t@@@@@@QAEXH@Z 1002e8f0 f i bsplib.obj
 0001:0002d9a0       ?SetCount@?$CUtlVector@Udoccluderdata_t@@V?$CUtlMemory@Udoccluderdata_t@@@@@@QAEXH@Z 1002e9a0 f i bsplib.obj
 0001:0002d9c0       ?SetCount@?$CUtlVector@Udoccluderpolydata_t@@V?$CUtlMemory@Udoccluderpolydata_t@@@@@@QAEXH@Z 1002e9c0 f i bsplib.obj
 0001:0002d9e0       ?SetCount@?$CUtlVector@Utexinfo_s@@V?$CUtlMemory@Utexinfo_s@@@@@@QAEXH@Z 1002e9e0 f i bsplib.obj
 0001:0002da00       ?SetCount@?$CUtlVector@VCDispTri@@V?$CUtlMemory@VCDispTri@@@@@@QAEXH@Z 1002ea00 f i bsplib.obj
 0001:0002daa0       ?SetCount@?$CUtlVector@VCDispVert@@V?$CUtlMemory@VCDispVert@@@@@@QAEXH@Z 1002eaa0 f i bsplib.obj
 0001:0002dac0       ?SetCount@?$CUtlVector@VCFaceMacroTextureInfo@@V?$CUtlMemory@VCFaceMacroTextureInfo@@@@@@QAEXH@Z 1002eac0 f i bsplib.obj
 0001:0002db60       ?SetCount@?$CUtlVector@Vddispinfo_t@@V?$CUtlMemory@Vddispinfo_t@@@@@@QAEXH@Z 1002eb60 f i bsplib.obj
 0001:0002db80       ?SetHDRMode@@YAX_N@Z       1002eb80 f   bsplib.obj
 0001:0002dbe0       ?SetKeyValue@@YAXPAUentity_t@@PBD1@Z 1002ebe0 f   bsplib.obj
 0001:0002dc70       ?SetSize@?$CUtlVector@EV?$CUtlMemory@E@@@@QAEXH@Z 1002ec70 f i bsplib.obj
 0001:0002dd10       ?ShiftElementsRight@?$CUtlVector@EV?$CUtlMemory@E@@@@IAEXHH@Z 1002ed10 f i bsplib.obj
 0001:0002dd50       ?ShiftElementsRight@?$CUtlVector@HV?$CUtlMemory@H@@@@IAEXHH@Z 1002ed50 f i bsplib.obj
 0001:0002dd90       ?ShiftElementsRight@?$CUtlVector@UCompressedLightCube@@V?$CUtlMemory@UCompressedLightCube@@@@@@IAEXHH@Z 1002ed90 f i bsplib.obj
 0001:0002ddd0       ?ShiftElementsRight@?$CUtlVector@Uclusterlist_t@@V?$CUtlMemory@Uclusterlist_t@@@@@@IAEXHH@Z 1002edd0 f i bsplib.obj
 0001:0002de10       ?ShiftElementsRight@?$CUtlVector@Udlightmappage_t@@V?$CUtlMemory@Udlightmappage_t@@@@@@IAEXHH@Z 1002ee10 f i bsplib.obj
 0001:0002de60       ?ShiftElementsRight@?$CUtlVector@Udlightmappageinfo_t@@V?$CUtlMemory@Udlightmappageinfo_t@@@@@@IAEXHH@Z 1002ee60 f i bsplib.obj
 0001:0002dea0       ?ShiftElementsRight@?$CUtlVector@Udoccluderdata_t@@V?$CUtlMemory@Udoccluderdata_t@@@@@@IAEXHH@Z 1002eea0 f i bsplib.obj
 0001:0002dee0       ?ShiftElementsRight@?$CUtlVector@Udoccluderpolydata_t@@V?$CUtlMemory@Udoccluderpolydata_t@@@@@@IAEXHH@Z 1002eee0 f i bsplib.obj
 0001:0002df20       ?ShiftElementsRight@?$CUtlVector@Utexinfo_s@@V?$CUtlMemory@Utexinfo_s@@@@@@IAEXHH@Z 1002ef20 f i bsplib.obj
 0001:0002df60       ?ShiftElementsRight@?$CUtlVector@VCDispTri@@V?$CUtlMemory@VCDispTri@@@@@@IAEXHH@Z 1002ef60 f i bsplib.obj
 0001:0002dfa0       ?ShiftElementsRight@?$CUtlVector@VCDispVert@@V?$CUtlMemory@VCDispVert@@@@@@IAEXHH@Z 1002efa0 f i bsplib.obj
 0001:0002dfe0       ?ShiftElementsRight@?$CUtlVector@VCFaceMacroTextureInfo@@V?$CUtlMemory@VCFaceMacroTextureInfo@@@@@@IAEXHH@Z 1002efe0 f i bsplib.obj
 0001:0002e020       ?ShiftElementsRight@?$CUtlVector@Vddispinfo_t@@V?$CUtlMemory@Vddispinfo_t@@@@@@IAEXHH@Z 1002f020 f i bsplib.obj
 0001:0002e070       ?StripTrailing@@YAXPAD@Z   1002f070 f   bsplib.obj
 0001:0002e0b0       ?TexDataStringTable_AddOrFindString@@YAHPBD@Z 1002f0b0 f   bsplib.obj
 0001:0002e170       ?TexDataStringTable_GetString@@YAPBDH@Z 1002f170 f   bsplib.obj
 0001:0002e190       ?ToolBSPTree@@YAPAVISpatialQuery@@XZ 1002f190 f   bsplib.obj
 0001:0002e1a0       ?TriStripToTriList@@YAXPBGHPAPAGPAH@Z 1002f1a0 f   bsplib.obj
 0001:0002e280       ?Unlink@?$CUtlLinkedList@UGameLump_t@@G@@QAEXG@Z 1002f280 f i bsplib.obj
 0001:0002e300       ?UnparseEntities@@YAXXZ    1002f300 f   bsplib.obj
 0001:0002e4c0       ?UpdateAllFaceLightmapExtents@@YAXXZ 1002f4c0 f   bsplib.obj
 0001:0002e510       ?ValueForKey@@YAPADPAUentity_t@@PAD@Z 1002f510 f   bsplib.obj
 0001:0002e570       ?WriteBSPFile@@YAXPAD0@Z   1002f570 f   bsplib.obj
 0001:0002fb50       ?WriteLumpToFile@@YAXPADH@Z 10030b50 f   bsplib.obj
 0001:0002fc60       ___local_stdio_printf_options 10030c60 f i bsplib.obj
 0001:0002fc70       ___local_stdio_scanf_options 10030c70 f i bsplib.obj
 0001:0002fc80       _fprintf                   10030c80 f i bsplib.obj
 0001:0002fcb0       _sprintf                   10030cb0 f i bsplib.obj
 0001:0002fcf0       _sscanf                    10030cf0 f i bsplib.obj
 0001:0002fd20       ??0?$CUtlLinkedList@P6AXPBD@ZG@@QAE@HH@Z 10030d20 f i cmdlib.obj
 0001:0002fd80       ??0?$CUtlLinkedList@P6AXXZG@@QAE@HH@Z 10030d80 f i cmdlib.obj
 0001:0002fde0       ??0?$CUtlMemory@UListElem_t@?$CUtlLinkedList@P6AXPBD@ZG@@@@QAE@HH@Z 10030de0 f i cmdlib.obj
 0001:0002fe20       ??0?$CUtlMemory@UListElem_t@?$CUtlLinkedList@P6AXXZG@@@@QAE@HH@Z 10030e20 f i cmdlib.obj
 0001:0002fe60       ??1?$CUtlLinkedList@P6AXPBD@ZG@@QAE@XZ 10030e60 f i cmdlib.obj
 0001:0002fee0       ??1?$CUtlLinkedList@P6AXXZG@@QAE@XZ 10030ee0 f i cmdlib.obj
 0001:0002ff60       ??1?$CUtlMemory@UListElem_t@?$CUtlLinkedList@P6AXPBD@ZG@@@@QAE@XZ 10030f60 f i cmdlib.obj
 0001:0002ff90       ??1?$CUtlMemory@UListElem_t@?$CUtlLinkedList@P6AXXZG@@@@QAE@XZ 10030f90 f i cmdlib.obj
 0001:0002ffc0       ?AllocInternal@?$CUtlLinkedList@P6AXPBD@ZG@@IAEG_N@Z 10030fc0 f i cmdlib.obj
 0001:000300b0       ?AllocInternal@?$CUtlLinkedList@P6AXXZG@@IAEG_N@Z 100310b0 f i cmdlib.obj
 0001:000301a0       ?COM_Parse@@YAPADPAD@Z     100311a0 f   cmdlib.obj
 0001:000301c0       ?CheckParm@@YAHPAD@Z       100311c0 f   cmdlib.obj
 0001:00030200       ?CloseSpewFunctionLogFile@@YAXXZ 10031200 f   cmdlib.obj
 0001:00030230       ?CmdLib_AddBasePath@@YAXPBD@Z 10031230 f   cmdlib.obj
 0001:00030280       ?CmdLib_AllocError@@YAXK@Z 10031280 f   cmdlib.obj
 0001:000302a0       ?CmdLib_AtCleanup@@YAXP6AXXZ@Z 100312a0 f   cmdlib.obj
 0001:000302c0       ?CmdLib_Cleanup@@YAXXZ     100312c0 f   cmdlib.obj
 0001:00030330       ?CmdLib_Exit@@YAXH@Z       10031330 f   cmdlib.obj
 0001:00030340       ?CmdLib_FGets@@YAPADPADHPAX@Z 10031340 f   cmdlib.obj
 0001:000303a0       ?CmdLib_FPrintf@@YAXPAXPBDZZ 100313a0 f   cmdlib.obj
 0001:00030560       ?CmdLib_GetBasePath@@YAPBDH@Z 10031560 f   cmdlib.obj
 0001:00030580       ?CmdLib_GetFileSystemFactory@@YAP6APAXPBDPAH@ZXZ 10031580 f   cmdlib.obj
 0001:00030590       ?CmdLib_GetNumBasePaths@@YAHXZ 10031590 f   cmdlib.obj
 0001:000305a0       ?CmdLib_HasBasePath@@YA_NPBDAAH@Z 100315a0 f   cmdlib.obj
 0001:00030660       ?CmdLib_InitFileSystem@@YAXPBDH@Z 10031660 f   cmdlib.obj
 0001:00030690       ?CmdLib_NewHandler@@YAHI@Z 10031690 f   cmdlib.obj
 0001:000306b0       ?CmdLib_SpewOutputFunc@@YA?AW4SpewRetval_t@@W4SpewType_t@@PBD@Z 100316b0 f   cmdlib.obj
 0001:00030930       ?CmdLib_TermFileSystem@@YAXXZ 10031930 f   cmdlib.obj
 0001:00030940       ?ConstructList@?$CUtlLinkedList@P6AXPBD@ZG@@IAEXXZ 10031940 f i cmdlib.obj
 0001:00030960       ?ConstructList@?$CUtlLinkedList@P6AXXZG@@IAEXXZ 10031960 f i cmdlib.obj
 0001:00030980       ?CreatePath@@YAXPAD@Z      10031980 f   cmdlib.obj
 0001:000309e0       ?ExpandArg@@YAPADPAD@Z     100319e0 f   cmdlib.obj
 0001:00030a60       ?ExpandPath@@YAPADPAD@Z    10031a60 f   cmdlib.obj
 0001:00030aa0       ?ExpandWildcards@@YAXPAHPAPAPAD@Z 10031aa0 f   cmdlib.obj
 0001:00030c00       ?FileExists@@YAHPAD@Z      10031c00 f   cmdlib.obj
 0001:00030c40       ?FileTime@@YAHPAD@Z        10031c40 f   cmdlib.obj
 0001:00030c70       ?GetHourMinuteSeconds@@YAXHAAH00@Z 10031c70 f   cmdlib.obj
 0001:00030c80       ?GetHourMinuteSecondsString@@YAXHPADH@Z 10031c80 f   cmdlib.obj
 0001:00030d90       ?Grow@?$CUtlMemory@UListElem_t@?$CUtlLinkedList@P6AXPBD@ZG@@@@QAEXH@Z 10031d90 f i cmdlib.obj
 0001:00030e00       ?Grow@?$CUtlMemory@UListElem_t@?$CUtlLinkedList@P6AXXZG@@@@QAEXH@Z 10031e00 f i cmdlib.obj
 0001:00030e70       ?InsertBefore@?$CUtlLinkedList@P6AXPBD@ZG@@QAEGGABQ6AXPBD@Z@Z 10031e70 f i cmdlib.obj
 0001:00031000       ?InsertBefore@?$CUtlLinkedList@P6AXXZG@@QAEGGABQ6AXXZ@Z 10032000 f i cmdlib.obj
 0001:00031190       ?InstallAllocationFunctions@@YAXXZ 10032190 f   cmdlib.obj
 0001:000311b0       ?InstallExtraSpewHook@@YAXP6AXPBD@Z@Z 100321b0 f   cmdlib.obj
 0001:000311d0       ?InstallSpewFunction@@YAXXZ 100321d0 f   cmdlib.obj
 0001:000312b0       ?IsExternallyAllocated@?$CUtlMemory@UListElem_t@?$CUtlLinkedList@P6AXPBD@ZG@@@@QBE_NXZ 100322b0 f i cmdlib.obj
 0001:000312c0       ?IsExternallyAllocated@?$CUtlMemory@UListElem_t@?$CUtlLinkedList@P6AXXZG@@@@QBE_NXZ 100322c0 f i cmdlib.obj
 0001:000312d0       ?LinkBefore@?$CUtlLinkedList@P6AXPBD@ZG@@QAEXGG@Z 100322d0 f i cmdlib.obj
 0001:000313c0       ?LinkBefore@?$CUtlLinkedList@P6AXXZG@@QAEXGG@Z 100323c0 f i cmdlib.obj
 0001:000314b0       ?LoadFile@@YAHPADPAPAX@Z   100324b0 f   cmdlib.obj
 0001:00031620       ?ParseHex@@YAHPAD@Z        10032620 f   cmdlib.obj
 0001:00031690       ?ParseNum@@YAHPAD@Z        10032690 f   cmdlib.obj
 0001:000316d0       ?Purge@?$CUtlMemory@UListElem_t@?$CUtlLinkedList@P6AXPBD@ZG@@@@QAEXXZ 100326d0 f i cmdlib.obj
 0001:00031700       ?Purge@?$CUtlMemory@UListElem_t@?$CUtlLinkedList@P6AXXZG@@@@QAEXXZ 10032700 f i cmdlib.obj
 0001:00031730       ?QCopyFile@@YAXPAD0@Z      10032730 f   cmdlib.obj
 0001:00031970       ?Q_filelength@@YAHPAX@Z    10032970 f   cmdlib.obj
 0001:00031990       ?Q_mkdir@@YAXPAD@Z         10032990 f   cmdlib.obj
 0001:000319c0       ?RemoveAll@?$CUtlLinkedList@P6AXPBD@ZG@@QAEXXZ 100329c0 f i cmdlib.obj
 0001:00031a20       ?RemoveAll@?$CUtlLinkedList@P6AXXZG@@QAEXXZ 10032a20 f i cmdlib.obj
 0001:00031a80       ?SafeCreatePath@@YAXPAD@Z  10032a80 f   cmdlib.obj
 0001:00031ad0       ?SafeOpenRead@@YAPAXPAD@Z  10032ad0 f   cmdlib.obj
 0001:00031be0       ?SafeOpenWrite@@YAPAXPAD@Z 10032be0 f   cmdlib.obj
 0001:00031c20       ?SafeRead@@YAXPAX0H@Z      10032c20 f   cmdlib.obj
 0001:00031c50       ?SafeWrite@@YAXPAX0H@Z     10032c50 f   cmdlib.obj
 0001:00031c80       ?SaveFile@@YAXPADPAXH@Z    10032c80 f   cmdlib.obj
 0001:00031cf0       ?SetSpewFunctionLogFile@@YAXPBD@Z 10032cf0 f   cmdlib.obj
 0001:00031d40       ?Unlink@?$CUtlLinkedList@P6AXPBD@ZG@@QAEXG@Z 10032d40 f i cmdlib.obj
 0001:00031dc0       ?Unlink@?$CUtlLinkedList@P6AXXZG@@QAEXG@Z 10032dc0 f i cmdlib.obj
 0001:00031e40       ?copystring@@YAPADPBD@Z    10032e40 f   cmdlib.obj
 0001:00031e80       ?qprintf@@YAXPADZZ         10032e80 f   cmdlib.obj
 0001:00031ed0       _printf                    10032ed0 f i cmdlib.obj
 0001:00031f00       ??1CSQLDBCommandBase@@UAE@XZ 10032f00 f i mpi_stats.obj
 0001:00031f10       ??1CSQLDBCommand_TextMessage@@UAE@XZ 10032f10 f i mpi_stats.obj
 0001:00031f30       ??1ISQLDBCommand@@MAE@XZ   10032f30 f i mpi_stats.obj
 0001:00031f40       ??_ECSQLDBCommandBase@@UAEPAXI@Z 10032f40 f i mpi_stats.obj
 0001:00031f40       ??_GCSQLDBCommandBase@@UAEPAXI@Z 10032f40 f i mpi_stats.obj
 0001:00031f70       ??_ECSQLDBCommand_GraphEntry@@UAEPAXI@Z 10032f70 f i mpi_stats.obj
 0001:00031f70       ??_GCSQLDBCommand_GraphEntry@@UAEPAXI@Z 10032f70 f i mpi_stats.obj
 0001:00031fa0       ??_ECSQLDBCommand_JobMasterEnd@@UAEPAXI@Z 10032fa0 f i mpi_stats.obj
 0001:00031fa0       ??_GCSQLDBCommand_JobMasterEnd@@UAEPAXI@Z 10032fa0 f i mpi_stats.obj
 0001:00031fd0       ??_ECSQLDBCommand_TextMessage@@UAEPAXI@Z 10032fd0 f i mpi_stats.obj
 0001:00031fd0       ??_GCSQLDBCommand_TextMessage@@UAEPAXI@Z 10032fd0 f i mpi_stats.obj
 0001:00032010       ??_ECSQLDBCommand_WorkerStats@@UAEPAXI@Z 10033010 f i mpi_stats.obj
 0001:00032010       ??_GCSQLDBCommand_WorkerStats@@UAEPAXI@Z 10033010 f i mpi_stats.obj
 0001:00032040       ??_EISQLDBCommand@@MAEPAXI@Z 10033040 f i mpi_stats.obj
 0001:00032040       ??_GISQLDBCommand@@MAEPAXI@Z 10033040 f i mpi_stats.obj
 0001:00032070       ?Execute@CMySQLQuery@@QAEHPAVIMySQL@@@Z 10033070 f   mpi_stats.obj
 0001:000320c0       ?Format@CMySQLQuery@@QAAXPBDZZ 100330c0 f   mpi_stats.obj
 0001:000321b0       ?FormatStringForSQL@@YAPADPBD@Z 100331b0 f   mpi_stats.obj
 0001:00032220       ?GetDBInfo@@YAXPBDPAVCDBInfo@@@Z 10033220 f   mpi_stats.obj
 0001:00032370       ?GetDebugInfo@ISQLDBCommand@@UAEXPADH@Z 10033370 f i mpi_stats.obj
 0001:00032380       ?GetID@ISQLDBCommand@@UAEHXZ 10033380 f i mpi_stats.obj
 0001:00032390       ?GetReturnData@ISQLDBCommand@@UAEPAXXZ 10033390 f i mpi_stats.obj
 0001:000323a0       ?InsertBefore@?$CUtlVector@DV?$CUtlMemory@D@@@@QAEHHABD@Z 100333a0 f i mpi_stats.obj
 0001:000323e0       ?LoadMySQLWrapper@@YA_NPBD00@Z 100333e0 f   mpi_stats.obj
 0001:00032470       ?PerfThreadFn@@YGKPAX@Z    10033470 f   mpi_stats.obj
 0001:000325a0       ?PerfThread_AddGraphEntry@@YAXKAAK0@Z 100335a0 f   mpi_stats.obj
 0001:00032630       ?PerfThread_SendSpewText@@YAXXZ 10033630 f   mpi_stats.obj
 0001:00032790       ?RunCommand@CSQLDBCommand_GraphEntry@@UAEHXZ 10033790 f i mpi_stats.obj
 0001:000328f0       ?RunCommand@CSQLDBCommand_JobMasterEnd@@UAEHXZ 100338f0 f i mpi_stats.obj
 0001:000329f0       ?RunCommand@CSQLDBCommand_TextMessage@@UAEHXZ 100339f0 f i mpi_stats.obj
 0001:00032a90       ?RunCommand@CSQLDBCommand_WorkerStats@@UAEHXZ 10033a90 f i mpi_stats.obj
 0001:00032b60       ?RunJobWatchApp@@YAXPAD@Z  10033b60 f   mpi_stats.obj
 0001:00032be0       ?StatsDB_GetUniqueJobID@@YAKXZ 10033be0 f   mpi_stats.obj
 0001:00032bf0       ?StatsDB_InitStatsDatabase@@YAXHPAPADPBD@Z 10033bf0 f   mpi_stats.obj
 0001:00032ed0       ?UnloadMySQLWrapper@@YAXXZ 10033ed0 f   mpi_stats.obj
 0001:00032f10       ?UpdateJobWorkerRunningTime@@YAXXZ 10033f10 f   mpi_stats.obj
 0001:00032fe0       ?VMPI_Stats_GetJobWorkerID@@YAKXZ 10033fe0 f   mpi_stats.obj
 0001:00032ff0       ?VMPI_Stats_Init_Master@@YA_NPBD000PAK@Z 10033ff0 f   mpi_stats.obj
 0001:000331b0       ?VMPI_Stats_Init_Worker@@YA_NPBD00K@Z 100341b0 f   mpi_stats.obj
 0001:00033390       ?VMPI_Stats_InstallSpewHook@@YAXXZ 10034390 f   mpi_stats.obj
 0001:000333a0       ?VMPI_Stats_SpewHook@@YAXPBD@Z 100343a0 f   mpi_stats.obj
 0001:00033450       ?VMPI_Stats_Term@@YAXXZ    10034450 f   mpi_stats.obj
 0001:00033570       ?deleteThis@CSQLDBCommandBase@@UAEXXZ 10034570 f i mpi_stats.obj
 0001:00033580       ??0?$CUtlLinkedList@Umsg_t@CMySqlDatabase@@H@@QAE@HH@Z 10034580 f i MySqlDatabase.obj
 0001:000335f0       ??0?$CUtlMemory@UListElem_t@?$CUtlLinkedList@Umsg_t@CMySqlDatabase@@H@@@@QAE@HH@Z 100345f0 f i MySqlDatabase.obj
 0001:00033630       ??0CMySqlDatabase@@QAE@XZ  10034630 f   MySqlDatabase.obj
 0001:000336e0       ??1?$CUtlLinkedList@Umsg_t@CMySqlDatabase@@H@@QAE@XZ 100346e0 f i MySqlDatabase.obj
 0001:00033760       ??1?$CUtlMemory@UListElem_t@?$CUtlLinkedList@Umsg_t@CMySqlDatabase@@H@@@@QAE@XZ 10034760 f i MySqlDatabase.obj
 0001:00033790       ??1CMySqlDatabase@@QAE@XZ  10034790 f   MySqlDatabase.obj
 0001:000337d0       ?AddCommandToQueue@CMySqlDatabase@@QAEXPAVISQLDBCommand@@PAVISQLDBReplyTarget@@H@Z 100347d0 f   MySqlDatabase.obj
 0001:00033830       ?AllocInternal@?$CUtlLinkedList@Umsg_t@CMySqlDatabase@@H@@IAEH_N@Z 10034830 f i MySqlDatabase.obj
 0001:00033910       ?ConstructList@?$CUtlLinkedList@Umsg_t@CMySqlDatabase@@H@@IAEXXZ 10034910 f i MySqlDatabase.obj
 0001:00033940       ?Free@?$CUtlLinkedList@Umsg_t@CMySqlDatabase@@H@@QAEXH@Z 10034940 f i MySqlDatabase.obj
 0001:00033970       ?Grow@?$CUtlMemory@UListElem_t@?$CUtlLinkedList@Umsg_t@CMySqlDatabase@@H@@@@QAEXH@Z 10034970 f i MySqlDatabase.obj
 0001:000339e0       ?Initialize@CMySqlDatabase@@QAE_NXZ 100349e0 f   MySqlDatabase.obj
 0001:00033a40       ?InsertBefore@?$CUtlLinkedList@Umsg_t@CMySqlDatabase@@H@@QAEHHABUmsg_t@CMySqlDatabase@@@Z 10034a40 f i MySqlDatabase.obj
 0001:00033b50       ?IsExternallyAllocated@?$CUtlMemory@UListElem_t@?$CUtlLinkedList@Umsg_t@CMySqlDatabase@@H@@@@QBE_NXZ 10034b50 f i MySqlDatabase.obj
 0001:00033b60       ?LinkBefore@?$CUtlLinkedList@Umsg_t@CMySqlDatabase@@H@@QAEXHH@Z 10034b60 f i MySqlDatabase.obj
 0001:00033bd0       ?Purge@?$CUtlMemory@UListElem_t@?$CUtlLinkedList@Umsg_t@CMySqlDatabase@@H@@@@QAEXXZ 10034bd0 f i MySqlDatabase.obj
 0001:00033c00       ?QueriesInFinishedQueue@CMySqlDatabase@@UAEHXZ 10034c00 f   MySqlDatabase.obj
 0001:00033c10       ?QueriesInOutQueue@CMySqlDatabase@@UAEHXZ 10034c10 f   MySqlDatabase.obj
 0001:00033c20       ?Remove@?$CUtlLinkedList@Umsg_t@CMySqlDatabase@@H@@QAEXH@Z 10034c20 f i MySqlDatabase.obj
 0001:00033c50       ?RemoveAll@?$CUtlLinkedList@Umsg_t@CMySqlDatabase@@H@@QAEXXZ 10034c50 f i MySqlDatabase.obj
 0001:00033cb0       ?RunFrame@CMySqlDatabase@@QAE_NXZ 10034cb0 f   MySqlDatabase.obj
 0001:00033d70       ?RunThread@CMySqlDatabase@@QAEXXZ 10034d70 f   MySqlDatabase.obj
 0001:00033ea0       ?Unlink@?$CUtlLinkedList@Umsg_t@CMySqlDatabase@@H@@QAEXH@Z 10034ea0 f i MySqlDatabase.obj
 0001:00034050       ?EndPacifier@@YAX_N@Z      10035050 f   pacifier.obj
 0001:00034080       ?StartPacifier@@YAXPBD@Z   10035080 f   pacifier.obj
 0001:000340b0       ?UpdatePacifier@@YAXM@Z    100350b0 f   pacifier.obj
 0001:00034130       ??0?$CUtlMemory@VVector@@@@QAE@HH@Z 10035130 f i scratchpad_helpers.obj
 0001:00034170       ??1?$CUtlMemory@VVector@@@@QAE@XZ 10035170 f i scratchpad_helpers.obj
 0001:000341a0       ?Grow@?$CUtlMemory@VVector@@@@QAEXH@Z 100351a0 f i scratchpad_helpers.obj
 0001:00034210       ?GrowVector@?$CUtlVector@VVector@@V?$CUtlMemory@VVector@@@@@@IAEXH@Z 10035210 f i scratchpad_helpers.obj
 0001:000342a0       ?InsertBefore@?$CUtlVector@VVector@@V?$CUtlMemory@VVector@@@@@@QAEHHABVVector@@@Z 100352a0 f i scratchpad_helpers.obj
 0001:00034360       ?IsExternallyAllocated@?$CUtlMemory@VVector@@@@QBE_NXZ 10035360 f i scratchpad_helpers.obj
 0001:00034370       ?Purge@?$CUtlMemory@VVector@@@@QAEXXZ 10035370 f i scratchpad_helpers.obj
 0001:000343a0       ?RemoveAll@?$CUtlVector@VVector@@V?$CUtlMemory@VVector@@@@@@QAEXXZ 100353a0 f i scratchpad_helpers.obj
 0001:000343b0       ?ScratchPad_DrawFace@@YAXPAVIScratchPad3D@@PAUdface_t@@HABVCSPColor@@ABVVector@@@Z 100353b0 f   scratchpad_helpers.obj
 0001:000346c0       ?ScratchPad_DrawWinding@@YAXPAVIScratchPad3D@@HPAVVector@@V2@2@Z 100356c0 f   scratchpad_helpers.obj
 0001:000347a0       ?ScratchPad_DrawWorld@@YAXPAVIScratchPad3D@@_NABVCSPColor@@@Z 100357a0 f   scratchpad_helpers.obj
 0001:00034880       ?ScratchPad_DrawWorld@@YAX_NABVCSPColor@@@Z 10035880 f   scratchpad_helpers.obj
 0001:00034970       ?ShiftElementsRight@?$CUtlVector@VVector@@V?$CUtlMemory@VVector@@@@@@IAEXHH@Z 10035970 f i scratchpad_helpers.obj
 0001:000349b0       ?AddMacroToStack@@YA_NPAD@Z 100359b0 f   scriplib.obj
 0001:00034b70       ?AddScriptToStack@@YAXPADW4ScriptPathMode_t@@@Z 10035b70 f   scriplib.obj
 0001:00034c20       ?DefineMacro@@YAXPAD@Z     10035c20 f   scriplib.obj
 0001:00034de0       ?EndOfScript@@YAHH@Z       10035de0 f   scriplib.obj
 0001:00034e90       ?ExpandMacroToken@@YA_NAAPAD@Z 10035e90 f   scriplib.obj
 0001:00034fd0       _GetExprToken              10035fd0 f   scriplib.obj
 0001:00035330       _GetToken                  10036330 f   scriplib.obj
 0001:00035970       _GetTokenizerStatus        10036970 f   scriplib.obj
 0001:000359c0       _LoadScriptFile            100369c0 f   scriplib.obj
 0001:00035a00       _ParseFromMemory           10036a00 f   scriplib.obj
 0001:00035a70       _TokenAvailable            10036a70 f   scriplib.obj
 0001:00035ad0       _UnGetToken                10036ad0 f   scriplib.obj
 0001:00035ae0       ?GetThreadWork@@YAHXZ      10036ae0 f   threads.obj
 0001:00035bd0       ?InternalRunThreadsFn@@YGKPAX@Z 10036bd0 f   threads.obj
 0001:00035bf0       ?RunThreadsOn@@YAXHHP6AXHPAX@Z0@Z 10036bf0 f   threads.obj
 0001:00035d30       ?RunThreadsOnIndividual@@YAXHHP6AXHH@Z@Z 10036d30 f   threads.obj
 0001:00035eb0       ?RunThreads_End@@YAXXZ     10036eb0 f   threads.obj
 0001:00035f00       ?RunThreads_Start@@YAXP6AXHPAX@Z0@Z 10036f00 f   threads.obj
 0001:00035f90       ?SetLowPriority@@YAXXZ     10036f90 f   threads.obj
 0001:00035fa0       ?ThreadLock@@YAXXZ         10036fa0 f   threads.obj
 0001:00035ff0       ?ThreadSetDefault@@YAXXZ   10036ff0 f   threads.obj
 0001:00036040       ?ThreadUnlock@@YAXXZ       10037040 f   threads.obj
 0001:00036080       ?ThreadWorkerFunction@@YAXHPAX@Z 10037080 f   threads.obj
 0001:00036180       ?EnableFullMinidumps@@YAX_N@Z 10037180 f   tools_minidump.obj
 0001:00036190       ?SetupDefaultToolsMinidumpHandler@@YAXXZ 10037190 f   tools_minidump.obj
 0001:000361a0       ?SetupToolsMinidumpHandler@@YAXP6AXKPAX@Z@Z 100371a0 f   tools_minidump.obj
 0001:00036210       ?HandleMPIDisconnect@@YAXHPBD@Z 10037210 f   vmpi_tools_shared.obj
 0001:00036290       ?RecvDBInfo@@YAXPAVCDBInfo@@PAK@Z 10037290 f   vmpi_tools_shared.obj
 0001:000362e0       ?RecvQDirInfo@@YAXXZ       100372e0 f   vmpi_tools_shared.obj
 0001:00036310       ?SendDBInfo@@YAXPBVCDBInfo@@K@Z 10037310 f   vmpi_tools_shared.obj
 0001:00036360       ?SendQDirInfo@@YAXXZ       10037360 f   vmpi_tools_shared.obj
 0001:000363f0       ?SharedDispatch@@YA_NPAVMessageBuffer@@HH@Z 100373f0 f   vmpi_tools_shared.obj
 0001:000364b0       ?VMPI_ExceptionFilter@@YAXK@Z 100374b0 f   vmpi_tools_shared.obj
 0001:00036710       ?VMPI_HandleCrash@@YAXPBD_N@Z 10037710 f   vmpi_tools_shared.obj
 0001:00036790       ?VMPI_SecondExceptionFilter@@YGJPAU_EXCEPTION_POINTERS@@@Z 10037790 f   vmpi_tools_shared.obj
 0001:000367b0       ??0winding_t@@QAE@XZ       100377b0 f i flow.obj
 0001:000367c0       ?AllocStackWinding@@YAPAUwinding_t@@PAUpstack_s@@@Z 100377c0 f   flow.obj
 0001:00036810       ?BasePortalVis@@YAXHH@Z    10037810 f   flow.obj
 0001:00036aa0       ?BetterPortalVis@@YAXH@Z   10037aa0 f   flow.obj
 0001:00036b20       ?CheckStack@@YAXPAUleaf_s@@PAUthreaddata_t@@@Z 10037b20 f   flow.obj
 0001:00036ba0       ?ChopWinding@@YAPAUwinding_t@@PAU1@PAUpstack_s@@PAUplane_t@@@Z 10037ba0 f   flow.obj
 0001:00036fe0       ?ClipToSeperators@@YAPAUwinding_t@@PAU1@00_NPAUpstack_s@@@Z 10037fe0 f   flow.obj
 0001:00037410       ?CountBits@@YAHPAEH@Z      10038410 f   flow.obj
 0001:00037450       ?FreeStackWinding@@YAXPAUwinding_t@@PAUpstack_s@@@Z 10038450 f   flow.obj
 0001:000374a0       ?PortalFlow@@YAXHH@Z       100384a0 f   flow.obj
 0001:00037620       ?RecursiveLeafBitFlow@@YAXHPAE0@Z 10038620 f   flow.obj
 0001:00037880       ?RecursiveLeafFlow@@YAXHPAUthreaddata_t@@PAUpstack_s@@@Z 10038880 f   flow.obj
 0001:00037d90       ?SimpleFlood@@YAXPAUportal_t@@H@Z 10038d90 f   flow.obj
 0001:00037e40       ?Update@CVisDistributeWorkMaster@@UAE_NXZ 10038e40 f i mpivis.obj
 0001:00037fb0       ?CheckExitedEarly@@YAXXZ   10038fb0 f   mpivis.obj
 0001:00038020       ?MCThreadCleanupFn@@YAXXZ  10039020 f   mpivis.obj
 0001:00038030       ?PortalMCThreadFn@@YGKPAX@Z 10039030 f   mpivis.obj
 0001:00038160       ?ProcessBasePortalVis@@YAXHHPAVMessageBuffer@@@Z 10039160 f   mpivis.obj
 0001:00038250       ?ProcessPortalFlow@@YAXHHPAVMessageBuffer@@@Z 10039250 f   mpivis.obj
 0001:00038320       ?ReceiveBasePortalVis@@YAXHPAVMessageBuffer@@H@Z 10039320 f   mpivis.obj
 0001:00038400       ?ReceivePortalFlow@@YAXHPAVMessageBuffer@@H@Z 10039400 f   mpivis.obj
 0001:00038490       ?RunMPIBasePortalVis@@YAXXZ 10039490 f   mpivis.obj
 0001:000387c0       ?RunMPIPortalFlow@@YAXXZ   100397c0 f   mpivis.obj
 0001:00038b80       ?VMPI_DeletePortalMCSocket@@YAXXZ 10039b80 f   mpivis.obj
 0001:00038bd0       ?VVIS_DispatchFn@@YA_NPAVMessageBuffer@@HH@Z 10039bd0 f   mpivis.obj
 0001:00038cb0       ?VVIS_SetupMPI@@YAXHPAPAD@Z 10039cb0 f   mpivis.obj
 0001:00038d80       ?main@CVVisDLL@@UAEHHPAPAD@Z 10039d80 f i vvis.obj
 0001:00039180       ?CalcPAS@@YAXXZ            1003a180 f   vvis.obj
 0001:00039480       ?CalcPortalVis@@YAXXZ      1003a480 f   vvis.obj
 0001:00039500       ?CalcVis@@YAXXZ            1003a500 f   vvis.obj
 0001:000398b0       ?ClusterMerge@@YAXH@Z      1003a8b0 f   vvis.obj
 0001:00039cf0       ?DetermineVisRadius@@YAMXZ 1003acf0 f   vvis.obj
 0001:00039d80       ?LeafVectorFromPortalVector@@YAHPAE0@Z 1003ad80 f   vvis.obj
 0001:00039e10       ?LoadPortals@@YAXPAD@Z     1003ae10 f   vvis.obj
 0001:0003a510       ?MarkLeavesAsRadial@@YAXXZ 1003b510 f   vvis.obj
 0001:0003a530       ?NewWinding@@YAPAUwinding_t@@H@Z 1003b530 f   vvis.obj
 0001:0003a570       ?PComp@@YAHPBX0@Z          1003b570 f   vvis.obj
 0001:0003a5a0       ?ParseCommandLine@@YAHHPAPAD@Z 1003b5a0 f   vvis.obj
 0001:0003a860       ?PlaneFromWinding@@YAXPAUwinding_t@@PAUplane_t@@@Z 1003b860 f   vvis.obj
 0001:0003a920       ?PrintCommandLine@@YAXHPAPAD@Z 1003b920 f   vvis.obj
 0001:0003a970       ?PrintUsage@@YAXHPAPAD@Z   1003b970 f   vvis.obj
 0001:0003a9c0       ?RunVVis@@YAHHPAPAD@Z      1003b9c0 f   vvis.obj
 0001:0003af00       ?SetPortalSphere@@YAXPAUportal_t@@@Z 1003bf00 f   vvis.obj
 0001:0003b080       ?SortPortals@@YAXXZ        1003c080 f   vvis.obj
 0001:0003b1c0       ?prl@@YAXPAUleaf_s@@@Z     1003c1c0 f   vvis.obj
 0001:0003b250       ?pw@@YAXPAUwinding_t@@@Z   1003c250 f   vvis.obj
 0001:0003b2b0       __snprintf                 1003c2b0 f i vvis.obj
 0001:0003b2f0       _fscanf                    1003c2f0 f i vvis.obj
 0001:0003b320       _main                      1003c320 f   vvis.obj
 0001:0003b390       ?EmitDistanceToWaterInfo@@YAXXZ 1003c390 f   WaterDist.obj
 0001:0003b393       _Sleep@4                   1003c393 f   kernel32:KERNEL32.dll
 0001:0003b399       _GetStdHandle@4            1003c399 f   kernel32:KERNEL32.dll
 0001:0003b39f       _OutputDebugStringA@4      1003c39f f   kernel32:KERNEL32.dll
 0001:0003b3a5       _InitializeCriticalSection@4 1003c3a5 f   kernel32:KERNEL32.dll
 0001:0003b3ab       _EnterCriticalSection@4    1003c3ab f   kernel32:KERNEL32.dll
 0001:0003b3b1       _LeaveCriticalSection@4    1003c3b1 f   kernel32:KERNEL32.dll
 0001:0003b3b7       _GetCurrentProcess@0       1003c3b7 f   kernel32:KERNEL32.dll
 0001:0003b3bd       _TerminateProcess@8        1003c3bd f   kernel32:KERNEL32.dll
 0001:0003b3c3       _GetConsoleScreenBufferInfo@8 1003c3c3 f   kernel32:KERNEL32.dll
 0001:0003b3c9       _SetConsoleTextAttribute@8 1003c3c9 f   kernel32:KERNEL32.dll
 0001:0003b3cf       _CloseHandle@4             1003c3cf f   kernel32:KERNEL32.dll
 0001:0003b3d5       _SetEvent@4                1003c3d5 f   kernel32:KERNEL32.dll
 0001:0003b3db       _WaitForSingleObject@8     1003c3db f   kernel32:KERNEL32.dll
 0001:0003b3e1       _CreateEventA@16           1003c3e1 f   kernel32:KERNEL32.dll
 0001:0003b3e7       _CreateThread@24           1003c3e7 f   kernel32:KERNEL32.dll
 0001:0003b3ed       _CreateProcessA@40         1003c3ed f   kernel32:KERNEL32.dll
 0001:0003b3f3       _GetTickCount@0            1003c3f3 f   kernel32:KERNEL32.dll
 0001:0003b3f9       _GetModuleFileNameA@12     1003c3f9 f   kernel32:KERNEL32.dll
 0001:0003b3ff       _GetModuleHandleA@4        1003c3ff f   kernel32:KERNEL32.dll
 0001:0003b405       _GetComputerNameA@8        1003c405 f   kernel32:KERNEL32.dll
 0001:0003b40b       _WaitForMultipleObjects@16 1003c40b f   kernel32:KERNEL32.dll
 0001:0003b411       _SetThreadPriority@8       1003c411 f   kernel32:KERNEL32.dll
 0001:0003b417       _SetPriorityClass@8        1003c417 f   kernel32:KERNEL32.dll
 0001:0003b41d       _GetSystemInfo@4           1003c41d f   kernel32:KERNEL32.dll
 0001:0003b423       _SetUnhandledExceptionFilter@4 1003c423 f   kernel32:KERNEL32.dll
 0001:0003b429       _GetTempPathA@8            1003c429 f   kernel32:KERNEL32.dll
 0001:0003b42f       _GetTempFileNameA@16       1003c42f f   kernel32:KERNEL32.dll
 0001:0003b435       _Msg                       1003c435 f   tier0:tier0.dll
 0001:0003b43b       _Warning                   1003c43b f   tier0:tier0.dll
 0001:0003b441       _Error                     1003c441 f   tier0:tier0.dll
 0001:0003b447       _SpewOutputFunc            1003c447 f   tier0:tier0.dll
 0001:0003b44d       _CommandLine_Tier0         1003c44d f   tier0:tier0.dll
 0001:0003b453       _Plat_FloatTime            1003c453 f   tier0:tier0.dll
 0001:0003b459       _WriteMiniDumpUsingExceptionInfo 1003c459 f   tier0:tier0.dll
 0001:0003b45f       ??0CUniformRandomStream@@QAE@XZ 1003c45f f   vstdlib:vstdlib.dll
 0001:0003b465       ?SetSeed@CUniformRandomStream@@UAEXH@Z 1003c465 f   vstdlib:vstdlib.dll
 0001:0003b46b       ?RandomInt@CUniformRandomStream@@UAEHHH@Z 1003c46b f   vstdlib:vstdlib.dll
 0001:0003b471       _RandomInt                 1003c471 f   vstdlib:vstdlib.dll
 0001:0003b477       _RandomSeed                1003c477 f   vstdlib:vstdlib.dll
 0001:0003b480       ?_sqrtf@@YAMM@Z            1003c480 f   mathlib:mathlib_base.obj
 0001:0003b4d0       ?_rsqrtf@@YAMM@Z           1003c4d0 f   mathlib:mathlib_base.obj
 0001:0003b520       ?_InvRSquared@@YAMPBM@Z    1003c520 f   mathlib:mathlib_base.obj
 0001:0003b570       _cosf                      1003c570 f i mathlib:mathlib_base.obj
 0001:0003b590       ?_VectorNormalize@@YIMAAVVector@@@Z 1003c590 f   mathlib:mathlib_base.obj
 0001:0003b650       ?_VectorNormalizeFast@@YIXAAVVector@@@Z 1003c650 f   mathlib:mathlib_base.obj
 0001:0003b700       ?SinCos@@YAXMPAM0@Z        1003c700 f i mathlib:mathlib_base.obj
 0001:0003b720       ?AddPointToBounds@@YAXABVVector@@AAV1@1@Z 1003c720 f   mathlib:mathlib_base.obj
 0001:0003b790       ?AngleDiff@@YAMMM@Z        1003c790 f   mathlib:mathlib_base.obj
 0001:0003b810       ?AngleDistance@@YAMMM@Z    1003c810 f   mathlib:mathlib_base.obj
 0001:0003b860       ?AngleIMatrix@@YAXABVQAngle@@AAUmatrix3x4_t@@@Z 1003c860 f   mathlib:mathlib_base.obj
 0001:0003b9d0       ?AngleIMatrix@@YAXABVQAngle@@ABVVector@@AAUmatrix3x4_t@@@Z 1003c9d0 f   mathlib:mathlib_base.obj
 0001:0003ba70       ?AngleIMatrix@@YAXABVRadianEuler@@AAUmatrix3x4_t@@@Z 1003ca70 f   mathlib:mathlib_base.obj
 0001:0003bac0       ?AngleMatrix@@YAXABVQAngle@@AAUmatrix3x4_t@@@Z 1003cac0 f   mathlib:mathlib_base.obj
 0001:0003bc30       ?AngleMatrix@@YAXABVQAngle@@ABVVector@@AAUmatrix3x4_t@@@Z 1003cc30 f   mathlib:mathlib_base.obj
 0001:0003bc60       ?AngleMatrix@@YAXABVRadianEuler@@AAUmatrix3x4_t@@@Z 1003cc60 f   mathlib:mathlib_base.obj
 0001:0003bcb0       ?AngleMatrix@@YAXABVRadianEuler@@ABVVector@@AAUmatrix3x4_t@@@Z 1003ccb0 f   mathlib:mathlib_base.obj
 0001:0003bd20       ?AngleNormalize@@YAMM@Z    1003cd20 f   mathlib:mathlib_base.obj
 0001:0003bd80       ?AngleNormalizePositive@@YAMM@Z 1003cd80 f   mathlib:mathlib_base.obj
 0001:0003bdd0       ?AngleQuaternion@@YAXABVQAngle@@AAVQuaternion@@@Z 1003cdd0 f   mathlib:mathlib_base.obj
 0001:0003bf00       ?AngleQuaternion@@YAXABVRadianEuler@@AAVQuaternion@@@Z 1003cf00 f   mathlib:mathlib_base.obj
 0001:0003c020       ?AngleVectors@@YAXABVQAngle@@PAVVector@@11@Z 1003d020 f   mathlib:mathlib_base.obj
 0001:0003c1b0       ?AngleVectors@@YAXABVQAngle@@PAVVector@@@Z 1003d1b0 f   mathlib:mathlib_base.obj
 0001:0003c250       ?AngleVectorsTranspose@@YAXABVQAngle@@PAVVector@@11@Z 1003d250 f   mathlib:mathlib_base.obj
 0001:0003c3c0       ?AnglesAreEqual@@YA_NMMM@Z 1003d3c0 f   mathlib:mathlib_base.obj
 0001:0003c440       ?Approach@@YAMMMM@Z        1003d440 f   mathlib:mathlib_base.obj
 0001:0003c4a0       ?ApproachAngle@@YAMMMM@Z   1003d4a0 f   mathlib:mathlib_base.obj
 0001:0003c570       ?AxisAngleQuaternion@@YAXABVVector@@MAAVQuaternion@@@Z 1003d570 f   mathlib:mathlib_base.obj
 0001:0003c5f0       ?BSpline@@YAXABVVector@@000MAAV1@@Z 1003d5f0 f   mathlib:mathlib_base.obj
 0001:0003c950       ?BSpline_NormalizeX@@YAXABVVector@@000MAAV1@@Z 1003d950 f   mathlib:mathlib_base.obj
 0001:0003ca80       ?BasisToQuaternion@@YAXABVVector@@00AAVQuaternion@@@Z 1003da80 f   mathlib:mathlib_base.obj
 0001:0003cb40       ?Bias@@YAMMM@Z             1003db40 f   mathlib:mathlib_base.obj
 0001:0003cba0       ?BoxOnPlaneSide@@YAHPBM0PBUcplane_t@@@Z 1003dba0 f   mathlib:mathlib_base.obj
 0001:0003cdd0       ?BuildExponentTable@@YAXXZ 1003ddd0 f   mathlib:mathlib_base.obj
 0001:0003ce20       ?BuildGammaTable@@YAXMMMH@Z 1003de20 f   mathlib:mathlib_base.obj
 0001:0003d280       ?CalcClosestPointOnAABB@@YAXABVVector@@00AAV1@@Z 1003e280 f   mathlib:mathlib_base.obj
 0001:0003d300       ?CalcClosestPointOnLine2D@@YAXABVVector2D@@00AAV1@PAM@Z 1003e300 f   mathlib:mathlib_base.obj
 0001:0003d3b0       ?CalcClosestPointOnLine@@YAXABVVector@@00AAV1@PAM@Z 1003e3b0 f   mathlib:mathlib_base.obj
 0001:0003d490       ?CalcClosestPointOnLineSegment2D@@YAXABVVector2D@@00AAV1@PAM@Z 1003e490 f   mathlib:mathlib_base.obj
 0001:0003d550       ?CalcClosestPointOnLineSegment@@YAXABVVector@@00AAV1@PAM@Z 1003e550 f   mathlib:mathlib_base.obj
 0001:0003d640       ?CalcClosestPointToLineT2D@@YAMABVVector2D@@00AAV1@@Z 1003e640 f   mathlib:mathlib_base.obj
 0001:0003d6c0       ?CalcClosestPointToLineT@@YAMABVVector@@00AAV1@@Z 1003e6c0 f   mathlib:mathlib_base.obj
 0001:0003d770       ?CalcDistanceSqrToLine2D@@YAMABVVector2D@@00PAM@Z 1003e770 f   mathlib:mathlib_base.obj
 0001:0003d830       ?CalcDistanceSqrToLine@@YAMABVVector@@00PAM@Z 1003e830 f   mathlib:mathlib_base.obj
 0001:0003d930       ?CalcDistanceSqrToLineSegment2D@@YAMABVVector2D@@00PAM@Z 1003e930 f   mathlib:mathlib_base.obj
 0001:0003da00       ?CalcDistanceSqrToLineSegment@@YAMABVVector@@00PAM@Z 1003ea00 f   mathlib:mathlib_base.obj
 0001:0003db10       ?CalcDistanceToLine2D@@YAMABVVector2D@@00PAM@Z 1003eb10 f   mathlib:mathlib_base.obj
 0001:0003dbe0       ?CalcDistanceToLine@@YAMABVVector@@00PAM@Z 1003ebe0 f   mathlib:mathlib_base.obj
 0001:0003dcf0       ?CalcDistanceToLineSegment2D@@YAMABVVector2D@@00PAM@Z 1003ecf0 f   mathlib:mathlib_base.obj
 0001:0003ddd0       ?CalcDistanceToLineSegment@@YAMABVVector@@00PAM@Z 1003edd0 f   mathlib:mathlib_base.obj
 0001:0003def0       ?CalcLineToLineIntersectionSegment@@YA_NABVVector@@000PAV1@1PAM2@Z 1003eef0 f   mathlib:mathlib_base.obj
 0001:0003e170       ?CalcSqrDistanceToAABB@@YAMABVVector@@00@Z 1003f170 f   mathlib:mathlib_base.obj
 0001:0003e240       ?Catmull_Rom_Spline@@YAXABVVector@@000MAAV1@@Z 1003f240 f   mathlib:mathlib_base.obj
 0001:0003e570       ?Catmull_Rom_Spline_Normalize@@YAXABVVector@@000MAAV1@@Z 1003f570 f   mathlib:mathlib_base.obj
 0001:0003e690       ?Catmull_Rom_Spline_NormalizeX@@YAXABVVector@@000MAAV1@@Z 1003f690 f   mathlib:mathlib_base.obj
 0001:0003e7c0       ?Catmull_Rom_Spline_Tangent@@YAXABVVector@@000MAAV1@@Z 1003f7c0 f   mathlib:mathlib_base.obj
 0001:0003ead0       ?CeilPow2@@YAHH@Z          1003fad0 f   mathlib:mathlib_base.obj
 0001:0003eaf0       ?ClearBounds@@YAXAAVVector@@0@Z 1003faf0 f   mathlib:mathlib_base.obj
 0001:0003eb30       ?ClipPolyToPlane@@YAHPAVVector@@H0ABV1@MM@Z 1003fb30 f   mathlib:mathlib_base.obj
 0001:0003ef30       ?ClipPolyToPlane_Precise@@YAHPANH0PBNNN@Z 1003ff30 f   mathlib:mathlib_base.obj
 0001:0003f240       ?ColorRGBExp32ToVector@@YAXABUColorRGBExp32@@AAVVector@@@Z 10040240 f   mathlib:mathlib_base.obj
 0001:0003f2c0       ?ComputeTrianglePlane@@YAXABVVector@@00AAV1@AAM@Z 100402c0 f   mathlib:mathlib_base.obj
 0001:0003f380       ?ConcatRotations@@YAXQAY02$$CBM0QAY02M@Z 10040380 f   mathlib:mathlib_base.obj
 0001:0003f510       ?ConcatTransforms@@YAXABUmatrix3x4_t@@0AAU1@@Z 10040510 f   mathlib:mathlib_base.obj
 0001:0003f7b0       ?CrossProduct@@YAXPBM0PAM@Z 100407b0 f   mathlib:mathlib_base.obj
 0001:0003f810       ?Cubic_Spline@@YAXABVVector@@000MAAV1@@Z 10040810 f   mathlib:mathlib_base.obj
 0001:0003f960       ?Cubic_Spline_NormalizeX@@YAXABVVector@@000MAAV1@@Z 10040960 f   mathlib:mathlib_base.obj
 0001:0003fab0       ?FloorDivMod@@YAXNNPAH0@Z  10040ab0 f   mathlib:mathlib_base.obj
 0001:0003fbd0       ?FloorPow2@@YAHH@Z         10040bd0 f   mathlib:mathlib_base.obj
 0001:0003fbf0       ?Gain@@YAMMM@Z             10040bf0 f   mathlib:mathlib_base.obj
 0001:0003fcf0       ?GammaToLinear@@YAMM@Z     10040cf0 f   mathlib:mathlib_base.obj
 0001:0003fd40       ?GammaToLinearFullRange@@YAMM@Z 10040d40 f   mathlib:mathlib_base.obj
 0001:0003fd70       ?GreatestCommonDivisor@@YAHHH@Z 10040d70 f   mathlib:mathlib_base.obj
 0001:0003fdb0       ?Hermite_Spline@@YAMMMMM@Z 10040db0 f   mathlib:mathlib_base.obj
 0001:0003fe40       ?Hermite_Spline@@YAMMMMMM@Z 10040e40 f   mathlib:mathlib_base.obj
 0001:0003fec0       ?Hermite_Spline@@YAXABVQuaternion@@00MAAV1@@Z 10040ec0 f   mathlib:mathlib_base.obj
 0001:00040320       ?Hermite_Spline@@YAXABVVector@@000MAAV1@@Z 10041320 f   mathlib:mathlib_base.obj
 0001:00040400       ?Hermite_Spline@@YAXABVVector@@00MAAV1@@Z 10041400 f   mathlib:mathlib_base.obj
 0001:000404c0       ?Hermite_SplineBasis@@YAXMQAM@Z 100414c0 f   mathlib:mathlib_base.obj
 0001:00040530       ?IRotateAABB@@YAXABUmatrix3x4_t@@ABVVector@@1AAV2@2@Z 10041530 f   mathlib:mathlib_base.obj
 0001:00040740       ?ITransformAABB@@YAXABUmatrix3x4_t@@ABVVector@@1AAV2@2@Z 10041740 f   mathlib:mathlib_base.obj
 0001:00040990       ?InitSinCosTable@@YAXXZ    10041990 f   mathlib:mathlib_base.obj
 0001:000409d0       ?IsDenormal@@YA_NABM@Z     100419d0 f   mathlib:mathlib_base.obj
 0001:000409f0       ?Kochanek_Bartels_Spline@@YAXMMMABVVector@@000MAAV1@@Z 100419f0 f   mathlib:mathlib_base.obj
 0001:00040e40       ?Kochanek_Bartels_Spline_NormalizeX@@YAXMMMABVVector@@000MAAV1@@Z 10041e40 f   mathlib:mathlib_base.obj
 0001:00040f90       ?LineSphereIntersection@@YAHABVVector@@M00PAM1@Z 10041f90 f   mathlib:mathlib_base.obj
 0001:000410c0       ?LinearToGamma@@YAMM@Z     100420c0 f   mathlib:mathlib_base.obj
 0001:00041110       ?LinearToGammaFullRange@@YAMM@Z 10042110 f   mathlib:mathlib_base.obj
 0001:00041140       ?LinearToScreenGamma@@YAHM@Z 10042140 f   mathlib:mathlib_base.obj
 0001:00041170       ?LinearToTexture@@YAHM@Z   10042170 f   mathlib:mathlib_base.obj
 0001:000411a0       ?MathLib_3DNowEnabled@@YA_NXZ 100421a0 f   mathlib:mathlib_base.obj
 0001:000411b0       ?MathLib_Init@@YAXMMMH_N000@Z 100421b0 f   mathlib:mathlib_base.obj
 0001:00041390       ?MathLib_MMXEnabled@@YA_NXZ 10042390 f   mathlib:mathlib_base.obj
 0001:000413a0       ?MathLib_SSE2Enabled@@YA_NXZ 100423a0 f   mathlib:mathlib_base.obj
 0001:000413b0       ?MathLib_SSEEnabled@@YA_NXZ 100423b0 f   mathlib:mathlib_base.obj
 0001:000413c0       ?MatrixAngles@@YAXABUmatrix3x4_t@@AAVQuaternion@@AAVVector@@@Z 100423c0 f   mathlib:mathlib_base.obj
 0001:00041600       ?MatrixAngles@@YAXABUmatrix3x4_t@@AAVRadianEuler@@AAVVector@@@Z 10042600 f   mathlib:mathlib_base.obj
 0001:00041660       ?MatrixAngles@@YAXABUmatrix3x4_t@@PAM@Z 10042660 f   mathlib:mathlib_base.obj
 0001:00041840       ?MatrixCopy@@YAXABUmatrix3x4_t@@AAU1@@Z 10042840 f   mathlib:mathlib_base.obj
 0001:00041870       ?MatrixGetColumn@@YAXABUmatrix3x4_t@@HAAVVector@@@Z 10042870 f   mathlib:mathlib_base.obj
 0001:000418a0       ?MatrixInitialize@@YAXAAUmatrix3x4_t@@ABVVector@@111@Z 100428a0 f   mathlib:mathlib_base.obj
 0001:00041900       ?MatrixInvert@@YAXABUmatrix3x4_t@@AAU1@@Z 10042900 f   mathlib:mathlib_base.obj
 0001:00041a20       ?MatrixSetColumn@@YAXABVVector@@HAAUmatrix3x4_t@@@Z 10042a20 f   mathlib:mathlib_base.obj
 0001:00041a50       ?Parabolic_Spline@@YAXABVVector@@000MAAV1@@Z 10042a50 f   mathlib:mathlib_base.obj
 0001:00041c50       ?Parabolic_Spline_NormalizeX@@YAXABVVector@@000MAAV1@@Z 10042c50 f   mathlib:mathlib_base.obj
 0001:00041e90       ?PolyFromPlane@@YAHPAVVector@@ABV1@MM@Z 10042e90 f   mathlib:mathlib_base.obj
 0001:00042150       ?Q_log2@@YAHH@Z            10043150 f   mathlib:mathlib_base.obj
 0001:00042170       ?QuaternionAdd@@YAXABVQuaternion@@0AAV1@@Z 10043170 f   mathlib:mathlib_base.obj
 0001:000422c0       ?QuaternionAlign@@YAXABVQuaternion@@0AAV1@@Z 100432c0 f   mathlib:mathlib_base.obj
 0001:000423f0       ?QuaternionAngleDiff@@YAMABVQuaternion@@0@Z 100433f0 f   mathlib:mathlib_base.obj
 0001:000424c0       ?QuaternionAngles@@YAXABVQuaternion@@AAVQAngle@@@Z 100434c0 f   mathlib:mathlib_base.obj
 0001:00042620       ?QuaternionAngles@@YAXABVQuaternion@@AAVRadianEuler@@@Z 10043620 f   mathlib:mathlib_base.obj
 0001:000427b0       ?QuaternionAxisAngle@@YAXABVQuaternion@@AAVVector@@AAM@Z 100437b0 f   mathlib:mathlib_base.obj
 0001:00042810       ?QuaternionBlend@@YAXABVQuaternion@@0MAAV1@@Z 10043810 f   mathlib:mathlib_base.obj
 0001:00042a60       ?QuaternionBlendNoAlign@@YAXABVQuaternion@@0MAAV1@@Z 10043a60 f   mathlib:mathlib_base.obj
 0001:00042ba0       ?QuaternionConjugate@@YAXABVQuaternion@@AAV1@@Z 10043ba0 f   mathlib:mathlib_base.obj
 0001:00042be0       ?QuaternionDotProduct@@YAMABVQuaternion@@0@Z 10043be0 f   mathlib:mathlib_base.obj
 0001:00042c30       ?QuaternionIdentityBlend@@YAXABVQuaternion@@MAAV1@@Z 10043c30 f   mathlib:mathlib_base.obj
 0001:00042d50       ?QuaternionInvert@@YAXABVQuaternion@@AAV1@@Z 10043d50 f   mathlib:mathlib_base.obj
 0001:00042df0       ?QuaternionMatrix@@YAXABVQuaternion@@AAUmatrix3x4_t@@@Z 10043df0 f   mathlib:mathlib_base.obj
 0001:00042fb0       ?QuaternionMatrix@@YAXABVQuaternion@@ABVVector@@AAUmatrix3x4_t@@@Z 10043fb0 f   mathlib:mathlib_base.obj
 0001:00043180       ?QuaternionMult@@YAXABVQuaternion@@0AAV1@@Z 10044180 f   mathlib:mathlib_base.obj
 0001:000432a0       ?QuaternionNormalize@@YAMAAVQuaternion@@@Z 100442a0 f   mathlib:mathlib_base.obj
 0001:00043390       ?QuaternionScale@@YAXABVQuaternion@@MAAV1@@Z 10044390 f   mathlib:mathlib_base.obj
 0001:000434b0       ?QuaternionSlerp@@YAXABVQuaternion@@0MAAV1@@Z 100444b0 f   mathlib:mathlib_base.obj
 0001:000435d0       ?QuaternionSlerpNoAlign@@YAXABVQuaternion@@0MAAV1@@Z 100445d0 f   mathlib:mathlib_base.obj
 0001:00043810       ?R_CullBox@@YA_NABVVector@@0ABVFrustum_t@@@Z 10044810 f   mathlib:mathlib_base.obj
 0001:000438a0       ?R_CullBoxSkipNear@@YA_NABVVector@@0ABVFrustum_t@@@Z 100448a0 f   mathlib:mathlib_base.obj
 0001:00043920       ?RangeCompressor@@YAMMMMM@Z 10044920 f   mathlib:mathlib_base.obj
 0001:00043a50       ?RotateAABB@@YAXABUmatrix3x4_t@@ABVVector@@1AAV2@2@Z 10044a50 f   mathlib:mathlib_base.obj
 0001:00043c90       ?RotationDelta@@YAXABVQAngle@@0PAV1@@Z 10044c90 f   mathlib:mathlib_base.obj
 0001:00043d40       ?RotationDeltaAxisAngle@@YAXABVQAngle@@0AAVVector@@AAM@Z 10044d40 f   mathlib:mathlib_base.obj
 0001:00043fd0       ?SetIdentityMatrix@@YAXAAUmatrix3x4_t@@@Z 10044fd0 f   mathlib:mathlib_base.obj
 0001:00044030       ?SignbitsForPlane@@YAHPAUcplane_t@@@Z 10045030 f   mathlib:mathlib_base.obj
 0001:00044060       ?SmoothCurve@@YAMM@Z       10045060 f   mathlib:mathlib_base.obj
 0001:000440a0       ?SmoothCurve_Tweak@@YAMMMM@Z 100450a0 f   mathlib:mathlib_base.obj
 0001:00044210       ?SolveInverseQuadratic@@YA_NMMMMMMAAM00@Z 10045210 f   mathlib:mathlib_base.obj
 0001:00044350       ?SolveInverseQuadraticMonotonic@@YA_NMMMMMMAAM00@Z 10045350 f   mathlib:mathlib_base.obj
 0001:000445d0       ?SolveInverseReciprocalQuadratic@@YA_NMMMMMMAAM00@Z 100455d0 f   mathlib:mathlib_base.obj
 0001:00044730       ?SolveQuadratic@@YA_NMMMAAM0@Z 10045730 f   mathlib:mathlib_base.obj
 0001:00044820       ?SphereToAABBIntersection@@YA_NABVVector@@M00@Z 10045820 f   mathlib:mathlib_base.obj
 0001:000448b0       ?Spline_Normalize@@YAXABVVector@@000AAV1@1@Z 100458b0 f   mathlib:mathlib_base.obj
 0001:000449c0       ?TextureToLinear@@YAMH@Z   100459c0 f   mathlib:mathlib_base.obj
 0001:000449f0       ?TransformAABB@@YAXABUmatrix3x4_t@@ABVVector@@1AAV2@2@Z 100459f0 f   mathlib:mathlib_base.obj
 0001:00044c40       ?TransformAndRotate@@YAXABVVector@@0ABUmatrix3x4_t@@AAV1@2@Z 10045c40 f   mathlib:mathlib_base.obj
 0001:00044d50       ?TransformAnglesToLocalSpace@@YA?AVQAngle@@ABV1@ABUmatrix3x4_t@@@Z 10045d50 f   mathlib:mathlib_base.obj
 0001:00044dc0       ?TransformAnglesToWorldSpace@@YA?AVQAngle@@ABV1@ABUmatrix3x4_t@@@Z 10045dc0 f   mathlib:mathlib_base.obj
 0001:00044e30       ?VectorAngles@@YAXABVVector@@0AAVQAngle@@@Z 10045e30 f   mathlib:mathlib_base.obj
 0001:00045070       ?VectorAngles@@YAXABVVector@@AAVQAngle@@@Z 10046070 f   mathlib:mathlib_base.obj
 0001:000451c0       ?VectorAngles@@YAXPBMPAM@Z 100461c0 f   mathlib:mathlib_base.obj
 0001:00045320       ?VectorCompare@@YAHPBM0@Z  10046320 f   mathlib:mathlib_base.obj
 0001:00045360       ?VectorIRotate@@YAXPBMABUmatrix3x4_t@@PAM@Z 10046360 f   mathlib:mathlib_base.obj
 0001:000453f0       ?VectorITransform@@YAXPBMABUmatrix3x4_t@@PAM@Z 100463f0 f   mathlib:mathlib_base.obj
 0001:00045480       ?VectorMA@@YAXABVVector@@M0AAV1@@Z 10046480 f   mathlib:mathlib_base.obj
 0001:000454c0       ?VectorMA@@YAXPBMM0PAM@Z   100464c0 f   mathlib:mathlib_base.obj
 0001:00045500       ?VectorMatrix@@YAXABVVector@@AAUmatrix3x4_t@@@Z 10046500 f   mathlib:mathlib_base.obj
 0001:00045640       ?VectorRotate@@YAXABVVector@@ABVQAngle@@AAV1@@Z 10046640 f   mathlib:mathlib_base.obj
 0001:00045700       ?VectorRotate@@YAXPBMABUmatrix3x4_t@@PAM@Z 10046700 f   mathlib:mathlib_base.obj
 0001:00045790       ?VectorRotateSSE@@YAXPBMABUmatrix3x4_t@@PAM@Z 10046790 f   mathlib:mathlib_base.obj
 0001:00045820       ?VectorToColorRGBExp32@@YAXABVVector@@AAUColorRGBExp32@@@Z 10046820 f   mathlib:mathlib_base.obj
 0001:00045930       ?VectorTransform@@YAXPBMABUmatrix3x4_t@@PAM@Z 10046930 f   mathlib:mathlib_base.obj
 0001:000459d0       ?VectorTransformSSE@@YAXPBMABUmatrix3x4_t@@PAM@Z 100469d0 f   mathlib:mathlib_base.obj
 0001:00045a70       ?VectorVectors@@YAXABVVector@@AAV1@1@Z 10046a70 f   mathlib:mathlib_base.obj
 0001:00045b90       ?VectorYawRotate@@YAXABVVector@@MAAV1@@Z 10046b90 f   mathlib:mathlib_base.obj
 0001:00045c50       ?VectorsEqual@@YAHPBM0@Z   10046c50 f   mathlib:mathlib_base.obj
 0001:00045c90       ?_3DNow_InvRSquared@@YAMPBM@Z 10046c90 f   mathlib:mathlib_base.obj
 0001:00045ce0       ?_3DNow_RSqrt@@YAMM@Z      10046ce0 f   mathlib:mathlib_base.obj
 0001:00045d00       ?_3DNow_Sqrt@@YAMM@Z       10046d00 f   mathlib:mathlib_base.obj
 0001:00045d30       ?_3DNow_VectorNormalize@@YIMAAVVector@@@Z 10046d30 f   mathlib:mathlib_base.obj
 0001:00045dc0       ?_3DNow_VectorNormalizeFast@@YIXAAVVector@@@Z 10046dc0 f   mathlib:mathlib_base.obj
 0001:00045dd0       ?_SSE2_SinCos@@YAXMPAM0@Z  10046dd0 f   mathlib:mathlib_base.obj
 0001:00045ef0       ?_SSE2_cos@@YAMM@Z         10046ef0 f   mathlib:mathlib_base.obj
 0001:00045fc0       ?_SSE_InvRSquared@@YAMPBM@Z 10046fc0 f   mathlib:mathlib_base.obj
 0001:00046010       ?_SSE_RSqrtAccurate@@YAMM@Z 10047010 f i mathlib:mathlib_base.obj
 0001:00046060       ?_SSE_RSqrtFast@@YAMM@Z    10047060 f i mathlib:mathlib_base.obj
 0001:00046080       ?_SSE_SinCos@@YAXMPAM0@Z   10047080 f   mathlib:mathlib_base.obj
 0001:000461c0       ?_SSE_Sqrt@@YAMM@Z         100471c0 f   mathlib:mathlib_base.obj
 0001:000461e0       ?_SSE_VectorMA@@YAXPBMM0PAM@Z 100471e0 f   mathlib:mathlib_base.obj
 0001:00046210       ?_SSE_VectorNormalize@@YIMAAVVector@@@Z 10047210 f   mathlib:mathlib_base.obj
 0001:000462e0       ?_SSE_VectorNormalizeFast@@YIXAAVVector@@@Z 100472e0 f   mathlib:mathlib_base.obj
 0001:00046380       ?_SSE_cos@@YAMM@Z          10047380 f   mathlib:mathlib_base.obj
 0001:00046450       ?CharacterSetBuild@@YAXPAUcharacterset_s@@PBD@Z 10047450 f   tier1:characterset.obj
 0001:000464a0       ?AddToTail@?$CUtlVector@PADV?$CUtlMemory@PAD@@@@QAEHABQAD@Z 100474a0 f i tier1:strtools.obj
 0001:00046550       ?AllocString@@YAPADPBDH@Z  10047550 f   tier1:strtools.obj
 0001:00046630       ?Grow@?$CUtlMemory@PAD@@QAEXH@Z 10047630 f i tier1:strtools.obj
 0001:000466a0       ?GrowVector@?$CUtlVector@PADV?$CUtlMemory@PAD@@@@IAEXH@Z 100476a0 f i tier1:strtools.obj
 0001:00046730       ?InsertBefore@?$CUtlVector@PADV?$CUtlMemory@PAD@@@@QAEHHABQAD@Z 10047730 f i tier1:strtools.obj
 0001:000467e0       ?IsExternallyAllocated@?$CUtlMemory@PAD@@QBE_NXZ 100477e0 f i tier1:strtools.obj
 0001:000467f0       ?Purge@?$CUtlMemory@PAD@@QAEXXZ 100477f0 f i tier1:strtools.obj
 0001:00046820       ?RemoveAll@?$CUtlVector@PADV?$CUtlMemory@PAD@@@@QAEXXZ 10047820 f i tier1:strtools.obj
 0001:00046830       ?ShiftElementsRight@?$CUtlVector@PADV?$CUtlMemory@PAD@@@@IAEXHH@Z 10047830 f i tier1:strtools.obj
 0001:00046870       ?V_AppendSlash@@YAXPADH@Z  10047870 f   tier1:strtools.obj
 0001:000468c0       ?V_ComposeFileName@@YAXPBD0PADH@Z 100478c0 f   tier1:strtools.obj
 0001:000469c0       ?V_DefaultExtension@@YAXPADPBDH@Z 100479c0 f   tier1:strtools.obj
 0001:00046a70       ?V_ExtractFileExtension@@YAXPBDPADH@Z 10047a70 f   tier1:strtools.obj
 0001:00046ae0       ?V_ExtractFilePath@@YA_NPBDPADH@Z 10047ae0 f   tier1:strtools.obj
 0001:00046b50       ?V_FileBase@@YAXPBDPADH@Z  10047b50 f   tier1:strtools.obj
 0001:00046c10       ?V_FixSlashes@@YAXPADD@Z   10047c10 f   tier1:strtools.obj
 0001:00046c40       ?V_GetFileExtension@@YAPBDPBD@Z 10047c40 f   tier1:strtools.obj
 0001:00046c90       ?V_IsAbsolutePath@@YA_NPBD@Z 10047c90 f   tier1:strtools.obj
 0001:00046cc0       ?V_MakeAbsolutePath@@YAXPADHPBD1@Z 10047cc0 f   tier1:strtools.obj
 0001:00046e60       ?V_RemoveDotSlashes@@YA_NPAD@Z 10047e60 f   tier1:strtools.obj
 0001:00046f80       ?V_SetExtension@@YAXPADPBDH@Z 10047f80 f   tier1:strtools.obj
 0001:00047070       ?V_SplitString2@@YAXPBDPAPBDHAAV?$CUtlVector@PADV?$CUtlMemory@PAD@@@@@Z 10048070 f   tier1:strtools.obj
 0001:000472b0       ?V_SplitString@@YAXPBD0AAV?$CUtlVector@PADV?$CUtlMemory@PAD@@@@@Z 100482b0 f   tier1:strtools.obj
 0001:000472d0       ?V_StrLeft@@YAXPBDHPADH@Z  100482d0 f   tier1:strtools.obj
 0001:00047300       ?V_StrRight@@YAXPBDHPADH@Z 10048300 f   tier1:strtools.obj
 0001:00047380       ?V_StrSlice@@YAXPBDHHPADH@Z 10048380 f   tier1:strtools.obj
 0001:00047420       ?V_StrSubst@@YA_NPBD00PADH_N@Z 10048420 f   tier1:strtools.obj
 0001:00047540       ?V_StripExtension@@YAXPBDPADH@Z 10048540 f   tier1:strtools.obj
 0001:000475e0       ?V_StripFilename@@YAXPAD@Z 100485e0 f   tier1:strtools.obj
 0001:00047620       ?V_StripLastDir@@YA_NPADH@Z 10048620 f   tier1:strtools.obj
 0001:000476d0       ?V_StripTrailingSlash@@YAXPAD@Z 100486d0 f   tier1:strtools.obj
 0001:00047710       ?V_UTF8ToUnicode@@YAHPBDPA_WH@Z 10048710 f   tier1:strtools.obj
 0001:00047760       ?V_UnicodeToUTF8@@YAHPB_WPADH@Z 10048760 f   tier1:strtools.obj
 0001:000477b0       ?V_UnqualifiedFileName@@YAPBDPBD@Z 100487b0 f   tier1:strtools.obj
 0001:000477f0       ?V_atof@@YAMPBD@Z          100487f0 f   tier1:strtools.obj
 0001:00047a10       ?V_atoi@@YAHPBD@Z          10048a10 f   tier1:strtools.obj
 0001:00047ae0       ?V_binarytohex@@YAXPBEHPADH@Z 10048ae0 f   tier1:strtools.obj
 0001:00047bb0       ?V_hextobinary@@YAXPBDHPAEH@Z 10048bb0 f   tier1:strtools.obj
 0001:00047c70       ?V_normalizeFloatString@@YAXPAD@Z 10048c70 f   tier1:strtools.obj
 0001:00047cd0       ?V_pretifymem@@YAPADMH_N@Z 10048cd0 f   tier1:strtools.obj
 0001:00047e90       ?V_pretifynum@@YAPAD_J@Z   10048e90 f   tier1:strtools.obj
 0001:000481d0       ?V_snprintf@@YAHPADHPBDZZ  100491d0 f   tier1:strtools.obj
 0001:00048230       ?V_strcasecmp@@YAHPBD0@Z   10049230 f   tier1:strtools.obj
 0001:00048270       ?V_stristr@@YAPADPADPBD@Z  10049270 f   tier1:strtools.obj
 0001:000482a0       ?V_stristr@@YAPBDPBD0@Z    100492a0 f   tier1:strtools.obj
 0001:00048370       ?V_strncasecmp@@YAHPBD0H@Z 10049370 f   tier1:strtools.obj
 0001:00048400       ?V_strncat@@YAPADPADPBDIH@Z 10049400 f   tier1:strtools.obj
 0001:00048490       ?V_strnchr@@YAPBDPBDDH@Z   10049490 f   tier1:strtools.obj
 0001:000484c0       ?V_strncmp@@YAHPBD0H@Z     100494c0 f   tier1:strtools.obj
 0001:00048520       ?V_strncpy@@YAXPADPBDH@Z   10049520 f   tier1:strtools.obj
 0001:00048560       ?V_strnicmp@@YAHPBD0H@Z    10049560 f   tier1:strtools.obj
 0001:00048590       ?V_strnistr@@YAPBDPBD0H@Z  10049590 f   tier1:strtools.obj
 0001:00048680       ?V_strnlwr@@YAPADPADI@Z    10049680 f   tier1:strtools.obj
 0001:000486c0       ?V_strtowcs@@YAXPBDHPA_WH@Z 100496c0 f   tier1:strtools.obj
 0001:000486f0       ?V_vsnprintf@@YAHPADHPBD0@Z 100496f0 f   tier1:strtools.obj
 0001:00048750       ?V_wcsncpy@@YAXPA_WPB_WH@Z 10049750 f   tier1:strtools.obj
 0001:00048790       ?V_wcstostr@@YAXPB_WHPADH@Z 10049790 f   tier1:strtools.obj
 0001:000487c0       ?_V_memcmp@@YAHPBDHPBX1H@Z 100497c0 f   tier1:strtools.obj
 0001:00048850       ?_V_memcpy@@YAXPBDHPAXPBXH@Z 10049850 f   tier1:strtools.obj
 0001:00048880       ?_V_memmove@@YAXPBDHPAXPBXH@Z 10049880 f   tier1:strtools.obj
 0001:000488b0       ?_V_memset@@YAXPBDHPAXHH@Z 100498b0 f   tier1:strtools.obj
 0001:000488e0       ?_V_strcmp@@YAHPBDH00@Z    100498e0 f   tier1:strtools.obj
 0001:00048940       ?_V_strcpy@@YAXPBDHPAD0@Z  10049940 f   tier1:strtools.obj
 0001:00048980       ?_V_stricmp@@YAHPBDH00@Z   10049980 f   tier1:strtools.obj
 0001:000489b0       ?_V_strlen@@YAHPBDH0@Z     100499b0 f   tier1:strtools.obj
 0001:000489e0       ?_V_strlower@@YAPADPBDHPAD@Z 100499e0 f   tier1:strtools.obj
 0001:00048a00       ?_V_strrchr@@YAPADPBDH0D@Z 10049a00 f   tier1:strtools.obj
 0001:00048a50       ?_V_strstr@@YAPADPBDH00@Z  10049a50 f   tier1:strtools.obj
 0001:00048a80       ?_V_strupr@@YAPADPBDHPAD@Z 10049a80 f   tier1:strtools.obj
 0001:00048aa0       ?_V_wcscmp@@YAHPBDHPB_W1@Z 10049aa0 f   tier1:strtools.obj
 0001:00048ae0       ?_V_wcslen@@YAHPBDHPB_W@Z  10049ae0 f   tier1:strtools.obj
 0001:00048b10       ??$GetType@E@CUtlBuffer@@IAEXAAEPBD@Z 10049b10 f i tier1:KeyValues.obj
 0001:00048b70       ??$GetType@I@CUtlBuffer@@IAEXAAIPBD@Z 10049b70 f i tier1:KeyValues.obj
 0001:00048bd0       ??$GetType@M@CUtlBuffer@@IAEXAAMPBD@Z 10049bd0 f i tier1:KeyValues.obj
 0001:00048c30       ??$GetType@N@CUtlBuffer@@IAEXAANPBD@Z 10049c30 f i tier1:KeyValues.obj
 0001:00048c90       ??$PutType@E@CUtlBuffer@@IAEXEPBD@Z 10049c90 f i tier1:KeyValues.obj
 0001:00048ce0       ??$PutType@H@CUtlBuffer@@IAEXHPBD@Z 10049ce0 f i tier1:KeyValues.obj
 0001:00048d50       ??$PutType@I@CUtlBuffer@@IAEXIPBD@Z 10049d50 f i tier1:KeyValues.obj
 0001:00048dc0       ??$PutType@M@CUtlBuffer@@IAEXMPBD@Z 10049dc0 f i tier1:KeyValues.obj
 0001:00048e40       ??$PutType@N@CUtlBuffer@@IAEXNPBD@Z 10049e40 f i tier1:KeyValues.obj
 0001:00048ec0       ??$PutTypeBin@E@CUtlBuffer@@IAEXE@Z 10049ec0 f i tier1:KeyValues.obj
 0001:00048ef0       ??$PutTypeBin@H@CUtlBuffer@@IAEXH@Z 10049ef0 f i tier1:KeyValues.obj
 0001:00048f40       ??$PutTypeBin@I@CUtlBuffer@@IAEXI@Z 10049f40 f i tier1:KeyValues.obj
 0001:00048f90       ??$PutTypeBin@M@CUtlBuffer@@IAEXM@Z 10049f90 f i tier1:KeyValues.obj
 0001:00048fe0       ??$PutTypeBin@N@CUtlBuffer@@IAEXN@Z 10049fe0 f i tier1:KeyValues.obj
 0001:00049030       ??0?$CUtlMemory@PAVKeyValues@@@@QAE@HH@Z 1004a030 f i tier1:KeyValues.obj
 0001:00049070       ??0KeyValues@@QAE@PBD0000@Z 1004a070 f   tier1:KeyValues.obj
 0001:000491a0       ??0KeyValues@@QAE@PBD00@Z  1004a1a0 f   tier1:KeyValues.obj
 0001:00049270       ??0KeyValues@@QAE@PBD0H0H@Z 1004a270 f   tier1:KeyValues.obj
 0001:00049310       ??0KeyValues@@QAE@PBD0H@Z  1004a310 f   tier1:KeyValues.obj
 0001:00049390       ??0KeyValues@@QAE@PBD0PB_W@Z 1004a390 f   tier1:KeyValues.obj
 0001:00049400       ??0KeyValues@@QAE@PBD@Z    1004a400 f   tier1:KeyValues.obj
 0001:00049470       ??1?$CUtlMemory@PAVKeyValues@@@@QAE@XZ 1004a470 f i tier1:KeyValues.obj
 0001:000494d0       ??1?$CUtlVector@PAVKeyValues@@V?$CUtlMemory@PAVKeyValues@@@@@@QAE@XZ 1004a4d0 f i tier1:KeyValues.obj
 0001:00049570       ??1CKeyErrorContext@@QAE@XZ 1004a570 f i tier1:KeyValues.obj
 0001:00049580       ??1CUtlBuffer@@QAE@XZ      1004a580 f i tier1:KeyValues.obj
 0001:000495f0       ??1KeyValues@@AAE@XZ       1004a5f0 f   tier1:KeyValues.obj
 0001:00049630       ??2KeyValues@@SAPAXI@Z     1004a630 f   tier1:KeyValues.obj
 0001:00049650       ??2KeyValues@@SAPAXIHPBDH@Z 1004a650 f   tier1:KeyValues.obj
 0001:00049670       ??3KeyValues@@SAXPAX@Z     1004a670 f   tier1:KeyValues.obj
 0001:000496c0       ??3KeyValues@@SAXPAXHPBDH@Z 1004a6c0 f   tier1:KeyValues.obj
 0001:00049710       ??4KeyValues@@QAEAAV0@AAV0@@Z 1004a710 f   tier1:KeyValues.obj
 0001:00049770       ?AddSubKey@KeyValues@@QAEXPAV1@@Z 1004a770 f   tier1:KeyValues.obj
 0001:000497b0       ?AppendIncludedKeys@KeyValues@@AAEXAAV?$CUtlVector@PAVKeyValues@@V?$CUtlMemory@PAVKeyValues@@@@@@@Z 1004a7b0 f   tier1:KeyValues.obj
 0001:000497f0       ?ChainKeyValue@KeyValues@@QAEXPAV1@@Z 1004a7f0 f   tier1:KeyValues.obj
 0001:00049800       ?Clear@KeyValues@@QAEXXZ   1004a800 f   tier1:KeyValues.obj
 0001:00049880       ?CopySubkeys@KeyValues@@QBEXPAV1@@Z 1004a880 f   tier1:KeyValues.obj
 0001:00049a40       ?CreateKey@KeyValues@@AAEPAV1@PBD@Z 1004aa40 f   tier1:KeyValues.obj
 0001:00049af0       ?CreateNewKey@KeyValues@@QAEPAV1@XZ 1004aaf0 f   tier1:KeyValues.obj
 0001:00049b80       ?FindKey@KeyValues@@QAEPAV1@PBD_N@Z 1004ab80 f   tier1:KeyValues.obj
 0001:00049d00       ?FindKey@KeyValues@@QBEPAV1@H@Z 1004ad00 f   tier1:KeyValues.obj
 0001:00049d30       ?GetColor@KeyValues@@QAE?AVColor@@PBD@Z 1004ad30 f   tier1:KeyValues.obj
 0001:00049e00       ?GetDataType@KeyValues@@QAE?AW4types_t@1@PBD@Z 1004ae00 f   tier1:KeyValues.obj
 0001:00049e20       ?GetFirstSubKey@KeyValues@@QAEPAV1@XZ 1004ae20 f   tier1:KeyValues.obj
 0001:00049e30       ?GetFirstTrueSubKey@KeyValues@@QAEPAV1@XZ 1004ae30 f   tier1:KeyValues.obj
 0001:00049e50       ?GetFirstValue@KeyValues@@QAEPAV1@XZ 1004ae50 f   tier1:KeyValues.obj
 0001:00049e70       ?GetFloat@KeyValues@@QAEMPBDM@Z 1004ae70 f   tier1:KeyValues.obj
 0001:00049f10       ?GetInt@KeyValues@@QAEHPBDH@Z 1004af10 f   tier1:KeyValues.obj
 0001:00049f90       ?GetName@KeyValues@@QBEPBDXZ 1004af90 f   tier1:KeyValues.obj
 0001:00049fb0       ?GetNameSymbol@KeyValues@@QBEHXZ 1004afb0 f   tier1:KeyValues.obj
 0001:00049fc0       ?GetNextKey@KeyValues@@QAEPAV1@XZ 1004afc0 f   tier1:KeyValues.obj
 0001:00049fd0       ?GetNextTrueSubKey@KeyValues@@QAEPAV1@XZ 1004afd0 f   tier1:KeyValues.obj
 0001:00049ff0       ?GetNextValue@KeyValues@@QAEPAV1@XZ 1004aff0 f   tier1:KeyValues.obj
 0001:0004a010       ?GetPtr@KeyValues@@QAEPAXPBDPAX@Z 1004b010 f   tier1:KeyValues.obj
 0001:0004a070       ?GetString@KeyValues@@QAEPBDPBD0@Z 1004b070 f   tier1:KeyValues.obj
 0001:0004a1c0       ?GetUint64@KeyValues@@QAE_KPBD_K@Z 1004b1c0 f   tier1:KeyValues.obj
 0001:0004a250       ?GetUnsignedChar@CUtlBuffer@@QAEEXZ 1004b250 f i tier1:KeyValues.obj
 0001:0004a2b0       ?GetWString@KeyValues@@QAEPB_WPBDPB_W@Z 1004b2b0 f   tier1:KeyValues.obj
 0001:0004a400       ?Grow@?$CUtlMemory@PAVKeyValues@@@@QAEXH@Z 1004b400 f i tier1:KeyValues.obj
 0001:0004a470       ?GrowVector@?$CUtlVector@PAVKeyValues@@V?$CUtlMemory@PAVKeyValues@@@@@@IAEXH@Z 1004b470 f i tier1:KeyValues.obj
 0001:0004a500       ?Init@KeyValues@@AAEXXZ    1004b500 f   tier1:KeyValues.obj
 0001:0004a550       ?InsertBefore@?$CUtlVector@PAVKeyValues@@V?$CUtlMemory@PAVKeyValues@@@@@@QAEHHABQAVKeyValues@@@Z 1004b550 f i tier1:KeyValues.obj
 0001:0004a600       ?InternalWrite@KeyValues@@AAEXPAVIBaseFileSystem@@PAXPAVCUtlBuffer@@PBXH@Z 1004b600 f   tier1:KeyValues.obj
 0001:0004a630       ?IsEmpty@KeyValues@@QAE_NPBD@Z 1004b630 f   tier1:KeyValues.obj
 0001:0004a660       ?IsExternallyAllocated@?$CUtlMemory@PAVKeyValues@@@@QBE_NXZ 1004b660 f i tier1:KeyValues.obj
 0001:0004a670       ?LoadFromBuffer@KeyValues@@QAE_NPBD0PAVIBaseFileSystem@@0@Z 1004b670 f   tier1:KeyValues.obj
 0001:0004a730       ?LoadFromBuffer@KeyValues@@QAE_NPBDAAVCUtlBuffer@@PAVIBaseFileSystem@@0@Z 1004b730 f   tier1:KeyValues.obj
 0001:0004aa60       ?LoadFromFile@KeyValues@@QAE_NPAVIBaseFileSystem@@PBD1@Z 1004ba60 f   tier1:KeyValues.obj
 0001:0004abe0       ?MakeCopy@KeyValues@@QBEPAV1@XZ 1004bbe0 f   tier1:KeyValues.obj
 0001:0004ad60       ?ParseIncludedKeys@KeyValues@@AAEXPBD0PAVIBaseFileSystem@@0AAV?$CUtlVector@PAVKeyValues@@V?$CUtlMemory@PAVKeyValues@@@@@@@Z 1004bd60 f   tier1:KeyValues.obj
 0001:0004af90       ?Purge@?$CUtlMemory@PAVKeyValues@@@@QAEXXZ 1004bf90 f i tier1:KeyValues.obj
 0001:0004afc0       ?PutLittleEndianData@CUtlBuffer@@IAEXHPAX@Z 1004bfc0 f i tier1:KeyValues.obj
 0001:0004b000       ?ReadAsBinary@KeyValues@@QAE_NAAVCUtlBuffer@@@Z 1004c000 f   tier1:KeyValues.obj
 0001:0004b630       ?ReadToken@KeyValues@@AAEPBDAAVCUtlBuffer@@AA_N@Z 1004c630 f   tier1:KeyValues.obj
 0001:0004b7a0       ?RecursiveCopyKeyValues@KeyValues@@AAEXAAV1@@Z 1004c7a0 f   tier1:KeyValues.obj
 0001:0004b9d0       ?RecursiveLoadFromBuffer@KeyValues@@AAEXPBDAAVCUtlBuffer@@@Z 1004c9d0 f   tier1:KeyValues.obj
 0001:0004bc20       ?RecursiveSaveToFile@KeyValues@@AAEXPAVIBaseFileSystem@@PAXPAVCUtlBuffer@@H@Z 1004cc20 f   tier1:KeyValues.obj
 0001:0004c540       ?RecursiveSaveToFile@KeyValues@@QAEXAAVCUtlBuffer@@H@Z 1004d540 f   tier1:KeyValues.obj
 0001:0004c560       ?RemoveAll@?$CUtlVector@PAVKeyValues@@V?$CUtlMemory@PAVKeyValues@@@@@@QAEXXZ 1004d560 f i tier1:KeyValues.obj
 0001:0004c570       ?RemoveEverything@KeyValues@@AAEXXZ 1004d570 f   tier1:KeyValues.obj
 0001:0004c660       ?RemoveSubKey@KeyValues@@QAEXPAV1@@Z 1004d660 f   tier1:KeyValues.obj
 0001:0004c6c0       ?ReportError@CKeyValuesErrorStack@@QAEXPBD@Z 1004d6c0 f i tier1:KeyValues.obj
 0001:0004c750       ?SaveToFile@KeyValues@@QAE_NPAVIBaseFileSystem@@PBD1@Z 1004d750 f   tier1:KeyValues.obj
 0001:0004c7d0       ?SetColor@KeyValues@@QAEXPBDVColor@@@Z 1004d7d0 f   tier1:KeyValues.obj
 0001:0004c810       ?SetFloat@KeyValues@@QAEXPBDM@Z 1004d810 f   tier1:KeyValues.obj
 0001:0004c840       ?SetInt@KeyValues@@QAEXPBDH@Z 1004d840 f   tier1:KeyValues.obj
 0001:0004c860       ?SetName@KeyValues@@QAEXPBD@Z 1004d860 f   tier1:KeyValues.obj
 0001:0004c880       ?SetNextKey@KeyValues@@QAEXPAV1@@Z 1004d880 f   tier1:KeyValues.obj
 0001:0004c890       ?SetPtr@KeyValues@@QAEXPBDPAX@Z 1004d890 f   tier1:KeyValues.obj
 0001:0004c8b0       ?SetString@KeyValues@@QAEXPBD0@Z 1004d8b0 f   tier1:KeyValues.obj
 0001:0004c920       ?SetStringValue@KeyValues@@QAEXPBD@Z 1004d920 f   tier1:KeyValues.obj
 0001:0004c980       ?SetUint64@KeyValues@@QAEXPBD_K@Z 1004d980 f   tier1:KeyValues.obj
 0001:0004c9d0       ?SetWString@KeyValues@@QAEXPBDPB_W@Z 1004d9d0 f   tier1:KeyValues.obj
 0001:0004ca60       ?ShiftElementsRight@?$CUtlVector@PAVKeyValues@@V?$CUtlMemory@PAVKeyValues@@@@@@IAEXHH@Z 1004da60 f i tier1:KeyValues.obj
 0001:0004caa0       ?UsesEscapeSequences@KeyValues@@QAEX_N@Z 1004daa0 f   tier1:KeyValues.obj
 0001:0004cab0       ?WriteAsBinary@KeyValues@@QAE_NAAVCUtlBuffer@@@Z 1004dab0 f   tier1:KeyValues.obj
 0001:0004ce50       ?WriteConvertedString@KeyValues@@AAEXPAVIBaseFileSystem@@PAXPAVCUtlBuffer@@PBD@Z 1004de50 f   tier1:KeyValues.obj
 0001:0004cf00       ?WriteIndents@KeyValues@@AAEXPAVIBaseFileSystem@@PAXPAVCUtlBuffer@@H@Z 1004df00 f   tier1:KeyValues.obj
 0001:0004cf70       ?__empty_global_delete@@YAXPAX@Z 1004df70 f i tier1:KeyValues.obj
 0001:0004cf80       ?__empty_global_delete@@YAXPAXI@Z 1004df80 f i tier1:KeyValues.obj
 0001:0004cf80       ?__global_delete@@YAXPAXI@Z 1004df80 f i tier1:KeyValues.obj
 0001:0004cf90       ?deleteThis@KeyValues@@QAEXXZ 1004df90 f   tier1:KeyValues.obj
 0001:0004cff0       ?swprintf@@YAHQA_WQB_WZZ   1004dff0 f i tier1:KeyValues.obj
 0001:0004d020       ??0InterfaceReg@@QAE@P6APAXXZPBD@Z 1004e020 f   tier1:interface.obj
 0001:0004d050       ?Sys_GetFactory@@YAP6APAXPBDPAH@Z0@Z 1004e050 f   tier1:interface.obj
 0001:0004d070       ?Sys_GetFactory@@YAP6APAXPBDPAH@ZPAVCSysModule@@@Z 1004e070 f   tier1:interface.obj
 0001:0004d090       ?Sys_GetFactoryThis@@YAP6APAXPBDPAH@ZXZ 1004e090 f   tier1:interface.obj
 0001:0004d0a0       ?Sys_LoadInterface@@YA_NPBD0PAPAVCSysModule@@PAPAX@Z 1004e0a0 f   tier1:interface.obj
 0001:0004d250       ?Sys_LoadLibrary@@YAPAUHINSTANCE__@@PBD@Z 1004e250 f   tier1:interface.obj
 0001:0004d2e0       ?Sys_LoadModule@@YAPAVCSysModule@@PBD@Z 1004e2e0 f   tier1:interface.obj
 0001:0004d420       ?Sys_UnloadModule@@YAXPAVCSysModule@@@Z 1004e420 f   tier1:interface.obj
 0001:0004d440       _CreateInterface           1004e440 f   tier1:interface.obj
 0001:0004d4b0       ?FindConversion@CUtlNoEscConversion@@UAEDPBDPAH@Z 1004e4b0 f i tier1:utlbuffer.obj
 0001:0004d4d0       ??$GetType@D@CUtlBuffer@@IAEXAADPBD@Z 1004e4d0 f i tier1:utlbuffer.obj
 0001:0004d530       ??0?$CUtlMemory@E@@QAE@PAEH@Z 1004e530 f i tier1:utlbuffer.obj
 0001:0004d550       ??0CUtlBuffer@@QAE@HHH@Z   1004e550 f   tier1:utlbuffer.obj
 0001:0004d650       ??0CUtlBuffer@@QAE@PBXHH@Z 1004e650 f   tier1:utlbuffer.obj
 0001:0004d730       ??0CUtlCStringConversion@@QAE@DPBDHPAUConversionArray_t@CUtlCharConversion@@@Z 1004e730 f   tier1:utlbuffer.obj
 0001:0004d790       ??0CUtlCharConversion@@QAE@DPBDHPAUConversionArray_t@0@@Z 1004e790 f   tier1:utlbuffer.obj
 0001:0004d830       ?AddNullTermination@CUtlBuffer@@IAEXXZ 1004e830 f   tier1:utlbuffer.obj
 0001:0004d880       ?CheckArbitraryPeekGet@CUtlBuffer@@IAE_NHAAH@Z 1004e880 f   tier1:utlbuffer.obj
 0001:0004d8f0       ?CheckGet@CUtlBuffer@@IAE_NH@Z 1004e8f0 f   tier1:utlbuffer.obj
 0001:0004d950       ?CheckPeekGet@CUtlBuffer@@IAE_NHH@Z 1004e950 f   tier1:utlbuffer.obj
 0001:0004d980       ?CheckPut@CUtlBuffer@@IAE_NH@Z 1004e980 f   tier1:utlbuffer.obj
 0001:0004d9d0       ?ConvertCRLF@CUtlBuffer@@QAE_NAAV1@@Z 1004e9d0 f   tier1:utlbuffer.obj
 0001:0004de60       ?ConvertToGrowableMemory@?$CUtlMemory@E@@QAEXH@Z 1004ee60 f i tier1:utlbuffer.obj
 0001:0004deb0       ?EatCPPComment@CUtlBuffer@@QAE_NXZ 1004eeb0 f   tier1:utlbuffer.obj
 0001:0004df80       ?EatWhiteSpace@CUtlBuffer@@QAEXXZ 1004ef80 f   tier1:utlbuffer.obj
 0001:0004dff0       ?EnsureCapacity@CUtlBuffer@@QAEXH@Z 1004eff0 f   tier1:utlbuffer.obj
 0001:0004e050       ?FindConversion@CUtlCStringConversion@@UAEDPBDPAH@Z 1004f050 f   tier1:utlbuffer.obj
 0001:0004e070       ?FindConversion@CUtlCharConversion@@UAEDPBDPAH@Z 1004f070 f   tier1:utlbuffer.obj
 0001:0004e100       ?Get@CUtlBuffer@@QAEXPAXH@Z 1004f100 f   tier1:utlbuffer.obj
 0001:0004e140       ?GetCStringCharConversion@@YAPAVCUtlCharConversion@@XZ 1004f140 f   tier1:utlbuffer.obj
 0001:0004e150       ?GetChar@CUtlBuffer@@QAEDXZ 1004f150 f i tier1:utlbuffer.obj
 0001:0004e1b0       ?GetConversionLength@CUtlCharConversion@@QBEHD@Z 1004f1b0 f   tier1:utlbuffer.obj
 0001:0004e1d0       ?GetConversionString@CUtlCharConversion@@QBEPBDD@Z 1004f1d0 f   tier1:utlbuffer.obj
 0001:0004e1f0       ?GetDelimitedChar@CUtlBuffer@@QAEDPAVCUtlCharConversion@@@Z 1004f1f0 f   tier1:utlbuffer.obj
 0001:0004e220       ?GetDelimitedCharInternal@CUtlBuffer@@IAEDPAVCUtlCharConversion@@@Z 1004f220 f   tier1:utlbuffer.obj
 0001:0004e2e0       ?GetDelimitedString@CUtlBuffer@@QAEXPAVCUtlCharConversion@@PADH@Z 1004f2e0 f   tier1:utlbuffer.obj
 0001:0004e420       ?GetDelimiter@CUtlCharConversion@@QBEPBDXZ 1004f420 f   tier1:utlbuffer.obj
 0001:0004e430       ?GetDelimiterLength@CUtlCharConversion@@QBEHXZ 1004f430 f   tier1:utlbuffer.obj
 0001:0004e440       ?GetEscapeChar@CUtlCharConversion@@QBEDXZ 1004f440 f   tier1:utlbuffer.obj
 0001:0004e450       ?GetLine@CUtlBuffer@@QAEXPADH@Z 1004f450 f   tier1:utlbuffer.obj
 0001:0004e5d0       ?GetNoEscCharConversion@@YAPAVCUtlCharConversion@@XZ 1004f5d0 f   tier1:utlbuffer.obj
 0001:0004e5e0       ?GetOverflow@CUtlBuffer@@IAE_NH@Z 1004f5e0 f   tier1:utlbuffer.obj
 0001:0004e5f0       ?GetString@CUtlBuffer@@QAEXPADH@Z 1004f5f0 f   tier1:utlbuffer.obj
 0001:0004e6e0       ?GetToken@CUtlBuffer@@QAE_NPBD@Z 1004f6e0 f   tier1:utlbuffer.obj
 0001:0004e7e0       ?GetUpTo@CUtlBuffer@@QAEHPAXH@Z 1004f7e0 f   tier1:utlbuffer.obj
 0001:0004e820       ?MaxConversionLength@CUtlCharConversion@@QBEHXZ 1004f820 f   tier1:utlbuffer.obj
 0001:0004e830       ?OnGetOverflow@CUtlBuffer@@IAE_NH@Z 1004f830 f   tier1:utlbuffer.obj
 0001:0004e840       ?OnPutOverflow@CUtlBuffer@@IAE_NH@Z 1004f840 f   tier1:utlbuffer.obj
 0001:0004e850       ?ParseToken@CUtlBuffer@@QAE_NPBD0PADH@Z 1004f850 f   tier1:utlbuffer.obj
 0001:0004eb20       ?PeekDelimitedStringLength@CUtlBuffer@@QAEHPAVCUtlCharConversion@@_N@Z 1004fb20 f   tier1:utlbuffer.obj
 0001:0004ec50       ?PeekGet@CUtlBuffer@@QAEPBXHH@Z 1004fc50 f   tier1:utlbuffer.obj
 0001:0004ec90       ?PeekLineLength@CUtlBuffer@@IAEHXZ 1004fc90 f   tier1:utlbuffer.obj
 0001:0004ed30       ?PeekStringLength@CUtlBuffer@@QAEHXZ 1004fd30 f   tier1:utlbuffer.obj
 0001:0004ee50       ?PeekStringMatch@CUtlBuffer@@IAE_NHPBDH@Z 1004fe50 f   tier1:utlbuffer.obj
 0001:0004eeb0       ?PeekWhiteSpace@CUtlBuffer@@IAEHH@Z 1004feb0 f   tier1:utlbuffer.obj
 0001:0004ef10       ?Printf@CUtlBuffer@@QAAXPBDZZ 1004ff10 f   tier1:utlbuffer.obj
 0001:0004ef60       ?Put@CUtlBuffer@@QAEXPBXH@Z 1004ff60 f   tier1:utlbuffer.obj
 0001:0004efd0       ?PutDelimitedChar@CUtlBuffer@@QAEXPAVCUtlCharConversion@@D@Z 1004ffd0 f   tier1:utlbuffer.obj
 0001:0004f020       ?PutDelimitedCharInternal@CUtlBuffer@@IAEXPAVCUtlCharConversion@@D@Z 10050020 f i tier1:utlbuffer.obj
 0001:0004f0d0       ?PutDelimitedString@CUtlBuffer@@QAEXPAVCUtlCharConversion@@PBD@Z 100500d0 f   tier1:utlbuffer.obj
 0001:0004f230       ?PutOverflow@CUtlBuffer@@IAE_NH@Z 10050230 f   tier1:utlbuffer.obj
 0001:0004f310       ?PutString@CUtlBuffer@@QAEXPBD@Z 10050310 f   tier1:utlbuffer.obj
 0001:0004f3f0       ?PutTabs@CUtlBuffer@@IAEXXZ 100503f0 f i tier1:utlbuffer.obj
 0001:0004f4a0       ?Scanf@CUtlBuffer@@QAAHPBDZZ 100504a0 f   tier1:utlbuffer.obj
 0001:0004f4c0       ?SeekGet@CUtlBuffer@@QAEXW4SeekType_t@1@H@Z 100504c0 f   tier1:utlbuffer.obj
 0001:0004f510       ?SeekPut@CUtlBuffer@@QAEXW4SeekType_t@1@H@Z 10050510 f   tier1:utlbuffer.obj
 0001:0004f590       ?SetBufferType@CUtlBuffer@@QAEX_N0@Z 10050590 f   tier1:utlbuffer.obj
 0001:0004f5d0       ?SetExternalBuffer@?$CUtlMemory@E@@QAEXPAEH@Z 100505d0 f i tier1:utlbuffer.obj
 0001:0004f610       ?SetExternalBuffer@CUtlBuffer@@QAEXPAXHHH@Z 10050610 f   tier1:utlbuffer.obj
 0001:0004f6d0       ?SetLittleEndian@CUtlBuffer@@QAEX_N@Z 100506d0 f   tier1:utlbuffer.obj
 0001:0004f6e0       ?SetOverflowFuncs@CUtlBuffer@@IAEXP81@AE_NH@Z0@Z 100506e0 f   tier1:utlbuffer.obj
 0001:0004f700       ?VaPrintf@CUtlBuffer@@QAEXPBDPAD@Z 10050700 f   tier1:utlbuffer.obj
 0001:0004f760       ?VaScanf@CUtlBuffer@@QAEHPBDPAD@Z 10050760 f   tier1:utlbuffer.obj
 0001:0004fa10       ??0?$CUtlMemory@PAUStringPool_t@CUtlSymbolTable@@@@QAE@HH@Z 10050a10 f i tier1:utlsymbol.obj
 0001:0004fa50       ??0?$CUtlMemory@UNode_t@?$CUtlRBTree@VCStringPoolIndex@CUtlSymbolTable@@GVCLess@2@@@@@QAE@HH@Z 10050a50 f i tier1:utlsymbol.obj
 0001:0004fa90       ??0CUtlSymbol@@QAE@PBD@Z   10050a90 f   tier1:utlsymbol.obj
 0001:0004fad0       ??0CUtlSymbolTable@@QAE@HH_N@Z 10050ad0 f   tier1:utlsymbol.obj
 0001:0004fb80       ??1?$CUtlMemory@PAUStringPool_t@CUtlSymbolTable@@@@QAE@XZ 10050b80 f i tier1:utlsymbol.obj
 0001:0004fbe0       ??1?$CUtlMemory@UNode_t@?$CUtlRBTree@VCStringPoolIndex@CUtlSymbolTable@@GVCLess@2@@@@@QAE@XZ 10050be0 f i tier1:utlsymbol.obj
 0001:0004fc40       ??1?$CUtlRBTree@VCStringPoolIndex@CUtlSymbolTable@@GVCLess@2@@@QAE@XZ 10050c40 f i tier1:utlsymbol.obj
 0001:0004fd10       ??1?$CUtlVector@PAUStringPool_t@CUtlSymbolTable@@V?$CUtlMemory@PAUStringPool_t@CUtlSymbolTable@@@@@@QAE@XZ 10050d10 f i tier1:utlsymbol.obj
 0001:0004fdb0       ??1CTree@CUtlSymbolTable@@QAE@XZ 10050db0 f i tier1:utlsymbol.obj
 0001:0004fdc0       ??1CUtlSymbolTable@@QAE@XZ 10050dc0 f   tier1:utlsymbol.obj
 0001:0004fea0       ??8CUtlSymbol@@QBE_NPBD@Z  10050ea0 f   tier1:utlsymbol.obj
 0001:0004ff40       ??RCLess@CUtlSymbolTable@@QBE_NABVCStringPoolIndex@1@0@Z 10050f40 f   tier1:utlsymbol.obj
 0001:0004fff0       ?AddString@CUtlSymbolTable@@QAE?AVCUtlSymbol@@PBD@Z 10050ff0 f   tier1:utlsymbol.obj
 0001:00050270       ?CurrTable@CUtlSymbol@@KAPAVCUtlSymbolTableMT@@XZ 10051270 f   tier1:utlsymbol.obj
 0001:000503a0       ?DisableStaticSymbolTable@CUtlSymbol@@SAXXZ 100513a0 f   tier1:utlsymbol.obj
 0001:000503b0       ?Find@?$CUtlRBTree@VCStringPoolIndex@CUtlSymbolTable@@GVCLess@2@@@QBEGABVCStringPoolIndex@CUtlSymbolTable@@@Z 100513b0 f i tier1:utlsymbol.obj
 0001:00050440       ?Find@CUtlSymbolTable@@QAE?AVCUtlSymbol@@PBD@Z 10051440 f   tier1:utlsymbol.obj
 0001:000504e0       ?FindFileName@CUtlFilenameSymbolTable@@QAEPAXPBD@Z 100514e0 f   tier1:utlsymbol.obj
 0001:000505e0       ?FindInsertionPosition@?$CUtlRBTree@VCStringPoolIndex@CUtlSymbolTable@@GVCLess@2@@@IAEXABVCStringPoolIndex@CUtlSymbolTable@@AAGAA_N@Z 100515e0 f i tier1:utlsymbol.obj
 0001:00050660       ?FindOrAddFileName@CUtlFilenameSymbolTable@@QAEPAXPBD@Z 10051660 f   tier1:utlsymbol.obj
 0001:00050750       ?FindPoolWithSpace@CUtlSymbolTable@@ABEHH@Z 10051750 f   tier1:utlsymbol.obj
 0001:00050790       ?Grow@?$CUtlMemory@PAUStringPool_t@CUtlSymbolTable@@@@QAEXH@Z 10051790 f i tier1:utlsymbol.obj
 0001:00050800       ?Grow@?$CUtlMemory@UNode_t@?$CUtlRBTree@VCStringPoolIndex@CUtlSymbolTable@@GVCLess@2@@@@@QAEXH@Z 10051800 f i tier1:utlsymbol.obj
 0001:00050870       ?GrowVector@?$CUtlVector@PAUStringPool_t@CUtlSymbolTable@@V?$CUtlMemory@PAUStringPool_t@CUtlSymbolTable@@@@@@IAEXH@Z 10051870 f i tier1:utlsymbol.obj
 0001:00050900       ?Initialize@CUtlSymbol@@KAXXZ 10051900 f   tier1:utlsymbol.obj
 0001:00050a00       ?Insert@?$CUtlRBTree@VCStringPoolIndex@CUtlSymbolTable@@GVCLess@2@@@QAEGABVCStringPoolIndex@CUtlSymbolTable@@@Z 10051a00 f i tier1:utlsymbol.obj
 0001:00050aa0       ?InsertAt@?$CUtlRBTree@VCStringPoolIndex@CUtlSymbolTable@@GVCLess@2@@@IAEGG_N@Z 10051aa0 f i tier1:utlsymbol.obj
 0001:00050ba0       ?InsertBefore@?$CUtlVector@PAUStringPool_t@CUtlSymbolTable@@V?$CUtlMemory@PAUStringPool_t@CUtlSymbolTable@@@@@@QAEHHABQAUStringPool_t@CUtlSymbolTable@@@Z 10051ba0 f i tier1:utlsymbol.obj
 0001:00050c50       ?InsertRebalance@?$CUtlRBTree@VCStringPoolIndex@CUtlSymbolTable@@GVCLess@2@@@IAEXG@Z 10051c50 f i tier1:utlsymbol.obj
 0001:00050e50       ?IsExternallyAllocated@?$CUtlMemory@PAUStringPool_t@CUtlSymbolTable@@@@QBE_NXZ 10051e50 f i tier1:utlsymbol.obj
 0001:00050e60       ?IsExternallyAllocated@?$CUtlMemory@UNode_t@?$CUtlRBTree@VCStringPoolIndex@CUtlSymbolTable@@GVCLess@2@@@@@QBE_NXZ 10051e60 f i tier1:utlsymbol.obj
 0001:00050e70       ?LinkToParent@?$CUtlRBTree@VCStringPoolIndex@CUtlSymbolTable@@GVCLess@2@@@IAEXGG_N@Z 10051e70 f i tier1:utlsymbol.obj
 0001:00050ef0       ?Links@?$CUtlRBTree@VCStringPoolIndex@CUtlSymbolTable@@GVCLess@2@@@IBEABULinks_t@1@G@Z 10051ef0 f i tier1:utlsymbol.obj
 0001:00050f80       ?NewNode@?$CUtlRBTree@VCStringPoolIndex@CUtlSymbolTable@@GVCLess@2@@@QAEGXZ 10051f80 f i tier1:utlsymbol.obj
 0001:00051040       ?Purge@?$CUtlMemory@PAUStringPool_t@CUtlSymbolTable@@@@QAEXXZ 10052040 f i tier1:utlsymbol.obj
 0001:00051070       ?Purge@?$CUtlMemory@UNode_t@?$CUtlRBTree@VCStringPoolIndex@CUtlSymbolTable@@GVCLess@2@@@@@QAEXXZ 10052070 f i tier1:utlsymbol.obj
 0001:000510a0       ?Purge@?$CUtlRBTree@VCStringPoolIndex@CUtlSymbolTable@@GVCLess@2@@@QAEXXZ 100520a0 f i tier1:utlsymbol.obj
 0001:00051100       ?RemoveAll@?$CUtlRBTree@VCStringPoolIndex@CUtlSymbolTable@@GVCLess@2@@@QAEXXZ 10052100 f i tier1:utlsymbol.obj
 0001:00051180       ?RemoveAll@?$CUtlVector@PAUStringPool_t@CUtlSymbolTable@@V?$CUtlMemory@PAUStringPool_t@CUtlSymbolTable@@@@@@QAEXXZ 10052180 f i tier1:utlsymbol.obj
 0001:00051190       ?RemoveAll@CUtlSymbolTable@@QAEXXZ 10052190 f   tier1:utlsymbol.obj
 0001:00051240       ?RotateLeft@?$CUtlRBTree@VCStringPoolIndex@CUtlSymbolTable@@GVCLess@2@@@IAEXG@Z 10052240 f i tier1:utlsymbol.obj
 0001:00051350       ?RotateRight@?$CUtlRBTree@VCStringPoolIndex@CUtlSymbolTable@@GVCLess@2@@@IAEXG@Z 10052350 f i tier1:utlsymbol.obj
 0001:00051460       ?ShiftElementsRight@?$CUtlVector@PAUStringPool_t@CUtlSymbolTable@@V?$CUtlMemory@PAUStringPool_t@CUtlSymbolTable@@@@@@IAEXHH@Z 10052460 f i tier1:utlsymbol.obj
 0001:000514a0       ?String@CUtlFilenameSymbolTable@@QAE_NABQAXPADH@Z 100524a0 f   tier1:utlsymbol.obj
 0001:00051510       ?String@CUtlSymbol@@QBEPBDXZ 10052510 f   tier1:utlsymbol.obj
 0001:00051570       ?String@CUtlSymbolTable@@QBEPBDVCUtlSymbol@@@Z 10052570 f   tier1:utlsymbol.obj
 0001:000515c0       ?CRC32_Final@@YAXPAK@Z     100525c0 f   tier1:checksum_crc.obj
 0001:000515d0       ?CRC32_GetTableEntry@@YAKI@Z 100525d0 f   tier1:checksum_crc.obj
 0001:000515e0       ?CRC32_Init@@YAXPAK@Z      100525e0 f   tier1:checksum_crc.obj
 0001:000515f0       ?CRC32_ProcessBuffer@@YAXPAKPBXH@Z 100525f0 f   tier1:checksum_crc.obj
 0001:000517c0       ??0bf_read@@QAE@PBDPBXHH@Z 100527c0 f   tier1:bitbuf.obj
 0001:00051800       ??0bf_read@@QAE@PBXHH@Z    10052800 f   tier1:bitbuf.obj
 0001:00051840       ??0bf_read@@QAE@XZ         10052840 f   tier1:bitbuf.obj
 0001:00051870       ??0bf_write@@QAE@PAXHH@Z   10052870 f   tier1:bitbuf.obj
 0001:000518b0       ??0bf_write@@QAE@PBDPAXHH@Z 100528b0 f   tier1:bitbuf.obj
 0001:000518f0       ??0bf_write@@QAE@XZ        100528f0 f   tier1:bitbuf.obj
 0001:00051920       ?CheckReadUBitLong@bf_read@@IAEIH@Z 10052920 f   tier1:bitbuf.obj
 0001:00051990       ?ExciseBits@bf_read@@QAEXHH@Z 10052990 f   tier1:bitbuf.obj
 0001:00051ae0       ?GetDebugName@bf_read@@QAEPBDXZ 10052ae0 f   tier1:bitbuf.obj
 0001:00051af0       ?GetDebugName@bf_write@@QAEPBDXZ 10052af0 f   tier1:bitbuf.obj
 0001:00051b00       ?InternalBitBufErrorHandler@@YAXW4BitBufErrorType@@PBD@Z 10052b00 f   tier1:bitbuf.obj
 0001:00051b20       ?PeekUBitLong@bf_read@@QAEIH@Z 10052b20 f   tier1:bitbuf.obj
 0001:00051bb0       ?ReadAndAllocateString@bf_read@@QAEPADPA_N@Z 10052bb0 f   tier1:bitbuf.obj
 0001:00051cd0       ?ReadBitAngle@bf_read@@QAEMH@Z 10052cd0 f   tier1:bitbuf.obj
 0001:00051d20       ?ReadBitAngles@bf_read@@QAEXAAVQAngle@@@Z 10052d20 f   tier1:bitbuf.obj
 0001:00051d60       ?ReadBitCoord@bf_read@@QAEMXZ 10052d60 f   tier1:bitbuf.obj
 0001:00051ee0       ?ReadBitLong@bf_read@@QAEIH_N@Z 10052ee0 f   tier1:bitbuf.obj
 0001:00051f00       ?ReadBitNormal@bf_read@@QAEMXZ 10052f00 f   tier1:bitbuf.obj
 0001:00051fd0       ?ReadBitVec3Coord@bf_read@@QAEXAAVVector@@@Z 10052fd0 f   tier1:bitbuf.obj
 0001:00052110       ?ReadBitVec3Normal@bf_read@@QAEXAAVVector@@@Z 10053110 f   tier1:bitbuf.obj
 0001:000522c0       ?ReadBits@bf_read@@QAE_NPAXH@Z 100532c0 f   tier1:bitbuf.obj
 0001:000524a0       ?ReadByte@bf_read@@QAEHXZ  100534a0 f   tier1:bitbuf.obj
 0001:000524b0       ?ReadBytes@bf_read@@QAE_NPAXH@Z 100534b0 f   tier1:bitbuf.obj
 0001:000524d0       ?ReadChar@bf_read@@QAEHXZ  100534d0 f   tier1:bitbuf.obj
 0001:00052520       ?ReadFloat@bf_read@@QAEMXZ 10053520 f   tier1:bitbuf.obj
 0001:00052540       ?ReadLong@bf_read@@QAEJXZ  10053540 f   tier1:bitbuf.obj
 0001:00052590       ?ReadSBitLong@bf_read@@QAEHH@Z 10053590 f   tier1:bitbuf.obj
 0001:000525f0       ?ReadShort@bf_read@@QAEHXZ 100535f0 f   tier1:bitbuf.obj
 0001:00052640       ?ReadString@bf_read@@QAE_NPADH_NPAH@Z 10053640 f   tier1:bitbuf.obj
 0001:00052710       ?ReadUBitLong@bf_read@@QAEIH@Z 10053710 f i tier1:bitbuf.obj
 0001:000527b0       ?ReadUBitVar@bf_read@@QAEIXZ 100537b0 f   tier1:bitbuf.obj
 0001:00052830       ?ReadWord@bf_read@@QAEHXZ  10053830 f   tier1:bitbuf.obj
 0001:00052840       ?Reset@bf_read@@QAEXXZ     10053840 f   tier1:bitbuf.obj
 0001:00052850       ?Reset@bf_write@@QAEXXZ    10053850 f   tier1:bitbuf.obj
 0001:00052860       ?Seek@bf_read@@QAE_NH@Z    10053860 f   tier1:bitbuf.obj
 0001:00052890       ?SeekToBit@bf_write@@QAEXH@Z 10053890 f   tier1:bitbuf.obj
 0001:000528a0       ?SetAssertOnOverflow@bf_read@@QAEX_N@Z 100538a0 f   tier1:bitbuf.obj
 0001:000528b0       ?SetAssertOnOverflow@bf_write@@QAEX_N@Z 100538b0 f   tier1:bitbuf.obj
 0001:000528c0       ?SetBitBufErrorHandler@@YAXP6AXW4BitBufErrorType@@PBD@Z@Z 100538c0 f   tier1:bitbuf.obj
 0001:000528d0       ?SetDebugName@bf_read@@QAEXPBD@Z 100538d0 f   tier1:bitbuf.obj
 0001:000528e0       ?SetDebugName@bf_write@@QAEXPBD@Z 100538e0 f   tier1:bitbuf.obj
 0001:000528f0       ?StartReading@bf_read@@QAEXPBXHHH@Z 100538f0 f   tier1:bitbuf.obj
 0001:00052920       ?StartWriting@bf_write@@QAEXPAXHHH@Z 10053920 f   tier1:bitbuf.obj
 0001:00052950       ?WriteBitAngle@bf_write@@QAEXMH@Z 10053950 f   tier1:bitbuf.obj
 0001:000529b0       ?WriteBitAngles@bf_write@@QAEXABVQAngle@@@Z 100539b0 f   tier1:bitbuf.obj
 0001:000529f0       ?WriteBitCoord@bf_write@@QAEXM@Z 100539f0 f   tier1:bitbuf.obj
 0001:00052b30       ?WriteBitFloat@bf_write@@QAEXM@Z 10053b30 f   tier1:bitbuf.obj
 0001:00052b50       ?WriteBitLong@bf_write@@QAEXIH_N@Z 10053b50 f   tier1:bitbuf.obj
 0001:00052b80       ?WriteBitNormal@bf_write@@QAEXM@Z 10053b80 f   tier1:bitbuf.obj
 0001:00052c00       ?WriteBitVec3Coord@bf_write@@QAEXABVVector@@@Z 10053c00 f   tier1:bitbuf.obj
 0001:00052d70       ?WriteBitVec3Normal@bf_write@@QAEXABVVector@@@Z 10053d70 f   tier1:bitbuf.obj
 0001:00052ed0       ?WriteBits@bf_write@@QAE_NPBXH@Z 10053ed0 f   tier1:bitbuf.obj
 0001:000531e0       ?WriteBitsFromBuffer@bf_write@@QAE_NPAVbf_read@@H@Z 100541e0 f   tier1:bitbuf.obj
 0001:00053340       ?WriteByte@bf_write@@QAEXH@Z 10054340 f   tier1:bitbuf.obj
 0001:00053360       ?WriteBytes@bf_write@@QAE_NPBXH@Z 10054360 f   tier1:bitbuf.obj
 0001:00053380       ?WriteChar@bf_write@@QAEXH@Z 10054380 f   tier1:bitbuf.obj
 0001:000533a0       ?WriteFloat@bf_write@@QAEXM@Z 100543a0 f   tier1:bitbuf.obj
 0001:000533c0       ?WriteLong@bf_write@@QAEXJ@Z 100543c0 f   tier1:bitbuf.obj
 0001:000533e0       ?WriteSBitLong@bf_write@@QAEXHH@Z 100543e0 f   tier1:bitbuf.obj
 0001:00053470       ?WriteShort@bf_write@@QAEXH@Z 10054470 f   tier1:bitbuf.obj
 0001:00053490       ?WriteString@bf_write@@QAE_NPBD@Z 10054490 f   tier1:bitbuf.obj
 0001:00053510       ?WriteUBitLong@bf_write@@QAEXIH_N@Z 10054510 f i tier1:bitbuf.obj
 0001:000535c0       ?WriteUBitVar@bf_write@@QAEXI@Z 100545c0 f   tier1:bitbuf.obj
 0001:00053650       ?WriteWord@bf_write@@QAEXH@Z 10054650 f   tier1:bitbuf.obj
 0001:00053670       ?MD5Final@@YAXQAEPAUMD5Context_t@@@Z 10054670 f   tier1:checksum_md5.obj
 0001:00053700       ?MD5Init@@YAXPAUMD5Context_t@@@Z 10054700 f   tier1:checksum_md5.obj
 0001:00053dc0       ?MD5Update@@YAXPAUMD5Context_t@@PBEI@Z 10054dc0 f   tier1:checksum_md5.obj
 0001:00053ea0       ?MD5_Print@@YAPADPAEH@Z    10054ea0 f   tier1:checksum_md5.obj
 0001:00053ec0       ?MD5_PseudoRandom@@YAII@Z  10054ec0 f   tier1:checksum_md5.obj
 0001:00053f90       ??0?$CUtlMemory@G@@QAE@HH@Z 10054f90 f i tier1:stringpool.obj
 0001:00053fd0       ??0?$CUtlMemory@UNode_t@?$CUtlRBTree@PBDGP6A_NABQBD0@Z@@@@QAE@HH@Z 10054fd0 f i tier1:stringpool.obj
 0001:00054010       ??0?$CUtlMemory@Uhash_item_t@CCountedStringPool@@@@QAE@HH@Z 10055010 f i tier1:stringpool.obj
 0001:00054050       ??0CCountedStringPool@@QAE@XZ 10055050 f   tier1:stringpool.obj
 0001:00054220       ??0CStringPool@@QAE@XZ     10055220 f   tier1:stringpool.obj
 0001:00054280       ??1?$CUtlMemory@G@@QAE@XZ  10055280 f i tier1:stringpool.obj
 0001:000542e0       ??1?$CUtlMemory@UNode_t@?$CUtlRBTree@PBDGP6A_NABQBD0@Z@@@@QAE@XZ 100552e0 f i tier1:stringpool.obj
 0001:00054340       ??1?$CUtlMemory@Uhash_item_t@CCountedStringPool@@@@QAE@XZ 10055340 f i tier1:stringpool.obj
 0001:000543a0       ??1?$CUtlRBTree@PBDGP6A_NABQBD0@Z@@QAE@XZ 100553a0 f i tier1:stringpool.obj
 0001:00054470       ??1?$CUtlVector@GV?$CUtlMemory@G@@@@QAE@XZ 10055470 f i tier1:stringpool.obj
 0001:00054510       ??1?$CUtlVector@Uhash_item_t@CCountedStringPool@@V?$CUtlMemory@Uhash_item_t@CCountedStringPool@@@@@@QAE@XZ 10055510 f i tier1:stringpool.obj
 0001:000545b0       ??1CCountedStringPool@@UAE@XZ 100555b0 f   tier1:stringpool.obj
 0001:000546b0       ??1CStringPool@@QAE@XZ     100556b0 f   tier1:stringpool.obj
 0001:00054700       ??_ECCountedStringPool@@UAEPAXI@Z 10055700 f i tier1:stringpool.obj
 0001:00054700       ??_GCCountedStringPool@@UAEPAXI@Z 10055700 f i tier1:stringpool.obj
 0001:00054730       ?Allocate@CStringPool@@QAEPBDPBD@Z 10055730 f   tier1:stringpool.obj
 0001:00054850       ?Count@CStringPool@@QBEIXZ 10055850 f   tier1:stringpool.obj
 0001:00054860       ?DereferenceString@CCountedStringPool@@QAEXPBD@Z 10055860 f   tier1:stringpool.obj
 0001:00054970       ?EnsureCount@?$CUtlVector@GV?$CUtlMemory@G@@@@QAEXH@Z 10055970 f i tier1:stringpool.obj
 0001:00054a30       ?Find@?$CUtlRBTree@PBDGP6A_NABQBD0@Z@@QBEGABQBD@Z 10055a30 f i tier1:stringpool.obj
 0001:00054ac0       ?Find@CStringPool@@QAEPBDPBD@Z 10055ac0 f   tier1:stringpool.obj
 0001:00054b10       ?FindInsertionPosition@?$CUtlRBTree@PBDGP6A_NABQBD0@Z@@IAEXABQBDAAGAA_N@Z 10055b10 f i tier1:stringpool.obj
 0001:00054b90       ?FindString@CCountedStringPool@@QAEPADPBD@Z 10055b90 f   tier1:stringpool.obj
 0001:00054c10       ?FindStringHandle@CCountedStringPool@@QAEGPBD@Z 10055c10 f   tier1:stringpool.obj
 0001:00054c90       ?FirstInorder@?$CUtlRBTree@PBDGP6A_NABQBD0@Z@@QBEGXZ 10055c90 f i tier1:stringpool.obj
 0001:00054cd0       ?FreeAll@CCountedStringPool@@QAEXXZ 10055cd0 f   tier1:stringpool.obj
 0001:00054d80       ?FreeAll@CStringPool@@QAEXXZ 10055d80 f   tier1:stringpool.obj
 0001:00054f10       ?Grow@?$CUtlMemory@G@@QAEXH@Z 10055f10 f i tier1:stringpool.obj
 0001:00054f80       ?Grow@?$CUtlMemory@UNode_t@?$CUtlRBTree@PBDGP6A_NABQBD0@Z@@@@QAEXH@Z 10055f80 f i tier1:stringpool.obj
 0001:00054ff0       ?Grow@?$CUtlMemory@Uhash_item_t@CCountedStringPool@@@@QAEXH@Z 10055ff0 f i tier1:stringpool.obj
 0001:00055060       ?GrowVector@?$CUtlVector@GV?$CUtlMemory@G@@@@IAEXH@Z 10056060 f i tier1:stringpool.obj
 0001:000550f0       ?GrowVector@?$CUtlVector@Uhash_item_t@CCountedStringPool@@V?$CUtlMemory@Uhash_item_t@CCountedStringPool@@@@@@IAEXH@Z 100560f0 f i tier1:stringpool.obj
 0001:00055180       ?HandleToString@CCountedStringPool@@QAEPADG@Z 10056180 f   tier1:stringpool.obj
 0001:000551a0       ?Insert@?$CUtlRBTree@PBDGP6A_NABQBD0@Z@@QAEGABQBD@Z 100561a0 f i tier1:stringpool.obj
 0001:00055240       ?InsertAt@?$CUtlRBTree@PBDGP6A_NABQBD0@Z@@IAEGG_N@Z 10056240 f i tier1:stringpool.obj
 0001:00055340       ?InsertBefore@?$CUtlVector@Uhash_item_t@CCountedStringPool@@V?$CUtlMemory@Uhash_item_t@CCountedStringPool@@@@@@QAEHH@Z 10056340 f i tier1:stringpool.obj
 0001:00055390       ?InsertRebalance@?$CUtlRBTree@PBDGP6A_NABQBD0@Z@@IAEXG@Z 10056390 f i tier1:stringpool.obj
 0001:00055590       ?IsExternallyAllocated@?$CUtlMemory@G@@QBE_NXZ 10056590 f i tier1:stringpool.obj
 0001:000555a0       ?IsExternallyAllocated@?$CUtlMemory@UNode_t@?$CUtlRBTree@PBDGP6A_NABQBD0@Z@@@@QBE_NXZ 100565a0 f i tier1:stringpool.obj
 0001:000555b0       ?IsExternallyAllocated@?$CUtlMemory@Uhash_item_t@CCountedStringPool@@@@QBE_NXZ 100565b0 f i tier1:stringpool.obj
 0001:000555c0       ?LinkToParent@?$CUtlRBTree@PBDGP6A_NABQBD0@Z@@IAEXGG_N@Z 100565c0 f i tier1:stringpool.obj
 0001:00055640       ?Links@?$CUtlRBTree@PBDGP6A_NABQBD0@Z@@IBEABULinks_t@1@G@Z 10056640 f i tier1:stringpool.obj
 0001:000556d0       ?NewNode@?$CUtlRBTree@PBDGP6A_NABQBD0@Z@@QAEGXZ 100566d0 f i tier1:stringpool.obj
 0001:00055790       ?NextInorder@?$CUtlRBTree@PBDGP6A_NABQBD0@Z@@QBEGG@Z 10056790 f i tier1:stringpool.obj
 0001:00055860       ?Purge@?$CUtlMemory@G@@QAEXXZ 10056860 f i tier1:stringpool.obj
 0001:00055890       ?Purge@?$CUtlMemory@UNode_t@?$CUtlRBTree@PBDGP6A_NABQBD0@Z@@@@QAEXXZ 10056890 f i tier1:stringpool.obj
 0001:000558c0       ?Purge@?$CUtlMemory@Uhash_item_t@CCountedStringPool@@@@QAEXXZ 100568c0 f i tier1:stringpool.obj
 0001:000558f0       ?Purge@?$CUtlRBTree@PBDGP6A_NABQBD0@Z@@QAEXXZ 100568f0 f i tier1:stringpool.obj
 0001:00055950       ?ReferenceString@CCountedStringPool@@QAEPADPBD@Z 10056950 f   tier1:stringpool.obj
 0001:00055980       ?ReferenceStringHandle@CCountedStringPool@@QAEGPBD@Z 10056980 f   tier1:stringpool.obj
 0001:00055af0       ?RemoveAll@?$CUtlRBTree@PBDGP6A_NABQBD0@Z@@QAEXXZ 10056af0 f i tier1:stringpool.obj
 0001:00055b70       ?RemoveAll@?$CUtlVector@GV?$CUtlMemory@G@@@@QAEXXZ 10056b70 f i tier1:stringpool.obj
 0001:00055b80       ?RemoveAll@?$CUtlVector@Uhash_item_t@CCountedStringPool@@V?$CUtlMemory@Uhash_item_t@CCountedStringPool@@@@@@QAEXXZ 10056b80 f i tier1:stringpool.obj
 0001:00055b90       ?RotateLeft@?$CUtlRBTree@PBDGP6A_NABQBD0@Z@@IAEXG@Z 10056b90 f i tier1:stringpool.obj
 0001:00055ca0       ?RotateRight@?$CUtlRBTree@PBDGP6A_NABQBD0@Z@@IAEXG@Z 10056ca0 f i tier1:stringpool.obj
 0001:00055db0       ?SetCount@?$CUtlVector@Uhash_item_t@CCountedStringPool@@V?$CUtlMemory@Uhash_item_t@CCountedStringPool@@@@@@QAEXH@Z 10056db0 f i tier1:stringpool.obj
 0001:00055e00       ?ShiftElementsRight@?$CUtlVector@GV?$CUtlMemory@G@@@@IAEXHH@Z 10056e00 f i tier1:stringpool.obj
 0001:00055e40       ?ShiftElementsRight@?$CUtlVector@Uhash_item_t@CCountedStringPool@@V?$CUtlMemory@Uhash_item_t@CCountedStringPool@@@@@@IAEXHH@Z 10056e40 f i tier1:stringpool.obj
 0001:00055e90       ?StrLess@@YA_NABQBD0@Z     10056e90 f   tier1:stringpool.obj
 0001:00055f20       ??0ConCommand@@QAE@PBDP6AXXZ0HP6AH0QAY0EA@D@Z@Z 10056f20 f   tier1:convar.obj
 0001:00056020       ??0ConCommandBase@@QAE@PBD0H@Z 10057020 f   tier1:convar.obj
 0001:000560a0       ??0ConCommandBase@@QAE@XZ  100570a0 f   tier1:convar.obj
 0001:000560d0       ??0ConVar@@QAE@PBD0H0@Z    100570d0 f   tier1:convar.obj
 0001:00056230       ??0ConVar@@QAE@PBD0H0P6AXPAV0@0@Z@Z 10057230 f   tier1:convar.obj
 0001:00056390       ??0ConVar@@QAE@PBD0H0_NM1M@Z 10057390 f   tier1:convar.obj
 0001:00056500       ??0ConVar@@QAE@PBD0H0_NM1MP6AXPAV0@0@Z@Z 10057500 f   tier1:convar.obj
 0001:00056670       ??0ConVar@@QAE@PBD0H@Z     10057670 f   tier1:convar.obj
 0001:000567d0       ??1ConCommand@@UAE@XZ      100577d0 f   tier1:convar.obj
 0001:000567e0       ??1ConCommandBase@@UAE@XZ  100577e0 f   tier1:convar.obj
 0001:000567f0       ??1ConVar@@UAE@XZ          100577f0 f   tier1:convar.obj
 0001:00056820       ??_EConCommand@@UAEPAXI@Z  10057820 f i tier1:convar.obj
 0001:00056820       ??_GConCommand@@UAEPAXI@Z  10057820 f i tier1:convar.obj
 0001:00056850       ??_EConCommandBase@@UAEPAXI@Z 10057850 f i tier1:convar.obj
 0001:00056850       ??_GConCommandBase@@UAEPAXI@Z 10057850 f i tier1:convar.obj
 0001:00056880       ??_EConVar@@UAEPAXI@Z      10057880 f i tier1:convar.obj
 0001:00056880       ??_GConVar@@UAEPAXI@Z      10057880 f i tier1:convar.obj
 0001:000568d0       ?AddFlags@ConCommandBase@@UAEXH@Z 100578d0 f   tier1:convar.obj
 0001:000568e0       ?AddFlags@ConVar@@UAEXH@Z  100578e0 f   tier1:convar.obj
 0001:000568f0       ?AddToList@ConCommandBase@@SAXPAV1@@Z 100578f0 f   tier1:convar.obj
 0001:00056910       ?AutoCompleteSuggest@ConCommand@@UAEHPBDQAY0EA@D@Z 10057910 f   tier1:convar.obj
 0001:00056930       ?CanAutoComplete@ConCommand@@UAE_NXZ 10057930 f   tier1:convar.obj
 0001:00056940       ?ChangeStringValue@ConVar@@EAEXPBD@Z 10057940 f   tier1:convar.obj
 0001:000569f0       ?ClampValue@ConVar@@EAE_NAAM@Z 100579f0 f   tier1:convar.obj
 0001:00056a40       ?CopyString@ConCommandBase@@IAEPADPBD@Z 10057a40 f   tier1:convar.obj
 0001:00056a90       ?Create@ConCommand@@EAEXPBDP6AXXZ0HP6AH0QAY0EA@D@Z@Z 10057a90 f   tier1:convar.obj
 0001:00056b10       ?Create@ConCommandBase@@MAEXPBD0H@Z 10057b10 f   tier1:convar.obj
 0001:00056b70       ?Create@ConVar@@EAEXPBD0H0_NM1MP6AXPAV1@0@Z@Z 10057b70 f   tier1:convar.obj
 0001:00056c50       ?DefaultCompletionFunc@@YAHPBDQAY0EA@D@Z 10057c50 f   tier1:convar.obj
 0001:00056c60       ?Dispatch@ConCommand@@UAEXXZ 10057c60 f   tier1:convar.obj
 0001:00056c70       ?FindCommand@ConCommandBase@@SAPBV1@PBD@Z 10057c70 f   tier1:convar.obj
 0001:00056cb0       ?GetCommands@ConCommandBase@@SAPBV1@XZ 10057cb0 f   tier1:convar.obj
 0001:00056cc0       ?GetDefault@ConVar@@QBEPBDXZ 10057cc0 f   tier1:convar.obj
 0001:00056cd0       ?GetHelpText@ConCommandBase@@UBEPBDXZ 10057cd0 f   tier1:convar.obj
 0001:00056ce0       ?GetHelpText@ConVar@@UBEPBDXZ 10057ce0 f   tier1:convar.obj
 0001:00056cf0       ?GetMax@ConVar@@QBE_NAAM@Z 10057cf0 f   tier1:convar.obj
 0001:00056d10       ?GetMin@ConVar@@QBE_NAAM@Z 10057d10 f   tier1:convar.obj
 0001:00056d30       ?GetName@ConCommandBase@@UBEPBDXZ 10057d30 f   tier1:convar.obj
 0001:00056d40       ?GetName@ConVar@@UBEPBDXZ  10057d40 f   tier1:convar.obj
 0001:00056d50       ?GetNext@ConCommandBase@@QBEPBV1@XZ 10057d50 f   tier1:convar.obj
 0001:00056d60       ?Init@ConCommandBase@@MAEXXZ 10057d60 f   tier1:convar.obj
 0001:00056d80       ?Init@ConVar@@EAEXXZ       10057d80 f   tier1:convar.obj
 0001:00056da0       ?InstallChangeCallback@ConVar@@QAEXP6AXPAV1@PBD@Z@Z 10057da0 f   tier1:convar.obj
 0001:00056dc0       ?InternalSetFloatValue@ConVar@@EAEXM@Z 10057dc0 f   tier1:convar.obj
 0001:00056e50       ?InternalSetIntValue@ConVar@@EAEXH@Z 10057e50 f   tier1:convar.obj
 0001:00056ee0       ?InternalSetValue@ConVar@@EAEXPBD@Z 10057ee0 f   tier1:convar.obj
 0001:00056f70       ?IsBitSet@ConCommandBase@@UBE_NH@Z 10057f70 f   tier1:convar.obj
 0001:00056f80       ?IsBitSet@ConVar@@UBE_NH@Z 10057f80 f   tier1:convar.obj
 0001:00056fa0       ?IsCommand@ConCommand@@UBE_NXZ 10057fa0 f   tier1:convar.obj
 0001:00056fb0       ?IsCommand@ConCommandBase@@UBE_NXZ 10057fb0 f   tier1:convar.obj
 0001:00056fc0       ?IsCommand@ConVar@@UBE_NXZ 10057fc0 f   tier1:convar.obj
 0001:00056fd0       ?IsRegistered@ConCommandBase@@UBE_NXZ 10057fd0 f   tier1:convar.obj
 0001:00056fe0       ?IsRegistered@ConVar@@UBE_NXZ 10057fe0 f   tier1:convar.obj
 0001:00057000       ?OneTimeInit@ConCommandBaseMgr@@SAXPAVIConCommandBaseAccessor@@@Z 10058000 f   tier1:convar.obj
 0001:00057030       ?RemoveFlaggedCommands@ConCommandBase@@SAXH@Z 10058030 f   tier1:convar.obj
 0001:00057080       ?Revert@ConVar@@QAEXXZ     10058080 f   tier1:convar.obj
 0001:00057090       ?RevertAll@ConVar@@SAXXZ   10058090 f   tier1:convar.obj
 0001:000570d0       ?RevertFlaggedCvars@ConCommandBase@@SAXH@Z 100580d0 f   tier1:convar.obj
 0001:00057150       ?SetNext@ConCommandBase@@QAEXPAV1@@Z 10058150 f   tier1:convar.obj
 0001:00057160       ?SetValue@ConVar@@UAEXH@Z  10058160 f   tier1:convar.obj
 0001:00057170       ?SetValue@ConVar@@UAEXM@Z  10058170 f   tier1:convar.obj
 0001:00057190       ?SetValue@ConVar@@UAEXPBD@Z 10058190 f   tier1:convar.obj
 0001:000571a0       ?Hash12@@YAIPBX@Z          100581a0 f   tier1:generichash.obj
 0001:00057260       ?Hash16@@YAIPBX@Z          10058260 f   tier1:generichash.obj
 0001:00057360       ?Hash4@@YAIPBX@Z           10058360 f   tier1:generichash.obj
 0001:000573b0       ?Hash8@@YAIPBX@Z           100583b0 f   tier1:generichash.obj
 0001:00057440       ?HashBlock@@YAIPBXI@Z      10058440 f   tier1:generichash.obj
 0001:00057490       ?HashString@@YAIPBD@Z      10058490 f   tier1:generichash.obj
 0001:000574d0       ?HashStringCaseless@@YAIPBD@Z 100584d0 f   tier1:generichash.obj
 0001:00057540       ?HashStringCaselessConventional@@YAIPBD@Z 10058540 f   tier1:generichash.obj
 0001:0005757a       ??_U@YAPAXI@Z              1005857a f   LIBCMT:new_array.obj
 0001:00057583       ??_V@YAXPAX@Z              10058583 f   LIBCMT:delete_array.obj
 0001:00057588       ??2@YAPAXI@Z               10058588 f   LIBCMT:new_scalar.obj
 0001:000575b8       ??3@YAXPAXI@Z              100585b8 f   LIBCMT:delete_scalar_size.obj
 0001:000575c6       ??1type_info@@UAE@XZ       100585c6 f   LIBCMT:std_type_info_static.obj
 0001:000575cd       ??_Etype_info@@UAEPAXI@Z   100585cd f i LIBCMT:std_type_info_static.obj
 0001:000575cd       ??_Gtype_info@@UAEPAXI@Z   100585cd f i LIBCMT:std_type_info_static.obj
 0001:000575f0       ?configure_argv@__scrt_narrow_argv_policy@@SAHXZ 100585f0 f i LIBCMT:utility.obj
 0001:00057641       ?initialize_environment@__scrt_narrow_environment_policy@@SAHXZ 10058641 f i LIBCMT:utility.obj
 0001:00057679       _NtCurrentTeb              10058679 f i LIBCMT:utility.obj
 0001:00057680       ___scrt_acquire_startup_lock 10058680 f   LIBCMT:utility.obj
 0001:000576b2       ___scrt_dllmain_after_initialize_c 100586b2 f   LIBCMT:utility.obj
 0001:000576dd       ___scrt_dllmain_before_initialize_c 100586dd f   LIBCMT:utility.obj
 0001:000576eb       ___scrt_dllmain_crt_thread_attach 100586eb f   LIBCMT:utility.obj
 0001:0005770a       ___scrt_dllmain_crt_thread_detach 1005870a f   LIBCMT:utility.obj
 0001:00057717       ___scrt_dllmain_exception_filter 10058717 f   LIBCMT:utility.obj
 0001:0005774b       ___scrt_dllmain_uninitialize_c 1005874b f   LIBCMT:utility.obj
 0001:0005776e       ___scrt_dllmain_uninitialize_critical 1005876e f   LIBCMT:utility.obj
 0001:0005777b       ___scrt_initialize_crt     1005877b f   LIBCMT:utility.obj
 0001:000577b4       ___scrt_initialize_onexit_tables 100587b4 f   LIBCMT:utility.obj
 0001:0005783b       ___scrt_is_nonwritable_in_current_image 1005883b f   LIBCMT:utility.obj
 0001:000578cf       ___scrt_release_startup_lock 100588cf f   LIBCMT:utility.obj
 0001:000578ec       ___scrt_uninitialize_crt   100588ec f   LIBCMT:utility.obj
 0001:00057914       __onexit                   10058914 f   LIBCMT:utility.obj
 0001:00057941       _at_quick_exit             10058941 f   LIBCMT:utility.obj
 0001:00057964       _atexit                    10058964 f   LIBCMT:utility.obj
 0001:00057a3e       __Init_thread_abort        10058a3e f   LIBCMT:thread_safe_statics.obj
 0001:00057a62       __Init_thread_footer       10058a62 f   LIBCMT:thread_safe_statics.obj
 0001:00057aac       __Init_thread_header       10058aac f   LIBCMT:thread_safe_statics.obj
 0001:00057afe       __Init_thread_lock         10058afe f   LIBCMT:thread_safe_statics.obj
 0001:00057b0a       __Init_thread_notify       10058b0a f   LIBCMT:thread_safe_statics.obj
 0001:00057b40       __Init_thread_unlock       10058b40 f   LIBCMT:thread_safe_statics.obj
 0001:00057b4c       __Init_thread_wait         10058b4c f   LIBCMT:thread_safe_statics.obj
 0001:00057ba0       __alloca_probe             10058ba0 f   LIBCMT:chkstk.obj
 0001:00057ba0       __chkstk                   10058ba0 f   LIBCMT:chkstk.obj
 0001:00057bd0       __alloca_probe_16          10058bd0 f   LIBCMT:alloca16.obj
 0001:00057be6       __alloca_probe_8           10058be6     LIBCMT:alloca16.obj
 0001:00057c00       __alldiv                   10058c00 f   LIBCMT:lldiv.obj
 0001:00057cb0       __allmul                   10058cb0 f   LIBCMT:llmul.obj
 0001:00057cf0       __ftoui3                   10058cf0 f   LIBCMT:ftol3.obj
 0001:00057d40       __ftoul3                   10058d40 f   LIBCMT:ftol3.obj
 0001:00057db0       __ftoul3_legacy            10058db0 f   LIBCMT:ftol3.obj
 0001:00057de0       __ftol3                    10058de0 f   LIBCMT:ftol3.obj
 0001:00057e50       __dtoui3                   10058e50 f   LIBCMT:ftol3.obj
 0001:00057ed0       __dtoul3                   10058ed0 f   LIBCMT:ftol3.obj
 0001:00057f80       __dtoul3_legacy            10058f80 f   LIBCMT:ftol3.obj
 0001:00057fb0       __dtol3                    10058fb0 f   LIBCMT:ftol3.obj
 0001:00058060       __ultod3                   10059060 f   LIBCMT:ftol3.obj
 0001:000580c0       __ltod3                    100590c0 f   LIBCMT:ftol3.obj
 0001:00058101       ___isa_available_init      10059101 f   LIBCMT:cpu_disp.obj
 0001:00058615       __CRT_INIT@12              10059615 f   LIBCMT:dll_dllmain.obj
 0001:0005861e       __DllMainCRTStartup@12     1005961e f   LIBCMT:dll_dllmain.obj
 0001:00058641       ??3@YAXPAX@Z               10059641 f   LIBCMT:delete_scalar.obj
 0001:00058650       __ftol2_sse_excpt          10059650 f   LIBCMT:ftol2.obj
 0001:00058660       __ftol2_sse                10059660 f   LIBCMT:ftol2.obj
 0001:00058670       __ftoi2                    10059670 f   LIBCMT:ftol2.obj
 0001:000586f0       __ftoui2                   100596f0 f   LIBCMT:ftol2.obj
 0001:000587a0       __ftol2                    100597a0 f   LIBCMT:ftol2.obj
 0001:00058850       __ftoul2                   10059850 f   LIBCMT:ftol2.obj
 0001:00058910       __ftoul2_legacy            10059910 f   LIBCMT:ftol2.obj
 0001:00058931       @__security_check_cookie@4 10059931 f   LIBCMT:secchk.obj
 0001:00058940       __allrem                   10059940 f   LIBCMT:llrem.obj
 0001:000589f2       ___raise_securityfailure   100599f2 f   LIBCMT:gs_report.obj
 0001:00058a1a       ___report_gsfailure        10059a1a f   LIBCMT:gs_report.obj
 0001:00058b14       ___report_rangecheckfailure 10059b14 f   LIBCMT:gs_report.obj
 0001:00058b20       ___report_securityfailure  10059b20 f   LIBCMT:gs_report.obj
 0001:00058bef       ___report_securityfailureEx 10059bef f   LIBCMT:gs_report.obj
 0001:00058d04       @_RTC_AllocaHelper@12      10059d04 f   LIBCMT:stack.obj
 0001:00058d36       @_RTC_CheckStackVars2@12   10059d36 f   LIBCMT:stack.obj
 0001:00058dfd       @_RTC_CheckStackVars@8     10059dfd f   LIBCMT:stack.obj
 0001:00058e51       __RTC_CheckEsp             10059e51 f   LIBCMT:stack.obj
 0001:00058e74       __CRT_RTC_INIT             10059e74 f   LIBCMT:init.obj
 0001:00058e77       __CRT_RTC_INITW            10059e77 f   LIBCMT:init.obj
 0001:00058e7a       __RTC_InitBase             10059e7a f   LIBCMT:init.obj
 0001:00058e93       __RTC_Shutdown             10059e93 f   LIBCMT:init.obj
 0001:00058e96       ??0bad_alloc@std@@AAE@QBD@Z 10059e96 f i LIBCMT:throw_bad_alloc.obj
 0001:00058eb3       ??0bad_alloc@std@@QAE@ABV01@@Z 10059eb3 f i LIBCMT:throw_bad_alloc.obj
 0001:00058ece       ??0bad_alloc@std@@QAE@XZ   10059ece f i LIBCMT:throw_bad_alloc.obj
 0001:00058ee6       ??0bad_array_new_length@std@@QAE@ABV01@@Z 10059ee6 f i LIBCMT:throw_bad_alloc.obj
 0001:00058f01       ??0bad_array_new_length@std@@QAE@XZ 10059f01 f i LIBCMT:throw_bad_alloc.obj
 0001:00058f19       ??0exception@std@@QAE@ABV01@@Z 10059f19 f i LIBCMT:throw_bad_alloc.obj
 0001:00058f45       ??0exception@std@@QAE@QBDH@Z 10059f45 f i LIBCMT:throw_bad_alloc.obj
 0001:00058f62       ??1bad_alloc@std@@UAE@XZ   10059f62 f i LIBCMT:throw_bad_alloc.obj
 0001:00058f73       ??1bad_array_new_length@std@@UAE@XZ 10059f73 f i LIBCMT:throw_bad_alloc.obj
 0001:00058f84       ??1exception@std@@UAE@XZ   10059f84 f i LIBCMT:throw_bad_alloc.obj
 0001:00058f95       ??_Ebad_alloc@std@@UAEPAXI@Z 10059f95 f i LIBCMT:throw_bad_alloc.obj
 0001:00058f95       ??_Gbad_alloc@std@@UAEPAXI@Z 10059f95 f i LIBCMT:throw_bad_alloc.obj
 0001:00058fc2       ??_Ebad_array_new_length@std@@UAEPAXI@Z 10059fc2 f i LIBCMT:throw_bad_alloc.obj
 0001:00058fc2       ??_Gbad_array_new_length@std@@UAEPAXI@Z 10059fc2 f i LIBCMT:throw_bad_alloc.obj
 0001:00058fef       ??_Eexception@std@@UAEPAXI@Z 10059fef f i LIBCMT:throw_bad_alloc.obj
 0001:00058fef       ??_Gexception@std@@UAEPAXI@Z 10059fef f i LIBCMT:throw_bad_alloc.obj
 0001:0005901c       ?__scrt_throw_std_bad_alloc@@YAXXZ 1005a01c f   LIBCMT:throw_bad_alloc.obj
 0001:00059039       ?__scrt_throw_std_bad_array_new_length@@YAXXZ 1005a039 f   LIBCMT:throw_bad_alloc.obj
 0001:00059056       ?what@exception@std@@UBEPBDXZ 1005a056 f i LIBCMT:throw_bad_alloc.obj
 0001:00059063       __get_startup_argv_mode    1005a063 f   LIBCMT:argv_mode.obj
 0001:00059067       ___scrt_is_ucrt_dll_in_use 1005a067 f   LIBCMT:ucrt_detection.obj
 0001:00059073       ___scrt_fastfail           1005a073 f   LIBCMT:utility_desktop.obj
 0001:0005918e       ___scrt_get_show_window_mode 1005a18e f   LIBCMT:utility_desktop.obj
 0001:000591bf       ___scrt_initialize_mta     1005a1bf f   LIBCMT:utility_desktop.obj
 0001:000591c4       ___scrt_initialize_winrt   1005a1c4 f   LIBCMT:utility_desktop.obj
 0001:000591c7       ___scrt_is_managed_app     1005a1c7 f   LIBCMT:utility_desktop.obj
 0001:00059209       ___scrt_set_unhandled_exception_filter 1005a209 f   LIBCMT:utility_desktop.obj
 0001:00059215       ___scrt_exe_initialize_mta 1005a215 f   LIBCMT:utility_desktop.obj
 0001:00059215       ___scrt_stub_for_initialize_mta 1005a215 f   LIBCMT:utility_desktop.obj
 0001:00059218       ___scrt_unhandled_exception_filter@4 1005a218 f   LIBCMT:utility_desktop.obj
 0001:0005926e       __crt_debugger_hook        1005a26e f   LIBCMT:utility_desktop.obj
 0001:00059280       __SEH_prolog4              1005a280 f   LIBCMT:sehprolg4.obj
 0001:000592d0       __SEH_epilog4              1005a2d0 f   LIBCMT:sehprolg4.obj
 0001:000592e4       @_guard_check_icall_nop@4  1005a2e4 f i LIBCMT:guard_support.obj
 0001:000592e7       _ReadNoFence               1005a2e7 f i LIBCMT:guard_support.obj
 0001:000592f1       _ReadPointerNoFence        1005a2f1 f i LIBCMT:guard_support.obj
 0001:000592fb       ___castguard_check_failure_debugbreak 1005a2fb f i LIBCMT:guard_support.obj
 0001:00059316       ___castguard_check_failure_fastfail 1005a316 f i LIBCMT:guard_support.obj
 0001:00059335       ___castguard_check_failure_nop 1005a335 f i LIBCMT:guard_support.obj
 0001:00059338       ___castguard_check_failure_os_handled 1005a338 f i LIBCMT:guard_support.obj
 0001:00059394       ___castguard_slow_path_check_debugbreak 1005a394 f i LIBCMT:guard_support.obj
 0001:000593c1       ___castguard_slow_path_check_fastfail 1005a3c1 f i LIBCMT:guard_support.obj
 0001:000593f2       ___castguard_slow_path_check_nop 1005a3f2 f i LIBCMT:guard_support.obj
 0001:000593f5       ___castguard_slow_path_check_os_handled 1005a3f5 f i LIBCMT:guard_support.obj
 0001:00059450       __guard_icall_checks_enforced 1005a450 f i LIBCMT:guard_support.obj
 0001:000594af       ___security_init_cookie    1005a4af f   LIBCMT:gs_support.obj
 0001:000594fa       _DllMain@12                1005a4fa f   LIBCMT:dll_dllmain_stub.obj
 0001:00059500       ?__scrt_initialize_type_info@@YAXXZ 1005a500 f   LIBCMT:tncleanup.obj
 0001:0005950c       ?__scrt_uninitialize_type_info@@YAXXZ 1005a50c f   LIBCMT:tncleanup.obj
 0001:00059518       ___scrt_initialize_default_local_stdio_options 1005a518 f   LIBCMT:default_local_stdio_options.obj
 0001:00059535       ___scrt_get_dyn_tls_init_callback 1005a535 f   LIBCMT:dyn_tls_init.obj
 0001:0005953b       __RTC_Initialize           1005a53b f   LIBCMT:initsect.obj
 0001:00059567       __RTC_Terminate            1005a567 f   LIBCMT:initsect.obj
 0001:00059605       ?_RTC_AllocaFailure@@YAXPAXPAU_RTC_ALLOCA_NODE@@H@Z 1005a605 f   LIBCMT:error.obj
 0001:000596de       ?_RTC_Failure@@YAXPAXH@Z   1005a6de f   LIBCMT:error.obj
 0001:0005971a       ?_RTC_StackFailure@@YAXPAXPBD@Z 1005a71a f   LIBCMT:error.obj
 0001:00059af1       __RTC_UninitUse            1005aaf1 f   LIBCMT:error.obj
 0001:00059b90       __vsprintf_s_l             1005ab90 f i LIBCMT:error.obj
 0001:00059bbd       _sprintf_s                 1005abbd f i LIBCMT:error.obj
 0001:00059bd9       ?_RTC_GetErrorFunc@@YAP6AHHPBDH00ZZPBX@Z 1005abd9 f   LIBCMT:userapi.obj
 0001:00059bdf       ?_RTC_GetErrorFuncW@@YAP6AHHPB_WH00ZZPBX@Z 1005abdf f   LIBCMT:userapi.obj
 0001:00059be5       __RTC_GetErrDesc           1005abe5 f   LIBCMT:userapi.obj
 0001:00059bfd       __RTC_NumErrors            1005abfd f   LIBCMT:userapi.obj
 0001:00059c01       __RTC_SetErrorFunc         1005ac01 f   LIBCMT:userapi.obj
 0001:00059c1b       __RTC_SetErrorFuncW        1005ac1b f   LIBCMT:userapi.obj
 0001:00059c35       __RTC_SetErrorType         1005ac35 f   LIBCMT:userapi.obj
 0001:00059e5c       ?_RTC_GetSrcLine@@YAHPAEPA_WKPAH1K@Z 1005ae5c f   LIBCMT:pdblkup.obj
 0001:0005a1a8       __except_handler4_noexcept 1005b1a8 f   LIBCMT:chandler4_noexcept.obj
 0001:0005a1ee       ??$__crt_interlocked_exchange_pointer@$$A6AXXZP6AXXZ@@YAP6AXXZPDS6AXXZQ6AXXZ@Z 1005b1ee f i libvcruntime:purevirt.obj
 0001:0005a1fb       ??$__crt_interlocked_read_pointer@$$A6AXXZ@@YAP6AXXZPDS6AXXZ@Z 1005b1fb f i libvcruntime:purevirt.obj
 0001:0005a206       ?__crt_interlocked_read_32@@YAHPDH@Z 1005b206 f i libvcruntime:purevirt.obj
 0001:0005a211       __get_purecall_handler     1005b211 f   libvcruntime:purevirt.obj
 0001:0005a218       __purecall                 1005b218 f   libvcruntime:purevirt.obj
 0001:0005a234       __set_purecall_handler     1005b234 f   libvcruntime:purevirt.obj
 0001:0005a250       _memmove                   1005b250 f   libvcruntime:memmove.obj
 0001:0005a7d0       _memcpy                    1005b7d0 f   libvcruntime:memcpy.obj
 0001:0005ad50       _memset                    1005bd50 f   libvcruntime:memset.obj
 0001:0005aeb0       _strchr                    1005beb0 f   libvcruntime:strchr.obj
 0001:0005af1e       ___from_strstr_to_strchr   1005bf1e     libvcruntime:strchr.obj
 0001:0005afe0       _strstr                    1005bfe0 f   libvcruntime:strstr.obj
 0001:0005b250       _strrchr                   1005c250 f   libvcruntime:strrchr.obj
 0001:0005b387       ___DestructExceptionObject 1005c387 f   libvcruntime:ehhelpers.obj
 0001:0005b428       ?_CallMemberFunction0@@YGXQAX0@Z 1005c428 f i libvcruntime:ehhelpers.obj
 0001:0005b48d       ?raw_name@type_info@@QBEPBDXZ 1005c48d f i libvcruntime:ehhelpers.obj
 0001:0005b491       __IsExceptionObjectToBeDestroyed 1005c491 f   libvcruntime:ehhelpers.obj
 0001:0005b4b7       __SetWinRTOutOfMemoryExceptionCallback 1005c4b7 f   libvcruntime:ehhelpers.obj
 0001:0005b4c4       ___AdjustPointer           1005c4c4 f   libvcruntime:ehhelpers.obj
 0001:0005b4e9       ___FrameUnwindFilter       1005c4e9 f   libvcruntime:ehhelpers.obj
 0001:0005b53f       ___GetPlatformExceptionInfo 1005c53f f   libvcruntime:ehhelpers.obj
 0001:0005b58b       ___current_exception       1005c58b f   libvcruntime:ehhelpers.obj
 0001:0005b594       ___current_exception_context 1005c594 f   libvcruntime:ehhelpers.obj
 0001:0005b59d       ___processing_throw        1005c59d f   libvcruntime:ehhelpers.obj
 0001:0005b5a6       ___std_terminate           1005c5a6 f   libvcruntime:ehhelpers.obj
 0001:0005b5ab       __is_exception_typeof      1005c5ab f   libvcruntime:ehhelpers.obj
 0001:0005b64f       ??$?0AAViterator@TryBlockMap@__FrameHandler3@@AAV012@$0A@@?$pair@Viterator@TryBlockMap@__FrameHandler3@@V123@@std@@QAE@AAViterator@TryBlockMap@__FrameHandler3@@0@Z 1005c64f f i libvcruntime:trnsctrl.obj
 0001:0005b673       ??$forward@AAViterator@TryBlockMap@__FrameHandler3@@@std@@YAAAViterator@TryBlockMap@__FrameHandler3@@AAV123@@Z 1005c673 f i libvcruntime:trnsctrl.obj
 0001:0005b67b       ??0iterator@TryBlockMap@__FrameHandler3@@QAE@AAV12@I@Z 1005c67b f i libvcruntime:trnsctrl.obj
 0001:0005b68f       ?GetRangeOfTrysToCheck@__FrameHandler3@@SA?AU?$pair@Viterator@TryBlockMap@__FrameHandler3@@V123@@std@@AAVTryBlockMap@1@HPAXPBU_s_FuncInfo@@H@Z 1005c68f f   libvcruntime:trnsctrl.obj
 0001:0005b6ff       ?_CallCatchBlock2@@YAPAXPAUEHRegistrationNode@@PBU_s_FuncInfo@@PAXHK@Z 1005c6ff f   libvcruntime:trnsctrl.obj
 0001:0005b75c       ?_CallSETranslator@@YAHPAUEHExceptionRecord@@PAUEHRegistrationNode@@PAX2PBU_s_FuncInfo@@H1@Z 1005c75c f   libvcruntime:trnsctrl.obj
 0001:0005b852       ?_JumpToContinuation@@YGXPAXPAUEHRegistrationNode@@@Z 1005c852 f   libvcruntime:trnsctrl.obj
 0001:0005b882       ?_UnwindNestedFrames@@YGXPAUEHRegistrationNode@@PAUEHExceptionRecord@@@Z 1005c882 f   libvcruntime:trnsctrl.obj
 0001:0005b8d5       __CatchGuardHandler        1005c8d5 f   libvcruntime:trnsctrl.obj
 0001:0005b906       __CreateFrameInfo          1005c906 f   libvcruntime:trnsctrl.obj
 0001:0005b92a       __FindAndUnlinkFrame       1005c92a f   libvcruntime:trnsctrl.obj
 0001:0005b972       __TranslatorGuardHandler   1005c972 f   libvcruntime:trnsctrl.obj
 0001:0005ba0f       ___CxxFrameHandler         1005ca0f f   libvcruntime:trnsctrl.obj
 0001:0005ba45       ___CxxFrameHandler2        1005ca45 f   libvcruntime:trnsctrl.obj
 0001:0005ba7b       ___CxxFrameHandler3        1005ca7b f   libvcruntime:trnsctrl.obj
 0001:0005bab1       ___CxxLongjmpUnwind@4      1005cab1 f   libvcruntime:trnsctrl.obj
 0001:0005bad6       ___vcrt_initialize         1005cad6 f   libvcruntime:initialization.obj
 0001:0005baf5       ___vcrt_thread_attach      1005caf5 f   libvcruntime:initialization.obj
 0001:0005bb00       ___vcrt_thread_detach      1005cb00 f   libvcruntime:initialization.obj
 0001:0005bb0b       ___vcrt_uninitialize       1005cb0b f   libvcruntime:initialization.obj
 0001:0005bb22       ___vcrt_uninitialize_critical 1005cb22 f   libvcruntime:initialization.obj
 0001:0005bb70       __except_handler4          1005cb70 f   libvcruntime:chandler4.obj
 0001:0005bcce       ??$?RD@__crt_public_free_policy@@QBEXQBD@Z 1005ccce f i libvcruntime:std_exception.obj
 0001:0005bcde       ??0?$__crt_unique_heap_ptr@DU__crt_public_free_policy@@@@QAE@QAD@Z 1005ccde f i libvcruntime:std_exception.obj
 0001:0005bcec       ??1?$__crt_unique_heap_ptr@DU__crt_public_free_policy@@@@QAE@XZ 1005ccec f i libvcruntime:std_exception.obj
 0001:0005bcfc       ??B?$__crt_unique_heap_ptr@DU__crt_public_free_policy@@@@QBE_NXZ 1005ccfc f i libvcruntime:std_exception.obj
 0001:0005bd03       ?detach@?$__crt_unique_heap_ptr@DU__crt_public_free_policy@@@@QAEPADXZ 1005cd03 f i libvcruntime:std_exception.obj
 0001:0005bd09       ?get@?$__crt_unique_heap_ptr@DU__crt_public_free_policy@@@@QBEPADXZ 1005cd09 f i libvcruntime:std_exception.obj
 0001:0005bd0c       ?is_valid@?$__crt_unique_heap_ptr@DU__crt_public_free_policy@@@@QBE_NXZ 1005cd0c f i libvcruntime:std_exception.obj
 0001:0005bd13       ?release@?$__crt_unique_heap_ptr@DU__crt_public_free_policy@@@@QAEXXZ 1005cd13 f i libvcruntime:std_exception.obj
 0001:0005bd23       ___std_exception_copy      1005cd23 f   libvcruntime:std_exception.obj
 0001:0005bd86       ___std_exception_destroy   1005cd86 f   libvcruntime:std_exception.obj
 0001:0005bda5       __CxxThrowException@8      1005cda5 f   libvcruntime:throw.obj
 0001:0005be1f       ??$?RD@__crt_internal_free_policy@@QBEXQBD@Z 1005ce1f f i libvcruntime:std_type_info.obj
 0001:0005be2f       ??$?RX@__crt_internal_free_policy@@QBEXQBX@Z 1005ce2f f i libvcruntime:std_type_info.obj
 0001:0005be3f       ??$__crt_interlocked_compare_exchange_pointer@$$CBDPAD$$T@@YAPBDPDSBDQAD$$T@Z 1005ce3f f i libvcruntime:std_type_info.obj
 0001:0005be51       ??$__crt_interlocked_read_pointer@$$CBD@@YAPBDPDSBD@Z 1005ce51 f i libvcruntime:std_type_info.obj
 0001:0005be5c       ??0?$__crt_unique_heap_ptr@DU__crt_internal_free_policy@@@@QAE@QAD@Z 1005ce5c f i libvcruntime:std_type_info.obj
 0001:0005be6a       ??0?$__crt_unique_heap_ptr@XU__crt_internal_free_policy@@@@QAE@QAX@Z 1005ce6a f i libvcruntime:std_type_info.obj
 0001:0005be78       ??1?$__crt_unique_heap_ptr@DU__crt_internal_free_policy@@@@QAE@XZ 1005ce78 f i libvcruntime:std_type_info.obj
 0001:0005be88       ??1?$__crt_unique_heap_ptr@XU__crt_internal_free_policy@@@@QAE@XZ 1005ce88 f i libvcruntime:std_type_info.obj
 0001:0005be98       ??B?$__crt_unique_heap_ptr@DU__crt_internal_free_policy@@@@QBE_NXZ 1005ce98 f i libvcruntime:std_type_info.obj
 0001:0005be9f       ??B?$__crt_unique_heap_ptr@XU__crt_internal_free_policy@@@@QBE_NXZ 1005ce9f f i libvcruntime:std_type_info.obj
 0001:0005bec6       ?detach@?$__crt_unique_heap_ptr@XU__crt_internal_free_policy@@@@QAEPAXXZ 1005cec6 f i libvcruntime:std_type_info.obj
 0001:0005becc       ?get@?$__crt_unique_heap_ptr@DU__crt_internal_free_policy@@@@QBEPADXZ 1005cecc f i libvcruntime:std_type_info.obj
 0001:0005becf       ?get@?$__crt_unique_heap_ptr@XU__crt_internal_free_policy@@@@QBEPAXXZ 1005cecf f i libvcruntime:std_type_info.obj
 0001:0005bed2       ?is_valid@?$__crt_unique_heap_ptr@DU__crt_internal_free_policy@@@@QBE_NXZ 1005ced2 f i libvcruntime:std_type_info.obj
 0001:0005bed9       ?is_valid@?$__crt_unique_heap_ptr@XU__crt_internal_free_policy@@@@QBE_NXZ 1005ced9 f i libvcruntime:std_type_info.obj
 0001:0005bee0       ?release@?$__crt_unique_heap_ptr@DU__crt_internal_free_policy@@@@QAEXXZ 1005cee0 f i libvcruntime:std_type_info.obj
 0001:0005bef0       ?release@?$__crt_unique_heap_ptr@XU__crt_internal_free_policy@@@@QAEXXZ 1005cef0 f i libvcruntime:std_type_info.obj
 0001:0005bf00       ___std_type_info_compare   1005cf00 f   libvcruntime:std_type_info.obj
 0001:0005bf3c       ___std_type_info_destroy_list 1005cf3c f   libvcruntime:std_type_info.obj
 0001:0005bf5f       ___std_type_info_hash      1005cf5f f   libvcruntime:std_type_info.obj
 0001:0005bf85       ___std_type_info_name      1005cf85 f   libvcruntime:std_type_info.obj
 0001:0005c04b       ___vcrt_GetModuleFileNameW 1005d04b f   libvcruntime:winapi_thunks.obj
 0001:0005c05f       ___vcrt_GetModuleHandleW   1005d05f f   libvcruntime:winapi_thunks.obj
 0001:0005c06d       ___vcrt_LoadLibraryExW     1005d06d f   libvcruntime:winapi_thunks.obj
 0001:0005c081       ??$?RU__vcrt_ptd@@@__crt_internal_free_policy@@QBEXQBU__vcrt_ptd@@@Z 1005d081 f i libvcruntime:per_thread_data.obj
 0001:0005c091       ??0?$__crt_unique_heap_ptr@U__vcrt_ptd@@U__crt_internal_free_policy@@@@QAE@QAU__vcrt_ptd@@@Z 1005d091 f i libvcruntime:per_thread_data.obj
 0001:0005c0ae       ??1?$__crt_unique_heap_ptr@U__vcrt_ptd@@U__crt_internal_free_policy@@@@QAE@XZ 1005d0ae f i libvcruntime:per_thread_data.obj
 0001:0005c0c7       ??B?$__crt_unique_heap_ptr@U__vcrt_ptd@@U__crt_internal_free_policy@@@@QBE_NXZ 1005d0c7 f i libvcruntime:per_thread_data.obj
 0001:0005c0ce       ?detach@?$__crt_unique_heap_ptr@U__vcrt_ptd@@U__crt_internal_free_policy@@@@QAEPAU__vcrt_ptd@@XZ 1005d0ce f i libvcruntime:per_thread_data.obj
 0001:0005c0d4       ?get@?$__crt_unique_heap_ptr@U__vcrt_ptd@@U__crt_internal_free_policy@@@@QBEPAU__vcrt_ptd@@XZ 1005d0d4 f i libvcruntime:per_thread_data.obj
 0001:0005c0d7       ?is_valid@?$__crt_unique_heap_ptr@U__vcrt_ptd@@U__crt_internal_free_policy@@@@QBE_NXZ 1005d0d7 f i libvcruntime:per_thread_data.obj
 0001:0005c0de       ?release@?$__crt_unique_heap_ptr@U__vcrt_ptd@@U__crt_internal_free_policy@@@@QAEXXZ 1005d0de f i libvcruntime:per_thread_data.obj
 0001:0005c108       ___vcrt_freefls@4          1005d108 f   libvcruntime:per_thread_data.obj
 0001:0005c124       ___vcrt_freeptd            1005d124 f   libvcruntime:per_thread_data.obj
 0001:0005c15a       ___vcrt_getptd             1005d15a f   libvcruntime:per_thread_data.obj
 0001:0005c168       ___vcrt_getptd_noexit      1005d168 f   libvcruntime:per_thread_data.obj
 0001:0005c1fa       ___vcrt_getptd_noinit      1005d1fa f   libvcruntime:per_thread_data.obj
 0001:0005c231       ___vcrt_initialize_ptd     1005d231 f   libvcruntime:per_thread_data.obj
 0001:0005c264       ___vcrt_uninitialize_ptd   1005d264 f   libvcruntime:per_thread_data.obj
 0001:0005c9b1       ??$TypeMatchHelper@V__FrameHandler3@@@@YAHPBU_s_HandlerType@@PBU_s_CatchableType@@PBU_s_ThrowInfo@@@Z 1005d9b1 f i libvcruntime:frame.obj
 0001:0005ca3f       ??$__InternalCxxFrameHandler@V__FrameHandler3@@@@YA?AW4_EXCEPTION_DISPOSITION@@PAUEHExceptionRecord@@PAUEHRegistrationNode@@PAU_CONTEXT@@PAXPBU_s_FuncInfo@@H1E@Z 1005da3f f i libvcruntime:frame.obj
 0001:0005cb41       ??$__InternalCxxFrameHandlerWrapper@V__FrameHandler3@@@@YA?AW4_EXCEPTION_DISPOSITION@@PAUEHExceptionRecord@@PAUEHRegistrationNode@@PAU_CONTEXT@@PAXPBU_s_FuncInfo@@H1E@Z 1005db41 f i libvcruntime:frame.obj
 0001:0005cb4a       ??0HandlerMap@__FrameHandler3@@QAE@PBU_s_TryBlockMapEntry@@II@Z 1005db4a f i libvcruntime:frame.obj
 0001:0005cb61       ??0TryBlockMap@__FrameHandler3@@QAE@PBU_s_FuncInfo@@I@Z 1005db61 f i libvcruntime:frame.obj
 0001:0005cb75       ??0bad_exception@std@@QAE@ABV01@@Z 1005db75 f i libvcruntime:frame.obj
 0001:0005cb90       ??0bad_exception@std@@QAE@XZ 1005db90 f i libvcruntime:frame.obj
 0001:0005cba8       ??0iterator@HandlerMap@__FrameHandler3@@QAE@AAV12@I@Z 1005dba8 f i libvcruntime:frame.obj
 0001:0005cbbc       ??1bad_exception@std@@UAE@XZ 1005dbbc f i libvcruntime:frame.obj
 0001:0005cbcd       ??8iterator@HandlerMap@__FrameHandler3@@QBE_NABV012@@Z 1005dbcd f i libvcruntime:frame.obj
 0001:0005cbe0       ??8type_info@@QBE_NABV0@@Z 1005dbe0 f i libvcruntime:frame.obj
 0001:0005cbff       ??9iterator@HandlerMap@__FrameHandler3@@QBE_NABV012@@Z 1005dbff f i libvcruntime:frame.obj
 0001:0005cc12       ??Diterator@HandlerMap@__FrameHandler3@@QAE?BU_s_HandlerType@@XZ 1005dc12 f i libvcruntime:frame.obj
 0001:0005cc31       ??Diterator@TryBlockMap@__FrameHandler3@@QAE?BU_s_TryBlockMapEntry@@XZ 1005dc31 f i libvcruntime:frame.obj
 0001:0005cc53       ??Eiterator@HandlerMap@__FrameHandler3@@QAEAAV012@XZ 1005dc53 f i libvcruntime:frame.obj
 0001:0005cc59       ??Eiterator@TryBlockMap@__FrameHandler3@@QAEAAV012@XZ 1005dc59 f i libvcruntime:frame.obj
 0001:0005cc5f       ??Miterator@TryBlockMap@__FrameHandler3@@QBE_NABV012@@Z 1005dc5f f i libvcruntime:frame.obj
 0001:0005cc72       ??_Ebad_exception@std@@UAEPAXI@Z 1005dc72 f i libvcruntime:frame.obj
 0001:0005cc72       ??_Gbad_exception@std@@UAEPAXI@Z 1005dc72 f i libvcruntime:frame.obj
 0001:0005cc9f       ?BuildCatchObject@__FrameHandler3@@SAXPAUEHExceptionRecord@@PAXPBU_s_HandlerType@@PBU_s_CatchableType@@@Z 1005dc9f f   libvcruntime:frame.obj
 0001:0005cca4       ?BuildCatchObjectHelper@__FrameHandler3@@SAHPAUEHExceptionRecord@@PAXPBU_s_HandlerType@@PBU_s_CatchableType@@@Z 1005dca4 f   libvcruntime:frame.obj
 0001:0005cf05       ?FrameUnwindToEmptyState@__FrameHandler3@@SAXPAUEHRegistrationNode@@PAXPBU_s_FuncInfo@@@Z 1005df05 f   libvcruntime:frame.obj
 0001:0005cf1d       ?FrameUnwindToState@__FrameHandler3@@SAXPAUEHRegistrationNode@@PAXPBU_s_FuncInfo@@H@Z 1005df1d f   libvcruntime:frame.obj
 0001:0005d005       ?GetMaxState@__FrameHandler3@@SAHPAXPBU_s_FuncInfo@@@Z 1005e005 f i libvcruntime:frame.obj
 0001:0005d0e3       ?TypeMatch@__FrameHandler3@@SAHPBU_s_HandlerType@@PBU_s_CatchableType@@PBU_s_ThrowInfo@@@Z 1005e0e3 f   libvcruntime:frame.obj
 0001:0005d0ec       ?_CallMemberFunction1@@YGXQAX00@Z 1005e0ec f i libvcruntime:frame.obj
 0001:0005d0fc       ?_CallMemberFunction2@@YGXQAX00H@Z 1005e0fc f i libvcruntime:frame.obj
 0001:0005d10f       ?begin@HandlerMap@__FrameHandler3@@QAE?AViterator@12@XZ 1005e10f f i libvcruntime:frame.obj
 0001:0005d11f       ?end@HandlerMap@__FrameHandler3@@QAE?AViterator@12@XZ 1005e11f f i libvcruntime:frame.obj
 0001:0005d130       ?getESTypes@__FrameHandler3@@SAPBU_s_ESTypeList@@PBU_s_FuncInfo@@@Z 1005e130 f i libvcruntime:frame.obj
 0001:0005d13b       ?getLastEntry@HandlerMap@__FrameHandler3@@QAEPBU_s_HandlerType@@XZ 1005e13b f i libvcruntime:frame.obj
 0001:0005d149       ?getMagicNum@__FrameHandler3@@SAIPBU_s_FuncInfo@@@Z 1005e149 f i libvcruntime:frame.obj
 0001:0005d158       ?getNumTryBlocks@TryBlockMap@__FrameHandler3@@QAEIXZ 1005e158 f i libvcruntime:frame.obj
 0001:0005d15e       ?isEHs@__FrameHandler3@@SA_NPBU_s_FuncInfo@@@Z 1005e15e f i libvcruntime:frame.obj
 0001:0005d16b       ?isNoExcept@__FrameHandler3@@SA_NPBU_s_FuncInfo@@@Z 1005e16b f i libvcruntime:frame.obj
 0001:0005d17b       ___BuildCatchObject        1005e17b f   libvcruntime:frame.obj
 0001:0005d180       ___BuildCatchObjectHelper  1005e180 f   libvcruntime:frame.obj
 0001:0005d189       ___TypeMatch               1005e189 f   libvcruntime:frame.obj
 0001:0005d192       ___vcrt_EncodePointer      1005e192 f i libvcruntime:frame.obj
 0001:0005d1a0       __CallSettingFrame@12      1005e1a0 f   libvcruntime:lowhelpr.obj
 0001:0005d1c7       __NLG_Return               1005e1c7     libvcruntime:lowhelpr.obj
 0001:0005d1f7       ___except_validate_context_record 1005e1f7 f   libvcruntime:jbcxrval.obj
 0001:0005d227       ___except_validate_jump_buffer 1005e227 f   libvcruntime:jbcxrval.obj
 0001:0005d254       ___except_validate_jump_buffer_common 1005e254 f i libvcruntime:jbcxrval.obj
 0001:0005d28d       ___vcrt_initialize_locks   1005e28d f   libvcruntime:locks.obj
 0001:0005d2c9       ___vcrt_lock               1005e2c9 f   libvcruntime:locks.obj
 0001:0005d2de       ___vcrt_uninitialize_locks 1005e2de f   libvcruntime:locks.obj
 0001:0005d30d       ___vcrt_unlock             1005e30d f   libvcruntime:locks.obj
 0001:0005d330       __local_unwind4            1005e330 f   libvcruntime:exsup4.obj
 0001:0005d420       __seh_longjmp_unwind4@4    1005e420 f   libvcruntime:exsup4.obj
 0001:0005d450       @_EH4_CallFilterFunc@8     1005e450 f   libvcruntime:exsup4.obj
 0001:0005d470       @_EH4_TransferToHandler@8  1005e470 f   libvcruntime:exsup4.obj
 0001:0005d490       @_EH4_GlobalUnwind2@8      1005e490 f   libvcruntime:exsup4.obj
 0001:0005d4b0       @_EH4_LocalUnwind@16       1005e4b0 f   libvcruntime:exsup4.obj
 0001:0005d4c7       ??$?0$00@DName@@QAE@PBDU?$StringLifeSelector@$00@@@Z 1005e4c7 f i libvcruntime:undname.obj
 0001:0005d4fa       ??$?0$00@pcharNode@@QAE@PBDHU?$StringLifeSelector@$00@@@Z 1005e4fa f i libvcruntime:undname.obj
 0001:0005d515       ??$?0$01@DName@@QAE@PBDU?$StringLifeSelector@$01@@@Z 1005e515 f i libvcruntime:undname.obj
 0001:0005d548       ??$?0$01@pcharNode@@QAE@PBDHU?$StringLifeSelector@$01@@@Z 1005e548 f i libvcruntime:undname.obj
 0001:0005d588       ??$?0$0A@@DName@@QAE@PBDU?$StringLifeSelector@$0A@@@@Z 1005e588 f i libvcruntime:undname.obj
 0001:0005d5bb       ??$?0$0A@@pcharNode@@QAE@PBDHU?$StringLifeSelector@$0A@@@@Z 1005e5bb f i libvcruntime:undname.obj
 0001:0005d5fb       ??$?0_K$0A@@?$optional@_K@std@@QAE@$$QA_K@Z 1005e5fb f i libvcruntime:undname.obj
 0001:0005d615       ??$?0_K@?$_Optional_construct_base@_K@std@@QAE@Uin_place_t@1@$$QA_K@Z 1005e615 f i libvcruntime:undname.obj
 0001:0005d62f       ??$?0_K@?$_Optional_destruct_base@_K$00@std@@QAE@Uin_place_t@1@$$QA_K@Z 1005e62f f i libvcruntime:undname.obj
 0001:0005d649       ??$append@VDNameNode@@@DName@@AAEXPBVDNameNode@@@Z 1005e649 f i libvcruntime:undname.obj
 0001:0005d68a       ??$append@VDNameStatusNode@@@DName@@AAEXPBVDNameStatusNode@@@Z 1005e68a f i libvcruntime:undname.obj
 0001:0005d6cb       ??$append@VcharNode@@@DName@@AAEXPBVcharNode@@@Z 1005e6cb f i libvcruntime:undname.obj
 0001:0005d70c       ??$append@VpDNameNode@@@DName@@AAEXPBVpDNameNode@@@Z 1005e70c f i libvcruntime:undname.obj
 0001:0005d74d       ??$append@VpcharNode@@@DName@@AAEXPBVpcharNode@@@Z 1005e74d f i libvcruntime:undname.obj
 0001:0005d78e       ??$doPchar@$00@DName@@AAEXPBDH@Z 1005e78e f i libvcruntime:undname.obj
 0001:0005d7f9       ??$doPchar@$01@DName@@AAEXPBDH@Z 1005e7f9 f i libvcruntime:undname.obj
 0001:0005d86a       ??$doPchar@$0A@@DName@@AAEXPBDH@Z 1005e86a f i libvcruntime:undname.obj
 0001:0005d8db       ??$forward@_K@std@@YA$$QA_KAA_K@Z 1005e8db f i libvcruntime:undname.obj
 0001:0005d99f       ??$size@D$04@std@@YAIAAY04$$CBD@Z 1005e99f f i libvcruntime:undname.obj
 0001:0005d9a3       ??0?$_Optional_construct_base@_K@std@@QAE@XZ 1005e9a3 f i libvcruntime:undname.obj
 0001:0005d9aa       ??0?$_Optional_destruct_base@_K$00@std@@QAE@XZ 1005e9aa f i libvcruntime:undname.obj
 0001:0005d9b1       ??0?$optional@_K@std@@QAE@XZ 1005e9b1 f i libvcruntime:undname.obj
 0001:0005d9b8       ??0Block@_HeapManager@@QAE@XZ 1005e9b8 f i libvcruntime:undname.obj
 0001:0005d9be       ??0DName@@QAE@AAPBDD@Z     1005e9be f   libvcruntime:undname.obj
 0001:0005da3e       ??0DName@@QAE@ABUStringLiteral@@@Z 1005ea3e f   libvcruntime:undname.obj
 0001:0005da65       ??0DName@@QAE@ABV0@@Z      1005ea65 f i libvcruntime:undname.obj
 0001:0005da7b       ??0DName@@QAE@D@Z          1005ea7b f   libvcruntime:undname.obj
 0001:0005da97       ??0DName@@QAE@PAV0@@Z      1005ea97 f   libvcruntime:undname.obj
 0001:0005dae0       ??0DName@@QAE@W4DNameStatus@@@Z 1005eae0 f   libvcruntime:undname.obj
 0001:0005db20       ??0DName@@QAE@XZ           1005eb20 f i libvcruntime:undname.obj
 0001:0005db2a       ??0DName@@QAE@_J@Z         1005eb2a f   libvcruntime:undname.obj
 0001:0005dbb4       ??0DName@@QAE@_K@Z         1005ebb4 f   libvcruntime:undname.obj
 0001:0005dc18       ??0DNameNode@@IAE@XZ       1005ec18 f i libvcruntime:undname.obj
 0001:0005dc21       ??0Replicator@@QAE@XZ      1005ec21 f i libvcruntime:undname.obj
 0001:0005dc30       ??0UnDecorator@@QAE@PBDP6APADJ@ZK@Z 1005ec30 f i libvcruntime:undname.obj
 0001:0005dc7c       ??0_Nontrivial_dummy_type@std@@QAE@XZ 1005ec7c f i libvcruntime:undname.obj
 0001:0005dc7f       ??0charNode@@QAE@D@Z       1005ec7f f i libvcruntime:undname.obj
 0001:0005dc94       ??0pDNameNode@@QAE@PAVDName@@@Z 1005ec94 f   libvcruntime:undname.obj
 0001:0005dcbc       ??0pairNode@@QAE@PBVDNameNode@@0@Z 1005ecbc f i libvcruntime:undname.obj
 0001:0005dce2       ??2@YAPAXIAAV_HeapManager@@H@Z 1005ece2 f   libvcruntime:undname.obj
 0001:0005dd01       ??4DName@@QAEAAV0@ABUStringLiteral@@@Z 1005ed01 f   libvcruntime:undname.obj
 0001:0005dd22       ??4DName@@QAEAAV0@ABV0@@Z  1005ed22 f   libvcruntime:undname.obj
 0001:0005dd38       ??4DName@@QAEAAV0@D@Z      1005ed38 f i libvcruntime:undname.obj
 0001:0005dd54       ??4DName@@QAEAAV0@PAV0@@Z  1005ed54 f   libvcruntime:undname.obj
 0001:0005dd97       ??4DName@@QAEAAV0@W4DNameStatus@@@Z 1005ed97 f   libvcruntime:undname.obj
 0001:0005ddc9       ??AReplicator@@QBE?AVDName@@H@Z 1005edc9 f   libvcruntime:undname.obj
 0001:0005de05       ??B?$optional@_K@std@@QBE_NXZ 1005ee05 f i libvcruntime:undname.obj
 0001:0005de09       ??D?$_Optional_construct_base@_K@std@@QGAEAA_KXZ 1005ee09 f i libvcruntime:undname.obj
 0001:0005de0c       ??H@YA?AVDName@@ABUStringLiteral@@ABV0@@Z 1005ee0c f i libvcruntime:undname.obj
 0001:0005de2e       ??H@YA?AVDName@@DABV0@@Z   1005ee2e f i libvcruntime:undname.obj
 0001:0005de59       ??H@YA?AVDName@@W4DNameStatus@@ABV0@@Z 1005ee59 f i libvcruntime:undname.obj
 0001:0005de7b       ??HDName@@QBE?AV0@ABUStringLiteral@@@Z 1005ee7b f   libvcruntime:undname.obj
 0001:0005de9d       ??HDName@@QBE?AV0@ABV0@@Z  1005ee9d f   libvcruntime:undname.obj
 0001:0005debf       ??HDName@@QBE?AV0@D@Z      1005eebf f   libvcruntime:undname.obj
 0001:0005dee1       ??HDName@@QBE?AV0@PAV0@@Z  1005eee1 f   libvcruntime:undname.obj
 0001:0005df03       ??HDName@@QBE?AV0@W4DNameStatus@@@Z 1005ef03 f   libvcruntime:undname.obj
 0001:0005df25       ??HStringLiteral@@QBE?AU0@H@Z 1005ef25 f i libvcruntime:undname.obj
 0001:0005df3f       ??YDName@@QAEAAV0@ABUStringLiteral@@@Z 1005ef3f f   libvcruntime:undname.obj
 0001:0005df97       ??YDName@@QAEAAV0@ABV0@@Z  1005ef97 f   libvcruntime:undname.obj
 0001:0005dfee       ??YDName@@QAEAAV0@D@Z      1005efee f   libvcruntime:undname.obj
 0001:0005e043       ??YDName@@QAEAAV0@PAV0@@Z  1005f043 f   libvcruntime:undname.obj
 0001:0005e0a7       ??YDName@@QAEAAV0@W4DNameStatus@@@Z 1005f0a7 f   libvcruntime:undname.obj
 0001:0005e0e7       ??YReplicator@@QAEAAV0@ABVDName@@@Z 1005f0e7 f   libvcruntime:undname.obj
 0001:0005e127       ??_5DName@@QAEAAV0@ABV0@@Z 1005f127 f   libvcruntime:undname.obj
 0001:0005e146       ??__K_l@@YA?AUStringLiteral@@PBDI@Z 1005f146 f i libvcruntime:undname.obj
 0001:0005e151       ?Constructor@_HeapManager@@QAEXP6APAXI@ZP6AXPAX@Z@Z 1005f151 f i libvcruntime:undname.obj
 0001:0005e16e       ?Destructor@_HeapManager@@QAEXXZ 1005f16e f i libvcruntime:undname.obj
 0001:0005e1b2       ?UScore@UnDecorator@@SA?AUStringLiteral@@W4Tokens@@@Z 1005f1b2 f   libvcruntime:undname.obj
 0001:0005e1d9       ?composeDeclaration@UnDecorator@@CA?AVDName@@ABV2@@Z 1005f1d9 f i libvcruntime:undname.obj
 0001:0005eed1       ?doAccessSpecifiers@UnDecorator@@SAHXZ 1005fed1 f i libvcruntime:undname.obj
 0001:0005eedf       ?doAllocationLanguage@UnDecorator@@SAHXZ 1005fedf f i libvcruntime:undname.obj
 0001:0005eeed       ?doAllocationModel@UnDecorator@@SAHXZ 1005feed f i libvcruntime:undname.obj
 0001:0005eefb       ?doEcsu@UnDecorator@@SAHXZ 1005fefb f i libvcruntime:undname.obj
 0001:0005ef09       ?doEllipsis@UnDecorator@@SAHXZ 1005ff09 f i libvcruntime:undname.obj
 0001:0005ef17       ?doFunctionReturns@UnDecorator@@SAHXZ 1005ff17 f i libvcruntime:undname.obj
 0001:0005ef25       ?doMSKeywords@UnDecorator@@SAHXZ 1005ff25 f i libvcruntime:undname.obj
 0001:0005ef32       ?doMemberTypes@UnDecorator@@SAHXZ 1005ff32 f i libvcruntime:undname.obj
 0001:0005ef40       ?doNameOnly@UnDecorator@@SAHXZ 1005ff40 f i libvcruntime:undname.obj
 0001:0005ef4b       ?doNoIdentCharCheck@UnDecorator@@SAHXZ 1005ff4b f i libvcruntime:undname.obj
 0001:0005ef56       ?doPchar@DName@@AAEXD@Z    1005ff56 f   libvcruntime:undname.obj
 0001:0005ef8e       ?doPtr64@UnDecorator@@SAHXZ 1005ff8e f i libvcruntime:undname.obj
 0001:0005ef9c       ?doRestrictionSpec@UnDecorator@@SAHXZ 1005ff9c f i libvcruntime:undname.obj
 0001:0005efaa       ?doThisTypes@UnDecorator@@SAHXZ 1005ffaa f i libvcruntime:undname.obj
 0001:0005efbc       ?doThrowTypes@UnDecorator@@SAHXZ 1005ffbc f i libvcruntime:undname.obj
 0001:0005efca       ?doTypeOnly@UnDecorator@@SAHXZ 1005ffca f i libvcruntime:undname.obj
 0001:0005efd5       ?doUnderScore@UnDecorator@@SAHXZ 1005ffd5 f i libvcruntime:undname.obj
 0001:0005efe0       ?getAddressOf@UnDecorator@@CA?AVDName@@XZ 1005ffe0 f   libvcruntime:undname.obj
 0001:0005f048       ?getArgumentList@UnDecorator@@CA?AVDName@@XZ 10060048 f   libvcruntime:undname.obj
 0001:0005f1b2       ?getArgumentTypes@UnDecorator@@CA?AVDName@@XZ 100601b2 f   libvcruntime:undname.obj
 0001:0005f2ba       ?getArrayAccess@UnDecorator@@CA?AVDName@@XZ 100602ba f   libvcruntime:undname.obj
 0001:0005f32e       ?getArrayObject@UnDecorator@@CA?AVDName@@XZ 1006032e f   libvcruntime:undname.obj
 0001:0005f3b9       ?getArrayType@UnDecorator@@CA?AVDName@@ABV2@@Z 100603b9 f i libvcruntime:undname.obj
 0001:0005f556       ?getBasedType@UnDecorator@@CA?AVDName@@XZ 10060556 f   libvcruntime:undname.obj
 0001:0005f605       ?getBasicDataType@UnDecorator@@CA?AVDName@@ABV2@@Z 10060605 f   libvcruntime:undname.obj
 0001:0005fb61       ?getCHPEName@UnDecorator@@QAEPADPADH@Z 10060b61 f i libvcruntime:undname.obj
 0001:0005fc3e       ?getCallIndex@UnDecorator@@CA?AVDName@@XZ 10060c3e f i libvcruntime:undname.obj
 0001:0005fc52       ?getCallingConvention@UnDecorator@@CA?AVDName@@XZ 10060c52 f   libvcruntime:undname.obj
 0001:0005fd27       ?getDataIndirectType@UnDecorator@@CA?AVDName@@ABV2@W4IndirectionKind@@0H@Z 10060d27 f   libvcruntime:undname.obj
 0001:000604c5       ?getDataIndirectType@UnDecorator@@CA?AVDName@@XZ 100614c5 f i libvcruntime:undname.obj
 0001:000604f3       ?getDataType@UnDecorator@@CA?AVDName@@PAV2@@Z 100614f3 f   libvcruntime:undname.obj
 0001:000605ca       ?getDecoratedName@UnDecorator@@CA?AVDName@@XZ 100615ca f   libvcruntime:undname.obj
 0001:0006081e       ?getDimension@UnDecorator@@CA?AVDName@@_N@Z 1006181e f   libvcruntime:undname.obj
 0001:00060925       ?getDispatchTarget@UnDecorator@@CA?AVDName@@XZ 10061925 f   libvcruntime:undname.obj
 0001:00060976       ?getDisplacement@UnDecorator@@CA?AVDName@@XZ 10061976 f i libvcruntime:undname.obj
 0001:0006098a       ?getECSUDataType@UnDecorator@@CA?AVDName@@XZ 1006198a f   libvcruntime:undname.obj
 0001:00060b34       ?getECSUName@UnDecorator@@CA?AVDName@@XZ 10061b34 f i libvcruntime:undname.obj
 0001:00060b45       ?getEnumType@UnDecorator@@CA?AVDName@@XZ 10061b45 f i libvcruntime:undname.obj
 0001:00060c65       ?getExtendedDataIndirectType@UnDecorator@@CA?AVDName@@AAW4IndirectionKind@@AA_NH@Z 10061c65 f   libvcruntime:undname.obj
 0001:00060e11       ?getExternalDataType@UnDecorator@@CA?AVDName@@ABV2@@Z 10061e11 f i libvcruntime:undname.obj
 0001:00060e76       ?getFloatingPoint@UnDecorator@@CA?AVDName@@H@Z 10061e76 f   libvcruntime:undname.obj
 0001:00060f34       ?getFunctionIndirectType@UnDecorator@@CA?AVDName@@ABV2@@Z 10061f34 f   libvcruntime:undname.obj
 0001:000612de       ?getGuardNumber@UnDecorator@@CA?AVDName@@XZ 100622de f i libvcruntime:undname.obj
 0001:000612f2       ?getLastChar@DName@@QBEDXZ 100622f2 f i libvcruntime:undname.obj
 0001:00061312       ?getLastChar@DNameStatusNode@@UBEDXZ 10062312 f i libvcruntime:undname.obj
 0001:0006131e       ?getLastChar@charNode@@UBEDXZ 1006231e f i libvcruntime:undname.obj
 0001:00061322       ?getLastChar@pDNameNode@@UBEDXZ 10062322 f i libvcruntime:undname.obj
 0001:00061330       ?getLastChar@pairNode@@UBEDXZ 10062330 f i libvcruntime:undname.obj
 0001:00061365       ?getLastChar@pcharNode@@UBEDXZ 10062365 f i libvcruntime:undname.obj
 0001:00061377       ?getLexicalFrame@UnDecorator@@CA?AVDName@@XZ 10062377 f i libvcruntime:undname.obj
 0001:000613a8       ?getMemberAccess@UnDecorator@@CA?AVDName@@XZ 100623a8 f   libvcruntime:undname.obj
 0001:00061418       ?getMemoryWithBuffer@_HeapManager@@QAEPAXI@Z 10062418 f   libvcruntime:undname.obj
 0001:00061482       ?getMemoryWithoutBuffer@_HeapManager@@QAEPAXI@Z 10062482 f   libvcruntime:undname.obj
 0001:000614a2       ?getNoexcept@UnDecorator@@CA?AVDName@@XZ 100624a2 f   libvcruntime:undname.obj
 0001:000614ea       ?getNumberOfDimensions@UnDecorator@@CAHXZ 100624ea f   libvcruntime:undname.obj
 0001:0006154c       ?getOperatorName@UnDecorator@@CA?AVDName@@_NPA_N@Z 1006254c f i libvcruntime:undname.obj
 0001:00061d76       ?getPointerToMember@UnDecorator@@CA?AVDName@@XZ 10062d76 f   libvcruntime:undname.obj
 0001:00061e32       ?getPointerType@UnDecorator@@CA?AVDName@@ABV2@0@Z 10062e32 f i libvcruntime:undname.obj
 0001:00061e4d       ?getPointerTypeArray@UnDecorator@@CA?AVDName@@ABV2@0@Z 10062e4d f i libvcruntime:undname.obj
 0001:00061e68       ?getPrimaryDataType@UnDecorator@@CA?AVDName@@ABV2@@Z 10062e68 f   libvcruntime:undname.obj
 0001:000620b6       ?getPtrRefDataType@UnDecorator@@CA?AVDName@@ABV2@H@Z 100630b6 f   libvcruntime:undname.obj
 0001:00062223       ?getPtrRefType@UnDecorator@@CA?AVDName@@ABV2@0W4IndirectionKind@@@Z 10063223 f   libvcruntime:undname.obj
 0001:00062334       ?getReferenceType@UnDecorator@@CA?AVDName@@ABV2@0W4IndirectionKind@@@Z 10063334 f i libvcruntime:undname.obj
 0001:00062350       ?getRestrictionSpec@UnDecorator@@CA?AVDName@@XZ 10063350 f   libvcruntime:undname.obj
 0001:00062469       ?getReturnType@UnDecorator@@CA?AVDName@@PAV2@@Z 10063469 f   libvcruntime:undname.obj
 0001:00062498       ?getScope@UnDecorator@@CA?AVDName@@XZ 10063498 f   libvcruntime:undname.obj
 0001:00062856       ?getScopedName@UnDecorator@@CA?AVDName@@XZ 10063856 f   libvcruntime:undname.obj
 0001:00062949       ?getSignedDimension@UnDecorator@@CA?AVDName@@XZ 10063949 f   libvcruntime:undname.obj
 0001:0006299a       ?getStorageConvention@UnDecorator@@CA?AVDName@@XZ 1006399a f i libvcruntime:undname.obj
 0001:000629ab       ?getString@DName@@QBEPADPAD0@Z 100639ab f i libvcruntime:undname.obj
 0001:000629d8       ?getString@DName@@QBEPADPADH@Z 100639d8 f i libvcruntime:undname.obj
 0001:00062a2d       ?getString@DNameStatusNode@@UBEPADPAD0@Z 10063a2d f i libvcruntime:undname.obj
 0001:00062a74       ?getString@charNode@@UBEPADPAD0@Z 10063a74 f i libvcruntime:undname.obj
 0001:00062a89       ?getString@pDNameNode@@UBEPADPAD0@Z 10063a89 f i libvcruntime:undname.obj
 0001:00062aa0       ?getString@pairNode@@UBEPADPAD0@Z 10063aa0 f i libvcruntime:undname.obj
 0001:00062ae6       ?getString@pcharNode@@UBEPADPAD0@Z 10063ae6 f i libvcruntime:undname.obj
 0001:00062b01       ?getStringEncoding@UnDecorator@@CA?AVDName@@W4PrefixKind@@H@Z 10063b01 f   libvcruntime:undname.obj
 0001:00062b94       ?getStringHelper@@YAPADPADPBD1H@Z 10063b94 f i libvcruntime:undname.obj
 0001:00062bbe       ?getStringObject@UnDecorator@@CA?AVDName@@XZ 10063bbe f   libvcruntime:undname.obj
 0001:00062c09       ?getSymbolName@UnDecorator@@CA?AVDName@@XZ 10063c09 f i libvcruntime:undname.obj
 0001:00062c51       ?getTemplateArgumentList@UnDecorator@@CA?AVDName@@XZ 10063c51 f   libvcruntime:undname.obj
 0001:00062e01       ?getTemplateName@UnDecorator@@CA?AVDName@@_N@Z 10063e01 f   libvcruntime:undname.obj
 0001:00062f64       ?getTemplateNonTypeArgument@UnDecorator@@CA?AVDName@@XZ 10063f64 f   libvcruntime:undname.obj
 0001:0006332c       ?getTemplateTypeArgument@UnDecorator@@CA?AVDName@@XZ 1006432c f   libvcruntime:undname.obj
 0001:0006343d       ?getThisType@UnDecorator@@CA?AVDName@@XZ 1006443d f i libvcruntime:undname.obj
 0001:0006346c       ?getThrowTypes@UnDecorator@@CA?AVDName@@XZ 1006446c f   libvcruntime:undname.obj
 0001:0006348b       ?getTypeEncoding@UnDecorator@@CAHXZ 1006448b f i libvcruntime:undname.obj
 0001:000637cb       ?getUndecoratedName@UnDecorator@@QAEPADPADH@Z 100647cb f i libvcruntime:undname.obj
 0001:000638ea       ?getUnionObject@UnDecorator@@CA?AVDName@@XZ 100648ea f   libvcruntime:undname.obj
 0001:00063991       ?getVCallThunkType@UnDecorator@@CA?AVDName@@XZ 10064991 f i libvcruntime:undname.obj
 0001:000639db       ?getValue@UnDecorator@@CA?AV?$optional@_K@std@@XZ 100649db f   libvcruntime:undname.obj
 0001:00063a63       ?getValueObject@UnDecorator@@CA?AVDName@@XZ 10064a63 f   libvcruntime:undname.obj
 0001:00063b5d       ?getVbTableType@UnDecorator@@CA?AVDName@@ABV2@@Z 10064b5d f i libvcruntime:undname.obj
 0001:00063b72       ?getVdispMapType@UnDecorator@@CA?AVDName@@ABV2@@Z 10064b72 f i libvcruntime:undname.obj
 0001:00063bd3       ?getVfTableType@UnDecorator@@CA?AVDName@@ABV2@@Z 10064bd3 f i libvcruntime:undname.obj
 0001:00063d27       ?getZName@UnDecorator@@CA?AVDName@@_N0@Z 10064d27 f   libvcruntime:undname.obj
 0001:00063f40       ?get_current_character_and_increment_buffer@UnDecorator@@CADXZ 10064f40 f i libvcruntime:undname.obj
 0001:00063f54       ?haveTemplateParameters@UnDecorator@@SAHXZ 10064f54 f i libvcruntime:undname.obj
 0001:00063f5f       ?increment_buffer@UnDecorator@@CA_NI@Z 10064f5f f i libvcruntime:undname.obj
 0001:00063f87       ?increment_buffer_no_check@UnDecorator@@CAXI@Z 10064f87 f i libvcruntime:undname.obj
 0001:00063f95       ?increment_buffer_no_check@UnDecorator@@CAXXZ 10064f95 f i libvcruntime:undname.obj
 0001:00063f9c       ?isArray@DName@@QBEHXZ     10064f9c f i libvcruntime:undname.obj
 0001:00063fa6       ?isComArray@DName@@QBEHXZ  10064fa6 f i libvcruntime:undname.obj
 0001:00063fb0       ?isEmpty@DName@@QBEHXZ     10064fb0 f i libvcruntime:undname.obj
 0001:00063fb8       ?isFull@Replicator@@QBEHXZ 10064fb8 f i libvcruntime:undname.obj
 0001:00063fc1       ?isNoTE@DName@@QBEHXZ      10064fc1 f i libvcruntime:undname.obj
 0001:00063fcb       ?isPinPtr@DName@@QBEHXZ    10064fcb f i libvcruntime:undname.obj
 0001:00063fd5       ?isPtrRef@DName@@QBEHXZ    10064fd5 f i libvcruntime:undname.obj
 0001:00063fdf       ?isUDC@DName@@QBEHXZ       10064fdf f i libvcruntime:undname.obj
 0001:00063ff0       ?isUDTThunk@DName@@QBEHXZ  10064ff0 f i libvcruntime:undname.obj
 0001:00064001       ?isVCallThunk@DName@@QBEHXZ 10065001 f i libvcruntime:undname.obj
 0001:0006400b       ?isValid@DName@@QBEHXZ     1006500b f i libvcruntime:undname.obj
 0001:00064015       ?length@DName@@QBEHXZ      10065015 f i libvcruntime:undname.obj
 0001:00064034       ?length@DNameStatusNode@@UBEHXZ 10065034 f i libvcruntime:undname.obj
 0001:00064038       ?length@charNode@@UBEHXZ   10065038 f i libvcruntime:undname.obj
 0001:0006403c       ?length@pDNameNode@@UBEHXZ 1006503c f i libvcruntime:undname.obj
 0001:0006404a       ?length@pairNode@@UBEHXZ   1006504a f i libvcruntime:undname.obj
 0001:00064093       ?length@pcharNode@@UBEHXZ  10065093 f i libvcruntime:undname.obj
 0001:00064097       ?make@DNameStatusNode@@SAPBV1@W4DNameStatus@@@Z 10065097 f i libvcruntime:undname.obj
 0001:000640b3       ?parseDecoratedName@UnDecorator@@CA?AVDName@@XZ 100650b3 f   libvcruntime:undname.obj
 0001:000641ae       ?raw_length@DNameStatusNode@@UBEHXZ 100651ae f i libvcruntime:undname.obj
 0001:000641b2       ?raw_length@charNode@@UBEHXZ 100651b2 f i libvcruntime:undname.obj
 0001:000641b6       ?raw_length@pDNameNode@@UBEHXZ 100651b6 f i libvcruntime:undname.obj
 0001:000641ba       ?raw_length@pairNode@@UBEHXZ 100651ba f i libvcruntime:undname.obj
 0001:000641be       ?raw_length@pcharNode@@UBEHXZ 100651be f i libvcruntime:undname.obj
 0001:000641c2       ?setIsArray@DName@@QAEXXZ  100651c2 f i libvcruntime:undname.obj
 0001:000641ca       ?setIsComArray@DName@@QAEXXZ 100651ca f i libvcruntime:undname.obj
 0001:000641d2       ?setIsNoTE@DName@@QAEXXZ   100651d2 f i libvcruntime:undname.obj
 0001:000641da       ?setIsPinPtr@DName@@QAEXXZ 100651da f i libvcruntime:undname.obj
 0001:000641e2       ?setIsUDC@DName@@QAEXXZ    100651e2 f i libvcruntime:undname.obj
 0001:000641ef       ?setIsVCallThunk@DName@@QAEXXZ 100651ef f i libvcruntime:undname.obj
 0001:000641f7       ?setPtrRef@DName@@QAEAAV1@XZ 100651f7 f i libvcruntime:undname.obj
 0001:00064201       ?status@DName@@QBE?AW4DNameStatus@@XZ 10065201 f i libvcruntime:undname.obj
 0001:0006426d       ___unDName                 1006526d f   libvcruntime:undname.obj
 0001:00064290       ___unDNameEx               10065290 f   libvcruntime:undname.obj
 0001:0006432f       _snprintf                  1006532f f i libvcruntime:undname.obj
 0001:00064349       _unDNameGenerateCHPE       10065349 f   libvcruntime:undname.obj
 0001:000643e6       _vsnprintf                 100653e6 f i libvcruntime:undname.obj
 0001:00064416       ??$__crt_interlocked_exchange_pointer@UHINSTANCE__@@PAU1@@@YAPAUHINSTANCE__@@PDSAU0@QAU0@@Z 10065416 f i libvcruntime:winapi_downlevel.obj
 0001:00064423       ??$__crt_interlocked_exchange_pointer@UHINSTANCE__@@PAX@@YAPAUHINSTANCE__@@PDSAU0@QAX@Z 10065423 f i libvcruntime:winapi_downlevel.obj
 0001:00064430       ??$__crt_interlocked_exchange_pointer@XPAX@@YAPAXPDSAXQAX@Z 10065430 f i libvcruntime:winapi_downlevel.obj
 0001:0006443d       ??$__crt_interlocked_read_pointer@UHINSTANCE__@@@@YAPAUHINSTANCE__@@PDSAU0@@Z 1006543d f i libvcruntime:winapi_downlevel.obj
 0001:00064448       ??$__crt_interlocked_read_pointer@X@@YAPAXPDSAX@Z 10065448 f i libvcruntime:winapi_downlevel.obj
 0001:000646d4       ___vcrt_FlsAlloc           100656d4 f   libvcruntime:winapi_downlevel.obj
 0001:0006470f       ___vcrt_FlsFree            1006570f f   libvcruntime:winapi_downlevel.obj
 0001:0006474a       ___vcrt_FlsGetValue        1006574a f   libvcruntime:winapi_downlevel.obj
 0001:00064785       ___vcrt_FlsSetValue        10065785 f   libvcruntime:winapi_downlevel.obj
 0001:000647c3       ___vcrt_InitializeCriticalSectionEx 100657c3 f   libvcruntime:winapi_downlevel.obj
 0001:0006481e       __get_unexpected           1006581e f   libvcruntime:unexpected.obj
 0001:00064830       _set_unexpected            10065830 f   libvcruntime:unexpected.obj
 0001:0006484e       _unexpected                1006584e f   libvcruntime:unexpected.obj
 0001:0006486b       ?GetCurrentState@__FrameHandler3@@SAHPAUEHRegistrationNode@@PAXPBU_s_FuncInfo@@@Z 1006586b f   libvcruntime:ehstate.obj
 0001:00064888       ?SetState@__FrameHandler3@@SAXPAUEHRegistrationNode@@PBU_s_FuncInfo@@H@Z 10065888 f   libvcruntime:ehstate.obj
 0001:000648a0       __global_unwind2           100658a0 f   libvcruntime:exsup.obj
 0001:00064920       __local_unwind2            10065920 f   libvcruntime:exsup.obj
 0001:000649c0       __abnormal_termination     100659c0 f   libvcruntime:exsup.obj
 0001:000649f0       __NLG_Notify1              100659f0 f   libvcruntime:exsup.obj
 0001:00064a00       __NLG_Notify               10065a00 f   libvcruntime:exsup.obj
 0001:00064a17       __NLG_Dispatch             10065a17     libvcruntime:exsup.obj
 0001:00064a17       __NLG_Dispatch2            10065a17     libvcruntime:exsup.obj
 0001:00064a20       __NLG_Call                 10065a20 f   libvcruntime:exsup.obj
 0001:00064a22       __NLG_Return2              10065a22     libvcruntime:exsup.obj
 0001:00064a30       __libm_sse2_sqrt_precise   10065a30 f   libucrt:sqrt_sse2_precise.obj
 0001:00064b30       _strtok                    10065b30 f   libucrt:strtok.obj
 0001:00064b4e       _free                      10065b4e f   libucrt:free.obj
 0001:00064b69       _malloc                    10065b69 f   libucrt:malloc.obj
 0001:00064b74       ??$__crt_interlocked_read@J@@YAJPDJ@Z 10065b74 f i libucrt:fclose.obj
 0001:00064b81       ??0?$cached@H@__crt_cached_ptd_host@@QAE@XZ 10065b81 f i libucrt:fclose.obj
 0001:00064b88       ??0?$cached@K@__crt_cached_ptd_host@@QAE@XZ 10065b88 f i libucrt:fclose.obj
 0001:00064b8f       ??0__crt_cached_ptd_host@@QAE@QAU__crt_locale_pointers@@@Z 10065b8f f i libucrt:fclose.obj
 0001:00064bd7       ??0__crt_scoped_get_last_error_reset@@QAE@XZ 10065bd7 f i libucrt:fclose.obj
 0001:00064be8       ??0__crt_stdio_stream@@QAE@QAU_iobuf@@@Z 10065be8 f i libucrt:fclose.obj
 0001:00064bf8       ??1__crt_cached_ptd_host@@QAE@XZ 10065bf8 f i libucrt:fclose.obj
 0001:00064c34       ??1__crt_scoped_get_last_error_reset@@QAE@XZ 10065c34 f i libucrt:fclose.obj
 0001:00064c3d       ??C__crt_stdio_stream@@QBEPAU__crt_stdio_stream_data@@XZ 10065c3d f i libucrt:fclose.obj
 0001:00064d65       ?check_synchronize_global_state_index@__crt_cached_ptd_host@@AAEIABV__crt_scoped_get_last_error_reset@@@Z 10065d65 f i libucrt:fclose.obj
 0001:00064d7d       ?check_synchronize_per_thread_data@__crt_cached_ptd_host@@AAEPAU__acrt_ptd@@XZ 10065d7d f i libucrt:fclose.obj
 0001:00064d9a       ?force_synchronize_global_state_index@__crt_cached_ptd_host@@AAEIABV__crt_scoped_get_last_error_reset@@@Z 10065d9a f i libucrt:fclose.obj
 0001:00064da7       ?force_synchronize_per_thread_data@__crt_cached_ptd_host@@AAEPAU__acrt_ptd@@XZ 10065da7 f i libucrt:fclose.obj
 0001:00064ded       ?get_current_state_index@__crt_state_management@@YAIABV__crt_scoped_get_last_error_reset@@@Z 10065ded f i libucrt:fclose.obj
 0001:00064df0       ?get_errno@__crt_cached_ptd_host@@QAEAAU?$cached@H@1@XZ 10065df0 f i libucrt:fclose.obj
 0001:00064df4       ?get_flags@__crt_stdio_stream@@QBEJXZ 10065df4 f i libucrt:fclose.obj
 0001:00064dfb       ?get_raw_ptd@__crt_cached_ptd_host@@QAEPAU__acrt_ptd@@XZ 10065dfb f i libucrt:fclose.obj
 0001:00064e18       ?is_in_use@__crt_stdio_stream@@QBE_NXZ 10065e18 f i libucrt:fclose.obj
 0001:00064e24       ?is_string_backed@__crt_stdio_stream@@QBE_NXZ 10065e24 f i libucrt:fclose.obj
 0001:00064e30       ?public_stream@__crt_stdio_stream@@QBEPAU_iobuf@@XZ 10065e30 f i libucrt:fclose.obj
 0001:00064e33       ?set@?$cached@H@__crt_cached_ptd_host@@QAEHH@Z 10065e33 f i libucrt:fclose.obj
 0001:00064e45       ?unsafe_value@?$cached@H@__crt_cached_ptd_host@@QAEHXZ 10065e45 f i libucrt:fclose.obj
 0001:00064e48       ?unsafe_value@?$cached@K@__crt_cached_ptd_host@@QAEKXZ 10065e48 f i libucrt:fclose.obj
 0001:00064e4b       ?valid@?$cached@H@__crt_cached_ptd_host@@QBE_NXZ 10065e4b f i libucrt:fclose.obj
 0001:00064e4f       ?valid@?$cached@K@__crt_cached_ptd_host@@QBE_NXZ 10065e4f f i libucrt:fclose.obj
 0001:00064e53       ?valid@__crt_stdio_stream@@QBE_NXZ 10065e53 f i libucrt:fclose.obj
 0001:00064e5a       ___acrt_enable_global_locale_sync 10065e5a f i libucrt:fclose.obj
 0001:00064e6f       ___acrt_locale_changed     10065e6f f i libucrt:fclose.obj
 0001:00064e7a       __fclose_nolock            10065e7a f   libucrt:fclose.obj
 0001:00064eaa       _fclose                    10065eaa f   libucrt:fclose.obj
 0001:000650d5       ??$open_file@ABQBDABQBDABHPAU_iobuf@@@?$__crt_char_traits@D@@SAPAU_iobuf@@ABQBD0ABH$$QAPAU1@@Z 100660d5 f i libucrt:fopen.obj
 0001:000650f8       ??$open_file@ABQB_WABQB_WABHPAU_iobuf@@@?$__crt_char_traits@_W@@SAPAU_iobuf@@ABQB_W0ABH$$QAPAU1@@Z 100660f8 f i libucrt:fopen.obj
 0001:0006511b       ?unlock@__crt_stdio_stream@@QBEXXZ 1006611b f i libucrt:fopen.obj
 0001:00065124       __fsopen                   10066124 f   libucrt:fopen.obj
 0001:0006512f       __wfopen                   1006612f f   libucrt:fopen.obj
 0001:00065146       __wfopen_s                 10066146 f   libucrt:fopen.obj
 0001:0006518d       __wfsopen                  1006618d f   libucrt:fopen.obj
 0001:00065198       _fopen                     10066198 f   libucrt:fopen.obj
 0001:000651af       _fopen_s                   100661af f   libucrt:fopen.obj
 0001:000651f6       ?__acrt_stdio_reset_buffer@@YAXV__crt_stdio_stream@@@Z 100661f6 f i libucrt:fread.obj
 0001:0006520c       ?has_any_buffer@__crt_stdio_stream@@QBE_NXZ 1006620c f i libucrt:fread.obj
 0001:0006521b       ?has_any_of@__crt_stdio_stream@@QBE_NJ@Z 1006621b f i libucrt:fread.obj
 0001:00065230       ?set_flags@__crt_stdio_stream@@QBE_NJ@Z 10066230 f i libucrt:fread.obj
 0001:00065254       __fread_nolock             10066254 f   libucrt:fread.obj
 0001:00065271       __fread_nolock_s           10066271 f   libucrt:fread.obj
 0001:00065457       _fread                     10066457 f   libucrt:fread.obj
 0001:00065474       _fread_s                   10066474 f   libucrt:fread.obj
 0001:00065592       ?LongLongSub@@YAJ_J0PA_J@Z 10066592 f i libucrt:fseek.obj
 0001:0006586d       ?has_all_of@__crt_stdio_stream@@QBE_NJ@Z 1006686d f i libucrt:fseek.obj
 0001:00065885       ?lowio_handle@__crt_stdio_stream@@QBEHXZ 10066885 f i libucrt:fseek.obj
 0001:0006588c       ?unset_flags@__crt_stdio_stream@@QBE_NJ@Z 1006688c f i libucrt:fseek.obj
 0001:000658b5       __fseek_nolock             100668b5 f   libucrt:fseek.obj
 0001:000658ef       __fseeki64                 100668ef f   libucrt:fseek.obj
 0001:00065929       __fseeki64_nolock          10066929 f   libucrt:fseek.obj
 0001:00065963       _fseek                     10066963 f   libucrt:fseek.obj
 0001:000660b1       ?ctrl_z@__crt_stdio_stream@@QBE_NXZ 100670b1 f i libucrt:ftell.obj
 0001:000660bd       ?has_big_buffer@__crt_stdio_stream@@QBE_NXZ 100670bd f i libucrt:ftell.obj
 0001:000660c9       ?has_crt_buffer@__crt_stdio_stream@@QBE_NXZ 100670c9 f i libucrt:ftell.obj
 0001:000660d5       ?has_setvbuf_buffer@__crt_stdio_stream@@QBE_NXZ 100670d5 f i libucrt:ftell.obj
 0001:000660e1       __ftell_nolock             100670e1 f   libucrt:ftell.obj
 0001:00066111       __ftelli64                 10067111 f   libucrt:ftell.obj
 0001:00066147       __ftelli64_nolock          10067147 f   libucrt:ftell.obj
 0001:0006617d       __ftelli64_nolock_internal 1006717d f   libucrt:ftell.obj
 0001:00066188       __utf8_no_of_trailbytes    10067188 f i libucrt:ftell.obj
 0001:00066199       _ftell                     10067199 f   libucrt:ftell.obj
 0001:00066296       ??0__acrt_stdio_temporary_buffering_guard@@QAE@QAU_iobuf@@AAV__crt_cached_ptd_host@@@Z 10067296 f i libucrt:fwrite.obj
 0001:000662ba       ??1__acrt_stdio_temporary_buffering_guard@@QAE@XZ 100672ba f i libucrt:fwrite.obj
 0001:0006632b       __fwrite_internal          1006732b f   libucrt:fwrite.obj
 0001:000663a2       __fwrite_nolock            100673a2 f   libucrt:fwrite.obj
 0001:000663dc       __fwrite_nolock_internal   100673dc f   libucrt:fwrite.obj
 0001:00066586       _fwrite                    10067586 f   libucrt:fwrite.obj
 0001:000665c0       ??$assemble_floating_point_ind@M@__crt_strtox@@YAXAAM@Z 100675c0 f i libucrt:atof.obj
 0001:000665d0       ??$assemble_floating_point_ind@N@__crt_strtox@@YAXAAN@Z 100675d0 f i libucrt:atof.obj
 0001:000665e4       ??$assemble_floating_point_infinity@M@__crt_strtox@@YAX_NAAM@Z 100675e4 f i libucrt:atof.obj
 0001:000665fd       ??$assemble_floating_point_infinity@N@__crt_strtox@@YAX_NAAN@Z 100675fd f i libucrt:atof.obj
 0001:0006661a       ??$assemble_floating_point_qnan@M@__crt_strtox@@YAX_NAAM@Z 1006761a f i libucrt:atof.obj
 0001:00066633       ??$assemble_floating_point_qnan@N@__crt_strtox@@YAX_NAAN@Z 10067633 f i libucrt:atof.obj
 0001:00066650       ??$assemble_floating_point_snan@M@__crt_strtox@@YAX_NAAM@Z 10067650 f i libucrt:atof.obj
 0001:00066669       ??$assemble_floating_point_snan@N@__crt_strtox@@YAX_NAAN@Z 10067669 f i libucrt:atof.obj
 0001:0006668a       ??$assemble_floating_point_value_t@M@__crt_strtox@@YA?AW4SLD_STATUS@@_NH_KAAM@Z 1006768a f i libucrt:atof.obj
 0001:000666ba       ??$assemble_floating_point_value_t@N@__crt_strtox@@YA?AW4SLD_STATUS@@_NH_KAAN@Z 100676ba f i libucrt:atof.obj
 0001:000666fc       ??$assemble_floating_point_zero@M@__crt_strtox@@YAX_NAAM@Z 100676fc f i libucrt:atof.obj
 0001:0006670f       ??$assemble_floating_point_zero@N@__crt_strtox@@YAX_NAAN@Z 1006770f f i libucrt:atof.obj
 0001:00066913       ??$convert_decimal_string_to_floating_type@M@__crt_strtox@@YA?AW4SLD_STATUS@@ABUfloating_point_string@0@AAM@Z 10067913 f i libucrt:atof.obj
 0001:00066934       ??$convert_decimal_string_to_floating_type@N@__crt_strtox@@YA?AW4SLD_STATUS@@ABUfloating_point_string@0@AAN@Z 10067934 f i libucrt:atof.obj
 0001:00066955       ??$convert_hexadecimal_string_to_floating_type@M@__crt_strtox@@YA?AW4SLD_STATUS@@ABUfloating_point_string@0@AAM@Z 10067955 f i libucrt:atof.obj
 0001:00066976       ??$convert_hexadecimal_string_to_floating_type@N@__crt_strtox@@YA?AW4SLD_STATUS@@ABUfloating_point_string@0@AAN@Z 10067976 f i libucrt:atof.obj
 0001:00066997       ??$make_c_string_character_source@D$$T@__crt_strtox@@YA?AV?$c_string_character_source@D@0@QBD$$T@Z 10067997 f i libucrt:atof.obj
 0001:000669b2       ??$make_c_string_character_source@_W$$T@__crt_strtox@@YA?AV?$c_string_character_source@_W@0@QB_W$$T@Z 100679b2 f i libucrt:atof.obj
 0001:000669cd       ??$parse_floating_point@V?$c_string_character_source@D@__crt_strtox@@M@__crt_strtox@@YA?AW4SLD_STATUS@@QAU__crt_locale_pointers@@V?$c_string_character_source@D@0@QAM@Z 100679cd f i libucrt:atof.obj
 0001:00066a4d       ??$parse_floating_point@V?$c_string_character_source@D@__crt_strtox@@N@__crt_strtox@@YA?AW4SLD_STATUS@@QAU__crt_locale_pointers@@V?$c_string_character_source@D@0@QAN@Z 10067a4d f i libucrt:atof.obj
 0001:00066acd       ??$parse_floating_point@V?$c_string_character_source@_W@__crt_strtox@@N@__crt_strtox@@YA?AW4SLD_STATUS@@QAU__crt_locale_pointers@@V?$c_string_character_source@_W@0@QAN@Z 10067acd f i libucrt:atof.obj
 0001:00066b4d       ??$parse_floating_point_from_source@V?$c_string_character_source@D@__crt_strtox@@@__crt_strtox@@YA?AW4floating_point_parse_result@0@QAU__crt_locale_pointers@@AAV?$c_string_character_source@D@0@AAUfloating_point_string@0@@Z 10067b4d f i libucrt:atof.obj
 0001:00066f45       ??$parse_floating_point_from_source@V?$c_string_character_source@_W@__crt_strtox@@@__crt_strtox@@YA?AW4floating_point_parse_result@0@QAU__crt_locale_pointers@@AAV?$c_string_character_source@_W@0@AAUfloating_point_string@0@@Z 10067f45 f i libucrt:atof.obj
 0001:00067b0d       ??$parse_floating_point_possible_infinity@DV?$c_string_character_source@D@__crt_strtox@@PBD@__crt_strtox@@YA?AW4floating_point_parse_result@0@AADAAV?$c_string_character_source@D@0@PBD@Z 10068b0d f i libucrt:atof.obj
 0001:00067bc0       ??$parse_floating_point_possible_infinity@_WV?$c_string_character_source@_W@__crt_strtox@@PB_W@__crt_strtox@@YA?AW4floating_point_parse_result@0@AA_WAAV?$c_string_character_source@_W@0@PB_W@Z 10068bc0 f i libucrt:atof.obj
 0001:00067c84       ??$parse_floating_point_possible_nan@DV?$c_string_character_source@D@__crt_strtox@@PBD@__crt_strtox@@YA?AW4floating_point_parse_result@0@AADAAV?$c_string_character_source@D@0@PBD@Z 10068c84 f i libucrt:atof.obj
 0001:00067d88       ??$parse_floating_point_possible_nan@_WV?$c_string_character_source@_W@__crt_strtox@@PB_W@__crt_strtox@@YA?AW4floating_point_parse_result@0@AA_WAAV?$c_string_character_source@_W@0@PB_W@Z 10068d88 f i libucrt:atof.obj
 0001:00067ec2       ??$parse_floating_point_possible_nan_is_ind@DV?$c_string_character_source@D@__crt_strtox@@@__crt_strtox@@YA_NAADAAV?$c_string_character_source@D@0@@Z 10068ec2 f i libucrt:atof.obj
 0001:00067efe       ??$parse_floating_point_possible_nan_is_ind@_WV?$c_string_character_source@_W@__crt_strtox@@@__crt_strtox@@YA_NAA_WAAV?$c_string_character_source@_W@0@@Z 10068efe f i libucrt:atof.obj
 0001:00067f45       ??$parse_floating_point_possible_nan_is_snan@DV?$c_string_character_source@D@__crt_strtox@@@__crt_strtox@@YA_NAADAAV?$c_string_character_source@D@0@@Z 10068f45 f i libucrt:atof.obj
 0001:00067f81       ??$parse_floating_point_possible_nan_is_snan@_WV?$c_string_character_source@_W@__crt_strtox@@@__crt_strtox@@YA_NAA_WAAV?$c_string_character_source@_W@0@@Z 10068f81 f i libucrt:atof.obj
 0001:00067fc8       ??$parse_floating_point_write_result@M@__crt_strtox@@YA?AW4SLD_STATUS@@W4floating_point_parse_result@0@ABUfloating_point_string@0@QAM@Z 10068fc8 f i libucrt:atof.obj
 0001:00068134       ??$parse_floating_point_write_result@N@__crt_strtox@@YA?AW4SLD_STATUS@@W4floating_point_parse_result@0@ABUfloating_point_string@0@QAN@Z 10069134 f i libucrt:atof.obj
 0001:00068258       ??$parse_next_characters_from_source@DV?$c_string_character_source@D@__crt_strtox@@@__crt_strtox@@YA_NQBD0IAADAAV?$c_string_character_source@D@0@@Z 10069258 f i libucrt:atof.obj
 0001:000682a1       ??$parse_next_characters_from_source@_WV?$c_string_character_source@_W@__crt_strtox@@@__crt_strtox@@YA_NQB_W0IAA_WAAV?$c_string_character_source@_W@0@@Z 100692a1 f i libucrt:atof.obj
 0001:000682f5       ??0<lambda_32aa245da1b5b882fa96db788295c8b2>@@QAE@AAV?$c_string_character_source@D@__crt_strtox@@AADAAPBD@Z 100692f5 f i libucrt:atof.obj
 0001:00068311       ??0<lambda_41cd6f1065410257e3b5bd447328b23e>@@QAE@AAV?$c_string_character_source@_W@__crt_strtox@@AA_WAAPB_W@Z 10069311 f i libucrt:atof.obj
 0001:0006832d       ??0<lambda_690cf26ff5d754c94c32cf642e9f01bc>@@QAE@AAV?$c_string_character_source@D@__crt_strtox@@AADAAPBD@Z 1006932d f i libucrt:atof.obj
 0001:00068349       ??0<lambda_cbd1988beab104251e16e78b336a674a>@@QAE@AAV?$c_string_character_source@_W@__crt_strtox@@AA_WAAPB_W@Z 10069349 f i libucrt:atof.obj
 0001:00068365       ??0<lambda_e128a58a467199df1f46ac2193393add>@@QAE@AAV?$c_string_character_source@_W@__crt_strtox@@AA_WAAPB_W@Z 10069365 f i libucrt:atof.obj
 0001:00068381       ??0<lambda_e51f7abad2595a5950d3223319845217>@@QAE@AAV?$c_string_character_source@D@__crt_strtox@@AADAAPBD@Z 10069381 f i libucrt:atof.obj
 0001:0006839d       ??0?$c_string_character_source@D@__crt_strtox@@QAE@QBDQAPBD@Z 1006939d f i libucrt:atof.obj
 0001:000683b9       ??0?$c_string_character_source@_W@__crt_strtox@@QAE@QB_WQAPB_W@Z 100693b9 f i libucrt:atof.obj
 0001:000683d5       ??0_LocaleUpdate@@QAE@QAU__crt_locale_pointers@@@Z 100693d5 f i libucrt:atof.obj
 0001:00068460       ??0big_integer@__crt_strtox@@QAE@ABU01@@Z 10069460 f i libucrt:atof.obj
 0001:000684a0       ??0big_integer@__crt_strtox@@QAE@XZ 100694a0 f i libucrt:atof.obj
 0001:000684a9       ??0floating_point_value@__crt_strtox@@QAE@QAM@Z 100694a9 f i libucrt:atof.obj
 0001:000684bd       ??0floating_point_value@__crt_strtox@@QAE@QAN@Z 100694bd f i libucrt:atof.obj
 0001:000684d1       ??1?$c_string_character_source@D@__crt_strtox@@QAE@XZ 100694d1 f i libucrt:atof.obj
 0001:000684dd       ??1?$c_string_character_source@_W@__crt_strtox@@QAE@XZ 100694dd f i libucrt:atof.obj
 0001:000684e9       ??1_LocaleUpdate@@QAE@XZ   100694e9 f i libucrt:atof.obj
 0001:00068500       ??4big_integer@__crt_strtox@@QAEAAU01@ABU01@@Z 10069500 f i libucrt:atof.obj
 0001:00068540       ??M__crt_strtox@@YA_NABUbig_integer@0@0@Z 10069540 f i libucrt:atof.obj
 0001:00068590       ??R<lambda_32aa245da1b5b882fa96db788295c8b2>@@QBE_NXZ 10069590 f i libucrt:atof.obj
 0001:000685b6       ??R<lambda_41cd6f1065410257e3b5bd447328b23e>@@QBE_NXZ 100695b6 f i libucrt:atof.obj
 0001:000685de       ??R<lambda_690cf26ff5d754c94c32cf642e9f01bc>@@QBE_NXZ 100695de f i libucrt:atof.obj
 0001:00068604       ??R<lambda_cbd1988beab104251e16e78b336a674a>@@QBE_NXZ 10069604 f i libucrt:atof.obj
 0001:0006862c       ??R<lambda_e128a58a467199df1f46ac2193393add>@@QBE_NXZ 1006962c f i libucrt:atof.obj
 0001:00068654       ??R<lambda_e51f7abad2595a5950d3223319845217>@@QBE_NXZ 10069654 f i libucrt:atof.obj
 0001:0006867a       ?GetLocaleT@_LocaleUpdate@@QAEPAU__crt_locale_pointers@@XZ 1006967a f i libucrt:atof.obj
 0001:0006867e       ?accumulate_decimal_digits_into_big_integer@__crt_strtox@@YAXQBE0AAUbig_integer@1@@Z 1006967e f i libucrt:atof.obj
 0001:00068ca0       ?add@__crt_strtox@@YA_NAAUbig_integer@1@I@Z 10069ca0 f i libucrt:atof.obj
 0001:00068d30       ?add_carry@__crt_strtox@@YAIAAIII@Z 10069d30 f i libucrt:atof.obj
 0001:00068d50       ?add_multiply_carry@__crt_strtox@@YAIAAIIII@Z 10069d50 f i libucrt:atof.obj
 0001:00068d74       ?as_double@floating_point_value@__crt_strtox@@QBEAANXZ 10069d74 f i libucrt:atof.obj
 0001:00068d99       ?as_float@floating_point_value@__crt_strtox@@QBEAAMXZ 10069d99 f i libucrt:atof.obj
 0001:00068dbe       ?assemble_floating_point_infinity@__crt_strtox@@YAX_NABVfloating_point_value@1@@Z 10069dbe f i libucrt:atof.obj
 0001:00068dfe       ?assemble_floating_point_value@__crt_strtox@@YA?AW4SLD_STATUS@@_KH_N1ABVfloating_point_value@1@@Z 10069dfe f i libucrt:atof.obj
 0001:00069151       ?assemble_floating_point_value_from_big_integer@__crt_strtox@@YA?AW4SLD_STATUS@@ABUbig_integer@1@I_N1ABVfloating_point_value@1@@Z 1006a151 f i libucrt:atof.obj
 0001:000692e3       ?assemble_floating_point_zero@__crt_strtox@@YAX_NABVfloating_point_value@1@@Z 1006a2e3 f i libucrt:atof.obj
 0001:00069320       ?bit_scan_reverse@__crt_strtox@@YAIABUbig_integer@1@@Z 1006a320 f i libucrt:atof.obj
 0001:00069360       ?bit_scan_reverse@__crt_strtox@@YAII@Z 1006a360 f i libucrt:atof.obj
 0001:00069380       ?bit_scan_reverse@__crt_strtox@@YAI_K@Z 1006a380 f i libucrt:atof.obj
 0001:000693c7       ?convert_decimal_string_to_floating_type_common@__crt_strtox@@YA?AW4SLD_STATUS@@ABUfloating_point_string@1@ABVfloating_point_value@1@@Z 1006a3c7 f i libucrt:atof.obj
 0001:0006b0e6       ?convert_hexadecimal_string_to_floating_type_common@__crt_strtox@@YA?AW4SLD_STATUS@@ABUfloating_point_string@1@ABVfloating_point_value@1@@Z 1006c0e6 f i libucrt:atof.obj
 0001:0006b190       ?count_sequential_high_zeroes@__crt_strtox@@YAII@Z 1006c190 f i libucrt:atof.obj
 0001:0006b1ab       ?denormal_mantissa_mask@floating_point_value@__crt_strtox@@QBE_KXZ 1006c1ab f i libucrt:atof.obj
 0001:0006b1d0       ?divide@__crt_strtox@@YA_KAAUbig_integer@1@ABU21@@Z 1006c1d0 f i libucrt:atof.obj
 0001:0006b658       ?exponent_bias@floating_point_value@__crt_strtox@@QBEHXZ 1006c658 f i libucrt:atof.obj
 0001:0006b66a       ?get@?$c_string_character_source@D@__crt_strtox@@QAEDXZ 1006c66a f i libucrt:atof.obj
 0001:0006b672       ?get@?$c_string_character_source@_W@__crt_strtox@@QAE_WXZ 1006c672 f i libucrt:atof.obj
 0001:0006b67d       ?is_digit_or_nondigit@__crt_strtox@@YA_NH@Z 1006c67d f i libucrt:atof.obj
 0001:0006b6aa       ?is_double@floating_point_value@__crt_strtox@@QBE_NXZ 1006c6aa f i libucrt:atof.obj
 0001:0006b6ae       ?is_space@__crt_strtox@@YA_NDQAU__crt_locale_pointers@@@Z 1006c6ae f i libucrt:atof.obj
 0001:0006b6cc       ?is_space@__crt_strtox@@YA_N_WPAU__crt_locale_pointers@@@Z 1006c6cc f i libucrt:atof.obj
 0001:0006b6f0       ?make_big_integer@__crt_strtox@@YA?AUbig_integer@1@_K@Z 1006c6f0 f i libucrt:atof.obj
 0001:0006b710       ?mantissa_bits@floating_point_value@__crt_strtox@@QBEHXZ 1006c710 f i libucrt:atof.obj
 0001:0006b720       ?maximum_binary_exponent@floating_point_value@__crt_strtox@@QBEHXZ 1006c720 f i libucrt:atof.obj
 0001:0006b732       ?minimum_binary_exponent@floating_point_value@__crt_strtox@@QBEHXZ 1006c732 f i libucrt:atof.obj
 0001:0006b750       ?multiply@__crt_strtox@@YA_NAAUbig_integer@1@ABU21@@Z 1006c750 f i libucrt:atof.obj
 0001:0006baa0       ?multiply@__crt_strtox@@YA_NAAUbig_integer@1@I@Z 1006caa0 f i libucrt:atof.obj
 0001:0006bb70       ?multiply_64_32@__crt_strtox@@YA_K_KI@Z 1006cb70 f i libucrt:atof.obj
 0001:0006bb90       ?multiply_by_power_of_ten@__crt_strtox@@YA_NAAUbig_integer@1@I@Z 1006cb90 f i libucrt:atof.obj
 0001:0006c0d0       ?multiply_core@__crt_strtox@@YAIQAIII@Z 1006d0d0 f i libucrt:atof.obj
 0001:0006c10e       ?normal_mantissa_mask@floating_point_value@__crt_strtox@@QBE_KXZ 1006d10e f i libucrt:atof.obj
 0001:0006c125       ?parse_digit@__crt_strtox@@YAID@Z 1006d125 f i libucrt:atof.obj
 0001:0006c15f       ?parse_digit@__crt_strtox@@YAI_W@Z 1006d15f f i libucrt:atof.obj
 0001:0006c327       ?restore_state@?$c_string_character_source@D@__crt_strtox@@QAE_NQBD@Z 1006d327 f i libucrt:atof.obj
 0001:0006c337       ?restore_state@?$c_string_character_source@_W@__crt_strtox@@QAE_NQB_W@Z 1006d337 f i libucrt:atof.obj
 0001:0006c347       ?right_shift_with_rounding@__crt_strtox@@YA_K_N_KI0@Z 1006d347 f i libucrt:atof.obj
 0001:0006c432       ?save_state@?$c_string_character_source@D@__crt_strtox@@QBEPBDXZ 1006d432 f i libucrt:atof.obj
 0001:0006c435       ?save_state@?$c_string_character_source@_W@__crt_strtox@@QBEPB_WXZ 1006d435 f i libucrt:atof.obj
 0001:0006c440       ?shift_left@__crt_strtox@@YA_NAAUbig_integer@1@I@Z 1006d440 f i libucrt:atof.obj
 0001:0006c56f       ?should_round_up@__crt_strtox@@YA_N_N000@Z 1006d56f f i libucrt:atof.obj
 0001:0006c5bc       ?unget@?$c_string_character_source@D@__crt_strtox@@QAEXD@Z 1006d5bc f i libucrt:atof.obj
 0001:0006c5e5       ?unget@?$c_string_character_source@_W@__crt_strtox@@QAEX_W@Z 1006d5e5 f i libucrt:atof.obj
 0001:0006c613       ?validate@?$c_string_character_source@D@__crt_strtox@@QBE_NXZ 1006d613 f i libucrt:atof.obj
 0001:0006c62e       ?validate@?$c_string_character_source@_W@__crt_strtox@@QBE_NXZ 1006d62e f i libucrt:atof.obj
 0001:0006c649       ?wide_character_to_digit@__crt_strtox@@YAH_W@Z 1006d649 f i libucrt:atof.obj
 0001:0006c7ea       ___acrt_disable_global_locale_sync 1006d7ea f i libucrt:atof.obj
 0001:0006c7fd       ___acrt_get_locale_data_prefix 1006d7fd f i libucrt:atof.obj
 0001:0006c809       ___acrt_locale_get_ctype_array_value 1006d809 f i libucrt:atof.obj
 0001:0006c82b       ___ascii_iswalpha          1006d82b f i libucrt:atof.obj
 0001:0006c84e       ___ascii_toupper           1006d84e f i libucrt:atof.obj
 0001:0006c865       ___ascii_towupper          1006d865 f i libucrt:atof.obj
 0001:0006c87c       __atodbl                   1006d87c f   libucrt:atof.obj
 0001:0006c893       __atodbl_l                 1006d893 f   libucrt:atof.obj
 0001:0006c89e       __atof_l                   1006d89e f   libucrt:atof.obj
 0001:0006c8a9       __atoflt                   1006d8a9 f   libucrt:atof.obj
 0001:0006c8c0       __atoflt_l                 1006d8c0 f   libucrt:atof.obj
 0001:0006c8cb       __chvalidchk_l             1006d8cb f i libucrt:atof.obj
 0001:0006c8f3       __ischartype_l             1006d8f3 f i libucrt:atof.obj
 0001:0006c94a       __wtof                     1006d94a f   libucrt:atof.obj
 0001:0006c95d       __wtof_l                   1006d95d f   libucrt:atof.obj
 0001:0006c968       _atof                      1006d968 f   libucrt:atof.obj
 0001:0006c9fc       ??$?RPAU__crt_stdio_stream_data@@@__crt_internal_free_policy@@QBEXQBQAU__crt_stdio_stream_data@@@Z 1006d9fc f i libucrt:_file.obj
 0001:0006ca0e       ??0?$__crt_unique_heap_ptr@PAU__crt_stdio_stream_data@@U__crt_internal_free_policy@@@@QAE@QAPAU__crt_stdio_stream_data@@@Z 1006da0e f i libucrt:_file.obj
 0001:0006ca1e       ??1?$__crt_unique_heap_ptr@PAU__crt_stdio_stream_data@@U__crt_internal_free_policy@@@@QAE@XZ 1006da1e f i libucrt:_file.obj
 0001:0006ca30       ?detach@?$__crt_unique_heap_ptr@PAU__crt_stdio_stream_data@@U__crt_internal_free_policy@@@@QAEPAPAU__crt_stdio_stream_data@@XZ 1006da30 f i libucrt:_file.obj
 0001:0006ca36       ?release@?$__crt_unique_heap_ptr@PAU__crt_stdio_stream_data@@U__crt_internal_free_policy@@@@QAEXXZ 1006da36 f i libucrt:_file.obj
 0001:0006ca48       ___acrt_initialize_stdio   1006da48 f   libucrt:_file.obj
 0001:0006cb10       ___acrt_iob_func           1006db10 f   libucrt:_file.obj
 0001:0006cb20       ___acrt_uninitialize_stdio 1006db20 f   libucrt:_file.obj
 0001:0006cb6c       __get_stream_buffer_pointers 1006db6c f   libucrt:_file.obj
 0001:0006cbb2       __lock_file                1006dbb2 f   libucrt:_file.obj
 0001:0006cbc6       __unlock_file              1006dbc6 f   libucrt:_file.obj
 0001:0006cbda       ??$?0ABV?$stream_output_adapter@D@__crt_stdio_output@@AB_KABQBDAAV__crt_cached_ptd_host@@ABQAD@?$format_validation_base@DV?$stream_output_adapter@D@__crt_stdio_output@@@__crt_stdio_output@@IAE@ABV?$stream_output_adapter@D@1@AB_KABQBDAAV__crt_cached_ptd_host@@ABQAD@Z 1006dbda f i libucrt:output.obj
 0001:0006cbfd       ??$?0ABV?$stream_output_adapter@D@__crt_stdio_output@@AB_KABQBDAAV__crt_cached_ptd_host@@ABQAD@?$positional_parameter_base@DV?$stream_output_adapter@D@__crt_stdio_output@@@__crt_stdio_output@@IAE@ABV?$stream_output_adapter@D@1@AB_KABQBDAAV__crt_cached_ptd_host@@ABQAD@Z 1006dbfd f i libucrt:output.obj
 0001:0006cc45       ??$?0ABV?$stream_output_adapter@D@__crt_stdio_output@@AB_KABQBDAAV__crt_cached_ptd_host@@ABQAD@?$standard_base@DV?$stream_output_adapter@D@__crt_stdio_output@@@__crt_stdio_output@@IAE@ABV?$stream_output_adapter@D@1@AB_KABQBDAAV__crt_cached_ptd_host@@ABQAD@Z 1006dc45 f i libucrt:output.obj
 0001:0006cc78       ??$?0ABV?$stream_output_adapter@_W@__crt_stdio_output@@AB_KABQB_WAAV__crt_cached_ptd_host@@ABQAD@?$format_validation_base@_WV?$stream_output_adapter@_W@__crt_stdio_output@@@__crt_stdio_output@@IAE@ABV?$stream_output_adapter@_W@1@AB_KABQB_WAAV__crt_cached_ptd_host@@ABQAD@Z 1006dc78 f i libucrt:output.obj
 0001:0006cc9b       ??$?0ABV?$stream_output_adapter@_W@__crt_stdio_output@@AB_KABQB_WAAV__crt_cached_ptd_host@@ABQAD@?$positional_parameter_base@_WV?$stream_output_adapter@_W@__crt_stdio_output@@@__crt_stdio_output@@IAE@ABV?$stream_output_adapter@_W@1@AB_KABQB_WAAV__crt_cached_ptd_host@@ABQAD@Z 1006dc9b f i libucrt:output.obj
 0001:0006cce3       ??$?0ABV?$stream_output_adapter@_W@__crt_stdio_output@@AB_KABQB_WAAV__crt_cached_ptd_host@@ABQAD@?$standard_base@_WV?$stream_output_adapter@_W@__crt_stdio_output@@@__crt_stdio_output@@IAE@ABV?$stream_output_adapter@_W@1@AB_KABQB_WAAV__crt_cached_ptd_host@@ABQAD@Z 1006dce3 f i libucrt:output.obj
 0001:0006cd16       ??$?0ABV?$string_output_adapter@D@__crt_stdio_output@@AB_KABQBDAAV__crt_cached_ptd_host@@ABQAD@?$format_validation_base@DV?$string_output_adapter@D@__crt_stdio_output@@@__crt_stdio_output@@IAE@ABV?$string_output_adapter@D@1@AB_KABQBDAAV__crt_cached_ptd_host@@ABQAD@Z 1006dd16 f i libucrt:output.obj
 0001:0006cd39       ??$?0ABV?$string_output_adapter@D@__crt_stdio_output@@AB_KABQBDAAV__crt_cached_ptd_host@@ABQAD@?$positional_parameter_base@DV?$string_output_adapter@D@__crt_stdio_output@@@__crt_stdio_output@@IAE@ABV?$string_output_adapter@D@1@AB_KABQBDAAV__crt_cached_ptd_host@@ABQAD@Z 1006dd39 f i libucrt:output.obj
 0001:0006cd81       ??$?0ABV?$string_output_adapter@D@__crt_stdio_output@@AB_KABQBDAAV__crt_cached_ptd_host@@ABQAD@?$standard_base@DV?$string_output_adapter@D@__crt_stdio_output@@@__crt_stdio_output@@IAE@ABV?$string_output_adapter@D@1@AB_KABQBDAAV__crt_cached_ptd_host@@ABQAD@Z 1006dd81 f i libucrt:output.obj
 0001:0006cdb4       ??$?0ABV?$string_output_adapter@_W@__crt_stdio_output@@AB_KABQB_WAAV__crt_cached_ptd_host@@ABQAD@?$format_validation_base@_WV?$string_output_adapter@_W@__crt_stdio_output@@@__crt_stdio_output@@IAE@ABV?$string_output_adapter@_W@1@AB_KABQB_WAAV__crt_cached_ptd_host@@ABQAD@Z 1006ddb4 f i libucrt:output.obj
 0001:0006cdd7       ??$?0ABV?$string_output_adapter@_W@__crt_stdio_output@@AB_KABQB_WAAV__crt_cached_ptd_host@@ABQAD@?$positional_parameter_base@_WV?$string_output_adapter@_W@__crt_stdio_output@@@__crt_stdio_output@@IAE@ABV?$string_output_adapter@_W@1@AB_KABQB_WAAV__crt_cached_ptd_host@@ABQAD@Z 1006ddd7 f i libucrt:output.obj
 0001:0006ce1f       ??$?0ABV?$string_output_adapter@_W@__crt_stdio_output@@AB_KABQB_WAAV__crt_cached_ptd_host@@ABQAD@?$standard_base@_WV?$string_output_adapter@_W@__crt_stdio_output@@@__crt_stdio_output@@IAE@ABV?$string_output_adapter@_W@1@AB_KABQB_WAAV__crt_cached_ptd_host@@ABQAD@Z 1006de1f f i libucrt:output.obj
 0001:0006d158       ??$_tcstol_internal@DPAPAD$0A@@@YAJAAV__crt_cached_ptd_host@@QBDQAPADH@Z 1006e158 f i libucrt:output.obj
 0001:0006d183       ??$_tcstol_internal@_WPAPA_W$0A@@@YAJAAV__crt_cached_ptd_host@@QB_WQAPA_WH@Z 1006e183 f i libucrt:output.obj
 0001:0006e0dd       ??$count@D@formatting_buffer@__crt_stdio_output@@QBEIXZ 1006f0dd f i libucrt:output.obj
 0001:0006e0f5       ??$count@_W@formatting_buffer@__crt_stdio_output@@QBEIXZ 1006f0f5 f i libucrt:output.obj
 0001:0006e10e       ??$data@D@formatting_buffer@__crt_stdio_output@@QAEPADXZ 1006f10e f i libucrt:output.obj
 0001:0006e11b       ??$data@_W@formatting_buffer@__crt_stdio_output@@QAEPA_WXZ 1006f11b f i libucrt:output.obj
 0001:0006e128       ??$ensure_buffer_is_big_enough@D@formatting_buffer@__crt_stdio_output@@QAE_NIAAV__crt_cached_ptd_host@@@Z 1006f128 f i libucrt:output.obj
 0001:0006e1a9       ??$ensure_buffer_is_big_enough@_W@formatting_buffer@__crt_stdio_output@@QAE_NIAAV__crt_cached_ptd_host@@@Z 1006f1a9 f i libucrt:output.obj
 0001:0006e22b       ??$extract_argument_from_va_list@C_J@?$positional_parameter_base@DV?$stream_output_adapter@D@__crt_stdio_output@@@__crt_stdio_output@@IAE_NAA_J@Z 1006f22b f i libucrt:output.obj
 0001:0006e2b3       ??$extract_argument_from_va_list@C_J@?$positional_parameter_base@DV?$string_output_adapter@D@__crt_stdio_output@@@__crt_stdio_output@@IAE_NAA_J@Z 1006f2b3 f i libucrt:output.obj
 0001:0006e33b       ??$extract_argument_from_va_list@C_J@?$positional_parameter_base@_WV?$stream_output_adapter@_W@__crt_stdio_output@@@__crt_stdio_output@@IAE_NAA_J@Z 1006f33b f i libucrt:output.obj
 0001:0006e3c4       ??$extract_argument_from_va_list@C_J@?$positional_parameter_base@_WV?$string_output_adapter@_W@__crt_stdio_output@@@__crt_stdio_output@@IAE_NAA_J@Z 1006f3c4 f i libucrt:output.obj
 0001:0006e44d       ??$extract_argument_from_va_list@C_J@?$standard_base@DV?$stream_output_adapter@D@__crt_stdio_output@@@__crt_stdio_output@@IAE_NAA_J@Z 1006f44d f i libucrt:output.obj
 0001:0006e46c       ??$extract_argument_from_va_list@C_J@?$standard_base@DV?$string_output_adapter@D@__crt_stdio_output@@@__crt_stdio_output@@IAE_NAA_J@Z 1006f46c f i libucrt:output.obj
 0001:0006e48b       ??$extract_argument_from_va_list@C_J@?$standard_base@_WV?$stream_output_adapter@_W@__crt_stdio_output@@@__crt_stdio_output@@IAE_NAA_J@Z 1006f48b f i libucrt:output.obj
 0001:0006e4aa       ??$extract_argument_from_va_list@C_J@?$standard_base@_WV?$string_output_adapter@_W@__crt_stdio_output@@@__crt_stdio_output@@IAE_NAA_J@Z 1006f4aa f i libucrt:output.obj
 0001:0006e4c9       ??$extract_argument_from_va_list@E_J@?$positional_parameter_base@DV?$stream_output_adapter@D@__crt_stdio_output@@@__crt_stdio_output@@IAE_NAA_J@Z 1006f4c9 f i libucrt:output.obj
 0001:0006e551       ??$extract_argument_from_va_list@E_J@?$positional_parameter_base@DV?$string_output_adapter@D@__crt_stdio_output@@@__crt_stdio_output@@IAE_NAA_J@Z 1006f551 f i libucrt:output.obj
 0001:0006e5d9       ??$extract_argument_from_va_list@E_J@?$positional_parameter_base@_WV?$stream_output_adapter@_W@__crt_stdio_output@@@__crt_stdio_output@@IAE_NAA_J@Z 1006f5d9 f i libucrt:output.obj
 0001:0006e662       ??$extract_argument_from_va_list@E_J@?$positional_parameter_base@_WV?$string_output_adapter@_W@__crt_stdio_output@@@__crt_stdio_output@@IAE_NAA_J@Z 1006f662 f i libucrt:output.obj
 0001:0006e6eb       ??$extract_argument_from_va_list@E_J@?$standard_base@DV?$stream_output_adapter@D@__crt_stdio_output@@@__crt_stdio_output@@IAE_NAA_J@Z 1006f6eb f i libucrt:output.obj
 0001:0006e70a       ??$extract_argument_from_va_list@E_J@?$standard_base@DV?$string_output_adapter@D@__crt_stdio_output@@@__crt_stdio_output@@IAE_NAA_J@Z 1006f70a f i libucrt:output.obj
 0001:0006e729       ??$extract_argument_from_va_list@E_J@?$standard_base@_WV?$stream_output_adapter@_W@__crt_stdio_output@@@__crt_stdio_output@@IAE_NAA_J@Z 1006f729 f i libucrt:output.obj
 0001:0006e748       ??$extract_argument_from_va_list@E_J@?$standard_base@_WV?$string_output_adapter@_W@__crt_stdio_output@@@__crt_stdio_output@@IAE_NAA_J@Z 1006f748 f i libucrt:output.obj
 0001:0006e767       ??$extract_argument_from_va_list@F_J@?$positional_parameter_base@DV?$stream_output_adapter@D@__crt_stdio_output@@@__crt_stdio_output@@IAE_NAA_J@Z 1006f767 f i libucrt:output.obj
 0001:0006e7ef       ??$extract_argument_from_va_list@F_J@?$positional_parameter_base@DV?$string_output_adapter@D@__crt_stdio_output@@@__crt_stdio_output@@IAE_NAA_J@Z 1006f7ef f i libucrt:output.obj
 0001:0006e877       ??$extract_argument_from_va_list@F_J@?$positional_parameter_base@_WV?$stream_output_adapter@_W@__crt_stdio_output@@@__crt_stdio_output@@IAE_NAA_J@Z 1006f877 f i libucrt:output.obj
 0001:0006e900       ??$extract_argument_from_va_list@F_J@?$positional_parameter_base@_WV?$string_output_adapter@_W@__crt_stdio_output@@@__crt_stdio_output@@IAE_NAA_J@Z 1006f900 f i libucrt:output.obj
 0001:0006e989       ??$extract_argument_from_va_list@F_J@?$standard_base@DV?$stream_output_adapter@D@__crt_stdio_output@@@__crt_stdio_output@@IAE_NAA_J@Z 1006f989 f i libucrt:output.obj
 0001:0006e9a8       ??$extract_argument_from_va_list@F_J@?$standard_base@DV?$string_output_adapter@D@__crt_stdio_output@@@__crt_stdio_output@@IAE_NAA_J@Z 1006f9a8 f i libucrt:output.obj
 0001:0006e9c7       ??$extract_argument_from_va_list@F_J@?$standard_base@_WV?$stream_output_adapter@_W@__crt_stdio_output@@@__crt_stdio_output@@IAE_NAA_J@Z 1006f9c7 f i libucrt:output.obj
 0001:0006e9e6       ??$extract_argument_from_va_list@F_J@?$standard_base@_WV?$string_output_adapter@_W@__crt_stdio_output@@@__crt_stdio_output@@IAE_NAA_J@Z 1006f9e6 f i libucrt:output.obj
 0001:0006ea05       ??$extract_argument_from_va_list@GD@?$positional_parameter_base@DV?$stream_output_adapter@D@__crt_stdio_output@@@__crt_stdio_output@@IAE_NAAD@Z 1006fa05 f i libucrt:output.obj
 0001:0006ea8c       ??$extract_argument_from_va_list@GD@?$positional_parameter_base@DV?$string_output_adapter@D@__crt_stdio_output@@@__crt_stdio_output@@IAE_NAAD@Z 1006fa8c f i libucrt:output.obj
 0001:0006eb13       ??$extract_argument_from_va_list@GD@?$standard_base@DV?$stream_output_adapter@D@__crt_stdio_output@@@__crt_stdio_output@@IAE_NAAD@Z 1006fb13 f i libucrt:output.obj
 0001:0006eb2d       ??$extract_argument_from_va_list@GD@?$standard_base@DV?$string_output_adapter@D@__crt_stdio_output@@@__crt_stdio_output@@IAE_NAAD@Z 1006fb2d f i libucrt:output.obj
 0001:0006eb47       ??$extract_argument_from_va_list@G_J@?$positional_parameter_base@DV?$stream_output_adapter@D@__crt_stdio_output@@@__crt_stdio_output@@IAE_NAA_J@Z 1006fb47 f i libucrt:output.obj
 0001:0006ebcf       ??$extract_argument_from_va_list@G_J@?$positional_parameter_base@DV?$string_output_adapter@D@__crt_stdio_output@@@__crt_stdio_output@@IAE_NAA_J@Z 1006fbcf f i libucrt:output.obj
 0001:0006ec57       ??$extract_argument_from_va_list@G_J@?$positional_parameter_base@_WV?$stream_output_adapter@_W@__crt_stdio_output@@@__crt_stdio_output@@IAE_NAA_J@Z 1006fc57 f i libucrt:output.obj
 0001:0006ece0       ??$extract_argument_from_va_list@G_J@?$positional_parameter_base@_WV?$string_output_adapter@_W@__crt_stdio_output@@@__crt_stdio_output@@IAE_NAA_J@Z 1006fce0 f i libucrt:output.obj
 0001:0006ed69       ??$extract_argument_from_va_list@G_J@?$standard_base@DV?$stream_output_adapter@D@__crt_stdio_output@@@__crt_stdio_output@@IAE_NAA_J@Z 1006fd69 f i libucrt:output.obj
 0001:0006ed88       ??$extract_argument_from_va_list@G_J@?$standard_base@DV?$string_output_adapter@D@__crt_stdio_output@@@__crt_stdio_output@@IAE_NAA_J@Z 1006fd88 f i libucrt:output.obj
 0001:0006eda7       ??$extract_argument_from_va_list@G_J@?$standard_base@_WV?$stream_output_adapter@_W@__crt_stdio_output@@@__crt_stdio_output@@IAE_NAA_J@Z 1006fda7 f i libucrt:output.obj
 0001:0006edc6       ??$extract_argument_from_va_list@G_J@?$standard_base@_WV?$string_output_adapter@_W@__crt_stdio_output@@@__crt_stdio_output@@IAE_NAA_J@Z 1006fdc6 f i libucrt:output.obj
 0001:0006ede5       ??$extract_argument_from_va_list@H_J@?$positional_parameter_base@DV?$stream_output_adapter@D@__crt_stdio_output@@@__crt_stdio_output@@IAE_NAA_J@Z 1006fde5 f i libucrt:output.obj
 0001:0006ee6b       ??$extract_argument_from_va_list@H_J@?$positional_parameter_base@DV?$string_output_adapter@D@__crt_stdio_output@@@__crt_stdio_output@@IAE_NAA_J@Z 1006fe6b f i libucrt:output.obj
 0001:0006eef1       ??$extract_argument_from_va_list@H_J@?$positional_parameter_base@_WV?$stream_output_adapter@_W@__crt_stdio_output@@@__crt_stdio_output@@IAE_NAA_J@Z 1006fef1 f i libucrt:output.obj
 0001:0006ef78       ??$extract_argument_from_va_list@H_J@?$positional_parameter_base@_WV?$string_output_adapter@_W@__crt_stdio_output@@@__crt_stdio_output@@IAE_NAA_J@Z 1006ff78 f i libucrt:output.obj
 0001:0006efff       ??$extract_argument_from_va_list@H_J@?$standard_base@DV?$stream_output_adapter@D@__crt_stdio_output@@@__crt_stdio_output@@IAE_NAA_J@Z 1006ffff f i libucrt:output.obj
 0001:0006f01d       ??$extract_argument_from_va_list@H_J@?$standard_base@DV?$string_output_adapter@D@__crt_stdio_output@@@__crt_stdio_output@@IAE_NAA_J@Z 1007001d f i libucrt:output.obj
 0001:0006f03b       ??$extract_argument_from_va_list@H_J@?$standard_base@_WV?$stream_output_adapter@_W@__crt_stdio_output@@@__crt_stdio_output@@IAE_NAA_J@Z 1007003b f i libucrt:output.obj
 0001:0006f059       ??$extract_argument_from_va_list@H_J@?$standard_base@_WV?$string_output_adapter@_W@__crt_stdio_output@@@__crt_stdio_output@@IAE_NAA_J@Z 10070059 f i libucrt:output.obj
 0001:0006f077       ??$extract_argument_from_va_list@I_J@?$positional_parameter_base@DV?$stream_output_adapter@D@__crt_stdio_output@@@__crt_stdio_output@@IAE_NAA_J@Z 10070077 f i libucrt:output.obj
 0001:0006f106       ??$extract_argument_from_va_list@I_J@?$positional_parameter_base@DV?$string_output_adapter@D@__crt_stdio_output@@@__crt_stdio_output@@IAE_NAA_J@Z 10070106 f i libucrt:output.obj
 0001:0006f195       ??$extract_argument_from_va_list@I_J@?$positional_parameter_base@_WV?$stream_output_adapter@_W@__crt_stdio_output@@@__crt_stdio_output@@IAE_NAA_J@Z 10070195 f i libucrt:output.obj
 0001:0006f225       ??$extract_argument_from_va_list@I_J@?$positional_parameter_base@_WV?$string_output_adapter@_W@__crt_stdio_output@@@__crt_stdio_output@@IAE_NAA_J@Z 10070225 f i libucrt:output.obj
 0001:0006f2b5       ??$extract_argument_from_va_list@I_J@?$standard_base@DV?$stream_output_adapter@D@__crt_stdio_output@@@__crt_stdio_output@@IAE_NAA_J@Z 100702b5 f i libucrt:output.obj
 0001:0006f2d3       ??$extract_argument_from_va_list@I_J@?$standard_base@DV?$string_output_adapter@D@__crt_stdio_output@@@__crt_stdio_output@@IAE_NAA_J@Z 100702d3 f i libucrt:output.obj
 0001:0006f2f1       ??$extract_argument_from_va_list@I_J@?$standard_base@_WV?$stream_output_adapter@_W@__crt_stdio_output@@@__crt_stdio_output@@IAE_NAA_J@Z 100702f1 f i libucrt:output.obj
 0001:0006f30f       ??$extract_argument_from_va_list@I_J@?$standard_base@_WV?$string_output_adapter@_W@__crt_stdio_output@@@__crt_stdio_output@@IAE_NAA_J@Z 1007030f f i libucrt:output.obj
 0001:0006f32d       ??$extract_argument_from_va_list@PADPAD@?$positional_parameter_base@DV?$stream_output_adapter@D@__crt_stdio_output@@@__crt_stdio_output@@IAE_NAAPAD@Z 1007032d f i libucrt:output.obj
 0001:0006f3b4       ??$extract_argument_from_va_list@PADPAD@?$positional_parameter_base@DV?$string_output_adapter@D@__crt_stdio_output@@@__crt_stdio_output@@IAE_NAAPAD@Z 100703b4 f i libucrt:output.obj
 0001:0006f43b       ??$extract_argument_from_va_list@PADPAD@?$positional_parameter_base@_WV?$stream_output_adapter@_W@__crt_stdio_output@@@__crt_stdio_output@@IAE_NAAPAD@Z 1007043b f i libucrt:output.obj
 0001:0006f4c3       ??$extract_argument_from_va_list@PADPAD@?$positional_parameter_base@_WV?$string_output_adapter@_W@__crt_stdio_output@@@__crt_stdio_output@@IAE_NAAPAD@Z 100704c3 f i libucrt:output.obj
 0001:0006f54b       ??$extract_argument_from_va_list@PADPAD@?$standard_base@DV?$stream_output_adapter@D@__crt_stdio_output@@@__crt_stdio_output@@IAE_NAAPAD@Z 1007054b f i libucrt:output.obj
 0001:0006f565       ??$extract_argument_from_va_list@PADPAD@?$standard_base@DV?$string_output_adapter@D@__crt_stdio_output@@@__crt_stdio_output@@IAE_NAAPAD@Z 10070565 f i libucrt:output.obj
 0001:0006f57f       ??$extract_argument_from_va_list@PADPAD@?$standard_base@_WV?$stream_output_adapter@_W@__crt_stdio_output@@@__crt_stdio_output@@IAE_NAAPAD@Z 1007057f f i libucrt:output.obj
 0001:0006f599       ??$extract_argument_from_va_list@PADPAD@?$standard_base@_WV?$string_output_adapter@_W@__crt_stdio_output@@@__crt_stdio_output@@IAE_NAAPAD@Z 10070599 f i libucrt:output.obj
 0001:0006f5b3       ??$extract_argument_from_va_list@PAUansi_string@?1??type_case_Z@?$output_processor@DV?$stream_output_adapter@D@__crt_stdio_output@@V?$format_validation_base@DV?$stream_output_adapter@D@__crt_stdio_output@@@2@@__crt_stdio_output@@AAE_NXZ@PAU1?1??234@AAE_NXZ@@?$standard_base@DV?$stream_output_adapter@D@__crt_stdio_output@@@__crt_stdio_output@@IAE_NAAPAUansi_string@?1??type_case_Z@?$output_processor@DV?$stream_output_adapter@D@__crt_stdio_output@@V?$format_validation_base@DV?$stream_output_adapter@D@__crt_stdio_output@@@2@@1@AAE_NXZ@@Z 100705b3 f i libucrt:output.obj
 0001:0006f5cd       ??$extract_argument_from_va_list@PAUansi_string@?1??type_case_Z@?$output_processor@DV?$stream_output_adapter@D@__crt_stdio_output@@V?$positional_parameter_base@DV?$stream_output_adapter@D@__crt_stdio_output@@@2@@__crt_stdio_output@@AAE_NXZ@PAU1?1??234@AAE_NXZ@@?$positional_parameter_base@DV?$stream_output_adapter@D@__crt_stdio_output@@@__crt_stdio_output@@IAE_NAAPAUansi_string@?1??type_case_Z@?$output_processor@DV?$stream_output_adapter@D@__crt_stdio_output@@V?$positional_parameter_base@DV?$stream_output_adapter@D@__crt_stdio_output@@@2@@1@AAE_NXZ@@Z 100705cd f i libucrt:output.obj
 0001:0006f654       ??$extract_argument_from_va_list@PAUansi_string@?1??type_case_Z@?$output_processor@DV?$stream_output_adapter@D@__crt_stdio_output@@V?$positional_parameter_base@DV?$stream_output_adapter@D@__crt_stdio_output@@@2@@__crt_stdio_output@@AAE_NXZ@PAU1?1??234@AAE_NXZ@@?$standard_base@DV?$stream_output_adapter@D@__crt_stdio_output@@@__crt_stdio_output@@IAE_NAAPAUansi_string@?1??type_case_Z@?$output_processor@DV?$stream_output_adapter@D@__crt_stdio_output@@V?$positional_parameter_base@DV?$stream_output_adapter@D@__crt_stdio_output@@@2@@1@AAE_NXZ@@Z 10070654 f i libucrt:output.obj
 0001:0006f66e       ??$extract_argument_from_va_list@PAUansi_string@?1??type_case_Z@?$output_processor@DV?$stream_output_adapter@D@__crt_stdio_output@@V?$standard_base@DV?$stream_output_adapter@D@__crt_stdio_output@@@2@@__crt_stdio_output@@AAE_NXZ@PAU1?1??234@AAE_NXZ@@?$standard_base@DV?$stream_output_adapter@D@__crt_stdio_output@@@__crt_stdio_output@@IAE_NAAPAUansi_string@?1??type_case_Z@?$output_processor@DV?$stream_output_adapter@D@__crt_stdio_output@@V?$standard_base@DV?$stream_output_adapter@D@__crt_stdio_output@@@2@@1@AAE_NXZ@@Z 1007066e f i libucrt:output.obj
 0001:0006f688       ??$extract_argument_from_va_list@PAUansi_string@?1??type_case_Z@?$output_processor@DV?$string_output_adapter@D@__crt_stdio_output@@V?$format_validation_base@DV?$string_output_adapter@D@__crt_stdio_output@@@2@@__crt_stdio_output@@AAE_NXZ@PAU1?1??234@AAE_NXZ@@?$standard_base@DV?$string_output_adapter@D@__crt_stdio_output@@@__crt_stdio_output@@IAE_NAAPAUansi_string@?1??type_case_Z@?$output_processor@DV?$string_output_adapter@D@__crt_stdio_output@@V?$format_validation_base@DV?$string_output_adapter@D@__crt_stdio_output@@@2@@1@AAE_NXZ@@Z 10070688 f i libucrt:output.obj
 0001:0006f6a2       ??$extract_argument_from_va_list@PAUansi_string@?1??type_case_Z@?$output_processor@DV?$string_output_adapter@D@__crt_stdio_output@@V?$positional_parameter_base@DV?$string_output_adapter@D@__crt_stdio_output@@@2@@__crt_stdio_output@@AAE_NXZ@PAU1?1??234@AAE_NXZ@@?$positional_parameter_base@DV?$string_output_adapter@D@__crt_stdio_output@@@__crt_stdio_output@@IAE_NAAPAUansi_string@?1??type_case_Z@?$output_processor@DV?$string_output_adapter@D@__crt_stdio_output@@V?$positional_parameter_base@DV?$string_output_adapter@D@__crt_stdio_output@@@2@@1@AAE_NXZ@@Z 100706a2 f i libucrt:output.obj
 0001:0006f729       ??$extract_argument_from_va_list@PAUansi_string@?1??type_case_Z@?$output_processor@DV?$string_output_adapter@D@__crt_stdio_output@@V?$positional_parameter_base@DV?$string_output_adapter@D@__crt_stdio_output@@@2@@__crt_stdio_output@@AAE_NXZ@PAU1?1??234@AAE_NXZ@@?$standard_base@DV?$string_output_adapter@D@__crt_stdio_output@@@__crt_stdio_output@@IAE_NAAPAUansi_string@?1??type_case_Z@?$output_processor@DV?$string_output_adapter@D@__crt_stdio_output@@V?$positional_parameter_base@DV?$string_output_adapter@D@__crt_stdio_output@@@2@@1@AAE_NXZ@@Z 10070729 f i libucrt:output.obj
 0001:0006f743       ??$extract_argument_from_va_list@PAUansi_string@?1??type_case_Z@?$output_processor@DV?$string_output_adapter@D@__crt_stdio_output@@V?$standard_base@DV?$string_output_adapter@D@__crt_stdio_output@@@2@@__crt_stdio_output@@AAE_NXZ@PAU1?1??234@AAE_NXZ@@?$standard_base@DV?$string_output_adapter@D@__crt_stdio_output@@@__crt_stdio_output@@IAE_NAAPAUansi_string@?1??type_case_Z@?$output_processor@DV?$string_output_adapter@D@__crt_stdio_output@@V?$standard_base@DV?$string_output_adapter@D@__crt_stdio_output@@@2@@1@AAE_NXZ@@Z 10070743 f i libucrt:output.obj
 0001:0006f75d       ??$extract_argument_from_va_list@PAUansi_string@?1??type_case_Z@?$output_processor@_WV?$stream_output_adapter@_W@__crt_stdio_output@@V?$format_validation_base@_WV?$stream_output_adapter@_W@__crt_stdio_output@@@2@@__crt_stdio_output@@AAE_NXZ@PAU1?1??234@AAE_NXZ@@?$standard_base@_WV?$stream_output_adapter@_W@__crt_stdio_output@@@__crt_stdio_output@@IAE_NAAPAUansi_string@?1??type_case_Z@?$output_processor@_WV?$stream_output_adapter@_W@__crt_stdio_output@@V?$format_validation_base@_WV?$stream_output_adapter@_W@__crt_stdio_output@@@2@@1@AAE_NXZ@@Z 1007075d f i libucrt:output.obj
 0001:0006f777       ??$extract_argument_from_va_list@PAUansi_string@?1??type_case_Z@?$output_processor@_WV?$stream_output_adapter@_W@__crt_stdio_output@@V?$positional_parameter_base@_WV?$stream_output_adapter@_W@__crt_stdio_output@@@2@@__crt_stdio_output@@AAE_NXZ@PAU1?1??234@AAE_NXZ@@?$positional_parameter_base@_WV?$stream_output_adapter@_W@__crt_stdio_output@@@__crt_stdio_output@@IAE_NAAPAUansi_string@?1??type_case_Z@?$output_processor@_WV?$stream_output_adapter@_W@__crt_stdio_output@@V?$positional_parameter_base@_WV?$stream_output_adapter@_W@__crt_stdio_output@@@2@@1@AAE_NXZ@@Z 10070777 f i libucrt:output.obj
 0001:0006f7ff       ??$extract_argument_from_va_list@PAUansi_string@?1??type_case_Z@?$output_processor@_WV?$stream_output_adapter@_W@__crt_stdio_output@@V?$positional_parameter_base@_WV?$stream_output_adapter@_W@__crt_stdio_output@@@2@@__crt_stdio_output@@AAE_NXZ@PAU1?1??234@AAE_NXZ@@?$standard_base@_WV?$stream_output_adapter@_W@__crt_stdio_output@@@__crt_stdio_output@@IAE_NAAPAUansi_string@?1??type_case_Z@?$output_processor@_WV?$stream_output_adapter@_W@__crt_stdio_output@@V?$positional_parameter_base@_WV?$stream_output_adapter@_W@__crt_stdio_output@@@2@@1@AAE_NXZ@@Z 100707ff f i libucrt:output.obj
 0001:0006f819       ??$extract_argument_from_va_list@PAUansi_string@?1??type_case_Z@?$output_processor@_WV?$stream_output_adapter@_W@__crt_stdio_output@@V?$standard_base@_WV?$stream_output_adapter@_W@__crt_stdio_output@@@2@@__crt_stdio_output@@AAE_NXZ@PAU1?1??234@AAE_NXZ@@?$standard_base@_WV?$stream_output_adapter@_W@__crt_stdio_output@@@__crt_stdio_output@@IAE_NAAPAUansi_string@?1??type_case_Z@?$output_processor@_WV?$stream_output_adapter@_W@__crt_stdio_output@@V?$standard_base@_WV?$stream_output_adapter@_W@__crt_stdio_output@@@2@@1@AAE_NXZ@@Z 10070819 f i libucrt:output.obj
 0001:0006f833       ??$extract_argument_from_va_list@PAUansi_string@?1??type_case_Z@?$output_processor@_WV?$string_output_adapter@_W@__crt_stdio_output@@V?$format_validation_base@_WV?$string_output_adapter@_W@__crt_stdio_output@@@2@@__crt_stdio_output@@AAE_NXZ@PAU1?1??234@AAE_NXZ@@?$standard_base@_WV?$string_output_adapter@_W@__crt_stdio_output@@@__crt_stdio_output@@IAE_NAAPAUansi_string@?1??type_case_Z@?$output_processor@_WV?$string_output_adapter@_W@__crt_stdio_output@@V?$format_validation_base@_WV?$string_output_adapter@_W@__crt_stdio_output@@@2@@1@AAE_NXZ@@Z 10070833 f i libucrt:output.obj
 0001:0006f84d       ??$extract_argument_from_va_list@PAUansi_string@?1??type_case_Z@?$output_processor@_WV?$string_output_adapter@_W@__crt_stdio_output@@V?$positional_parameter_base@_WV?$string_output_adapter@_W@__crt_stdio_output@@@2@@__crt_stdio_output@@AAE_NXZ@PAU1?1??234@AAE_NXZ@@?$positional_parameter_base@_WV?$string_output_adapter@_W@__crt_stdio_output@@@__crt_stdio_output@@IAE_NAAPAUansi_string@?1??type_case_Z@?$output_processor@_WV?$string_output_adapter@_W@__crt_stdio_output@@V?$positional_parameter_base@_WV?$string_output_adapter@_W@__crt_stdio_output@@@2@@1@AAE_NXZ@@Z 1007084d f i libucrt:output.obj
 0001:0006f8d5       ??$extract_argument_from_va_list@PAUansi_string@?1??type_case_Z@?$output_processor@_WV?$string_output_adapter@_W@__crt_stdio_output@@V?$positional_parameter_base@_WV?$string_output_adapter@_W@__crt_stdio_output@@@2@@__crt_stdio_output@@AAE_NXZ@PAU1?1??234@AAE_NXZ@@?$standard_base@_WV?$string_output_adapter@_W@__crt_stdio_output@@@__crt_stdio_output@@IAE_NAAPAUansi_string@?1??type_case_Z@?$output_processor@_WV?$string_output_adapter@_W@__crt_stdio_output@@V?$positional_parameter_base@_WV?$string_output_adapter@_W@__crt_stdio_output@@@2@@1@AAE_NXZ@@Z 100708d5 f i libucrt:output.obj
 0001:0006f8ef       ??$extract_argument_from_va_list@PAUansi_string@?1??type_case_Z@?$output_processor@_WV?$string_output_adapter@_W@__crt_stdio_output@@V?$standard_base@_WV?$string_output_adapter@_W@__crt_stdio_output@@@2@@__crt_stdio_output@@AAE_NXZ@PAU1?1??234@AAE_NXZ@@?$standard_base@_WV?$string_output_adapter@_W@__crt_stdio_output@@@__crt_stdio_output@@IAE_NAAPAUansi_string@?1??type_case_Z@?$output_processor@_WV?$string_output_adapter@_W@__crt_stdio_output@@V?$standard_base@_WV?$string_output_adapter@_W@__crt_stdio_output@@@2@@1@AAE_NXZ@@Z 100708ef f i libucrt:output.obj
 0001:0006f909       ??$extract_argument_from_va_list@PAXPAX@?$positional_parameter_base@DV?$stream_output_adapter@D@__crt_stdio_output@@@__crt_stdio_output@@IAE_NAAPAX@Z 10070909 f i libucrt:output.obj
 0001:0006f990       ??$extract_argument_from_va_list@PAXPAX@?$positional_parameter_base@DV?$string_output_adapter@D@__crt_stdio_output@@@__crt_stdio_output@@IAE_NAAPAX@Z 10070990 f i libucrt:output.obj
 0001:0006fa17       ??$extract_argument_from_va_list@PAXPAX@?$positional_parameter_base@_WV?$stream_output_adapter@_W@__crt_stdio_output@@@__crt_stdio_output@@IAE_NAAPAX@Z 10070a17 f i libucrt:output.obj
 0001:0006fa9f       ??$extract_argument_from_va_list@PAXPAX@?$positional_parameter_base@_WV?$string_output_adapter@_W@__crt_stdio_output@@@__crt_stdio_output@@IAE_NAAPAX@Z 10070a9f f i libucrt:output.obj
 0001:0006fb27       ??$extract_argument_from_va_list@PAXPAX@?$standard_base@DV?$stream_output_adapter@D@__crt_stdio_output@@@__crt_stdio_output@@IAE_NAAPAX@Z 10070b27 f i libucrt:output.obj
 0001:0006fb41       ??$extract_argument_from_va_list@PAXPAX@?$standard_base@DV?$string_output_adapter@D@__crt_stdio_output@@@__crt_stdio_output@@IAE_NAAPAX@Z 10070b41 f i libucrt:output.obj
 0001:0006fb5b       ??$extract_argument_from_va_list@PAXPAX@?$standard_base@_WV?$stream_output_adapter@_W@__crt_stdio_output@@@__crt_stdio_output@@IAE_NAAPAX@Z 10070b5b f i libucrt:output.obj
 0001:0006fb75       ??$extract_argument_from_va_list@PAXPAX@?$standard_base@_WV?$string_output_adapter@_W@__crt_stdio_output@@@__crt_stdio_output@@IAE_NAAPAX@Z 10070b75 f i libucrt:output.obj
 0001:0006fb8f       ??$extract_argument_from_va_list@U_CRT_DOUBLE@@U1@@?$positional_parameter_base@DV?$stream_output_adapter@D@__crt_stdio_output@@@__crt_stdio_output@@IAE_NAAU_CRT_DOUBLE@@@Z 10070b8f f i libucrt:output.obj
 0001:0006fc24       ??$extract_argument_from_va_list@U_CRT_DOUBLE@@U1@@?$positional_parameter_base@DV?$string_output_adapter@D@__crt_stdio_output@@@__crt_stdio_output@@IAE_NAAU_CRT_DOUBLE@@@Z 10070c24 f i libucrt:output.obj
 0001:0006fcb9       ??$extract_argument_from_va_list@U_CRT_DOUBLE@@U1@@?$positional_parameter_base@_WV?$stream_output_adapter@_W@__crt_stdio_output@@@__crt_stdio_output@@IAE_NAAU_CRT_DOUBLE@@@Z 10070cb9 f i libucrt:output.obj
 0001:0006fd4f       ??$extract_argument_from_va_list@U_CRT_DOUBLE@@U1@@?$positional_parameter_base@_WV?$string_output_adapter@_W@__crt_stdio_output@@@__crt_stdio_output@@IAE_NAAU_CRT_DOUBLE@@@Z 10070d4f f i libucrt:output.obj
 0001:0006fde5       ??$extract_argument_from_va_list@U_CRT_DOUBLE@@U1@@?$standard_base@DV?$stream_output_adapter@D@__crt_stdio_output@@@__crt_stdio_output@@IAE_NAAU_CRT_DOUBLE@@@Z 10070de5 f i libucrt:output.obj
 0001:0006fe05       ??$extract_argument_from_va_list@U_CRT_DOUBLE@@U1@@?$standard_base@DV?$string_output_adapter@D@__crt_stdio_output@@@__crt_stdio_output@@IAE_NAAU_CRT_DOUBLE@@@Z 10070e05 f i libucrt:output.obj
 0001:0006fe25       ??$extract_argument_from_va_list@U_CRT_DOUBLE@@U1@@?$standard_base@_WV?$stream_output_adapter@_W@__crt_stdio_output@@@__crt_stdio_output@@IAE_NAAU_CRT_DOUBLE@@@Z 10070e25 f i libucrt:output.obj
 0001:0006fe45       ??$extract_argument_from_va_list@U_CRT_DOUBLE@@U1@@?$standard_base@_WV?$string_output_adapter@_W@__crt_stdio_output@@@__crt_stdio_output@@IAE_NAAU_CRT_DOUBLE@@@Z 10070e45 f i libucrt:output.obj
 0001:0006fe65       ??$extract_argument_from_va_list@_J_J@?$positional_parameter_base@DV?$stream_output_adapter@D@__crt_stdio_output@@@__crt_stdio_output@@IAE_NAA_J@Z 10070e65 f i libucrt:output.obj
 0001:0006fefa       ??$extract_argument_from_va_list@_J_J@?$positional_parameter_base@DV?$string_output_adapter@D@__crt_stdio_output@@@__crt_stdio_output@@IAE_NAA_J@Z 10070efa f i libucrt:output.obj
 0001:0006ff8f       ??$extract_argument_from_va_list@_J_J@?$positional_parameter_base@_WV?$stream_output_adapter@_W@__crt_stdio_output@@@__crt_stdio_output@@IAE_NAA_J@Z 10070f8f f i libucrt:output.obj
 0001:00070025       ??$extract_argument_from_va_list@_J_J@?$positional_parameter_base@_WV?$string_output_adapter@_W@__crt_stdio_output@@@__crt_stdio_output@@IAE_NAA_J@Z 10071025 f i libucrt:output.obj
 0001:000700bb       ??$extract_argument_from_va_list@_J_J@?$standard_base@DV?$stream_output_adapter@D@__crt_stdio_output@@@__crt_stdio_output@@IAE_NAA_J@Z 100710bb f i libucrt:output.obj
 0001:000700db       ??$extract_argument_from_va_list@_J_J@?$standard_base@DV?$string_output_adapter@D@__crt_stdio_output@@@__crt_stdio_output@@IAE_NAA_J@Z 100710db f i libucrt:output.obj
 0001:000700fb       ??$extract_argument_from_va_list@_J_J@?$standard_base@_WV?$stream_output_adapter@_W@__crt_stdio_output@@@__crt_stdio_output@@IAE_NAA_J@Z 100710fb f i libucrt:output.obj
 0001:0007011b       ??$extract_argument_from_va_list@_J_J@?$standard_base@_WV?$string_output_adapter@_W@__crt_stdio_output@@@__crt_stdio_output@@IAE_NAA_J@Z 1007111b f i libucrt:output.obj
 0001:0007013b       ??$extract_argument_from_va_list@_K_J@?$positional_parameter_base@DV?$stream_output_adapter@D@__crt_stdio_output@@@__crt_stdio_output@@IAE_NAA_J@Z 1007113b f i libucrt:output.obj
 0001:000701d0       ??$extract_argument_from_va_list@_K_J@?$positional_parameter_base@DV?$string_output_adapter@D@__crt_stdio_output@@@__crt_stdio_output@@IAE_NAA_J@Z 100711d0 f i libucrt:output.obj
 0001:00070265       ??$extract_argument_from_va_list@_K_J@?$positional_parameter_base@_WV?$stream_output_adapter@_W@__crt_stdio_output@@@__crt_stdio_output@@IAE_NAA_J@Z 10071265 f i libucrt:output.obj
 0001:000702fb       ??$extract_argument_from_va_list@_K_J@?$positional_parameter_base@_WV?$string_output_adapter@_W@__crt_stdio_output@@@__crt_stdio_output@@IAE_NAA_J@Z 100712fb f i libucrt:output.obj
 0001:00070391       ??$extract_argument_from_va_list@_K_J@?$standard_base@DV?$stream_output_adapter@D@__crt_stdio_output@@@__crt_stdio_output@@IAE_NAA_J@Z 10071391 f i libucrt:output.obj
 0001:000703b1       ??$extract_argument_from_va_list@_K_J@?$standard_base@DV?$string_output_adapter@D@__crt_stdio_output@@@__crt_stdio_output@@IAE_NAA_J@Z 100713b1 f i libucrt:output.obj
 0001:000703d1       ??$extract_argument_from_va_list@_K_J@?$standard_base@_WV?$stream_output_adapter@_W@__crt_stdio_output@@@__crt_stdio_output@@IAE_NAA_J@Z 100713d1 f i libucrt:output.obj
 0001:000703f1       ??$extract_argument_from_va_list@_K_J@?$standard_base@_WV?$string_output_adapter@_W@__crt_stdio_output@@@__crt_stdio_output@@IAE_NAA_J@Z 100713f1 f i libucrt:output.obj
 0001:00070411       ??$extract_argument_from_va_list@_W_W@?$positional_parameter_base@DV?$stream_output_adapter@D@__crt_stdio_output@@@__crt_stdio_output@@IAE_NAA_W@Z 10071411 f i libucrt:output.obj
 0001:0007049c       ??$extract_argument_from_va_list@_W_W@?$positional_parameter_base@DV?$string_output_adapter@D@__crt_stdio_output@@@__crt_stdio_output@@IAE_NAA_W@Z 1007149c f i libucrt:output.obj
 0001:00070527       ??$extract_argument_from_va_list@_W_W@?$positional_parameter_base@_WV?$stream_output_adapter@_W@__crt_stdio_output@@@__crt_stdio_output@@IAE_NAA_W@Z 10071527 f i libucrt:output.obj
 0001:000705b3       ??$extract_argument_from_va_list@_W_W@?$positional_parameter_base@_WV?$string_output_adapter@_W@__crt_stdio_output@@@__crt_stdio_output@@IAE_NAA_W@Z 100715b3 f i libucrt:output.obj
 0001:0007063f       ??$extract_argument_from_va_list@_W_W@?$standard_base@DV?$stream_output_adapter@D@__crt_stdio_output@@@__crt_stdio_output@@IAE_NAA_W@Z 1007163f f i libucrt:output.obj
 0001:0007065b       ??$extract_argument_from_va_list@_W_W@?$standard_base@DV?$string_output_adapter@D@__crt_stdio_output@@@__crt_stdio_output@@IAE_NAA_W@Z 1007165b f i libucrt:output.obj
 0001:00070677       ??$extract_argument_from_va_list@_W_W@?$standard_base@_WV?$stream_output_adapter@_W@__crt_stdio_output@@@__crt_stdio_output@@IAE_NAA_W@Z 10071677 f i libucrt:output.obj
 0001:00070693       ??$extract_argument_from_va_list@_W_W@?$standard_base@_WV?$string_output_adapter@_W@__crt_stdio_output@@@__crt_stdio_output@@IAE_NAA_W@Z 10071693 f i libucrt:output.obj
 0001:000706af       ??$get_parameter_type@D@?$positional_parameter_base@DV?$stream_output_adapter@D@__crt_stdio_output@@@__crt_stdio_output@@CA?AW4parameter_type@01@PAD@Z 100716af f i libucrt:output.obj
 0001:000706b3       ??$get_parameter_type@D@?$positional_parameter_base@DV?$string_output_adapter@D@__crt_stdio_output@@@__crt_stdio_output@@CA?AW4parameter_type@01@PAD@Z 100716b3 f i libucrt:output.obj
 0001:000706b7       ??$get_parameter_type@D@?$positional_parameter_base@_WV?$stream_output_adapter@_W@__crt_stdio_output@@@__crt_stdio_output@@CA?AW4parameter_type@01@PAD@Z 100716b7 f i libucrt:output.obj
 0001:000706bb       ??$get_parameter_type@D@?$positional_parameter_base@_WV?$string_output_adapter@_W@__crt_stdio_output@@@__crt_stdio_output@@CA?AW4parameter_type@01@PAD@Z 100716bb f i libucrt:output.obj
 0001:000706bf       ??$get_parameter_type@Uansi_string@?1??type_case_Z@?$output_processor@DV?$stream_output_adapter@D@__crt_stdio_output@@V?$positional_parameter_base@DV?$stream_output_adapter@D@__crt_stdio_output@@@2@@__crt_stdio_output@@AAE_NXZ@@?$positional_parameter_base@DV?$stream_output_adapter@D@__crt_stdio_output@@@__crt_stdio_output@@CA?AW4parameter_type@01@PAUansi_string@?1??type_case_Z@?$output_processor@DV?$stream_output_adapter@D@__crt_stdio_output@@V?$positional_parameter_base@DV?$stream_output_adapter@D@__crt_stdio_output@@@2@@1@AAE_NXZ@@Z 100716bf f i libucrt:output.obj
 0001:000706c3       ??$get_parameter_type@Uansi_string@?1??type_case_Z@?$output_processor@DV?$string_output_adapter@D@__crt_stdio_output@@V?$positional_parameter_base@DV?$string_output_adapter@D@__crt_stdio_output@@@2@@__crt_stdio_output@@AAE_NXZ@@?$positional_parameter_base@DV?$string_output_adapter@D@__crt_stdio_output@@@__crt_stdio_output@@CA?AW4parameter_type@01@PAUansi_string@?1??type_case_Z@?$output_processor@DV?$string_output_adapter@D@__crt_stdio_output@@V?$positional_parameter_base@DV?$string_output_adapter@D@__crt_stdio_output@@@2@@1@AAE_NXZ@@Z 100716c3 f i libucrt:output.obj
 0001:000706c7       ??$get_parameter_type@Uansi_string@?1??type_case_Z@?$output_processor@_WV?$stream_output_adapter@_W@__crt_stdio_output@@V?$positional_parameter_base@_WV?$stream_output_adapter@_W@__crt_stdio_output@@@2@@__crt_stdio_output@@AAE_NXZ@@?$positional_parameter_base@_WV?$stream_output_adapter@_W@__crt_stdio_output@@@__crt_stdio_output@@CA?AW4parameter_type@01@PAUansi_string@?1??type_case_Z@?$output_processor@_WV?$stream_output_adapter@_W@__crt_stdio_output@@V?$positional_parameter_base@_WV?$stream_output_adapter@_W@__crt_stdio_output@@@2@@1@AAE_NXZ@@Z 100716c7 f i libucrt:output.obj
 0001:000706cb       ??$get_parameter_type@Uansi_string@?1??type_case_Z@?$output_processor@_WV?$string_output_adapter@_W@__crt_stdio_output@@V?$positional_parameter_base@_WV?$string_output_adapter@_W@__crt_stdio_output@@@2@@__crt_stdio_output@@AAE_NXZ@@?$positional_parameter_base@_WV?$string_output_adapter@_W@__crt_stdio_output@@@__crt_stdio_output@@CA?AW4parameter_type@01@PAUansi_string@?1??type_case_Z@?$output_processor@_WV?$string_output_adapter@_W@__crt_stdio_output@@V?$positional_parameter_base@_WV?$string_output_adapter@_W@__crt_stdio_output@@@2@@1@AAE_NXZ@@Z 100716cb f i libucrt:output.obj
 0001:000706cf       ??$get_parameter_type@X@?$positional_parameter_base@DV?$stream_output_adapter@D@__crt_stdio_output@@@__crt_stdio_output@@CA?AW4parameter_type@01@PAX@Z 100716cf f i libucrt:output.obj
 0001:000706d3       ??$get_parameter_type@X@?$positional_parameter_base@DV?$string_output_adapter@D@__crt_stdio_output@@@__crt_stdio_output@@CA?AW4parameter_type@01@PAX@Z 100716d3 f i libucrt:output.obj
 0001:000706d7       ??$get_parameter_type@X@?$positional_parameter_base@_WV?$stream_output_adapter@_W@__crt_stdio_output@@@__crt_stdio_output@@CA?AW4parameter_type@01@PAX@Z 100716d7 f i libucrt:output.obj
 0001:000706db       ??$get_parameter_type@X@?$positional_parameter_base@_WV?$string_output_adapter@_W@__crt_stdio_output@@@__crt_stdio_output@@CA?AW4parameter_type@01@PAX@Z 100716db f i libucrt:output.obj
 0001:000706df       ??$is_character_specifier@D@?$positional_parameter_base@DV?$stream_output_adapter@D@__crt_stdio_output@@@__crt_stdio_output@@CA_ND@Z 100716df f i libucrt:output.obj
 0001:000706f7       ??$is_character_specifier@D@?$positional_parameter_base@DV?$string_output_adapter@D@__crt_stdio_output@@@__crt_stdio_output@@CA_ND@Z 100716f7 f i libucrt:output.obj
 0001:0007070f       ??$is_character_specifier@_W@?$positional_parameter_base@_WV?$stream_output_adapter@_W@__crt_stdio_output@@@__crt_stdio_output@@CA_N_W@Z 1007170f f i libucrt:output.obj
 0001:0007072a       ??$is_character_specifier@_W@?$positional_parameter_base@_WV?$string_output_adapter@_W@__crt_stdio_output@@@__crt_stdio_output@@CA_N_W@Z 1007172a f i libucrt:output.obj
 0001:00070745       ??$is_integral_specifier@D@?$positional_parameter_base@DV?$stream_output_adapter@D@__crt_stdio_output@@@__crt_stdio_output@@CA_ND@Z 10071745 f i libucrt:output.obj
 0001:00070771       ??$is_integral_specifier@D@?$positional_parameter_base@DV?$string_output_adapter@D@__crt_stdio_output@@@__crt_stdio_output@@CA_ND@Z 10071771 f i libucrt:output.obj
 0001:0007079d       ??$is_integral_specifier@_W@?$positional_parameter_base@_WV?$stream_output_adapter@_W@__crt_stdio_output@@@__crt_stdio_output@@CA_N_W@Z 1007179d f i libucrt:output.obj
 0001:000707d8       ??$is_integral_specifier@_W@?$positional_parameter_base@_WV?$string_output_adapter@_W@__crt_stdio_output@@@__crt_stdio_output@@CA_N_W@Z 100717d8 f i libucrt:output.obj
 0001:00070813       ??$is_overflow_condition@K@__crt_strtox@@YA_NIK@Z 10071813 f i libucrt:output.obj
 0001:00070844       ??$is_pointer_specifier@D@?$positional_parameter_base@DV?$stream_output_adapter@D@__crt_stdio_output@@@__crt_stdio_output@@CA_ND@Z 10071844 f i libucrt:output.obj
 0001:00070852       ??$is_pointer_specifier@D@?$positional_parameter_base@DV?$string_output_adapter@D@__crt_stdio_output@@@__crt_stdio_output@@CA_ND@Z 10071852 f i libucrt:output.obj
 0001:00070860       ??$is_pointer_specifier@_W@?$positional_parameter_base@_WV?$stream_output_adapter@_W@__crt_stdio_output@@@__crt_stdio_output@@CA_N_W@Z 10071860 f i libucrt:output.obj
 0001:0007086f       ??$is_pointer_specifier@_W@?$positional_parameter_base@_WV?$string_output_adapter@_W@__crt_stdio_output@@@__crt_stdio_output@@CA_N_W@Z 1007186f f i libucrt:output.obj
 0001:0007087e       ??$is_string_specifier@D@?$positional_parameter_base@DV?$stream_output_adapter@D@__crt_stdio_output@@@__crt_stdio_output@@CA_ND@Z 1007187e f i libucrt:output.obj
 0001:00070896       ??$is_string_specifier@D@?$positional_parameter_base@DV?$string_output_adapter@D@__crt_stdio_output@@@__crt_stdio_output@@CA_ND@Z 10071896 f i libucrt:output.obj
 0001:000708ae       ??$is_string_specifier@_W@?$positional_parameter_base@_WV?$stream_output_adapter@_W@__crt_stdio_output@@@__crt_stdio_output@@CA_N_W@Z 100718ae f i libucrt:output.obj
 0001:000708c9       ??$is_string_specifier@_W@?$positional_parameter_base@_WV?$string_output_adapter@_W@__crt_stdio_output@@@__crt_stdio_output@@CA_N_W@Z 100718c9 f i libucrt:output.obj
 0001:000708e4       ??$is_wide_character_specifier@D@__crt_stdio_output@@YA_N_KDW4length_modifier@0@@Z 100718e4 f i libucrt:output.obj
 0001:00070915       ??$is_wide_character_specifier@_W@__crt_stdio_output@@YA_N_K_WW4length_modifier@0@@Z 10071915 f i libucrt:output.obj
 0001:00070963       ??$make_c_string_character_source@DPAPAD@__crt_strtox@@YA?AV?$c_string_character_source@D@0@QBDQAPAD@Z 10071963 f i libucrt:output.obj
 0001:0007097e       ??$make_c_string_character_source@_WPAPA_W@__crt_strtox@@YA?AV?$c_string_character_source@_W@0@QB_WQAPA_W@Z 1007197e f i libucrt:output.obj
 0001:00070999       ??$parse_integer@KV?$c_string_character_source@D@__crt_strtox@@$0A@@__crt_strtox@@YAKAAV__crt_cached_ptd_host@@V?$c_string_character_source@D@0@H_N@Z 10071999 f i libucrt:output.obj
 0001:00070ba8       ??$parse_integer@KV?$c_string_character_source@_W@__crt_strtox@@$0A@@__crt_strtox@@YAKAAV__crt_cached_ptd_host@@V?$c_string_character_source@_W@0@H_N@Z 10071ba8 f i libucrt:output.obj
 0001:00071177       ??$peek_va_arg@C@__crt_stdio_output@@YACPAD@Z 10072177 f i libucrt:output.obj
 0001:00071183       ??$peek_va_arg@E@__crt_stdio_output@@YAEPAD@Z 10072183 f i libucrt:output.obj
 0001:0007118f       ??$peek_va_arg@F@__crt_stdio_output@@YAFPAD@Z 1007218f f i libucrt:output.obj
 0001:0007119c       ??$peek_va_arg@G@__crt_stdio_output@@YAGPAD@Z 1007219c f i libucrt:output.obj
 0001:000711a9       ??$peek_va_arg@H@__crt_stdio_output@@YAHPAD@Z 100721a9 f i libucrt:output.obj
 0001:000711b5       ??$peek_va_arg@I@__crt_stdio_output@@YAIPAD@Z 100721b5 f i libucrt:output.obj
 0001:000711c1       ??$peek_va_arg@PAD@__crt_stdio_output@@YAPADPAD@Z 100721c1 f i libucrt:output.obj
 0001:000711cd       ??$peek_va_arg@PAUansi_string@?1??type_case_Z@?$output_processor@DV?$stream_output_adapter@D@__crt_stdio_output@@V?$positional_parameter_base@DV?$stream_output_adapter@D@__crt_stdio_output@@@2@@__crt_stdio_output@@AAE_NXZ@@__crt_stdio_output@@YAPAUansi_string@?1??type_case_Z@?$output_processor@DV?$stream_output_adapter@D@__crt_stdio_output@@V?$positional_parameter_base@DV?$stream_output_adapter@D@__crt_stdio_output@@@2@@0@AAE_NXZ@PAD@Z 100721cd f i libucrt:output.obj
 0001:000711d9       ??$peek_va_arg@PAUansi_string@?1??type_case_Z@?$output_processor@DV?$string_output_adapter@D@__crt_stdio_output@@V?$positional_parameter_base@DV?$string_output_adapter@D@__crt_stdio_output@@@2@@__crt_stdio_output@@AAE_NXZ@@__crt_stdio_output@@YAPAUansi_string@?1??type_case_Z@?$output_processor@DV?$string_output_adapter@D@__crt_stdio_output@@V?$positional_parameter_base@DV?$string_output_adapter@D@__crt_stdio_output@@@2@@0@AAE_NXZ@PAD@Z 100721d9 f i libucrt:output.obj
 0001:000711e5       ??$peek_va_arg@PAUansi_string@?1??type_case_Z@?$output_processor@_WV?$stream_output_adapter@_W@__crt_stdio_output@@V?$positional_parameter_base@_WV?$stream_output_adapter@_W@__crt_stdio_output@@@2@@__crt_stdio_output@@AAE_NXZ@@__crt_stdio_output@@YAPAUansi_string@?1??type_case_Z@?$output_processor@_WV?$stream_output_adapter@_W@__crt_stdio_output@@V?$positional_parameter_base@_WV?$stream_output_adapter@_W@__crt_stdio_output@@@2@@0@AAE_NXZ@PAD@Z 100721e5 f i libucrt:output.obj
 0001:000711f1       ??$peek_va_arg@PAUansi_string@?1??type_case_Z@?$output_processor@_WV?$string_output_adapter@_W@__crt_stdio_output@@V?$positional_parameter_base@_WV?$string_output_adapter@_W@__crt_stdio_output@@@2@@__crt_stdio_output@@AAE_NXZ@@__crt_stdio_output@@YAPAUansi_string@?1??type_case_Z@?$output_processor@_WV?$string_output_adapter@_W@__crt_stdio_output@@V?$positional_parameter_base@_WV?$string_output_adapter@_W@__crt_stdio_output@@@2@@0@AAE_NXZ@PAD@Z 100721f1 f i libucrt:output.obj
 0001:000711fd       ??$peek_va_arg@PAX@__crt_stdio_output@@YAPAXPAD@Z 100721fd f i libucrt:output.obj
 0001:00071209       ??$peek_va_arg@U_CRT_DOUBLE@@@__crt_stdio_output@@YA?AU_CRT_DOUBLE@@PAD@Z 10072209 f i libucrt:output.obj
 0001:00071218       ??$peek_va_arg@_J@__crt_stdio_output@@YA_JPAD@Z 10072218 f i libucrt:output.obj
 0001:00071227       ??$peek_va_arg@_K@__crt_stdio_output@@YA_KPAD@Z 10072227 f i libucrt:output.obj
 0001:00071236       ??$peek_va_arg@_W@__crt_stdio_output@@YA_WPAD@Z 10072236 f i libucrt:output.obj
 0001:00071243       ??$puttc_nolock_internal@ABDPAU_iobuf@@AAV__crt_cached_ptd_host@@@?$__crt_char_traits@D@@SAHABD$$QAPAU_iobuf@@AAV__crt_cached_ptd_host@@@Z 10072243 f i libucrt:output.obj
 0001:00071261       ??$puttc_nolock_internal@AB_WPAU_iobuf@@AAV__crt_cached_ptd_host@@@?$__crt_char_traits@_W@@SAGAB_W$$QAPAU_iobuf@@AAV__crt_cached_ptd_host@@@Z 10072261 f i libucrt:output.obj
 0001:0007127f       ??$read_va_arg@C@__crt_stdio_output@@YACAAPAD@Z 1007227f f i libucrt:output.obj
 0001:00071291       ??$read_va_arg@E@__crt_stdio_output@@YAEAAPAD@Z 10072291 f i libucrt:output.obj
 0001:000712a3       ??$read_va_arg@F@__crt_stdio_output@@YAFAAPAD@Z 100722a3 f i libucrt:output.obj
 0001:000712b6       ??$read_va_arg@G@__crt_stdio_output@@YAGAAPAD@Z 100722b6 f i libucrt:output.obj
 0001:000712c9       ??$read_va_arg@H@__crt_stdio_output@@YAHAAPAD@Z 100722c9 f i libucrt:output.obj
 0001:000712db       ??$read_va_arg@I@__crt_stdio_output@@YAIAAPAD@Z 100722db f i libucrt:output.obj
 0001:000712ed       ??$read_va_arg@PAD@__crt_stdio_output@@YAPADAAPAD@Z 100722ed f i libucrt:output.obj
 0001:000712ff       ??$read_va_arg@PAUansi_string@?1??type_case_Z@?$output_processor@DV?$stream_output_adapter@D@__crt_stdio_output@@V?$format_validation_base@DV?$stream_output_adapter@D@__crt_stdio_output@@@2@@__crt_stdio_output@@AAE_NXZ@@__crt_stdio_output@@YAPAUansi_string@?1??type_case_Z@?$output_processor@DV?$stream_output_adapter@D@__crt_stdio_output@@V?$format_validation_base@DV?$stream_output_adapter@D@__crt_stdio_output@@@2@@0@AAE_NXZ@AAPAD@Z 100722ff f i libucrt:output.obj
 0001:00071311       ??$read_va_arg@PAUansi_string@?1??type_case_Z@?$output_processor@DV?$stream_output_adapter@D@__crt_stdio_output@@V?$positional_parameter_base@DV?$stream_output_adapter@D@__crt_stdio_output@@@2@@__crt_stdio_output@@AAE_NXZ@@__crt_stdio_output@@YAPAUansi_string@?1??type_case_Z@?$output_processor@DV?$stream_output_adapter@D@__crt_stdio_output@@V?$positional_parameter_base@DV?$stream_output_adapter@D@__crt_stdio_output@@@2@@0@AAE_NXZ@AAPAD@Z 10072311 f i libucrt:output.obj
 0001:00071323       ??$read_va_arg@PAUansi_string@?1??type_case_Z@?$output_processor@DV?$stream_output_adapter@D@__crt_stdio_output@@V?$standard_base@DV?$stream_output_adapter@D@__crt_stdio_output@@@2@@__crt_stdio_output@@AAE_NXZ@@__crt_stdio_output@@YAPAUansi_string@?1??type_case_Z@?$output_processor@DV?$stream_output_adapter@D@__crt_stdio_output@@V?$standard_base@DV?$stream_output_adapter@D@__crt_stdio_output@@@2@@0@AAE_NXZ@AAPAD@Z 10072323 f i libucrt:output.obj
 0001:00071335       ??$read_va_arg@PAUansi_string@?1??type_case_Z@?$output_processor@DV?$string_output_adapter@D@__crt_stdio_output@@V?$format_validation_base@DV?$string_output_adapter@D@__crt_stdio_output@@@2@@__crt_stdio_output@@AAE_NXZ@@__crt_stdio_output@@YAPAUansi_string@?1??type_case_Z@?$output_processor@DV?$string_output_adapter@D@__crt_stdio_output@@V?$format_validation_base@DV?$string_output_adapter@D@__crt_stdio_output@@@2@@0@AAE_NXZ@AAPAD@Z 10072335 f i libucrt:output.obj
 0001:00071347       ??$read_va_arg@PAUansi_string@?1??type_case_Z@?$output_processor@DV?$string_output_adapter@D@__crt_stdio_output@@V?$positional_parameter_base@DV?$string_output_adapter@D@__crt_stdio_output@@@2@@__crt_stdio_output@@AAE_NXZ@@__crt_stdio_output@@YAPAUansi_string@?1??type_case_Z@?$output_processor@DV?$string_output_adapter@D@__crt_stdio_output@@V?$positional_parameter_base@DV?$string_output_adapter@D@__crt_stdio_output@@@2@@0@AAE_NXZ@AAPAD@Z 10072347 f i libucrt:output.obj
 0001:00071359       ??$read_va_arg@PAUansi_string@?1??type_case_Z@?$output_processor@DV?$string_output_adapter@D@__crt_stdio_output@@V?$standard_base@DV?$string_output_adapter@D@__crt_stdio_output@@@2@@__crt_stdio_output@@AAE_NXZ@@__crt_stdio_output@@YAPAUansi_string@?1??type_case_Z@?$output_processor@DV?$string_output_adapter@D@__crt_stdio_output@@V?$standard_base@DV?$string_output_adapter@D@__crt_stdio_output@@@2@@0@AAE_NXZ@AAPAD@Z 10072359 f i libucrt:output.obj
 0001:0007136b       ??$read_va_arg@PAUansi_string@?1??type_case_Z@?$output_processor@_WV?$stream_output_adapter@_W@__crt_stdio_output@@V?$format_validation_base@_WV?$stream_output_adapter@_W@__crt_stdio_output@@@2@@__crt_stdio_output@@AAE_NXZ@@__crt_stdio_output@@YAPAUansi_string@?1??type_case_Z@?$output_processor@_WV?$stream_output_adapter@_W@__crt_stdio_output@@V?$format_validation_base@_WV?$stream_output_adapter@_W@__crt_stdio_output@@@2@@0@AAE_NXZ@AAPAD@Z 1007236b f i libucrt:output.obj
 0001:0007137d       ??$read_va_arg@PAUansi_string@?1??type_case_Z@?$output_processor@_WV?$stream_output_adapter@_W@__crt_stdio_output@@V?$positional_parameter_base@_WV?$stream_output_adapter@_W@__crt_stdio_output@@@2@@__crt_stdio_output@@AAE_NXZ@@__crt_stdio_output@@YAPAUansi_string@?1??type_case_Z@?$output_processor@_WV?$stream_output_adapter@_W@__crt_stdio_output@@V?$positional_parameter_base@_WV?$stream_output_adapter@_W@__crt_stdio_output@@@2@@0@AAE_NXZ@AAPAD@Z 1007237d f i libucrt:output.obj
 0001:0007138f       ??$read_va_arg@PAUansi_string@?1??type_case_Z@?$output_processor@_WV?$stream_output_adapter@_W@__crt_stdio_output@@V?$standard_base@_WV?$stream_output_adapter@_W@__crt_stdio_output@@@2@@__crt_stdio_output@@AAE_NXZ@@__crt_stdio_output@@YAPAUansi_string@?1??type_case_Z@?$output_processor@_WV?$stream_output_adapter@_W@__crt_stdio_output@@V?$standard_base@_WV?$stream_output_adapter@_W@__crt_stdio_output@@@2@@0@AAE_NXZ@AAPAD@Z 1007238f f i libucrt:output.obj
 0001:000713a1       ??$read_va_arg@PAUansi_string@?1??type_case_Z@?$output_processor@_WV?$string_output_adapter@_W@__crt_stdio_output@@V?$format_validation_base@_WV?$string_output_adapter@_W@__crt_stdio_output@@@2@@__crt_stdio_output@@AAE_NXZ@@__crt_stdio_output@@YAPAUansi_string@?1??type_case_Z@?$output_processor@_WV?$string_output_adapter@_W@__crt_stdio_output@@V?$format_validation_base@_WV?$string_output_adapter@_W@__crt_stdio_output@@@2@@0@AAE_NXZ@AAPAD@Z 100723a1 f i libucrt:output.obj
 0001:000713b3       ??$read_va_arg@PAUansi_string@?1??type_case_Z@?$output_processor@_WV?$string_output_adapter@_W@__crt_stdio_output@@V?$positional_parameter_base@_WV?$string_output_adapter@_W@__crt_stdio_output@@@2@@__crt_stdio_output@@AAE_NXZ@@__crt_stdio_output@@YAPAUansi_string@?1??type_case_Z@?$output_processor@_WV?$string_output_adapter@_W@__crt_stdio_output@@V?$positional_parameter_base@_WV?$string_output_adapter@_W@__crt_stdio_output@@@2@@0@AAE_NXZ@AAPAD@Z 100723b3 f i libucrt:output.obj
 0001:000713c5       ??$read_va_arg@PAUansi_string@?1??type_case_Z@?$output_processor@_WV?$string_output_adapter@_W@__crt_stdio_output@@V?$standard_base@_WV?$string_output_adapter@_W@__crt_stdio_output@@@2@@__crt_stdio_output@@AAE_NXZ@@__crt_stdio_output@@YAPAUansi_string@?1??type_case_Z@?$output_processor@_WV?$string_output_adapter@_W@__crt_stdio_output@@V?$standard_base@_WV?$string_output_adapter@_W@__crt_stdio_output@@@2@@0@AAE_NXZ@AAPAD@Z 100723c5 f i libucrt:output.obj
 0001:000713d7       ??$read_va_arg@PAX@__crt_stdio_output@@YAPAXAAPAD@Z 100723d7 f i libucrt:output.obj
 0001:000713e9       ??$read_va_arg@U_CRT_DOUBLE@@@__crt_stdio_output@@YA?AU_CRT_DOUBLE@@AAPAD@Z 100723e9 f i libucrt:output.obj
 0001:000713ff       ??$read_va_arg@_J@__crt_stdio_output@@YA_JAAPAD@Z 100723ff f i libucrt:output.obj
 0001:00071414       ??$read_va_arg@_K@__crt_stdio_output@@YA_KAAPAD@Z 10072414 f i libucrt:output.obj
 0001:00071429       ??$read_va_arg@_W@__crt_stdio_output@@YA_WAAPAD@Z 10072429 f i libucrt:output.obj
 0001:0007143c       ??$scratch_count@D@formatting_buffer@__crt_stdio_output@@QBEIXZ 1007243c f i libucrt:output.obj
 0001:00071441       ??$scratch_data@D@formatting_buffer@__crt_stdio_output@@QAEPADXZ 10072441 f i libucrt:output.obj
 0001:0007145f       ??$type_case_integer@$07@?$output_processor@DV?$stream_output_adapter@D@__crt_stdio_output@@V?$format_validation_base@DV?$stream_output_adapter@D@__crt_stdio_output@@@2@@__crt_stdio_output@@AAE_N_N@Z 1007245f f i libucrt:output.obj
 0001:000715dc       ??$type_case_integer@$07@?$output_processor@DV?$stream_output_adapter@D@__crt_stdio_output@@V?$positional_parameter_base@DV?$stream_output_adapter@D@__crt_stdio_output@@@2@@__crt_stdio_output@@AAE_N_N@Z 100725dc f i libucrt:output.obj
 0001:0007176d       ??$type_case_integer@$07@?$output_processor@DV?$stream_output_adapter@D@__crt_stdio_output@@V?$standard_base@DV?$stream_output_adapter@D@__crt_stdio_output@@@2@@__crt_stdio_output@@AAE_N_N@Z 1007276d f i libucrt:output.obj
 0001:000718ea       ??$type_case_integer@$07@?$output_processor@DV?$string_output_adapter@D@__crt_stdio_output@@V?$format_validation_base@DV?$string_output_adapter@D@__crt_stdio_output@@@2@@__crt_stdio_output@@AAE_N_N@Z 100728ea f i libucrt:output.obj
 0001:00071a67       ??$type_case_integer@$07@?$output_processor@DV?$string_output_adapter@D@__crt_stdio_output@@V?$positional_parameter_base@DV?$string_output_adapter@D@__crt_stdio_output@@@2@@__crt_stdio_output@@AAE_N_N@Z 10072a67 f i libucrt:output.obj
 0001:00071bf8       ??$type_case_integer@$07@?$output_processor@DV?$string_output_adapter@D@__crt_stdio_output@@V?$standard_base@DV?$string_output_adapter@D@__crt_stdio_output@@@2@@__crt_stdio_output@@AAE_N_N@Z 10072bf8 f i libucrt:output.obj
 0001:00071d75       ??$type_case_integer@$07@?$output_processor@_WV?$stream_output_adapter@_W@__crt_stdio_output@@V?$format_validation_base@_WV?$stream_output_adapter@_W@__crt_stdio_output@@@2@@__crt_stdio_output@@AAE_N_N@Z 10072d75 f i libucrt:output.obj
 0001:00071ef7       ??$type_case_integer@$07@?$output_processor@_WV?$stream_output_adapter@_W@__crt_stdio_output@@V?$positional_parameter_base@_WV?$stream_output_adapter@_W@__crt_stdio_output@@@2@@__crt_stdio_output@@AAE_N_N@Z 10072ef7 f i libucrt:output.obj
 0001:0007208c       ??$type_case_integer@$07@?$output_processor@_WV?$stream_output_adapter@_W@__crt_stdio_output@@V?$standard_base@_WV?$stream_output_adapter@_W@__crt_stdio_output@@@2@@__crt_stdio_output@@AAE_N_N@Z 1007308c f i libucrt:output.obj
 0001:0007220e       ??$type_case_integer@$07@?$output_processor@_WV?$string_output_adapter@_W@__crt_stdio_output@@V?$format_validation_base@_WV?$string_output_adapter@_W@__crt_stdio_output@@@2@@__crt_stdio_output@@AAE_N_N@Z 1007320e f i libucrt:output.obj
 0001:00072390       ??$type_case_integer@$07@?$output_processor@_WV?$string_output_adapter@_W@__crt_stdio_output@@V?$positional_parameter_base@_WV?$string_output_adapter@_W@__crt_stdio_output@@@2@@__crt_stdio_output@@AAE_N_N@Z 10073390 f i libucrt:output.obj
 0001:00072525       ??$type_case_integer@$07@?$output_processor@_WV?$string_output_adapter@_W@__crt_stdio_output@@V?$standard_base@_WV?$string_output_adapter@_W@__crt_stdio_output@@@2@@__crt_stdio_output@@AAE_N_N@Z 10073525 f i libucrt:output.obj
 0001:000726a7       ??$type_case_integer@$09@?$output_processor@DV?$stream_output_adapter@D@__crt_stdio_output@@V?$format_validation_base@DV?$stream_output_adapter@D@__crt_stdio_output@@@2@@__crt_stdio_output@@AAE_N_N@Z 100736a7 f i libucrt:output.obj
 0001:00072824       ??$type_case_integer@$09@?$output_processor@DV?$stream_output_adapter@D@__crt_stdio_output@@V?$positional_parameter_base@DV?$stream_output_adapter@D@__crt_stdio_output@@@2@@__crt_stdio_output@@AAE_N_N@Z 10073824 f i libucrt:output.obj
 0001:000729b5       ??$type_case_integer@$09@?$output_processor@DV?$stream_output_adapter@D@__crt_stdio_output@@V?$standard_base@DV?$stream_output_adapter@D@__crt_stdio_output@@@2@@__crt_stdio_output@@AAE_N_N@Z 100739b5 f i libucrt:output.obj
 0001:00072b32       ??$type_case_integer@$09@?$output_processor@DV?$string_output_adapter@D@__crt_stdio_output@@V?$format_validation_base@DV?$string_output_adapter@D@__crt_stdio_output@@@2@@__crt_stdio_output@@AAE_N_N@Z 10073b32 f i libucrt:output.obj
 0001:00072caf       ??$type_case_integer@$09@?$output_processor@DV?$string_output_adapter@D@__crt_stdio_output@@V?$positional_parameter_base@DV?$string_output_adapter@D@__crt_stdio_output@@@2@@__crt_stdio_output@@AAE_N_N@Z 10073caf f i libucrt:output.obj
 0001:00072e40       ??$type_case_integer@$09@?$output_processor@DV?$string_output_adapter@D@__crt_stdio_output@@V?$standard_base@DV?$string_output_adapter@D@__crt_stdio_output@@@2@@__crt_stdio_output@@AAE_N_N@Z 10073e40 f i libucrt:output.obj
 0001:00072fbd       ??$type_case_integer@$09@?$output_processor@_WV?$stream_output_adapter@_W@__crt_stdio_output@@V?$format_validation_base@_WV?$stream_output_adapter@_W@__crt_stdio_output@@@2@@__crt_stdio_output@@AAE_N_N@Z 10073fbd f i libucrt:output.obj
 0001:0007313f       ??$type_case_integer@$09@?$output_processor@_WV?$stream_output_adapter@_W@__crt_stdio_output@@V?$positional_parameter_base@_WV?$stream_output_adapter@_W@__crt_stdio_output@@@2@@__crt_stdio_output@@AAE_N_N@Z 1007413f f i libucrt:output.obj
 0001:000732d4       ??$type_case_integer@$09@?$output_processor@_WV?$stream_output_adapter@_W@__crt_stdio_output@@V?$standard_base@_WV?$stream_output_adapter@_W@__crt_stdio_output@@@2@@__crt_stdio_output@@AAE_N_N@Z 100742d4 f i libucrt:output.obj
 0001:00073456       ??$type_case_integer@$09@?$output_processor@_WV?$string_output_adapter@_W@__crt_stdio_output@@V?$format_validation_base@_WV?$string_output_adapter@_W@__crt_stdio_output@@@2@@__crt_stdio_output@@AAE_N_N@Z 10074456 f i libucrt:output.obj
 0001:000735d8       ??$type_case_integer@$09@?$output_processor@_WV?$string_output_adapter@_W@__crt_stdio_output@@V?$positional_parameter_base@_WV?$string_output_adapter@_W@__crt_stdio_output@@@2@@__crt_stdio_output@@AAE_N_N@Z 100745d8 f i libucrt:output.obj
 0001:0007376d       ??$type_case_integer@$09@?$output_processor@_WV?$string_output_adapter@_W@__crt_stdio_output@@V?$standard_base@_WV?$string_output_adapter@_W@__crt_stdio_output@@@2@@__crt_stdio_output@@AAE_N_N@Z 1007476d f i libucrt:output.obj
 0001:000738ef       ??$type_case_integer@$0BA@@?$output_processor@DV?$stream_output_adapter@D@__crt_stdio_output@@V?$format_validation_base@DV?$stream_output_adapter@D@__crt_stdio_output@@@2@@__crt_stdio_output@@AAE_N_N@Z 100748ef f i libucrt:output.obj
 0001:00073a6c       ??$type_case_integer@$0BA@@?$output_processor@DV?$stream_output_adapter@D@__crt_stdio_output@@V?$positional_parameter_base@DV?$stream_output_adapter@D@__crt_stdio_output@@@2@@__crt_stdio_output@@AAE_N_N@Z 10074a6c f i libucrt:output.obj
 0001:00073bfd       ??$type_case_integer@$0BA@@?$output_processor@DV?$stream_output_adapter@D@__crt_stdio_output@@V?$standard_base@DV?$stream_output_adapter@D@__crt_stdio_output@@@2@@__crt_stdio_output@@AAE_N_N@Z 10074bfd f i libucrt:output.obj
 0001:00073d7a       ??$type_case_integer@$0BA@@?$output_processor@DV?$string_output_adapter@D@__crt_stdio_output@@V?$format_validation_base@DV?$string_output_adapter@D@__crt_stdio_output@@@2@@__crt_stdio_output@@AAE_N_N@Z 10074d7a f i libucrt:output.obj
 0001:00073ef7       ??$type_case_integer@$0BA@@?$output_processor@DV?$string_output_adapter@D@__crt_stdio_output@@V?$positional_parameter_base@DV?$string_output_adapter@D@__crt_stdio_output@@@2@@__crt_stdio_output@@AAE_N_N@Z 10074ef7 f i libucrt:output.obj
 0001:00074088       ??$type_case_integer@$0BA@@?$output_processor@DV?$string_output_adapter@D@__crt_stdio_output@@V?$standard_base@DV?$string_output_adapter@D@__crt_stdio_output@@@2@@__crt_stdio_output@@AAE_N_N@Z 10075088 f i libucrt:output.obj
 0001:00074205       ??$type_case_integer@$0BA@@?$output_processor@_WV?$stream_output_adapter@_W@__crt_stdio_output@@V?$format_validation_base@_WV?$stream_output_adapter@_W@__crt_stdio_output@@@2@@__crt_stdio_output@@AAE_N_N@Z 10075205 f i libucrt:output.obj
 0001:00074387       ??$type_case_integer@$0BA@@?$output_processor@_WV?$stream_output_adapter@_W@__crt_stdio_output@@V?$positional_parameter_base@_WV?$stream_output_adapter@_W@__crt_stdio_output@@@2@@__crt_stdio_output@@AAE_N_N@Z 10075387 f i libucrt:output.obj
 0001:0007451c       ??$type_case_integer@$0BA@@?$output_processor@_WV?$stream_output_adapter@_W@__crt_stdio_output@@V?$standard_base@_WV?$stream_output_adapter@_W@__crt_stdio_output@@@2@@__crt_stdio_output@@AAE_N_N@Z 1007551c f i libucrt:output.obj
 0001:0007469e       ??$type_case_integer@$0BA@@?$output_processor@_WV?$string_output_adapter@_W@__crt_stdio_output@@V?$format_validation_base@_WV?$string_output_adapter@_W@__crt_stdio_output@@@2@@__crt_stdio_output@@AAE_N_N@Z 1007569e f i libucrt:output.obj
 0001:00074820       ??$type_case_integer@$0BA@@?$output_processor@_WV?$string_output_adapter@_W@__crt_stdio_output@@V?$positional_parameter_base@_WV?$string_output_adapter@_W@__crt_stdio_output@@@2@@__crt_stdio_output@@AAE_N_N@Z 10075820 f i libucrt:output.obj
 0001:000749b5       ??$type_case_integer@$0BA@@?$output_processor@_WV?$string_output_adapter@_W@__crt_stdio_output@@V?$standard_base@_WV?$string_output_adapter@_W@__crt_stdio_output@@@2@@__crt_stdio_output@@AAE_N_N@Z 100759b5 f i libucrt:output.obj
 0001:00074b37       ??$type_case_integer_parse_into_buffer@I$07@?$output_processor@DV?$stream_output_adapter@D@__crt_stdio_output@@V?$format_validation_base@DV?$stream_output_adapter@D@__crt_stdio_output@@@2@@__crt_stdio_output@@AAEXI_N@Z 10075b37 f i libucrt:output.obj
 0001:00074ba1       ??$type_case_integer_parse_into_buffer@I$07@?$output_processor@DV?$stream_output_adapter@D@__crt_stdio_output@@V?$positional_parameter_base@DV?$stream_output_adapter@D@__crt_stdio_output@@@2@@__crt_stdio_output@@AAEXI_N@Z 10075ba1 f i libucrt:output.obj
 0001:00074c0b       ??$type_case_integer_parse_into_buffer@I$07@?$output_processor@DV?$stream_output_adapter@D@__crt_stdio_output@@V?$standard_base@DV?$stream_output_adapter@D@__crt_stdio_output@@@2@@__crt_stdio_output@@AAEXI_N@Z 10075c0b f i libucrt:output.obj
 0001:00074c75       ??$type_case_integer_parse_into_buffer@I$07@?$output_processor@DV?$string_output_adapter@D@__crt_stdio_output@@V?$format_validation_base@DV?$string_output_adapter@D@__crt_stdio_output@@@2@@__crt_stdio_output@@AAEXI_N@Z 10075c75 f i libucrt:output.obj
 0001:00074cdf       ??$type_case_integer_parse_into_buffer@I$07@?$output_processor@DV?$string_output_adapter@D@__crt_stdio_output@@V?$positional_parameter_base@DV?$string_output_adapter@D@__crt_stdio_output@@@2@@__crt_stdio_output@@AAEXI_N@Z 10075cdf f i libucrt:output.obj
 0001:00074d49       ??$type_case_integer_parse_into_buffer@I$07@?$output_processor@DV?$string_output_adapter@D@__crt_stdio_output@@V?$standard_base@DV?$string_output_adapter@D@__crt_stdio_output@@@2@@__crt_stdio_output@@AAEXI_N@Z 10075d49 f i libucrt:output.obj
 0001:00074db3       ??$type_case_integer_parse_into_buffer@I$07@?$output_processor@_WV?$stream_output_adapter@_W@__crt_stdio_output@@V?$format_validation_base@_WV?$stream_output_adapter@_W@__crt_stdio_output@@@2@@__crt_stdio_output@@AAEXI_N@Z 10075db3 f i libucrt:output.obj
 0001:00074e20       ??$type_case_integer_parse_into_buffer@I$07@?$output_processor@_WV?$stream_output_adapter@_W@__crt_stdio_output@@V?$positional_parameter_base@_WV?$stream_output_adapter@_W@__crt_stdio_output@@@2@@__crt_stdio_output@@AAEXI_N@Z 10075e20 f i libucrt:output.obj
 0001:00074e8d       ??$type_case_integer_parse_into_buffer@I$07@?$output_processor@_WV?$stream_output_adapter@_W@__crt_stdio_output@@V?$standard_base@_WV?$stream_output_adapter@_W@__crt_stdio_output@@@2@@__crt_stdio_output@@AAEXI_N@Z 10075e8d f i libucrt:output.obj
 0001:00074efa       ??$type_case_integer_parse_into_buffer@I$07@?$output_processor@_WV?$string_output_adapter@_W@__crt_stdio_output@@V?$format_validation_base@_WV?$string_output_adapter@_W@__crt_stdio_output@@@2@@__crt_stdio_output@@AAEXI_N@Z 10075efa f i libucrt:output.obj
 0001:00074f67       ??$type_case_integer_parse_into_buffer@I$07@?$output_processor@_WV?$string_output_adapter@_W@__crt_stdio_output@@V?$positional_parameter_base@_WV?$string_output_adapter@_W@__crt_stdio_output@@@2@@__crt_stdio_output@@AAEXI_N@Z 10075f67 f i libucrt:output.obj
 0001:00074fd4       ??$type_case_integer_parse_into_buffer@I$07@?$output_processor@_WV?$string_output_adapter@_W@__crt_stdio_output@@V?$standard_base@_WV?$string_output_adapter@_W@__crt_stdio_output@@@2@@__crt_stdio_output@@AAEXI_N@Z 10075fd4 f i libucrt:output.obj
 0001:00075041       ??$type_case_integer_parse_into_buffer@I$09@?$output_processor@DV?$stream_output_adapter@D@__crt_stdio_output@@V?$format_validation_base@DV?$stream_output_adapter@D@__crt_stdio_output@@@2@@__crt_stdio_output@@AAEXI_N@Z 10076041 f i libucrt:output.obj
 0001:000750bb       ??$type_case_integer_parse_into_buffer@I$09@?$output_processor@DV?$stream_output_adapter@D@__crt_stdio_output@@V?$positional_parameter_base@DV?$stream_output_adapter@D@__crt_stdio_output@@@2@@__crt_stdio_output@@AAEXI_N@Z 100760bb f i libucrt:output.obj
 0001:00075135       ??$type_case_integer_parse_into_buffer@I$09@?$output_processor@DV?$stream_output_adapter@D@__crt_stdio_output@@V?$standard_base@DV?$stream_output_adapter@D@__crt_stdio_output@@@2@@__crt_stdio_output@@AAEXI_N@Z 10076135 f i libucrt:output.obj
 0001:000751af       ??$type_case_integer_parse_into_buffer@I$09@?$output_processor@DV?$string_output_adapter@D@__crt_stdio_output@@V?$format_validation_base@DV?$string_output_adapter@D@__crt_stdio_output@@@2@@__crt_stdio_output@@AAEXI_N@Z 100761af f i libucrt:output.obj
 0001:00075229       ??$type_case_integer_parse_into_buffer@I$09@?$output_processor@DV?$string_output_adapter@D@__crt_stdio_output@@V?$positional_parameter_base@DV?$string_output_adapter@D@__crt_stdio_output@@@2@@__crt_stdio_output@@AAEXI_N@Z 10076229 f i libucrt:output.obj
 0001:000752a3       ??$type_case_integer_parse_into_buffer@I$09@?$output_processor@DV?$string_output_adapter@D@__crt_stdio_output@@V?$standard_base@DV?$string_output_adapter@D@__crt_stdio_output@@@2@@__crt_stdio_output@@AAEXI_N@Z 100762a3 f i libucrt:output.obj
 0001:0007531d       ??$type_case_integer_parse_into_buffer@I$09@?$output_processor@_WV?$stream_output_adapter@_W@__crt_stdio_output@@V?$format_validation_base@_WV?$stream_output_adapter@_W@__crt_stdio_output@@@2@@__crt_stdio_output@@AAEXI_N@Z 1007631d f i libucrt:output.obj
 0001:000753ac       ??$type_case_integer_parse_into_buffer@I$09@?$output_processor@_WV?$stream_output_adapter@_W@__crt_stdio_output@@V?$positional_parameter_base@_WV?$stream_output_adapter@_W@__crt_stdio_output@@@2@@__crt_stdio_output@@AAEXI_N@Z 100763ac f i libucrt:output.obj
 0001:0007543b       ??$type_case_integer_parse_into_buffer@I$09@?$output_processor@_WV?$stream_output_adapter@_W@__crt_stdio_output@@V?$standard_base@_WV?$stream_output_adapter@_W@__crt_stdio_output@@@2@@__crt_stdio_output@@AAEXI_N@Z 1007643b f i libucrt:output.obj
 0001:000754ca       ??$type_case_integer_parse_into_buffer@I$09@?$output_processor@_WV?$string_output_adapter@_W@__crt_stdio_output@@V?$format_validation_base@_WV?$string_output_adapter@_W@__crt_stdio_output@@@2@@__crt_stdio_output@@AAEXI_N@Z 100764ca f i libucrt:output.obj
 0001:00075559       ??$type_case_integer_parse_into_buffer@I$09@?$output_processor@_WV?$string_output_adapter@_W@__crt_stdio_output@@V?$positional_parameter_base@_WV?$string_output_adapter@_W@__crt_stdio_output@@@2@@__crt_stdio_output@@AAEXI_N@Z 10076559 f i libucrt:output.obj
 0001:000755e8       ??$type_case_integer_parse_into_buffer@I$09@?$output_processor@_WV?$string_output_adapter@_W@__crt_stdio_output@@V?$standard_base@_WV?$string_output_adapter@_W@__crt_stdio_output@@@2@@__crt_stdio_output@@AAEXI_N@Z 100765e8 f i libucrt:output.obj
 0001:00075677       ??$type_case_integer_parse_into_buffer@I$0BA@@?$output_processor@DV?$stream_output_adapter@D@__crt_stdio_output@@V?$format_validation_base@DV?$stream_output_adapter@D@__crt_stdio_output@@@2@@__crt_stdio_output@@AAEXI_N@Z 10076677 f i libucrt:output.obj
 0001:000756ff       ??$type_case_integer_parse_into_buffer@I$0BA@@?$output_processor@DV?$stream_output_adapter@D@__crt_stdio_output@@V?$positional_parameter_base@DV?$stream_output_adapter@D@__crt_stdio_output@@@2@@__crt_stdio_output@@AAEXI_N@Z 100766ff f i libucrt:output.obj
 0001:00075787       ??$type_case_integer_parse_into_buffer@I$0BA@@?$output_processor@DV?$stream_output_adapter@D@__crt_stdio_output@@V?$standard_base@DV?$stream_output_adapter@D@__crt_stdio_output@@@2@@__crt_stdio_output@@AAEXI_N@Z 10076787 f i libucrt:output.obj
 0001:0007580f       ??$type_case_integer_parse_into_buffer@I$0BA@@?$output_processor@DV?$string_output_adapter@D@__crt_stdio_output@@V?$format_validation_base@DV?$string_output_adapter@D@__crt_stdio_output@@@2@@__crt_stdio_output@@AAEXI_N@Z 1007680f f i libucrt:output.obj
 0001:00075897       ??$type_case_integer_parse_into_buffer@I$0BA@@?$output_processor@DV?$string_output_adapter@D@__crt_stdio_output@@V?$positional_parameter_base@DV?$string_output_adapter@D@__crt_stdio_output@@@2@@__crt_stdio_output@@AAEXI_N@Z 10076897 f i libucrt:output.obj
 0001:0007591f       ??$type_case_integer_parse_into_buffer@I$0BA@@?$output_processor@DV?$string_output_adapter@D@__crt_stdio_output@@V?$standard_base@DV?$string_output_adapter@D@__crt_stdio_output@@@2@@__crt_stdio_output@@AAEXI_N@Z 1007691f f i libucrt:output.obj
 0001:000759a7       ??$type_case_integer_parse_into_buffer@I$0BA@@?$output_processor@_WV?$stream_output_adapter@_W@__crt_stdio_output@@V?$format_validation_base@_WV?$stream_output_adapter@_W@__crt_stdio_output@@@2@@__crt_stdio_output@@AAEXI_N@Z 100769a7 f i libucrt:output.obj
 0001:00075a34       ??$type_case_integer_parse_into_buffer@I$0BA@@?$output_processor@_WV?$stream_output_adapter@_W@__crt_stdio_output@@V?$positional_parameter_base@_WV?$stream_output_adapter@_W@__crt_stdio_output@@@2@@__crt_stdio_output@@AAEXI_N@Z 10076a34 f i libucrt:output.obj
 0001:00075ac1       ??$type_case_integer_parse_into_buffer@I$0BA@@?$output_processor@_WV?$stream_output_adapter@_W@__crt_stdio_output@@V?$standard_base@_WV?$stream_output_adapter@_W@__crt_stdio_output@@@2@@__crt_stdio_output@@AAEXI_N@Z 10076ac1 f i libucrt:output.obj
 0001:00075b4e       ??$type_case_integer_parse_into_buffer@I$0BA@@?$output_processor@_WV?$string_output_adapter@_W@__crt_stdio_output@@V?$format_validation_base@_WV?$string_output_adapter@_W@__crt_stdio_output@@@2@@__crt_stdio_output@@AAEXI_N@Z 10076b4e f i libucrt:output.obj
 0001:00075bdb       ??$type_case_integer_parse_into_buffer@I$0BA@@?$output_processor@_WV?$string_output_adapter@_W@__crt_stdio_output@@V?$positional_parameter_base@_WV?$string_output_adapter@_W@__crt_stdio_output@@@2@@__crt_stdio_output@@AAEXI_N@Z 10076bdb f i libucrt:output.obj
 0001:00075c68       ??$type_case_integer_parse_into_buffer@I$0BA@@?$output_processor@_WV?$string_output_adapter@_W@__crt_stdio_output@@V?$standard_base@_WV?$string_output_adapter@_W@__crt_stdio_output@@@2@@__crt_stdio_output@@AAEXI_N@Z 10076c68 f i libucrt:output.obj
 0001:00075cf5       ??$type_case_integer_parse_into_buffer@_K$07@?$output_processor@DV?$stream_output_adapter@D@__crt_stdio_output@@V?$format_validation_base@DV?$stream_output_adapter@D@__crt_stdio_output@@@2@@__crt_stdio_output@@AAEX_K_N@Z 10076cf5 f i libucrt:output.obj
 0001:00075d6d       ??$type_case_integer_parse_into_buffer@_K$07@?$output_processor@DV?$stream_output_adapter@D@__crt_stdio_output@@V?$positional_parameter_base@DV?$stream_output_adapter@D@__crt_stdio_output@@@2@@__crt_stdio_output@@AAEX_K_N@Z 10076d6d f i libucrt:output.obj
 0001:00075de5       ??$type_case_integer_parse_into_buffer@_K$07@?$output_processor@DV?$stream_output_adapter@D@__crt_stdio_output@@V?$standard_base@DV?$stream_output_adapter@D@__crt_stdio_output@@@2@@__crt_stdio_output@@AAEX_K_N@Z 10076de5 f i libucrt:output.obj
 0001:00075e5d       ??$type_case_integer_parse_into_buffer@_K$07@?$output_processor@DV?$string_output_adapter@D@__crt_stdio_output@@V?$format_validation_base@DV?$string_output_adapter@D@__crt_stdio_output@@@2@@__crt_stdio_output@@AAEX_K_N@Z 10076e5d f i libucrt:output.obj
 0001:00075ed5       ??$type_case_integer_parse_into_buffer@_K$07@?$output_processor@DV?$string_output_adapter@D@__crt_stdio_output@@V?$positional_parameter_base@DV?$string_output_adapter@D@__crt_stdio_output@@@2@@__crt_stdio_output@@AAEX_K_N@Z 10076ed5 f i libucrt:output.obj
 0001:00075f4d       ??$type_case_integer_parse_into_buffer@_K$07@?$output_processor@DV?$string_output_adapter@D@__crt_stdio_output@@V?$standard_base@DV?$string_output_adapter@D@__crt_stdio_output@@@2@@__crt_stdio_output@@AAEX_K_N@Z 10076f4d f i libucrt:output.obj
 0001:00075fc5       ??$type_case_integer_parse_into_buffer@_K$07@?$output_processor@_WV?$stream_output_adapter@_W@__crt_stdio_output@@V?$format_validation_base@_WV?$stream_output_adapter@_W@__crt_stdio_output@@@2@@__crt_stdio_output@@AAEX_K_N@Z 10076fc5 f i libucrt:output.obj
 0001:0007604e       ??$type_case_integer_parse_into_buffer@_K$07@?$output_processor@_WV?$stream_output_adapter@_W@__crt_stdio_output@@V?$positional_parameter_base@_WV?$stream_output_adapter@_W@__crt_stdio_output@@@2@@__crt_stdio_output@@AAEX_K_N@Z 1007704e f i libucrt:output.obj
 0001:000760d7       ??$type_case_integer_parse_into_buffer@_K$07@?$output_processor@_WV?$stream_output_adapter@_W@__crt_stdio_output@@V?$standard_base@_WV?$stream_output_adapter@_W@__crt_stdio_output@@@2@@__crt_stdio_output@@AAEX_K_N@Z 100770d7 f i libucrt:output.obj
 0001:00076160       ??$type_case_integer_parse_into_buffer@_K$07@?$output_processor@_WV?$string_output_adapter@_W@__crt_stdio_output@@V?$format_validation_base@_WV?$string_output_adapter@_W@__crt_stdio_output@@@2@@__crt_stdio_output@@AAEX_K_N@Z 10077160 f i libucrt:output.obj
 0001:000761e9       ??$type_case_integer_parse_into_buffer@_K$07@?$output_processor@_WV?$string_output_adapter@_W@__crt_stdio_output@@V?$positional_parameter_base@_WV?$string_output_adapter@_W@__crt_stdio_output@@@2@@__crt_stdio_output@@AAEX_K_N@Z 100771e9 f i libucrt:output.obj
 0001:00076272       ??$type_case_integer_parse_into_buffer@_K$07@?$output_processor@_WV?$string_output_adapter@_W@__crt_stdio_output@@V?$standard_base@_WV?$string_output_adapter@_W@__crt_stdio_output@@@2@@__crt_stdio_output@@AAEX_K_N@Z 10077272 f i libucrt:output.obj
 0001:000762fb       ??$type_case_integer_parse_into_buffer@_K$09@?$output_processor@DV?$stream_output_adapter@D@__crt_stdio_output@@V?$format_validation_base@DV?$stream_output_adapter@D@__crt_stdio_output@@@2@@__crt_stdio_output@@AAEX_K_N@Z 100772fb f i libucrt:output.obj
 0001:00076397       ??$type_case_integer_parse_into_buffer@_K$09@?$output_processor@DV?$stream_output_adapter@D@__crt_stdio_output@@V?$positional_parameter_base@DV?$stream_output_adapter@D@__crt_stdio_output@@@2@@__crt_stdio_output@@AAEX_K_N@Z 10077397 f i libucrt:output.obj
 0001:00076433       ??$type_case_integer_parse_into_buffer@_K$09@?$output_processor@DV?$stream_output_adapter@D@__crt_stdio_output@@V?$standard_base@DV?$stream_output_adapter@D@__crt_stdio_output@@@2@@__crt_stdio_output@@AAEX_K_N@Z 10077433 f i libucrt:output.obj
 0001:000764cf       ??$type_case_integer_parse_into_buffer@_K$09@?$output_processor@DV?$string_output_adapter@D@__crt_stdio_output@@V?$format_validation_base@DV?$string_output_adapter@D@__crt_stdio_output@@@2@@__crt_stdio_output@@AAEX_K_N@Z 100774cf f i libucrt:output.obj
 0001:0007656b       ??$type_case_integer_parse_into_buffer@_K$09@?$output_processor@DV?$string_output_adapter@D@__crt_stdio_output@@V?$positional_parameter_base@DV?$string_output_adapter@D@__crt_stdio_output@@@2@@__crt_stdio_output@@AAEX_K_N@Z 1007756b f i libucrt:output.obj
 0001:00076607       ??$type_case_integer_parse_into_buffer@_K$09@?$output_processor@DV?$string_output_adapter@D@__crt_stdio_output@@V?$standard_base@DV?$string_output_adapter@D@__crt_stdio_output@@@2@@__crt_stdio_output@@AAEX_K_N@Z 10077607 f i libucrt:output.obj
 0001:000766a3       ??$type_case_integer_parse_into_buffer@_K$09@?$output_processor@_WV?$stream_output_adapter@_W@__crt_stdio_output@@V?$format_validation_base@_WV?$stream_output_adapter@_W@__crt_stdio_output@@@2@@__crt_stdio_output@@AAEX_K_N@Z 100776a3 f i libucrt:output.obj
 0001:00076752       ??$type_case_integer_parse_into_buffer@_K$09@?$output_processor@_WV?$stream_output_adapter@_W@__crt_stdio_output@@V?$positional_parameter_base@_WV?$stream_output_adapter@_W@__crt_stdio_output@@@2@@__crt_stdio_output@@AAEX_K_N@Z 10077752 f i libucrt:output.obj
 0001:00076801       ??$type_case_integer_parse_into_buffer@_K$09@?$output_processor@_WV?$stream_output_adapter@_W@__crt_stdio_output@@V?$standard_base@_WV?$stream_output_adapter@_W@__crt_stdio_output@@@2@@__crt_stdio_output@@AAEX_K_N@Z 10077801 f i libucrt:output.obj
 0001:000768b0       ??$type_case_integer_parse_into_buffer@_K$09@?$output_processor@_WV?$string_output_adapter@_W@__crt_stdio_output@@V?$format_validation_base@_WV?$string_output_adapter@_W@__crt_stdio_output@@@2@@__crt_stdio_output@@AAEX_K_N@Z 100778b0 f i libucrt:output.obj
 0001:0007695f       ??$type_case_integer_parse_into_buffer@_K$09@?$output_processor@_WV?$string_output_adapter@_W@__crt_stdio_output@@V?$positional_parameter_base@_WV?$string_output_adapter@_W@__crt_stdio_output@@@2@@__crt_stdio_output@@AAEX_K_N@Z 1007795f f i libucrt:output.obj
 0001:00076a0e       ??$type_case_integer_parse_into_buffer@_K$09@?$output_processor@_WV?$string_output_adapter@_W@__crt_stdio_output@@V?$standard_base@_WV?$string_output_adapter@_W@__crt_stdio_output@@@2@@__crt_stdio_output@@AAEX_K_N@Z 10077a0e f i libucrt:output.obj
 0001:00076abd       ??$type_case_integer_parse_into_buffer@_K$0BA@@?$output_processor@DV?$stream_output_adapter@D@__crt_stdio_output@@V?$format_validation_base@DV?$stream_output_adapter@D@__crt_stdio_output@@@2@@__crt_stdio_output@@AAEX_K_N@Z 10077abd f i libucrt:output.obj
 0001:00076b4f       ??$type_case_integer_parse_into_buffer@_K$0BA@@?$output_processor@DV?$stream_output_adapter@D@__crt_stdio_output@@V?$positional_parameter_base@DV?$stream_output_adapter@D@__crt_stdio_output@@@2@@__crt_stdio_output@@AAEX_K_N@Z 10077b4f f i libucrt:output.obj
 0001:00076be1       ??$type_case_integer_parse_into_buffer@_K$0BA@@?$output_processor@DV?$stream_output_adapter@D@__crt_stdio_output@@V?$standard_base@DV?$stream_output_adapter@D@__crt_stdio_output@@@2@@__crt_stdio_output@@AAEX_K_N@Z 10077be1 f i libucrt:output.obj
 0001:00076c73       ??$type_case_integer_parse_into_buffer@_K$0BA@@?$output_processor@DV?$string_output_adapter@D@__crt_stdio_output@@V?$format_validation_base@DV?$string_output_adapter@D@__crt_stdio_output@@@2@@__crt_stdio_output@@AAEX_K_N@Z 10077c73 f i libucrt:output.obj
 0001:00076d05       ??$type_case_integer_parse_into_buffer@_K$0BA@@?$output_processor@DV?$string_output_adapter@D@__crt_stdio_output@@V?$positional_parameter_base@DV?$string_output_adapter@D@__crt_stdio_output@@@2@@__crt_stdio_output@@AAEX_K_N@Z 10077d05 f i libucrt:output.obj
 0001:00076d97       ??$type_case_integer_parse_into_buffer@_K$0BA@@?$output_processor@DV?$string_output_adapter@D@__crt_stdio_output@@V?$standard_base@DV?$string_output_adapter@D@__crt_stdio_output@@@2@@__crt_stdio_output@@AAEX_K_N@Z 10077d97 f i libucrt:output.obj
 0001:00076e29       ??$type_case_integer_parse_into_buffer@_K$0BA@@?$output_processor@_WV?$stream_output_adapter@_W@__crt_stdio_output@@V?$format_validation_base@_WV?$stream_output_adapter@_W@__crt_stdio_output@@@2@@__crt_stdio_output@@AAEX_K_N@Z 10077e29 f i libucrt:output.obj
 0001:00076ec4       ??$type_case_integer_parse_into_buffer@_K$0BA@@?$output_processor@_WV?$stream_output_adapter@_W@__crt_stdio_output@@V?$positional_parameter_base@_WV?$stream_output_adapter@_W@__crt_stdio_output@@@2@@__crt_stdio_output@@AAEX_K_N@Z 10077ec4 f i libucrt:output.obj
 0001:00076f5f       ??$type_case_integer_parse_into_buffer@_K$0BA@@?$output_processor@_WV?$stream_output_adapter@_W@__crt_stdio_output@@V?$standard_base@_WV?$stream_output_adapter@_W@__crt_stdio_output@@@2@@__crt_stdio_output@@AAEX_K_N@Z 10077f5f f i libucrt:output.obj
 0001:00076ffa       ??$type_case_integer_parse_into_buffer@_K$0BA@@?$output_processor@_WV?$string_output_adapter@_W@__crt_stdio_output@@V?$format_validation_base@_WV?$string_output_adapter@_W@__crt_stdio_output@@@2@@__crt_stdio_output@@AAEX_K_N@Z 10077ffa f i libucrt:output.obj
 0001:00077095       ??$type_case_integer_parse_into_buffer@_K$0BA@@?$output_processor@_WV?$string_output_adapter@_W@__crt_stdio_output@@V?$positional_parameter_base@_WV?$string_output_adapter@_W@__crt_stdio_output@@@2@@__crt_stdio_output@@AAEX_K_N@Z 10078095 f i libucrt:output.obj
 0001:00077130       ??$type_case_integer_parse_into_buffer@_K$0BA@@?$output_processor@_WV?$string_output_adapter@_W@__crt_stdio_output@@V?$standard_base@_WV?$string_output_adapter@_W@__crt_stdio_output@@@2@@__crt_stdio_output@@AAEX_K_N@Z 10078130 f i libucrt:output.obj
 0001:000771cb       ??$write_multiple_characters@V?$stream_output_adapter@D@__crt_stdio_output@@D@__crt_stdio_output@@YAXABV?$stream_output_adapter@D@0@DHQAHAAV__crt_cached_ptd_host@@@Z 100781cb f i libucrt:output.obj
 0001:000771fa       ??$write_multiple_characters@V?$stream_output_adapter@_W@__crt_stdio_output@@D@__crt_stdio_output@@YAXABV?$stream_output_adapter@_W@0@DHQAHAAV__crt_cached_ptd_host@@@Z 100781fa f i libucrt:output.obj
 0001:0007722e       ??$write_multiple_characters@V?$string_output_adapter@D@__crt_stdio_output@@D@__crt_stdio_output@@YAXABV?$string_output_adapter@D@0@DHQAHAAV__crt_cached_ptd_host@@@Z 1007822e f i libucrt:output.obj
 0001:0007728f       ??$write_multiple_characters@V?$string_output_adapter@_W@__crt_stdio_output@@D@__crt_stdio_output@@YAXABV?$string_output_adapter@_W@0@DHQAHAAV__crt_cached_ptd_host@@@Z 1007828f f i libucrt:output.obj
 0001:000774bc       ??0?$common_data@D@__crt_stdio_output@@IAE@AAV__crt_cached_ptd_host@@@Z 100784bc f i libucrt:output.obj
 0001:00077503       ??0?$common_data@_W@__crt_stdio_output@@IAE@AAV__crt_cached_ptd_host@@@Z 10078503 f i libucrt:output.obj
 0001:0007754f       ??0?$output_adapter_data@DV?$stream_output_adapter@D@__crt_stdio_output@@@__crt_stdio_output@@IAE@ABV?$stream_output_adapter@D@1@_KQBDAAV__crt_cached_ptd_host@@QAD@Z 1007854f f i libucrt:output.obj
 0001:000775b6       ??0?$output_adapter_data@DV?$string_output_adapter@D@__crt_stdio_output@@@__crt_stdio_output@@IAE@ABV?$string_output_adapter@D@1@_KQBDAAV__crt_cached_ptd_host@@QAD@Z 100785b6 f i libucrt:output.obj
 0001:0007761d       ??0?$output_adapter_data@_WV?$stream_output_adapter@_W@__crt_stdio_output@@@__crt_stdio_output@@IAE@ABV?$stream_output_adapter@_W@1@_KQB_WAAV__crt_cached_ptd_host@@QAD@Z 1007861d f i libucrt:output.obj
 0001:00077689       ??0?$output_adapter_data@_WV?$string_output_adapter@_W@__crt_stdio_output@@@__crt_stdio_output@@IAE@ABV?$string_output_adapter@_W@1@_KQB_WAAV__crt_cached_ptd_host@@QAD@Z 10078689 f i libucrt:output.obj
 0001:000776f5       ??0?$output_processor@DV?$stream_output_adapter@D@__crt_stdio_output@@V?$format_validation_base@DV?$stream_output_adapter@D@__crt_stdio_output@@@2@@__crt_stdio_output@@QAE@ABV?$stream_output_adapter@D@1@_KQBDAAV__crt_cached_ptd_host@@QAD@Z 100786f5 f i libucrt:output.obj
 0001:00077722       ??0?$output_processor@DV?$stream_output_adapter@D@__crt_stdio_output@@V?$positional_parameter_base@DV?$stream_output_adapter@D@__crt_stdio_output@@@2@@__crt_stdio_output@@QAE@ABV?$stream_output_adapter@D@1@_KQBDAAV__crt_cached_ptd_host@@QAD@Z 10078722 f i libucrt:output.obj
 0001:00077748       ??0?$output_processor@DV?$stream_output_adapter@D@__crt_stdio_output@@V?$standard_base@DV?$stream_output_adapter@D@__crt_stdio_output@@@2@@__crt_stdio_output@@QAE@ABV?$stream_output_adapter@D@1@_KQBDAAV__crt_cached_ptd_host@@QAD@Z 10078748 f i libucrt:output.obj
 0001:00077775       ??0?$output_processor@DV?$string_output_adapter@D@__crt_stdio_output@@V?$format_validation_base@DV?$string_output_adapter@D@__crt_stdio_output@@@2@@__crt_stdio_output@@QAE@ABV?$string_output_adapter@D@1@_KQBDAAV__crt_cached_ptd_host@@QAD@Z 10078775 f i libucrt:output.obj
 0001:000777a2       ??0?$output_processor@DV?$string_output_adapter@D@__crt_stdio_output@@V?$positional_parameter_base@DV?$string_output_adapter@D@__crt_stdio_output@@@2@@__crt_stdio_output@@QAE@ABV?$string_output_adapter@D@1@_KQBDAAV__crt_cached_ptd_host@@QAD@Z 100787a2 f i libucrt:output.obj
 0001:000777c8       ??0?$output_processor@DV?$string_output_adapter@D@__crt_stdio_output@@V?$standard_base@DV?$string_output_adapter@D@__crt_stdio_output@@@2@@__crt_stdio_output@@QAE@ABV?$string_output_adapter@D@1@_KQBDAAV__crt_cached_ptd_host@@QAD@Z 100787c8 f i libucrt:output.obj
 0001:000777f5       ??0?$output_processor@_WV?$stream_output_adapter@_W@__crt_stdio_output@@V?$format_validation_base@_WV?$stream_output_adapter@_W@__crt_stdio_output@@@2@@__crt_stdio_output@@QAE@ABV?$stream_output_adapter@_W@1@_KQB_WAAV__crt_cached_ptd_host@@QAD@Z 100787f5 f i libucrt:output.obj
 0001:00077822       ??0?$output_processor@_WV?$stream_output_adapter@_W@__crt_stdio_output@@V?$positional_parameter_base@_WV?$stream_output_adapter@_W@__crt_stdio_output@@@2@@__crt_stdio_output@@QAE@ABV?$stream_output_adapter@_W@1@_KQB_WAAV__crt_cached_ptd_host@@QAD@Z 10078822 f i libucrt:output.obj
 0001:00077848       ??0?$output_processor@_WV?$stream_output_adapter@_W@__crt_stdio_output@@V?$standard_base@_WV?$stream_output_adapter@_W@__crt_stdio_output@@@2@@__crt_stdio_output@@QAE@ABV?$stream_output_adapter@_W@1@_KQB_WAAV__crt_cached_ptd_host@@QAD@Z 10078848 f i libucrt:output.obj
 0001:00077875       ??0?$output_processor@_WV?$string_output_adapter@_W@__crt_stdio_output@@V?$format_validation_base@_WV?$string_output_adapter@_W@__crt_stdio_output@@@2@@__crt_stdio_output@@QAE@ABV?$string_output_adapter@_W@1@_KQB_WAAV__crt_cached_ptd_host@@QAD@Z 10078875 f i libucrt:output.obj
 0001:000778a2       ??0?$output_processor@_WV?$string_output_adapter@_W@__crt_stdio_output@@V?$positional_parameter_base@_WV?$string_output_adapter@_W@__crt_stdio_output@@@2@@__crt_stdio_output@@QAE@ABV?$string_output_adapter@_W@1@_KQB_WAAV__crt_cached_ptd_host@@QAD@Z 100788a2 f i libucrt:output.obj
 0001:000778c8       ??0?$output_processor@_WV?$string_output_adapter@_W@__crt_stdio_output@@V?$standard_base@_WV?$string_output_adapter@_W@__crt_stdio_output@@@2@@__crt_stdio_output@@QAE@ABV?$string_output_adapter@_W@1@_KQB_WAAV__crt_cached_ptd_host@@QAD@Z 100788c8 f i libucrt:output.obj
 0001:000778f5       ??0?$stream_output_adapter@D@__crt_stdio_output@@QAE@QAU_iobuf@@@Z 100788f5 f i libucrt:output.obj
 0001:00077905       ??0?$stream_output_adapter@_W@__crt_stdio_output@@QAE@QAU_iobuf@@@Z 10078905 f i libucrt:output.obj
 0001:00077915       ??0?$string_output_adapter@D@__crt_stdio_output@@QAE@QAU?$string_output_adapter_context@D@1@@Z 10078915 f i libucrt:output.obj
 0001:00077925       ??0?$string_output_adapter@_W@__crt_stdio_output@@QAE@QAU?$string_output_adapter_context@_W@1@@Z 10078925 f i libucrt:output.obj
 0001:00077935       ??0formatting_buffer@__crt_stdio_output@@QAE@XZ 10078935 f i libucrt:output.obj
 0001:00077946       ??0guard@?$cached@H@__crt_cached_ptd_host@@QAE@AAU12@@Z 10078946 f i libucrt:output.obj
 0001:00077965       ??1?$common_data@D@__crt_stdio_output@@QAE@XZ 10078965 f i libucrt:output.obj
 0001:0007796d       ??1?$common_data@_W@__crt_stdio_output@@QAE@XZ 1007896d f i libucrt:output.obj
 0001:00077975       ??1?$format_validation_base@DV?$stream_output_adapter@D@__crt_stdio_output@@@__crt_stdio_output@@QAE@XZ 10078975 f i libucrt:output.obj
 0001:0007797d       ??1?$format_validation_base@DV?$string_output_adapter@D@__crt_stdio_output@@@__crt_stdio_output@@QAE@XZ 1007897d f i libucrt:output.obj
 0001:00077985       ??1?$format_validation_base@_WV?$stream_output_adapter@_W@__crt_stdio_output@@@__crt_stdio_output@@QAE@XZ 10078985 f i libucrt:output.obj
 0001:0007798d       ??1?$format_validation_base@_WV?$string_output_adapter@_W@__crt_stdio_output@@@__crt_stdio_output@@QAE@XZ 1007898d f i libucrt:output.obj
 0001:00077995       ??1?$output_adapter_data@DV?$stream_output_adapter@D@__crt_stdio_output@@@__crt_stdio_output@@QAE@XZ 10078995 f i libucrt:output.obj
 0001:0007799d       ??1?$output_adapter_data@DV?$string_output_adapter@D@__crt_stdio_output@@@__crt_stdio_output@@QAE@XZ 1007899d f i libucrt:output.obj
 0001:000779a5       ??1?$output_adapter_data@_WV?$stream_output_adapter@_W@__crt_stdio_output@@@__crt_stdio_output@@QAE@XZ 100789a5 f i libucrt:output.obj
 0001:000779ad       ??1?$output_adapter_data@_WV?$string_output_adapter@_W@__crt_stdio_output@@@__crt_stdio_output@@QAE@XZ 100789ad f i libucrt:output.obj
 0001:000779b5       ??1?$output_processor@DV?$stream_output_adapter@D@__crt_stdio_output@@V?$format_validation_base@DV?$stream_output_adapter@D@__crt_stdio_output@@@2@@__crt_stdio_output@@QAE@XZ 100789b5 f i libucrt:output.obj
 0001:000779bd       ??1?$output_processor@DV?$stream_output_adapter@D@__crt_stdio_output@@V?$positional_parameter_base@DV?$stream_output_adapter@D@__crt_stdio_output@@@2@@__crt_stdio_output@@QAE@XZ 100789bd f i libucrt:output.obj
 0001:000779c5       ??1?$output_processor@DV?$stream_output_adapter@D@__crt_stdio_output@@V?$standard_base@DV?$stream_output_adapter@D@__crt_stdio_output@@@2@@__crt_stdio_output@@QAE@XZ 100789c5 f i libucrt:output.obj
 0001:000779cd       ??1?$output_processor@DV?$string_output_adapter@D@__crt_stdio_output@@V?$format_validation_base@DV?$string_output_adapter@D@__crt_stdio_output@@@2@@__crt_stdio_output@@QAE@XZ 100789cd f i libucrt:output.obj
 0001:000779d5       ??1?$output_processor@DV?$string_output_adapter@D@__crt_stdio_output@@V?$positional_parameter_base@DV?$string_output_adapter@D@__crt_stdio_output@@@2@@__crt_stdio_output@@QAE@XZ 100789d5 f i libucrt:output.obj
 0001:000779dd       ??1?$output_processor@DV?$string_output_adapter@D@__crt_stdio_output@@V?$standard_base@DV?$string_output_adapter@D@__crt_stdio_output@@@2@@__crt_stdio_output@@QAE@XZ 100789dd f i libucrt:output.obj
 0001:000779e5       ??1?$output_processor@_WV?$stream_output_adapter@_W@__crt_stdio_output@@V?$format_validation_base@_WV?$stream_output_adapter@_W@__crt_stdio_output@@@2@@__crt_stdio_output@@QAE@XZ 100789e5 f i libucrt:output.obj
 0001:000779ed       ??1?$output_processor@_WV?$stream_output_adapter@_W@__crt_stdio_output@@V?$positional_parameter_base@_WV?$stream_output_adapter@_W@__crt_stdio_output@@@2@@__crt_stdio_output@@QAE@XZ 100789ed f i libucrt:output.obj
 0001:000779f5       ??1?$output_processor@_WV?$stream_output_adapter@_W@__crt_stdio_output@@V?$standard_base@_WV?$stream_output_adapter@_W@__crt_stdio_output@@@2@@__crt_stdio_output@@QAE@XZ 100789f5 f i libucrt:output.obj
 0001:000779fd       ??1?$output_processor@_WV?$string_output_adapter@_W@__crt_stdio_output@@V?$format_validation_base@_WV?$string_output_adapter@_W@__crt_stdio_output@@@2@@__crt_stdio_output@@QAE@XZ 100789fd f i libucrt:output.obj
 0001:00077a05       ??1?$output_processor@_WV?$string_output_adapter@_W@__crt_stdio_output@@V?$positional_parameter_base@_WV?$string_output_adapter@_W@__crt_stdio_output@@@2@@__crt_stdio_output@@QAE@XZ 10078a05 f i libucrt:output.obj
 0001:00077a0d       ??1?$output_processor@_WV?$string_output_adapter@_W@__crt_stdio_output@@V?$standard_base@_WV?$string_output_adapter@_W@__crt_stdio_output@@@2@@__crt_stdio_output@@QAE@XZ 10078a0d f i libucrt:output.obj
 0001:00077a15       ??1?$positional_parameter_base@DV?$stream_output_adapter@D@__crt_stdio_output@@@__crt_stdio_output@@QAE@XZ 10078a15 f i libucrt:output.obj
 0001:00077a1d       ??1?$positional_parameter_base@DV?$string_output_adapter@D@__crt_stdio_output@@@__crt_stdio_output@@QAE@XZ 10078a1d f i libucrt:output.obj
 0001:00077a25       ??1?$positional_parameter_base@_WV?$stream_output_adapter@_W@__crt_stdio_output@@@__crt_stdio_output@@QAE@XZ 10078a25 f i libucrt:output.obj
 0001:00077a2d       ??1?$positional_parameter_base@_WV?$string_output_adapter@_W@__crt_stdio_output@@@__crt_stdio_output@@QAE@XZ 10078a2d f i libucrt:output.obj
 0001:00077a35       ??1?$standard_base@DV?$stream_output_adapter@D@__crt_stdio_output@@@__crt_stdio_output@@QAE@XZ 10078a35 f i libucrt:output.obj
 0001:00077a3d       ??1?$standard_base@DV?$string_output_adapter@D@__crt_stdio_output@@@__crt_stdio_output@@QAE@XZ 10078a3d f i libucrt:output.obj
 0001:00077a45       ??1?$standard_base@_WV?$stream_output_adapter@_W@__crt_stdio_output@@@__crt_stdio_output@@QAE@XZ 10078a45 f i libucrt:output.obj
 0001:00077a4d       ??1?$standard_base@_WV?$string_output_adapter@_W@__crt_stdio_output@@@__crt_stdio_output@@QAE@XZ 10078a4d f i libucrt:output.obj
 0001:00077a55       ??1formatting_buffer@__crt_stdio_output@@QAE@XZ 10078a55 f i libucrt:output.obj
 0001:00077a6f       ??1guard@?$cached@H@__crt_cached_ptd_host@@QAE@XZ 10078a6f f i libucrt:output.obj
 0001:00077a85       ??4?$__crt_unique_heap_ptr@DU__crt_internal_free_policy@@@@QAEAAV0@$$QAV0@@Z 10078a85 f i libucrt:output.obj
 0001:00077aa9       ??A?$spectre_mitigated_lookup_table@Ustate_transition_pair@__crt_stdio_output@@$0IA@@__crt_stdio_output@@QBEABUstate_transition_pair@1@I@Z 10078aa9 f i libucrt:output.obj
 0001:00077f21       ?adjust_hexit@?$output_processor@DV?$stream_output_adapter@D@__crt_stdio_output@@V?$format_validation_base@DV?$stream_output_adapter@D@__crt_stdio_output@@@2@@__crt_stdio_output@@CADH_N@Z 10078f21 f i libucrt:output.obj
 0001:00077f35       ?adjust_hexit@?$output_processor@DV?$stream_output_adapter@D@__crt_stdio_output@@V?$positional_parameter_base@DV?$stream_output_adapter@D@__crt_stdio_output@@@2@@__crt_stdio_output@@CADH_N@Z 10078f35 f i libucrt:output.obj
 0001:00077f49       ?adjust_hexit@?$output_processor@DV?$stream_output_adapter@D@__crt_stdio_output@@V?$standard_base@DV?$stream_output_adapter@D@__crt_stdio_output@@@2@@__crt_stdio_output@@CADH_N@Z 10078f49 f i libucrt:output.obj
 0001:00077f5d       ?adjust_hexit@?$output_processor@DV?$string_output_adapter@D@__crt_stdio_output@@V?$format_validation_base@DV?$string_output_adapter@D@__crt_stdio_output@@@2@@__crt_stdio_output@@CADH_N@Z 10078f5d f i libucrt:output.obj
 0001:00077f71       ?adjust_hexit@?$output_processor@DV?$string_output_adapter@D@__crt_stdio_output@@V?$positional_parameter_base@DV?$string_output_adapter@D@__crt_stdio_output@@@2@@__crt_stdio_output@@CADH_N@Z 10078f71 f i libucrt:output.obj
 0001:00077f85       ?adjust_hexit@?$output_processor@DV?$string_output_adapter@D@__crt_stdio_output@@V?$standard_base@DV?$string_output_adapter@D@__crt_stdio_output@@@2@@__crt_stdio_output@@CADH_N@Z 10078f85 f i libucrt:output.obj
 0001:00077f99       ?adjust_hexit@?$output_processor@_WV?$stream_output_adapter@_W@__crt_stdio_output@@V?$format_validation_base@_WV?$stream_output_adapter@_W@__crt_stdio_output@@@2@@__crt_stdio_output@@CADH_N@Z 10078f99 f i libucrt:output.obj
 0001:00077fad       ?adjust_hexit@?$output_processor@_WV?$stream_output_adapter@_W@__crt_stdio_output@@V?$positional_parameter_base@_WV?$stream_output_adapter@_W@__crt_stdio_output@@@2@@__crt_stdio_output@@CADH_N@Z 10078fad f i libucrt:output.obj
 0001:00077fc1       ?adjust_hexit@?$output_processor@_WV?$stream_output_adapter@_W@__crt_stdio_output@@V?$standard_base@_WV?$stream_output_adapter@_W@__crt_stdio_output@@@2@@__crt_stdio_output@@CADH_N@Z 10078fc1 f i libucrt:output.obj
 0001:00077fd5       ?adjust_hexit@?$output_processor@_WV?$string_output_adapter@_W@__crt_stdio_output@@V?$format_validation_base@_WV?$string_output_adapter@_W@__crt_stdio_output@@@2@@__crt_stdio_output@@CADH_N@Z 10078fd5 f i libucrt:output.obj
 0001:00077fe9       ?adjust_hexit@?$output_processor@_WV?$string_output_adapter@_W@__crt_stdio_output@@V?$positional_parameter_base@_WV?$string_output_adapter@_W@__crt_stdio_output@@@2@@__crt_stdio_output@@CADH_N@Z 10078fe9 f i libucrt:output.obj
 0001:00077ffd       ?adjust_hexit@?$output_processor@_WV?$string_output_adapter@_W@__crt_stdio_output@@V?$standard_base@_WV?$string_output_adapter@_W@__crt_stdio_output@@@2@@__crt_stdio_output@@CADH_N@Z 10078ffd f i libucrt:output.obj
 0001:00078011       ?advance_to_next_pass@?$positional_parameter_base@DV?$stream_output_adapter@D@__crt_stdio_output@@@__crt_stdio_output@@IAE_NXZ 10079011 f i libucrt:output.obj
 0001:0007805d       ?advance_to_next_pass@?$positional_parameter_base@DV?$string_output_adapter@D@__crt_stdio_output@@@__crt_stdio_output@@IAE_NXZ 1007905d f i libucrt:output.obj
 0001:000780a9       ?advance_to_next_pass@?$positional_parameter_base@_WV?$stream_output_adapter@_W@__crt_stdio_output@@@__crt_stdio_output@@IAE_NXZ 100790a9 f i libucrt:output.obj
 0001:000780f5       ?advance_to_next_pass@?$positional_parameter_base@_WV?$string_output_adapter@_W@__crt_stdio_output@@@__crt_stdio_output@@IAE_NXZ 100790f5 f i libucrt:output.obj
 0001:00078141       ?advance_to_next_pass@?$standard_base@DV?$stream_output_adapter@D@__crt_stdio_output@@@__crt_stdio_output@@IAE_NXZ 10079141 f i libucrt:output.obj
 0001:00078152       ?advance_to_next_pass@?$standard_base@DV?$string_output_adapter@D@__crt_stdio_output@@@__crt_stdio_output@@IAE_NXZ 10079152 f i libucrt:output.obj
 0001:00078163       ?advance_to_next_pass@?$standard_base@_WV?$stream_output_adapter@_W@__crt_stdio_output@@@__crt_stdio_output@@IAE_NXZ 10079163 f i libucrt:output.obj
 0001:00078174       ?advance_to_next_pass@?$standard_base@_WV?$string_output_adapter@_W@__crt_stdio_output@@@__crt_stdio_output@@IAE_NXZ 10079174 f i libucrt:output.obj
 0001:00078185       ?check@?$cached@H@__crt_cached_ptd_host@@QBE_NH@Z 10079185 f i libucrt:output.obj
 0001:000781a1       ?create_guard@?$cached@H@__crt_cached_ptd_host@@QAE?AVguard@12@XZ 100791a1 f i libucrt:output.obj
 0001:000781be       ?crop_zeroes@__crt_stdio_output@@YAXPADQAU__crt_locale_pointers@@@Z 100791be f i libucrt:output.obj
 0001:0007821e       ?disable@guard@?$cached@H@__crt_cached_ptd_host@@QAEXXZ 1007921e f i libucrt:output.obj
 0001:00078223       ?enable@guard@?$cached@H@__crt_cached_ptd_host@@QAEXXZ 10079223 f i libucrt:output.obj
 0001:00078228       ?find_next_state@?$output_processor@DV?$stream_output_adapter@D@__crt_stdio_output@@V?$format_validation_base@DV?$stream_output_adapter@D@__crt_stdio_output@@@2@@__crt_stdio_output@@ABE?AW4state@2@DW432@@Z 10079228 f i libucrt:output.obj
 0001:00078265       ?find_next_state@?$output_processor@DV?$stream_output_adapter@D@__crt_stdio_output@@V?$positional_parameter_base@DV?$stream_output_adapter@D@__crt_stdio_output@@@2@@__crt_stdio_output@@ABE?AW4state@2@DW432@@Z 10079265 f i libucrt:output.obj
 0001:000782a2       ?find_next_state@?$output_processor@DV?$stream_output_adapter@D@__crt_stdio_output@@V?$standard_base@DV?$stream_output_adapter@D@__crt_stdio_output@@@2@@__crt_stdio_output@@ABE?AW4state@2@DW432@@Z 100792a2 f i libucrt:output.obj
 0001:000782dd       ?find_next_state@?$output_processor@DV?$string_output_adapter@D@__crt_stdio_output@@V?$format_validation_base@DV?$string_output_adapter@D@__crt_stdio_output@@@2@@__crt_stdio_output@@ABE?AW4state@2@DW432@@Z 100792dd f i libucrt:output.obj
 0001:0007831a       ?find_next_state@?$output_processor@DV?$string_output_adapter@D@__crt_stdio_output@@V?$positional_parameter_base@DV?$string_output_adapter@D@__crt_stdio_output@@@2@@__crt_stdio_output@@ABE?AW4state@2@DW432@@Z 1007931a f i libucrt:output.obj
 0001:00078357       ?find_next_state@?$output_processor@DV?$string_output_adapter@D@__crt_stdio_output@@V?$standard_base@DV?$string_output_adapter@D@__crt_stdio_output@@@2@@__crt_stdio_output@@ABE?AW4state@2@DW432@@Z 10079357 f i libucrt:output.obj
 0001:00078392       ?find_next_state@?$output_processor@_WV?$stream_output_adapter@_W@__crt_stdio_output@@V?$format_validation_base@_WV?$stream_output_adapter@_W@__crt_stdio_output@@@2@@__crt_stdio_output@@ABE?AW4state@2@_WW432@@Z 10079392 f i libucrt:output.obj
 0001:000783ce       ?find_next_state@?$output_processor@_WV?$stream_output_adapter@_W@__crt_stdio_output@@V?$positional_parameter_base@_WV?$stream_output_adapter@_W@__crt_stdio_output@@@2@@__crt_stdio_output@@ABE?AW4state@2@_WW432@@Z 100793ce f i libucrt:output.obj
 0001:0007840a       ?find_next_state@?$output_processor@_WV?$stream_output_adapter@_W@__crt_stdio_output@@V?$standard_base@_WV?$stream_output_adapter@_W@__crt_stdio_output@@@2@@__crt_stdio_output@@ABE?AW4state@2@_WW432@@Z 1007940a f i libucrt:output.obj
 0001:00078444       ?find_next_state@?$output_processor@_WV?$string_output_adapter@_W@__crt_stdio_output@@V?$format_validation_base@_WV?$string_output_adapter@_W@__crt_stdio_output@@@2@@__crt_stdio_output@@ABE?AW4state@2@_WW432@@Z 10079444 f i libucrt:output.obj
 0001:00078480       ?find_next_state@?$output_processor@_WV?$string_output_adapter@_W@__crt_stdio_output@@V?$positional_parameter_base@_WV?$string_output_adapter@_W@__crt_stdio_output@@@2@@__crt_stdio_output@@ABE?AW4state@2@_WW432@@Z 10079480 f i libucrt:output.obj
 0001:000784bc       ?find_next_state@?$output_processor@_WV?$string_output_adapter@_W@__crt_stdio_output@@V?$standard_base@_WV?$string_output_adapter@_W@__crt_stdio_output@@@2@@__crt_stdio_output@@ABE?AW4state@2@_WW432@@Z 100794bc f i libucrt:output.obj
 0001:000784f6       ?force_decimal_point@__crt_stdio_output@@YAXPADQAU__crt_locale_pointers@@@Z 100794f6 f i libucrt:output.obj
 0001:00078560       ?get_locale@__crt_cached_ptd_host@@QAEPAU__crt_locale_pointers@@XZ 10079560 f i libucrt:output.obj
 0001:00078575       ?get_parameter_type@?$positional_parameter_base@DV?$stream_output_adapter@D@__crt_stdio_output@@@__crt_stdio_output@@CA?AW4parameter_type@12@F@Z 10079575 f i libucrt:output.obj
 0001:00078579       ?get_parameter_type@?$positional_parameter_base@DV?$stream_output_adapter@D@__crt_stdio_output@@@__crt_stdio_output@@CA?AW4parameter_type@12@G@Z 10079579 f i libucrt:output.obj
 0001:0007857d       ?get_parameter_type@?$positional_parameter_base@DV?$stream_output_adapter@D@__crt_stdio_output@@@__crt_stdio_output@@CA?AW4parameter_type@12@H@Z 1007957d f i libucrt:output.obj
 0001:00078581       ?get_parameter_type@?$positional_parameter_base@DV?$stream_output_adapter@D@__crt_stdio_output@@@__crt_stdio_output@@CA?AW4parameter_type@12@I@Z 10079581 f i libucrt:output.obj
 0001:00078585       ?get_parameter_type@?$positional_parameter_base@DV?$stream_output_adapter@D@__crt_stdio_output@@@__crt_stdio_output@@CA?AW4parameter_type@12@U_CRT_DOUBLE@@@Z 10079585 f i libucrt:output.obj
 0001:00078589       ?get_parameter_type@?$positional_parameter_base@DV?$stream_output_adapter@D@__crt_stdio_output@@@__crt_stdio_output@@CA?AW4parameter_type@12@_J@Z 10079589 f i libucrt:output.obj
 0001:0007858d       ?get_parameter_type@?$positional_parameter_base@DV?$stream_output_adapter@D@__crt_stdio_output@@@__crt_stdio_output@@CA?AW4parameter_type@12@_K@Z 1007958d f i libucrt:output.obj
 0001:00078591       ?get_parameter_type@?$positional_parameter_base@DV?$stream_output_adapter@D@__crt_stdio_output@@@__crt_stdio_output@@CA?AW4parameter_type@12@_W@Z 10079591 f i libucrt:output.obj
 0001:00078595       ?get_parameter_type@?$positional_parameter_base@DV?$string_output_adapter@D@__crt_stdio_output@@@__crt_stdio_output@@CA?AW4parameter_type@12@F@Z 10079595 f i libucrt:output.obj
 0001:00078599       ?get_parameter_type@?$positional_parameter_base@DV?$string_output_adapter@D@__crt_stdio_output@@@__crt_stdio_output@@CA?AW4parameter_type@12@G@Z 10079599 f i libucrt:output.obj
 0001:0007859d       ?get_parameter_type@?$positional_parameter_base@DV?$string_output_adapter@D@__crt_stdio_output@@@__crt_stdio_output@@CA?AW4parameter_type@12@H@Z 1007959d f i libucrt:output.obj
 0001:000785a1       ?get_parameter_type@?$positional_parameter_base@DV?$string_output_adapter@D@__crt_stdio_output@@@__crt_stdio_output@@CA?AW4parameter_type@12@I@Z 100795a1 f i libucrt:output.obj
 0001:000785a5       ?get_parameter_type@?$positional_parameter_base@DV?$string_output_adapter@D@__crt_stdio_output@@@__crt_stdio_output@@CA?AW4parameter_type@12@U_CRT_DOUBLE@@@Z 100795a5 f i libucrt:output.obj
 0001:000785a9       ?get_parameter_type@?$positional_parameter_base@DV?$string_output_adapter@D@__crt_stdio_output@@@__crt_stdio_output@@CA?AW4parameter_type@12@_J@Z 100795a9 f i libucrt:output.obj
 0001:000785ad       ?get_parameter_type@?$positional_parameter_base@DV?$string_output_adapter@D@__crt_stdio_output@@@__crt_stdio_output@@CA?AW4parameter_type@12@_K@Z 100795ad f i libucrt:output.obj
 0001:000785b1       ?get_parameter_type@?$positional_parameter_base@DV?$string_output_adapter@D@__crt_stdio_output@@@__crt_stdio_output@@CA?AW4parameter_type@12@_W@Z 100795b1 f i libucrt:output.obj
 0001:000785b5       ?get_parameter_type@?$positional_parameter_base@_WV?$stream_output_adapter@_W@__crt_stdio_output@@@__crt_stdio_output@@CA?AW4parameter_type@12@F@Z 100795b5 f i libucrt:output.obj
 0001:000785b9       ?get_parameter_type@?$positional_parameter_base@_WV?$stream_output_adapter@_W@__crt_stdio_output@@@__crt_stdio_output@@CA?AW4parameter_type@12@G@Z 100795b9 f i libucrt:output.obj
 0001:000785bd       ?get_parameter_type@?$positional_parameter_base@_WV?$stream_output_adapter@_W@__crt_stdio_output@@@__crt_stdio_output@@CA?AW4parameter_type@12@H@Z 100795bd f i libucrt:output.obj
 0001:000785c1       ?get_parameter_type@?$positional_parameter_base@_WV?$stream_output_adapter@_W@__crt_stdio_output@@@__crt_stdio_output@@CA?AW4parameter_type@12@I@Z 100795c1 f i libucrt:output.obj
 0001:000785c5       ?get_parameter_type@?$positional_parameter_base@_WV?$stream_output_adapter@_W@__crt_stdio_output@@@__crt_stdio_output@@CA?AW4parameter_type@12@U_CRT_DOUBLE@@@Z 100795c5 f i libucrt:output.obj
 0001:000785c9       ?get_parameter_type@?$positional_parameter_base@_WV?$stream_output_adapter@_W@__crt_stdio_output@@@__crt_stdio_output@@CA?AW4parameter_type@12@_J@Z 100795c9 f i libucrt:output.obj
 0001:000785cd       ?get_parameter_type@?$positional_parameter_base@_WV?$stream_output_adapter@_W@__crt_stdio_output@@@__crt_stdio_output@@CA?AW4parameter_type@12@_K@Z 100795cd f i libucrt:output.obj
 0001:000785d1       ?get_parameter_type@?$positional_parameter_base@_WV?$stream_output_adapter@_W@__crt_stdio_output@@@__crt_stdio_output@@CA?AW4parameter_type@12@_W@Z 100795d1 f i libucrt:output.obj
 0001:000785d5       ?get_parameter_type@?$positional_parameter_base@_WV?$string_output_adapter@_W@__crt_stdio_output@@@__crt_stdio_output@@CA?AW4parameter_type@12@F@Z 100795d5 f i libucrt:output.obj
 0001:000785d9       ?get_parameter_type@?$positional_parameter_base@_WV?$string_output_adapter@_W@__crt_stdio_output@@@__crt_stdio_output@@CA?AW4parameter_type@12@G@Z 100795d9 f i libucrt:output.obj
 0001:000785dd       ?get_parameter_type@?$positional_parameter_base@_WV?$string_output_adapter@_W@__crt_stdio_output@@@__crt_stdio_output@@CA?AW4parameter_type@12@H@Z 100795dd f i libucrt:output.obj
 0001:000785e1       ?get_parameter_type@?$positional_parameter_base@_WV?$string_output_adapter@_W@__crt_stdio_output@@@__crt_stdio_output@@CA?AW4parameter_type@12@I@Z 100795e1 f i libucrt:output.obj
 0001:000785e5       ?get_parameter_type@?$positional_parameter_base@_WV?$string_output_adapter@_W@__crt_stdio_output@@@__crt_stdio_output@@CA?AW4parameter_type@12@U_CRT_DOUBLE@@@Z 100795e5 f i libucrt:output.obj
 0001:000785e9       ?get_parameter_type@?$positional_parameter_base@_WV?$string_output_adapter@_W@__crt_stdio_output@@@__crt_stdio_output@@CA?AW4parameter_type@12@_J@Z 100795e9 f i libucrt:output.obj
 0001:000785ed       ?get_parameter_type@?$positional_parameter_base@_WV?$string_output_adapter@_W@__crt_stdio_output@@@__crt_stdio_output@@CA?AW4parameter_type@12@_K@Z 100795ed f i libucrt:output.obj
 0001:000785f1       ?get_parameter_type@?$positional_parameter_base@_WV?$string_output_adapter@_W@__crt_stdio_output@@@__crt_stdio_output@@CA?AW4parameter_type@12@_W@Z 100795f1 f i libucrt:output.obj
 0001:000785f5       ?has_flag@?$output_processor@DV?$stream_output_adapter@D@__crt_stdio_output@@V?$format_validation_base@DV?$stream_output_adapter@D@__crt_stdio_output@@@2@@__crt_stdio_output@@ABE_NI@Z 100795f5 f i libucrt:output.obj
 0001:00078607       ?has_flag@?$output_processor@DV?$stream_output_adapter@D@__crt_stdio_output@@V?$positional_parameter_base@DV?$stream_output_adapter@D@__crt_stdio_output@@@2@@__crt_stdio_output@@ABE_NI@Z 10079607 f i libucrt:output.obj
 0001:00078619       ?has_flag@?$output_processor@DV?$stream_output_adapter@D@__crt_stdio_output@@V?$standard_base@DV?$stream_output_adapter@D@__crt_stdio_output@@@2@@__crt_stdio_output@@ABE_NI@Z 10079619 f i libucrt:output.obj
 0001:0007862b       ?has_flag@?$output_processor@DV?$string_output_adapter@D@__crt_stdio_output@@V?$format_validation_base@DV?$string_output_adapter@D@__crt_stdio_output@@@2@@__crt_stdio_output@@ABE_NI@Z 1007962b f i libucrt:output.obj
 0001:0007863d       ?has_flag@?$output_processor@DV?$string_output_adapter@D@__crt_stdio_output@@V?$positional_parameter_base@DV?$string_output_adapter@D@__crt_stdio_output@@@2@@__crt_stdio_output@@ABE_NI@Z 1007963d f i libucrt:output.obj
 0001:0007864f       ?has_flag@?$output_processor@DV?$string_output_adapter@D@__crt_stdio_output@@V?$standard_base@DV?$string_output_adapter@D@__crt_stdio_output@@@2@@__crt_stdio_output@@ABE_NI@Z 1007964f f i libucrt:output.obj
 0001:00078661       ?has_flag@?$output_processor@_WV?$stream_output_adapter@_W@__crt_stdio_output@@V?$format_validation_base@_WV?$stream_output_adapter@_W@__crt_stdio_output@@@2@@__crt_stdio_output@@ABE_NI@Z 10079661 f i libucrt:output.obj
 0001:00078673       ?has_flag@?$output_processor@_WV?$stream_output_adapter@_W@__crt_stdio_output@@V?$positional_parameter_base@_WV?$stream_output_adapter@_W@__crt_stdio_output@@@2@@__crt_stdio_output@@ABE_NI@Z 10079673 f i libucrt:output.obj
 0001:00078685       ?has_flag@?$output_processor@_WV?$stream_output_adapter@_W@__crt_stdio_output@@V?$standard_base@_WV?$stream_output_adapter@_W@__crt_stdio_output@@@2@@__crt_stdio_output@@ABE_NI@Z 10079685 f i libucrt:output.obj
 0001:00078697       ?has_flag@?$output_processor@_WV?$string_output_adapter@_W@__crt_stdio_output@@V?$format_validation_base@_WV?$string_output_adapter@_W@__crt_stdio_output@@@2@@__crt_stdio_output@@ABE_NI@Z 10079697 f i libucrt:output.obj
 0001:000786a9       ?has_flag@?$output_processor@_WV?$string_output_adapter@_W@__crt_stdio_output@@V?$positional_parameter_base@_WV?$string_output_adapter@_W@__crt_stdio_output@@@2@@__crt_stdio_output@@ABE_NI@Z 100796a9 f i libucrt:output.obj
 0001:000786bb       ?has_flag@?$output_processor@_WV?$string_output_adapter@_W@__crt_stdio_output@@V?$standard_base@_WV?$string_output_adapter@_W@__crt_stdio_output@@@2@@__crt_stdio_output@@ABE_NI@Z 100796bb f i libucrt:output.obj
 0001:000786cd       ?is_positional_parameter_reappearance_consistent@?$positional_parameter_base@DV?$stream_output_adapter@D@__crt_stdio_output@@@__crt_stdio_output@@AAE_NABUparameter_data@12@W4parameter_type@12@DW4length_modifier@2@@Z 100796cd f i libucrt:output.obj
 0001:000787e7       ?is_positional_parameter_reappearance_consistent@?$positional_parameter_base@DV?$string_output_adapter@D@__crt_stdio_output@@@__crt_stdio_output@@AAE_NABUparameter_data@12@W4parameter_type@12@DW4length_modifier@2@@Z 100797e7 f i libucrt:output.obj
 0001:00078901       ?is_positional_parameter_reappearance_consistent@?$positional_parameter_base@_WV?$stream_output_adapter@_W@__crt_stdio_output@@@__crt_stdio_output@@AAE_NABUparameter_data@12@W4parameter_type@12@_WW4length_modifier@2@@Z 10079901 f i libucrt:output.obj
 0001:00078a1c       ?is_positional_parameter_reappearance_consistent@?$positional_parameter_base@_WV?$string_output_adapter@_W@__crt_stdio_output@@@__crt_stdio_output@@AAE_NABUparameter_data@12@W4parameter_type@12@_WW4length_modifier@2@@Z 10079a1c f i libucrt:output.obj
 0001:00078b37       ?maximum_signed_value@__crt_strtox@@YAJK@Z 10079b37 f i libucrt:output.obj
 0001:00078b3d       ?minimum_signed_value@__crt_strtox@@YAJK@Z 10079b3d f i libucrt:output.obj
 0001:00078b43       ?narrow_null_string@?$output_processor@DV?$stream_output_adapter@D@__crt_stdio_output@@V?$format_validation_base@DV?$stream_output_adapter@D@__crt_stdio_output@@@2@@__crt_stdio_output@@CAPADXZ 10079b43 f i libucrt:output.obj
 0001:00078b49       ?narrow_null_string@?$output_processor@DV?$stream_output_adapter@D@__crt_stdio_output@@V?$positional_parameter_base@DV?$stream_output_adapter@D@__crt_stdio_output@@@2@@__crt_stdio_output@@CAPADXZ 10079b49 f i libucrt:output.obj
 0001:00078b4f       ?narrow_null_string@?$output_processor@DV?$stream_output_adapter@D@__crt_stdio_output@@V?$standard_base@DV?$stream_output_adapter@D@__crt_stdio_output@@@2@@__crt_stdio_output@@CAPADXZ 10079b4f f i libucrt:output.obj
 0001:00078b55       ?narrow_null_string@?$output_processor@DV?$string_output_adapter@D@__crt_stdio_output@@V?$format_validation_base@DV?$string_output_adapter@D@__crt_stdio_output@@@2@@__crt_stdio_output@@CAPADXZ 10079b55 f i libucrt:output.obj
 0001:00078b5b       ?narrow_null_string@?$output_processor@DV?$string_output_adapter@D@__crt_stdio_output@@V?$positional_parameter_base@DV?$string_output_adapter@D@__crt_stdio_output@@@2@@__crt_stdio_output@@CAPADXZ 10079b5b f i libucrt:output.obj
 0001:00078b61       ?narrow_null_string@?$output_processor@DV?$string_output_adapter@D@__crt_stdio_output@@V?$standard_base@DV?$string_output_adapter@D@__crt_stdio_output@@@2@@__crt_stdio_output@@CAPADXZ 10079b61 f i libucrt:output.obj
 0001:00078b67       ?narrow_null_string@?$output_processor@_WV?$stream_output_adapter@_W@__crt_stdio_output@@V?$format_validation_base@_WV?$stream_output_adapter@_W@__crt_stdio_output@@@2@@__crt_stdio_output@@CAPADXZ 10079b67 f i libucrt:output.obj
 0001:00078b6d       ?narrow_null_string@?$output_processor@_WV?$stream_output_adapter@_W@__crt_stdio_output@@V?$positional_parameter_base@_WV?$stream_output_adapter@_W@__crt_stdio_output@@@2@@__crt_stdio_output@@CAPADXZ 10079b6d f i libucrt:output.obj
 0001:00078b73       ?narrow_null_string@?$output_processor@_WV?$stream_output_adapter@_W@__crt_stdio_output@@V?$standard_base@_WV?$stream_output_adapter@_W@__crt_stdio_output@@@2@@__crt_stdio_output@@CAPADXZ 10079b73 f i libucrt:output.obj
 0001:00078b79       ?narrow_null_string@?$output_processor@_WV?$string_output_adapter@_W@__crt_stdio_output@@V?$format_validation_base@_WV?$string_output_adapter@_W@__crt_stdio_output@@@2@@__crt_stdio_output@@CAPADXZ 10079b79 f i libucrt:output.obj
 0001:00078b7f       ?narrow_null_string@?$output_processor@_WV?$string_output_adapter@_W@__crt_stdio_output@@V?$positional_parameter_base@_WV?$string_output_adapter@_W@__crt_stdio_output@@@2@@__crt_stdio_output@@CAPADXZ 10079b7f f i libucrt:output.obj
 0001:00078b85       ?narrow_null_string@?$output_processor@_WV?$string_output_adapter@_W@__crt_stdio_output@@V?$standard_base@_WV?$string_output_adapter@_W@__crt_stdio_output@@@2@@__crt_stdio_output@@CAPADXZ 10079b85 f i libucrt:output.obj
 0001:00078b8b       ?parse_int_from_format_string@?$output_processor@DV?$stream_output_adapter@D@__crt_stdio_output@@V?$format_validation_base@DV?$stream_output_adapter@D@__crt_stdio_output@@@2@@__crt_stdio_output@@AAE_NQAH@Z 10079b8b f i libucrt:output.obj
 0001:00078c03       ?parse_int_from_format_string@?$output_processor@DV?$stream_output_adapter@D@__crt_stdio_output@@V?$positional_parameter_base@DV?$stream_output_adapter@D@__crt_stdio_output@@@2@@__crt_stdio_output@@AAE_NQAH@Z 10079c03 f i libucrt:output.obj
 0001:00078c7b       ?parse_int_from_format_string@?$output_processor@DV?$stream_output_adapter@D@__crt_stdio_output@@V?$standard_base@DV?$stream_output_adapter@D@__crt_stdio_output@@@2@@__crt_stdio_output@@AAE_NQAH@Z 10079c7b f i libucrt:output.obj
 0001:00078cf3       ?parse_int_from_format_string@?$output_processor@DV?$string_output_adapter@D@__crt_stdio_output@@V?$format_validation_base@DV?$string_output_adapter@D@__crt_stdio_output@@@2@@__crt_stdio_output@@AAE_NQAH@Z 10079cf3 f i libucrt:output.obj
 0001:00078d6b       ?parse_int_from_format_string@?$output_processor@DV?$string_output_adapter@D@__crt_stdio_output@@V?$positional_parameter_base@DV?$string_output_adapter@D@__crt_stdio_output@@@2@@__crt_stdio_output@@AAE_NQAH@Z 10079d6b f i libucrt:output.obj
 0001:00078de3       ?parse_int_from_format_string@?$output_processor@DV?$string_output_adapter@D@__crt_stdio_output@@V?$standard_base@DV?$string_output_adapter@D@__crt_stdio_output@@@2@@__crt_stdio_output@@AAE_NQAH@Z 10079de3 f i libucrt:output.obj
 0001:00078e5b       ?parse_int_from_format_string@?$output_processor@_WV?$stream_output_adapter@_W@__crt_stdio_output@@V?$format_validation_base@_WV?$stream_output_adapter@_W@__crt_stdio_output@@@2@@__crt_stdio_output@@AAE_NQAH@Z 10079e5b f i libucrt:output.obj
 0001:00078ed5       ?parse_int_from_format_string@?$output_processor@_WV?$stream_output_adapter@_W@__crt_stdio_output@@V?$positional_parameter_base@_WV?$stream_output_adapter@_W@__crt_stdio_output@@@2@@__crt_stdio_output@@AAE_NQAH@Z 10079ed5 f i libucrt:output.obj
 0001:00078f4f       ?parse_int_from_format_string@?$output_processor@_WV?$stream_output_adapter@_W@__crt_stdio_output@@V?$standard_base@_WV?$stream_output_adapter@_W@__crt_stdio_output@@@2@@__crt_stdio_output@@AAE_NQAH@Z 10079f4f f i libucrt:output.obj
 0001:00078fc9       ?parse_int_from_format_string@?$output_processor@_WV?$string_output_adapter@_W@__crt_stdio_output@@V?$format_validation_base@_WV?$string_output_adapter@_W@__crt_stdio_output@@@2@@__crt_stdio_output@@AAE_NQAH@Z 10079fc9 f i libucrt:output.obj
 0001:00079043       ?parse_int_from_format_string@?$output_processor@_WV?$string_output_adapter@_W@__crt_stdio_output@@V?$positional_parameter_base@_WV?$string_output_adapter@_W@__crt_stdio_output@@@2@@__crt_stdio_output@@AAE_NQAH@Z 1007a043 f i libucrt:output.obj
 0001:000790bd       ?parse_int_from_format_string@?$output_processor@_WV?$string_output_adapter@_W@__crt_stdio_output@@V?$standard_base@_WV?$string_output_adapter@_W@__crt_stdio_output@@@2@@__crt_stdio_output@@AAE_NQAH@Z 1007a0bd f i libucrt:output.obj
 0001:00079137       ?process@?$output_processor@DV?$stream_output_adapter@D@__crt_stdio_output@@V?$format_validation_base@DV?$stream_output_adapter@D@__crt_stdio_output@@@2@@__crt_stdio_output@@QAEHXZ 1007a137 f i libucrt:output.obj
 0001:000793ef       ?process@?$output_processor@DV?$stream_output_adapter@D@__crt_stdio_output@@V?$positional_parameter_base@DV?$stream_output_adapter@D@__crt_stdio_output@@@2@@__crt_stdio_output@@QAEHXZ 1007a3ef f i libucrt:output.obj
 0001:000796c3       ?process@?$output_processor@DV?$stream_output_adapter@D@__crt_stdio_output@@V?$standard_base@DV?$stream_output_adapter@D@__crt_stdio_output@@@2@@__crt_stdio_output@@QAEHXZ 1007a6c3 f i libucrt:output.obj
 0001:0007996f       ?process@?$output_processor@DV?$string_output_adapter@D@__crt_stdio_output@@V?$format_validation_base@DV?$string_output_adapter@D@__crt_stdio_output@@@2@@__crt_stdio_output@@QAEHXZ 1007a96f f i libucrt:output.obj
 0001:00079c4f       ?process@?$output_processor@DV?$string_output_adapter@D@__crt_stdio_output@@V?$positional_parameter_base@DV?$string_output_adapter@D@__crt_stdio_output@@@2@@__crt_stdio_output@@QAEHXZ 1007ac4f f i libucrt:output.obj
 0001:00079f4f       ?process@?$output_processor@DV?$string_output_adapter@D@__crt_stdio_output@@V?$standard_base@DV?$string_output_adapter@D@__crt_stdio_output@@@2@@__crt_stdio_output@@QAEHXZ 1007af4f f i libucrt:output.obj
 0001:0007a223       ?process@?$output_processor@_WV?$stream_output_adapter@_W@__crt_stdio_output@@V?$format_validation_base@_WV?$stream_output_adapter@_W@__crt_stdio_output@@@2@@__crt_stdio_output@@QAEHXZ 1007b223 f i libucrt:output.obj
 0001:0007a43f       ?process@?$output_processor@_WV?$stream_output_adapter@_W@__crt_stdio_output@@V?$positional_parameter_base@_WV?$stream_output_adapter@_W@__crt_stdio_output@@@2@@__crt_stdio_output@@QAEHXZ 1007b43f f i libucrt:output.obj
 0001:0007a693       ?process@?$output_processor@_WV?$stream_output_adapter@_W@__crt_stdio_output@@V?$standard_base@_WV?$stream_output_adapter@_W@__crt_stdio_output@@@2@@__crt_stdio_output@@QAEHXZ 1007b693 f i libucrt:output.obj
 0001:0007a8a3       ?process@?$output_processor@_WV?$string_output_adapter@_W@__crt_stdio_output@@V?$format_validation_base@_WV?$string_output_adapter@_W@__crt_stdio_output@@@2@@__crt_stdio_output@@QAEHXZ 1007b8a3 f i libucrt:output.obj
 0001:0007aaf3       ?process@?$output_processor@_WV?$string_output_adapter@_W@__crt_stdio_output@@V?$positional_parameter_base@_WV?$string_output_adapter@_W@__crt_stdio_output@@@2@@__crt_stdio_output@@QAEHXZ 1007baf3 f i libucrt:output.obj
 0001:0007ad5b       ?process@?$output_processor@_WV?$string_output_adapter@_W@__crt_stdio_output@@V?$standard_base@_WV?$string_output_adapter@_W@__crt_stdio_output@@@2@@__crt_stdio_output@@QAEHXZ 1007bd5b f i libucrt:output.obj
 0001:0007af9b       ?set_flag@?$output_processor@DV?$stream_output_adapter@D@__crt_stdio_output@@V?$format_validation_base@DV?$stream_output_adapter@D@__crt_stdio_output@@@2@@__crt_stdio_output@@AAEXI@Z 1007bf9b f i libucrt:output.obj
 0001:0007afaa       ?set_flag@?$output_processor@DV?$stream_output_adapter@D@__crt_stdio_output@@V?$positional_parameter_base@DV?$stream_output_adapter@D@__crt_stdio_output@@@2@@__crt_stdio_output@@AAEXI@Z 1007bfaa f i libucrt:output.obj
 0001:0007afb9       ?set_flag@?$output_processor@DV?$stream_output_adapter@D@__crt_stdio_output@@V?$standard_base@DV?$stream_output_adapter@D@__crt_stdio_output@@@2@@__crt_stdio_output@@AAEXI@Z 1007bfb9 f i libucrt:output.obj
 0001:0007afc8       ?set_flag@?$output_processor@DV?$string_output_adapter@D@__crt_stdio_output@@V?$format_validation_base@DV?$string_output_adapter@D@__crt_stdio_output@@@2@@__crt_stdio_output@@AAEXI@Z 1007bfc8 f i libucrt:output.obj
 0001:0007afd7       ?set_flag@?$output_processor@DV?$string_output_adapter@D@__crt_stdio_output@@V?$positional_parameter_base@DV?$string_output_adapter@D@__crt_stdio_output@@@2@@__crt_stdio_output@@AAEXI@Z 1007bfd7 f i libucrt:output.obj
 0001:0007afe6       ?set_flag@?$output_processor@DV?$string_output_adapter@D@__crt_stdio_output@@V?$standard_base@DV?$string_output_adapter@D@__crt_stdio_output@@@2@@__crt_stdio_output@@AAEXI@Z 1007bfe6 f i libucrt:output.obj
 0001:0007aff5       ?set_flag@?$output_processor@_WV?$stream_output_adapter@_W@__crt_stdio_output@@V?$format_validation_base@_WV?$stream_output_adapter@_W@__crt_stdio_output@@@2@@__crt_stdio_output@@AAEXI@Z 1007bff5 f i libucrt:output.obj
 0001:0007b004       ?set_flag@?$output_processor@_WV?$stream_output_adapter@_W@__crt_stdio_output@@V?$positional_parameter_base@_WV?$stream_output_adapter@_W@__crt_stdio_output@@@2@@__crt_stdio_output@@AAEXI@Z 1007c004 f i libucrt:output.obj
 0001:0007b013       ?set_flag@?$output_processor@_WV?$stream_output_adapter@_W@__crt_stdio_output@@V?$standard_base@_WV?$stream_output_adapter@_W@__crt_stdio_output@@@2@@__crt_stdio_output@@AAEXI@Z 1007c013 f i libucrt:output.obj
 0001:0007b022       ?set_flag@?$output_processor@_WV?$string_output_adapter@_W@__crt_stdio_output@@V?$format_validation_base@_WV?$string_output_adapter@_W@__crt_stdio_output@@@2@@__crt_stdio_output@@AAEXI@Z 1007c022 f i libucrt:output.obj
 0001:0007b031       ?set_flag@?$output_processor@_WV?$string_output_adapter@_W@__crt_stdio_output@@V?$positional_parameter_base@_WV?$string_output_adapter@_W@__crt_stdio_output@@@2@@__crt_stdio_output@@AAEXI@Z 1007c031 f i libucrt:output.obj
 0001:0007b040       ?set_flag@?$output_processor@_WV?$string_output_adapter@_W@__crt_stdio_output@@V?$standard_base@_WV?$string_output_adapter@_W@__crt_stdio_output@@@2@@__crt_stdio_output@@AAEXI@Z 1007c040 f i libucrt:output.obj
 0001:0007b04f       ?should_format@?$positional_parameter_base@DV?$stream_output_adapter@D@__crt_stdio_output@@@__crt_stdio_output@@IAE_NXZ 1007c04f f i libucrt:output.obj
 0001:0007b065       ?should_format@?$positional_parameter_base@DV?$string_output_adapter@D@__crt_stdio_output@@@__crt_stdio_output@@IAE_NXZ 1007c065 f i libucrt:output.obj
 0001:0007b07b       ?should_format@?$positional_parameter_base@_WV?$stream_output_adapter@_W@__crt_stdio_output@@@__crt_stdio_output@@IAE_NXZ 1007c07b f i libucrt:output.obj
 0001:0007b091       ?should_format@?$positional_parameter_base@_WV?$string_output_adapter@_W@__crt_stdio_output@@@__crt_stdio_output@@IAE_NXZ 1007c091 f i libucrt:output.obj
 0001:0007b0a7       ?should_format@?$standard_base@DV?$stream_output_adapter@D@__crt_stdio_output@@@__crt_stdio_output@@IAE_NXZ 1007c0a7 f i libucrt:output.obj
 0001:0007b0aa       ?should_format@?$standard_base@DV?$string_output_adapter@D@__crt_stdio_output@@@__crt_stdio_output@@IAE_NXZ 1007c0aa f i libucrt:output.obj
 0001:0007b0ad       ?should_format@?$standard_base@_WV?$stream_output_adapter@_W@__crt_stdio_output@@@__crt_stdio_output@@IAE_NXZ 1007c0ad f i libucrt:output.obj
 0001:0007b0b0       ?should_format@?$standard_base@_WV?$string_output_adapter@_W@__crt_stdio_output@@@__crt_stdio_output@@IAE_NXZ 1007c0b0 f i libucrt:output.obj
 0001:0007b0b3       ?should_skip_normal_state_processing@?$positional_parameter_base@DV?$stream_output_adapter@D@__crt_stdio_output@@@__crt_stdio_output@@IAE_NXZ 1007c0b3 f i libucrt:output.obj
 0001:0007b0db       ?should_skip_normal_state_processing@?$positional_parameter_base@DV?$string_output_adapter@D@__crt_stdio_output@@@__crt_stdio_output@@IAE_NXZ 1007c0db f i libucrt:output.obj
 0001:0007b103       ?should_skip_normal_state_processing@?$positional_parameter_base@_WV?$stream_output_adapter@_W@__crt_stdio_output@@@__crt_stdio_output@@IAE_NXZ 1007c103 f i libucrt:output.obj
 0001:0007b12b       ?should_skip_normal_state_processing@?$positional_parameter_base@_WV?$string_output_adapter@_W@__crt_stdio_output@@@__crt_stdio_output@@IAE_NXZ 1007c12b f i libucrt:output.obj
 0001:0007b153       ?should_skip_normal_state_processing@?$standard_base@DV?$stream_output_adapter@D@__crt_stdio_output@@@__crt_stdio_output@@IAE_NXZ 1007c153 f i libucrt:output.obj
 0001:0007b156       ?should_skip_normal_state_processing@?$standard_base@DV?$string_output_adapter@D@__crt_stdio_output@@@__crt_stdio_output@@IAE_NXZ 1007c156 f i libucrt:output.obj
 0001:0007b159       ?should_skip_normal_state_processing@?$standard_base@_WV?$stream_output_adapter@_W@__crt_stdio_output@@@__crt_stdio_output@@IAE_NXZ 1007c159 f i libucrt:output.obj
 0001:0007b15c       ?should_skip_normal_state_processing@?$standard_base@_WV?$string_output_adapter@_W@__crt_stdio_output@@@__crt_stdio_output@@IAE_NXZ 1007c15c f i libucrt:output.obj
 0001:0007b15f       ?should_skip_type_state_output@?$positional_parameter_base@DV?$stream_output_adapter@D@__crt_stdio_output@@@__crt_stdio_output@@IBE_NXZ 1007c15f f i libucrt:output.obj
 0001:0007b176       ?should_skip_type_state_output@?$positional_parameter_base@DV?$string_output_adapter@D@__crt_stdio_output@@@__crt_stdio_output@@IBE_NXZ 1007c176 f i libucrt:output.obj
 0001:0007b18d       ?should_skip_type_state_output@?$positional_parameter_base@_WV?$stream_output_adapter@_W@__crt_stdio_output@@@__crt_stdio_output@@IBE_NXZ 1007c18d f i libucrt:output.obj
 0001:0007b1a4       ?should_skip_type_state_output@?$positional_parameter_base@_WV?$string_output_adapter@_W@__crt_stdio_output@@@__crt_stdio_output@@IBE_NXZ 1007c1a4 f i libucrt:output.obj
 0001:0007b1bb       ?should_skip_type_state_output@?$standard_base@DV?$stream_output_adapter@D@__crt_stdio_output@@@__crt_stdio_output@@IBE_NXZ 1007c1bb f i libucrt:output.obj
 0001:0007b1be       ?should_skip_type_state_output@?$standard_base@DV?$string_output_adapter@D@__crt_stdio_output@@@__crt_stdio_output@@IBE_NXZ 1007c1be f i libucrt:output.obj
 0001:0007b1c1       ?should_skip_type_state_output@?$standard_base@_WV?$stream_output_adapter@_W@__crt_stdio_output@@@__crt_stdio_output@@IBE_NXZ 1007c1c1 f i libucrt:output.obj
 0001:0007b1c4       ?should_skip_type_state_output@?$standard_base@_WV?$string_output_adapter@_W@__crt_stdio_output@@@__crt_stdio_output@@IBE_NXZ 1007c1c4 f i libucrt:output.obj
 0001:0007b1c7       ?state_case_dot@?$output_processor@DV?$stream_output_adapter@D@__crt_stdio_output@@V?$format_validation_base@DV?$stream_output_adapter@D@__crt_stdio_output@@@2@@__crt_stdio_output@@AAE_NXZ 1007c1c7 f i libucrt:output.obj
 0001:0007b1ce       ?state_case_dot@?$output_processor@DV?$stream_output_adapter@D@__crt_stdio_output@@V?$positional_parameter_base@DV?$stream_output_adapter@D@__crt_stdio_output@@@2@@__crt_stdio_output@@AAE_NXZ 1007c1ce f i libucrt:output.obj
 0001:0007b1d5       ?state_case_dot@?$output_processor@DV?$stream_output_adapter@D@__crt_stdio_output@@V?$standard_base@DV?$stream_output_adapter@D@__crt_stdio_output@@@2@@__crt_stdio_output@@AAE_NXZ 1007c1d5 f i libucrt:output.obj
 0001:0007b1dc       ?state_case_dot@?$output_processor@DV?$string_output_adapter@D@__crt_stdio_output@@V?$format_validation_base@DV?$string_output_adapter@D@__crt_stdio_output@@@2@@__crt_stdio_output@@AAE_NXZ 1007c1dc f i libucrt:output.obj
 0001:0007b1e3       ?state_case_dot@?$output_processor@DV?$string_output_adapter@D@__crt_stdio_output@@V?$positional_parameter_base@DV?$string_output_adapter@D@__crt_stdio_output@@@2@@__crt_stdio_output@@AAE_NXZ 1007c1e3 f i libucrt:output.obj
 0001:0007b1ea       ?state_case_dot@?$output_processor@DV?$string_output_adapter@D@__crt_stdio_output@@V?$standard_base@DV?$string_output_adapter@D@__crt_stdio_output@@@2@@__crt_stdio_output@@AAE_NXZ 1007c1ea f i libucrt:output.obj
 0001:0007b1f1       ?state_case_dot@?$output_processor@_WV?$stream_output_adapter@_W@__crt_stdio_output@@V?$format_validation_base@_WV?$stream_output_adapter@_W@__crt_stdio_output@@@2@@__crt_stdio_output@@AAE_NXZ 1007c1f1 f i libucrt:output.obj
